ARM GAS  C:\Users\puria\AppData\Local\Temp\cc5eK9ZY.s 			page 1


   1              		.syntax unified
   2              		.cpu cortex-m0
   3              		.fpu softvfp
   4              		.eabi_attribute 20, 1
   5              		.eabi_attribute 21, 1
   6              		.eabi_attribute 23, 3
   7              		.eabi_attribute 24, 1
   8              		.eabi_attribute 25, 1
   9              		.eabi_attribute 26, 1
  10              		.eabi_attribute 30, 6
  11              		.eabi_attribute 34, 0
  12              		.eabi_attribute 18, 4
  13              		.thumb
  14              		.syntax unified
  15              		.file	"BLE_1_bas.c"
  16              		.text
  17              	.Ltext0:
  18              		.cfi_sections	.debug_frame
  19              		.bss
  20              		.align	2
  21              	CyBle_BasApplCallback:
  22 0000 00000000 		.space	4
  23              		.global	cyBle_bass
  24              		.section	.rodata
  25              		.align	2
  26              		.type	cyBle_bass, %object
  27              		.size	cyBle_bass, 8
  28              	cyBle_bass:
  29 0000 3B00     		.short	59
  30 0002 3D00     		.short	61
  31 0004 3E00     		.short	62
  32 0006 3F00     		.short	63
  33              		.section	.text.CyBle_BasInit,"ax",%progbits
  34              		.align	2
  35              		.global	CyBle_BasInit
  36              		.code	16
  37              		.thumb_func
  38              		.type	CyBle_BasInit, %function
  39              	CyBle_BasInit:
  40              	.LFB2:
  41              		.file 1 "Generated_Source\\PSoC4\\BLE_1_bas.c"
   1:Generated_Source\PSoC4/BLE_1_bas.c **** /***************************************************************************//**
   2:Generated_Source\PSoC4/BLE_1_bas.c **** * \file CYBLE_bas.c
   3:Generated_Source\PSoC4/BLE_1_bas.c **** * \version 3.30
   4:Generated_Source\PSoC4/BLE_1_bas.c **** * 
   5:Generated_Source\PSoC4/BLE_1_bas.c **** * \brief
   6:Generated_Source\PSoC4/BLE_1_bas.c **** *  Contains the source code for Battery Service.
   7:Generated_Source\PSoC4/BLE_1_bas.c **** * 
   8:Generated_Source\PSoC4/BLE_1_bas.c **** ********************************************************************************
   9:Generated_Source\PSoC4/BLE_1_bas.c **** * \copyright
  10:Generated_Source\PSoC4/BLE_1_bas.c **** * Copyright 2014-2016, Cypress Semiconductor Corporation.  All rights reserved.
  11:Generated_Source\PSoC4/BLE_1_bas.c **** * You may use this file only in accordance with the license, terms, conditions,
  12:Generated_Source\PSoC4/BLE_1_bas.c **** * disclaimers, and limitations in the end user license agreement accompanying
  13:Generated_Source\PSoC4/BLE_1_bas.c **** * the software package with which this file was provided.
  14:Generated_Source\PSoC4/BLE_1_bas.c **** *******************************************************************************/
  15:Generated_Source\PSoC4/BLE_1_bas.c **** 
  16:Generated_Source\PSoC4/BLE_1_bas.c **** 
ARM GAS  C:\Users\puria\AppData\Local\Temp\cc5eK9ZY.s 			page 2


  17:Generated_Source\PSoC4/BLE_1_bas.c **** #include "BLE_1_eventHandler.h"
  18:Generated_Source\PSoC4/BLE_1_bas.c **** 
  19:Generated_Source\PSoC4/BLE_1_bas.c **** static CYBLE_CALLBACK_T CyBle_BasApplCallback = NULL;
  20:Generated_Source\PSoC4/BLE_1_bas.c **** 
  21:Generated_Source\PSoC4/BLE_1_bas.c **** #ifdef CYBLE_BAS_SERVER
  22:Generated_Source\PSoC4/BLE_1_bas.c **** 
  23:Generated_Source\PSoC4/BLE_1_bas.c **** const CYBLE_BASS_T cyBle_bass[0x01u] = {
  24:Generated_Source\PSoC4/BLE_1_bas.c ****     {
  25:Generated_Source\PSoC4/BLE_1_bas.c ****         0x003Bu, /* Handle of the BAS service */ 
  26:Generated_Source\PSoC4/BLE_1_bas.c ****         0x003Du, /* Handle of the Battery Level characteristic */ 
  27:Generated_Source\PSoC4/BLE_1_bas.c ****         0x003Eu, /* Handle of the Characteristic Presentation Format descriptor */ 
  28:Generated_Source\PSoC4/BLE_1_bas.c ****         0x003Fu, /* Handle of the Client Characteristic Configuration descriptor */ 
  29:Generated_Source\PSoC4/BLE_1_bas.c ****     },
  30:Generated_Source\PSoC4/BLE_1_bas.c **** };
  31:Generated_Source\PSoC4/BLE_1_bas.c **** 
  32:Generated_Source\PSoC4/BLE_1_bas.c **** 
  33:Generated_Source\PSoC4/BLE_1_bas.c **** #endif /* CYBLE_BAS_SERVER */
  34:Generated_Source\PSoC4/BLE_1_bas.c **** 
  35:Generated_Source\PSoC4/BLE_1_bas.c **** #ifdef CYBLE_BAS_CLIENT
  36:Generated_Source\PSoC4/BLE_1_bas.c **** 
  37:Generated_Source\PSoC4/BLE_1_bas.c **** CYBLE_BASC_T cyBle_basc[CYBLE_BASC_SERVICE_COUNT];
  38:Generated_Source\PSoC4/BLE_1_bas.c **** static CYBLE_GATT_DB_ATTR_HANDLE_T cyBle_bascReqHandle;
  39:Generated_Source\PSoC4/BLE_1_bas.c **** 
  40:Generated_Source\PSoC4/BLE_1_bas.c **** #endif /* (CYBLE_BAS_CLIENT) */
  41:Generated_Source\PSoC4/BLE_1_bas.c **** 
  42:Generated_Source\PSoC4/BLE_1_bas.c **** 
  43:Generated_Source\PSoC4/BLE_1_bas.c **** /******************************************************************************
  44:Generated_Source\PSoC4/BLE_1_bas.c **** * Function Name: CyBle_BasInit
  45:Generated_Source\PSoC4/BLE_1_bas.c **** ***************************************************************************//**
  46:Generated_Source\PSoC4/BLE_1_bas.c **** * 
  47:Generated_Source\PSoC4/BLE_1_bas.c **** *  This function initializes the BAS Service.
  48:Generated_Source\PSoC4/BLE_1_bas.c **** *
  49:Generated_Source\PSoC4/BLE_1_bas.c **** ******************************************************************************/
  50:Generated_Source\PSoC4/BLE_1_bas.c **** void CyBle_BasInit(void)
  51:Generated_Source\PSoC4/BLE_1_bas.c **** {
  42              		.loc 1 51 0
  43              		.cfi_startproc
  44              		@ args = 0, pretend = 0, frame = 0
  45              		@ frame_needed = 1, uses_anonymous_args = 0
  46 0000 80B5     		push	{r7, lr}
  47              		.cfi_def_cfa_offset 8
  48              		.cfi_offset 7, -8
  49              		.cfi_offset 14, -4
  50 0002 00AF     		add	r7, sp, #0
  51              		.cfi_def_cfa_register 7
  52:Generated_Source\PSoC4/BLE_1_bas.c **** 
  53:Generated_Source\PSoC4/BLE_1_bas.c **** #ifdef CYBLE_BAS_CLIENT
  54:Generated_Source\PSoC4/BLE_1_bas.c **** 
  55:Generated_Source\PSoC4/BLE_1_bas.c ****     uint8 locServIndex;
  56:Generated_Source\PSoC4/BLE_1_bas.c ****     for(locServIndex = 0u; locServIndex < CYBLE_BASC_SERVICE_COUNT; locServIndex++)
  57:Generated_Source\PSoC4/BLE_1_bas.c ****     {
  58:Generated_Source\PSoC4/BLE_1_bas.c ****         if(cyBle_serverInfo[CYBLE_SRVI_BAS + locServIndex].range.startHandle == CYBLE_GATT_INVALID_
  59:Generated_Source\PSoC4/BLE_1_bas.c ****         {
  60:Generated_Source\PSoC4/BLE_1_bas.c ****             (void)memset(&cyBle_basc[locServIndex], 0, sizeof(cyBle_basc[locServIndex]));
  61:Generated_Source\PSoC4/BLE_1_bas.c ****         }
  62:Generated_Source\PSoC4/BLE_1_bas.c ****     }
  63:Generated_Source\PSoC4/BLE_1_bas.c ****     cyBle_bascReqHandle = CYBLE_GATT_INVALID_ATTR_HANDLE_VALUE;
ARM GAS  C:\Users\puria\AppData\Local\Temp\cc5eK9ZY.s 			page 3


  64:Generated_Source\PSoC4/BLE_1_bas.c **** 
  65:Generated_Source\PSoC4/BLE_1_bas.c **** #endif /* CYBLE_BAS_CLIENT */
  66:Generated_Source\PSoC4/BLE_1_bas.c **** }
  52              		.loc 1 66 0
  53 0004 C046     		nop
  54 0006 BD46     		mov	sp, r7
  55              		@ sp needed
  56 0008 80BD     		pop	{r7, pc}
  57              		.cfi_endproc
  58              	.LFE2:
  59              		.size	CyBle_BasInit, .-CyBle_BasInit
  60 000a C046     		.section	.text.CyBle_BasRegisterAttrCallback,"ax",%progbits
  61              		.align	2
  62              		.global	CyBle_BasRegisterAttrCallback
  63              		.code	16
  64              		.thumb_func
  65              		.type	CyBle_BasRegisterAttrCallback, %function
  66              	CyBle_BasRegisterAttrCallback:
  67              	.LFB3:
  67:Generated_Source\PSoC4/BLE_1_bas.c **** 
  68:Generated_Source\PSoC4/BLE_1_bas.c **** 
  69:Generated_Source\PSoC4/BLE_1_bas.c **** /******************************************************************************
  70:Generated_Source\PSoC4/BLE_1_bas.c **** * Function Name: CyBle_BasRegisterAttrCallback
  71:Generated_Source\PSoC4/BLE_1_bas.c **** ***************************************************************************//**
  72:Generated_Source\PSoC4/BLE_1_bas.c **** * 
  73:Generated_Source\PSoC4/BLE_1_bas.c **** *  Registers a callback function for service specific attribute operations.
  74:Generated_Source\PSoC4/BLE_1_bas.c **** *  Service specific write requests from peer device will not be handled with
  75:Generated_Source\PSoC4/BLE_1_bas.c **** *  unregistered callback function.
  76:Generated_Source\PSoC4/BLE_1_bas.c **** * 
  77:Generated_Source\PSoC4/BLE_1_bas.c **** *  \param callbackFunc: An application layer event callback function to receive 
  78:Generated_Source\PSoC4/BLE_1_bas.c **** *                    battery service events from the BLE Component. The
  79:Generated_Source\PSoC4/BLE_1_bas.c **** *                    definition of CYBLE_CALLBACK_T for Battery Service is,\n                 
  80:Generated_Source\PSoC4/BLE_1_bas.c **** *                    typedef void (* CYBLE_CALLBACK_T) (uint32 eventCode, 
  81:Generated_Source\PSoC4/BLE_1_bas.c **** *                                                         void *eventParam)                        
  82:Generated_Source\PSoC4/BLE_1_bas.c **** *                    * eventCode indicates the event that triggered this 
  83:Generated_Source\PSoC4/BLE_1_bas.c **** *                       callback (e.g. CYBLE_EVT_BASS_NOTIFICATION_ENABLED)
  84:Generated_Source\PSoC4/BLE_1_bas.c **** *                    * eventParam contains the parameters corresponding to the
  85:Generated_Source\PSoC4/BLE_1_bas.c **** *                       current event (e.g., pointer to CYBLE_BAS_CHAR_VALUE_T
  86:Generated_Source\PSoC4/BLE_1_bas.c **** *                       structure that contains details of the characteristic 
  87:Generated_Source\PSoC4/BLE_1_bas.c **** *                       for which notification enabled event was triggered)
  88:Generated_Source\PSoC4/BLE_1_bas.c **** * 
  89:Generated_Source\PSoC4/BLE_1_bas.c **** * \sideeffect The *eventParams in the callback function should not be used 
  90:Generated_Source\PSoC4/BLE_1_bas.c **** *                by the application once the callback function execution is 
  91:Generated_Source\PSoC4/BLE_1_bas.c **** *                finished. Otherwise this data may become corrupted.
  92:Generated_Source\PSoC4/BLE_1_bas.c **** * 
  93:Generated_Source\PSoC4/BLE_1_bas.c **** ******************************************************************************/
  94:Generated_Source\PSoC4/BLE_1_bas.c **** void CyBle_BasRegisterAttrCallback(CYBLE_CALLBACK_T callbackFunc)
  95:Generated_Source\PSoC4/BLE_1_bas.c **** {
  68              		.loc 1 95 0
  69              		.cfi_startproc
  70              		@ args = 0, pretend = 0, frame = 8
  71              		@ frame_needed = 1, uses_anonymous_args = 0
  72 0000 80B5     		push	{r7, lr}
  73              		.cfi_def_cfa_offset 8
  74              		.cfi_offset 7, -8
  75              		.cfi_offset 14, -4
  76 0002 82B0     		sub	sp, sp, #8
ARM GAS  C:\Users\puria\AppData\Local\Temp\cc5eK9ZY.s 			page 4


  77              		.cfi_def_cfa_offset 16
  78 0004 00AF     		add	r7, sp, #0
  79              		.cfi_def_cfa_register 7
  80 0006 7860     		str	r0, [r7, #4]
  96:Generated_Source\PSoC4/BLE_1_bas.c ****     CyBle_BasApplCallback = callbackFunc;
  81              		.loc 1 96 0
  82 0008 034B     		ldr	r3, .L3
  83 000a 7A68     		ldr	r2, [r7, #4]
  84 000c 1A60     		str	r2, [r3]
  97:Generated_Source\PSoC4/BLE_1_bas.c **** }
  85              		.loc 1 97 0
  86 000e C046     		nop
  87 0010 BD46     		mov	sp, r7
  88 0012 02B0     		add	sp, sp, #8
  89              		@ sp needed
  90 0014 80BD     		pop	{r7, pc}
  91              	.L4:
  92 0016 C046     		.align	2
  93              	.L3:
  94 0018 00000000 		.word	CyBle_BasApplCallback
  95              		.cfi_endproc
  96              	.LFE3:
  97              		.size	CyBle_BasRegisterAttrCallback, .-CyBle_BasRegisterAttrCallback
  98              		.section	.text.CyBle_BassSetCharacteristicValue,"ax",%progbits
  99              		.align	2
 100              		.global	CyBle_BassSetCharacteristicValue
 101              		.code	16
 102              		.thumb_func
 103              		.type	CyBle_BassSetCharacteristicValue, %function
 104              	CyBle_BassSetCharacteristicValue:
 105              	.LFB4:
  98:Generated_Source\PSoC4/BLE_1_bas.c **** 
  99:Generated_Source\PSoC4/BLE_1_bas.c **** #ifdef CYBLE_BAS_SERVER
 100:Generated_Source\PSoC4/BLE_1_bas.c **** 
 101:Generated_Source\PSoC4/BLE_1_bas.c **** 
 102:Generated_Source\PSoC4/BLE_1_bas.c **** /******************************************************************************
 103:Generated_Source\PSoC4/BLE_1_bas.c **** * Function Name: CyBle_BassSetCharacteristicValue
 104:Generated_Source\PSoC4/BLE_1_bas.c **** ***************************************************************************//**
 105:Generated_Source\PSoC4/BLE_1_bas.c **** * 
 106:Generated_Source\PSoC4/BLE_1_bas.c **** *  Sets a characteristic value of the service in the local database.
 107:Generated_Source\PSoC4/BLE_1_bas.c **** * 
 108:Generated_Source\PSoC4/BLE_1_bas.c **** *  \param serviceIndex: The index of the service instance.
 109:Generated_Source\PSoC4/BLE_1_bas.c **** *  \param charIndex: The index of the service characteristic of type 
 110:Generated_Source\PSoC4/BLE_1_bas.c **** *              CYBLE_BAS_CHAR_INDEX_T.
 111:Generated_Source\PSoC4/BLE_1_bas.c **** *  \param attrSize: The size of the characteristic value attribute. A battery level
 112:Generated_Source\PSoC4/BLE_1_bas.c **** *             characteristic has 1 byte length.
 113:Generated_Source\PSoC4/BLE_1_bas.c **** *  \param attrValue: The pointer to the characteristic value data that should be
 114:Generated_Source\PSoC4/BLE_1_bas.c **** *               stored to the GATT database.
 115:Generated_Source\PSoC4/BLE_1_bas.c **** * 
 116:Generated_Source\PSoC4/BLE_1_bas.c **** * \return
 117:Generated_Source\PSoC4/BLE_1_bas.c **** *  Return value is of type CYBLE_API_RESULT_T.
 118:Generated_Source\PSoC4/BLE_1_bas.c **** *  * CYBLE_ERROR_OK - The request handled successfully
 119:Generated_Source\PSoC4/BLE_1_bas.c **** *  * CYBLE_ERROR_INVALID_PARAMETER - Validation of the input parameter failed
 120:Generated_Source\PSoC4/BLE_1_bas.c **** *
 121:Generated_Source\PSoC4/BLE_1_bas.c **** ******************************************************************************/
 122:Generated_Source\PSoC4/BLE_1_bas.c **** CYBLE_API_RESULT_T CyBle_BassSetCharacteristicValue(uint8 serviceIndex, CYBLE_BAS_CHAR_INDEX_T char
 123:Generated_Source\PSoC4/BLE_1_bas.c ****     uint8 attrSize, uint8 *attrValue)
ARM GAS  C:\Users\puria\AppData\Local\Temp\cc5eK9ZY.s 			page 5


 124:Generated_Source\PSoC4/BLE_1_bas.c **** {
 106              		.loc 1 124 0
 107              		.cfi_startproc
 108              		@ args = 0, pretend = 0, frame = 24
 109              		@ frame_needed = 1, uses_anonymous_args = 0
 110 0000 90B5     		push	{r4, r7, lr}
 111              		.cfi_def_cfa_offset 12
 112              		.cfi_offset 4, -12
 113              		.cfi_offset 7, -8
 114              		.cfi_offset 14, -4
 115 0002 87B0     		sub	sp, sp, #28
 116              		.cfi_def_cfa_offset 40
 117 0004 00AF     		add	r7, sp, #0
 118              		.cfi_def_cfa_register 7
 119 0006 0400     		movs	r4, r0
 120 0008 0800     		movs	r0, r1
 121 000a 1100     		movs	r1, r2
 122 000c 3B60     		str	r3, [r7]
 123 000e FB1D     		adds	r3, r7, #7
 124 0010 221C     		adds	r2, r4, #0
 125 0012 1A70     		strb	r2, [r3]
 126 0014 BB1D     		adds	r3, r7, #6
 127 0016 021C     		adds	r2, r0, #0
 128 0018 1A70     		strb	r2, [r3]
 129 001a 7B1D     		adds	r3, r7, #5
 130 001c 0A1C     		adds	r2, r1, #0
 131 001e 1A70     		strb	r2, [r3]
 125:Generated_Source\PSoC4/BLE_1_bas.c ****     CYBLE_API_RESULT_T apiResult = CYBLE_ERROR_OK;
 132              		.loc 1 125 0
 133 0020 1623     		movs	r3, #22
 134 0022 FB18     		adds	r3, r7, r3
 135 0024 0022     		movs	r2, #0
 136 0026 1A80     		strh	r2, [r3]
 126:Generated_Source\PSoC4/BLE_1_bas.c ****     CYBLE_GATT_HANDLE_VALUE_PAIR_T locHandleValuePair;
 127:Generated_Source\PSoC4/BLE_1_bas.c **** 
 128:Generated_Source\PSoC4/BLE_1_bas.c ****     if((serviceIndex >= CYBLE_BASS_SERVICE_COUNT) || (charIndex >= CYBLE_BAS_CHAR_COUNT) ||
 137              		.loc 1 128 0
 138 0028 FB1D     		adds	r3, r7, #7
 139 002a 1B78     		ldrb	r3, [r3]
 140 002c 002B     		cmp	r3, #0
 141 002e 0BD1     		bne	.L6
 142              		.loc 1 128 0 is_stmt 0 discriminator 1
 143 0030 BB1D     		adds	r3, r7, #6
 144 0032 1B78     		ldrb	r3, [r3]
 145 0034 002B     		cmp	r3, #0
 146 0036 07D1     		bne	.L6
 147              		.loc 1 128 0 discriminator 2
 148 0038 7B1D     		adds	r3, r7, #5
 149 003a 1B78     		ldrb	r3, [r3]
 150 003c 012B     		cmp	r3, #1
 151 003e 03D1     		bne	.L6
 129:Generated_Source\PSoC4/BLE_1_bas.c ****        (attrSize != CYBLE_BAS_BATTERY_LEVEL_LEN) || (*attrValue > CYBLE_BAS_MAX_BATTERY_LEVEL_VALUE
 152              		.loc 1 129 0 is_stmt 1
 153 0040 3B68     		ldr	r3, [r7]
 154 0042 1B78     		ldrb	r3, [r3]
 155 0044 642B     		cmp	r3, #100
 156 0046 04D9     		bls	.L7
ARM GAS  C:\Users\puria\AppData\Local\Temp\cc5eK9ZY.s 			page 6


 157              	.L6:
 130:Generated_Source\PSoC4/BLE_1_bas.c ****     {
 131:Generated_Source\PSoC4/BLE_1_bas.c ****         apiResult = CYBLE_ERROR_INVALID_PARAMETER;
 158              		.loc 1 131 0
 159 0048 1623     		movs	r3, #22
 160 004a FB18     		adds	r3, r7, r3
 161 004c 0122     		movs	r2, #1
 162 004e 1A80     		strh	r2, [r3]
 163 0050 20E0     		b	.L8
 164              	.L7:
 132:Generated_Source\PSoC4/BLE_1_bas.c ****     }
 133:Generated_Source\PSoC4/BLE_1_bas.c ****     else
 134:Generated_Source\PSoC4/BLE_1_bas.c ****     {
 135:Generated_Source\PSoC4/BLE_1_bas.c ****         /* Store data in database */
 136:Generated_Source\PSoC4/BLE_1_bas.c ****         locHandleValuePair.attrHandle = cyBle_bass[serviceIndex].batteryLevelHandle;
 165              		.loc 1 136 0
 166 0052 FB1D     		adds	r3, r7, #7
 167 0054 1B78     		ldrb	r3, [r3]
 168 0056 134A     		ldr	r2, .L10
 169 0058 DB00     		lsls	r3, r3, #3
 170 005a D318     		adds	r3, r2, r3
 171 005c 0233     		adds	r3, r3, #2
 172 005e 1A88     		ldrh	r2, [r3]
 173 0060 0823     		movs	r3, #8
 174 0062 FB18     		adds	r3, r7, r3
 175 0064 1A81     		strh	r2, [r3, #8]
 137:Generated_Source\PSoC4/BLE_1_bas.c ****         locHandleValuePair.value.len = attrSize;
 176              		.loc 1 137 0
 177 0066 7B1D     		adds	r3, r7, #5
 178 0068 1B78     		ldrb	r3, [r3]
 179 006a 9AB2     		uxth	r2, r3
 180 006c 0823     		movs	r3, #8
 181 006e FB18     		adds	r3, r7, r3
 182 0070 9A80     		strh	r2, [r3, #4]
 138:Generated_Source\PSoC4/BLE_1_bas.c ****         locHandleValuePair.value.val = attrValue;
 183              		.loc 1 138 0
 184 0072 0823     		movs	r3, #8
 185 0074 FB18     		adds	r3, r7, r3
 186 0076 3A68     		ldr	r2, [r7]
 187 0078 1A60     		str	r2, [r3]
 139:Generated_Source\PSoC4/BLE_1_bas.c ****         if(CYBLE_GATT_ERR_NONE !=
 140:Generated_Source\PSoC4/BLE_1_bas.c ****             CyBle_GattsWriteAttributeValue(&locHandleValuePair, 0u, NULL, CYBLE_GATT_DB_LOCALLY_INI
 188              		.loc 1 140 0
 189 007a 0823     		movs	r3, #8
 190 007c F818     		adds	r0, r7, r3
 191 007e 0023     		movs	r3, #0
 192 0080 0022     		movs	r2, #0
 193 0082 0021     		movs	r1, #0
 194 0084 FFF7FEFF 		bl	CyBle_GattsWriteAttributeValue
 195 0088 031E     		subs	r3, r0, #0
 139:Generated_Source\PSoC4/BLE_1_bas.c ****         if(CYBLE_GATT_ERR_NONE !=
 196              		.loc 1 139 0
 197 008a 03D0     		beq	.L8
 141:Generated_Source\PSoC4/BLE_1_bas.c ****         {
 142:Generated_Source\PSoC4/BLE_1_bas.c ****             apiResult = CYBLE_ERROR_INVALID_PARAMETER;
 198              		.loc 1 142 0
 199 008c 1623     		movs	r3, #22
ARM GAS  C:\Users\puria\AppData\Local\Temp\cc5eK9ZY.s 			page 7


 200 008e FB18     		adds	r3, r7, r3
 201 0090 0122     		movs	r2, #1
 202 0092 1A80     		strh	r2, [r3]
 203              	.L8:
 143:Generated_Source\PSoC4/BLE_1_bas.c ****         }
 144:Generated_Source\PSoC4/BLE_1_bas.c ****     }
 145:Generated_Source\PSoC4/BLE_1_bas.c ****     return (apiResult);
 204              		.loc 1 145 0
 205 0094 1623     		movs	r3, #22
 206 0096 FB18     		adds	r3, r7, r3
 207 0098 1B88     		ldrh	r3, [r3]
 146:Generated_Source\PSoC4/BLE_1_bas.c **** }
 208              		.loc 1 146 0
 209 009a 1800     		movs	r0, r3
 210 009c BD46     		mov	sp, r7
 211 009e 07B0     		add	sp, sp, #28
 212              		@ sp needed
 213 00a0 90BD     		pop	{r4, r7, pc}
 214              	.L11:
 215 00a2 C046     		.align	2
 216              	.L10:
 217 00a4 00000000 		.word	cyBle_bass
 218              		.cfi_endproc
 219              	.LFE4:
 220              		.size	CyBle_BassSetCharacteristicValue, .-CyBle_BassSetCharacteristicValue
 221              		.section	.text.CyBle_BassGetCharacteristicValue,"ax",%progbits
 222              		.align	2
 223              		.global	CyBle_BassGetCharacteristicValue
 224              		.code	16
 225              		.thumb_func
 226              		.type	CyBle_BassGetCharacteristicValue, %function
 227              	CyBle_BassGetCharacteristicValue:
 228              	.LFB5:
 147:Generated_Source\PSoC4/BLE_1_bas.c **** 
 148:Generated_Source\PSoC4/BLE_1_bas.c **** 
 149:Generated_Source\PSoC4/BLE_1_bas.c **** /******************************************************************************
 150:Generated_Source\PSoC4/BLE_1_bas.c **** * Function Name: CyBle_BassGetCharacteristicValue
 151:Generated_Source\PSoC4/BLE_1_bas.c **** ***************************************************************************//**
 152:Generated_Source\PSoC4/BLE_1_bas.c **** * 
 153:Generated_Source\PSoC4/BLE_1_bas.c **** *  Gets a characteristic value of the Battery service, which is identified by 
 154:Generated_Source\PSoC4/BLE_1_bas.c **** *  charIndex.
 155:Generated_Source\PSoC4/BLE_1_bas.c **** * 
 156:Generated_Source\PSoC4/BLE_1_bas.c **** *  \param serviceIndex: The index of the service instance. e.g. If two Battery Services
 157:Generated_Source\PSoC4/BLE_1_bas.c **** *                 are supported in your design, then first service will be 
 158:Generated_Source\PSoC4/BLE_1_bas.c **** *                 identified by serviceIndex of 0 and the second by serviceIndex
 159:Generated_Source\PSoC4/BLE_1_bas.c **** *                 of 1.
 160:Generated_Source\PSoC4/BLE_1_bas.c **** *  \param charIndex: The index of a service characteristic of type CYBLE_BAS_CHAR_INDEX_T.
 161:Generated_Source\PSoC4/BLE_1_bas.c **** *  \param attrSize: The size of the characteristic value attribute. A battery level
 162:Generated_Source\PSoC4/BLE_1_bas.c **** *             characteristic has a 1 byte length.
 163:Generated_Source\PSoC4/BLE_1_bas.c **** *  \param attrValue: The pointer to the location where characteristic value data
 164:Generated_Source\PSoC4/BLE_1_bas.c **** *               should be stored.
 165:Generated_Source\PSoC4/BLE_1_bas.c **** * 
 166:Generated_Source\PSoC4/BLE_1_bas.c **** * \return
 167:Generated_Source\PSoC4/BLE_1_bas.c **** *  Return value is of type CYBLE_API_RESULT_T.
 168:Generated_Source\PSoC4/BLE_1_bas.c **** *  * CYBLE_ERROR_OK - The request handled successfully
 169:Generated_Source\PSoC4/BLE_1_bas.c **** *  * CYBLE_ERROR_INVALID_PARAMETER - Validation of the input parameter failed
 170:Generated_Source\PSoC4/BLE_1_bas.c **** *
ARM GAS  C:\Users\puria\AppData\Local\Temp\cc5eK9ZY.s 			page 8


 171:Generated_Source\PSoC4/BLE_1_bas.c **** ******************************************************************************/
 172:Generated_Source\PSoC4/BLE_1_bas.c **** CYBLE_API_RESULT_T CyBle_BassGetCharacteristicValue(uint8 serviceIndex, CYBLE_BAS_CHAR_INDEX_T char
 173:Generated_Source\PSoC4/BLE_1_bas.c ****     uint8 attrSize, uint8 *attrValue)
 174:Generated_Source\PSoC4/BLE_1_bas.c **** {
 229              		.loc 1 174 0
 230              		.cfi_startproc
 231              		@ args = 0, pretend = 0, frame = 24
 232              		@ frame_needed = 1, uses_anonymous_args = 0
 233 0000 90B5     		push	{r4, r7, lr}
 234              		.cfi_def_cfa_offset 12
 235              		.cfi_offset 4, -12
 236              		.cfi_offset 7, -8
 237              		.cfi_offset 14, -4
 238 0002 87B0     		sub	sp, sp, #28
 239              		.cfi_def_cfa_offset 40
 240 0004 00AF     		add	r7, sp, #0
 241              		.cfi_def_cfa_register 7
 242 0006 0400     		movs	r4, r0
 243 0008 0800     		movs	r0, r1
 244 000a 1100     		movs	r1, r2
 245 000c 3B60     		str	r3, [r7]
 246 000e FB1D     		adds	r3, r7, #7
 247 0010 221C     		adds	r2, r4, #0
 248 0012 1A70     		strb	r2, [r3]
 249 0014 BB1D     		adds	r3, r7, #6
 250 0016 021C     		adds	r2, r0, #0
 251 0018 1A70     		strb	r2, [r3]
 252 001a 7B1D     		adds	r3, r7, #5
 253 001c 0A1C     		adds	r2, r1, #0
 254 001e 1A70     		strb	r2, [r3]
 175:Generated_Source\PSoC4/BLE_1_bas.c ****     CYBLE_API_RESULT_T apiResult = CYBLE_ERROR_OK;
 255              		.loc 1 175 0
 256 0020 1623     		movs	r3, #22
 257 0022 FB18     		adds	r3, r7, r3
 258 0024 0022     		movs	r2, #0
 259 0026 1A80     		strh	r2, [r3]
 176:Generated_Source\PSoC4/BLE_1_bas.c ****     CYBLE_GATT_HANDLE_VALUE_PAIR_T locHandleValuePair;
 177:Generated_Source\PSoC4/BLE_1_bas.c **** 
 178:Generated_Source\PSoC4/BLE_1_bas.c ****     if((serviceIndex >= CYBLE_BASS_SERVICE_COUNT) || (charIndex >= CYBLE_BAS_CHAR_COUNT) ||
 260              		.loc 1 178 0
 261 0028 FB1D     		adds	r3, r7, #7
 262 002a 1B78     		ldrb	r3, [r3]
 263 002c 002B     		cmp	r3, #0
 264 002e 07D1     		bne	.L13
 265              		.loc 1 178 0 is_stmt 0 discriminator 1
 266 0030 BB1D     		adds	r3, r7, #6
 267 0032 1B78     		ldrb	r3, [r3]
 268 0034 002B     		cmp	r3, #0
 269 0036 03D1     		bne	.L13
 270              		.loc 1 178 0 discriminator 2
 271 0038 7B1D     		adds	r3, r7, #5
 272 003a 1B78     		ldrb	r3, [r3]
 273 003c 012B     		cmp	r3, #1
 274 003e 04D0     		beq	.L14
 275              	.L13:
 179:Generated_Source\PSoC4/BLE_1_bas.c ****        (attrSize != CYBLE_BAS_BATTERY_LEVEL_LEN) )
 180:Generated_Source\PSoC4/BLE_1_bas.c ****     {
ARM GAS  C:\Users\puria\AppData\Local\Temp\cc5eK9ZY.s 			page 9


 181:Generated_Source\PSoC4/BLE_1_bas.c ****         apiResult = CYBLE_ERROR_INVALID_PARAMETER;
 276              		.loc 1 181 0 is_stmt 1
 277 0040 1623     		movs	r3, #22
 278 0042 FB18     		adds	r3, r7, r3
 279 0044 0122     		movs	r2, #1
 280 0046 1A80     		strh	r2, [r3]
 281 0048 20E0     		b	.L15
 282              	.L14:
 182:Generated_Source\PSoC4/BLE_1_bas.c ****     }
 183:Generated_Source\PSoC4/BLE_1_bas.c ****     else
 184:Generated_Source\PSoC4/BLE_1_bas.c ****     {
 185:Generated_Source\PSoC4/BLE_1_bas.c ****         /* Read characteristic value from database */
 186:Generated_Source\PSoC4/BLE_1_bas.c ****         locHandleValuePair.attrHandle = cyBle_bass[serviceIndex].batteryLevelHandle;
 283              		.loc 1 186 0
 284 004a FB1D     		adds	r3, r7, #7
 285 004c 1B78     		ldrb	r3, [r3]
 286 004e 134A     		ldr	r2, .L17
 287 0050 DB00     		lsls	r3, r3, #3
 288 0052 D318     		adds	r3, r2, r3
 289 0054 0233     		adds	r3, r3, #2
 290 0056 1A88     		ldrh	r2, [r3]
 291 0058 0823     		movs	r3, #8
 292 005a FB18     		adds	r3, r7, r3
 293 005c 1A81     		strh	r2, [r3, #8]
 187:Generated_Source\PSoC4/BLE_1_bas.c ****         locHandleValuePair.value.len = attrSize;
 294              		.loc 1 187 0
 295 005e 7B1D     		adds	r3, r7, #5
 296 0060 1B78     		ldrb	r3, [r3]
 297 0062 9AB2     		uxth	r2, r3
 298 0064 0823     		movs	r3, #8
 299 0066 FB18     		adds	r3, r7, r3
 300 0068 9A80     		strh	r2, [r3, #4]
 188:Generated_Source\PSoC4/BLE_1_bas.c ****         locHandleValuePair.value.val = attrValue;
 301              		.loc 1 188 0
 302 006a 0823     		movs	r3, #8
 303 006c FB18     		adds	r3, r7, r3
 304 006e 3A68     		ldr	r2, [r7]
 305 0070 1A60     		str	r2, [r3]
 189:Generated_Source\PSoC4/BLE_1_bas.c ****         if(CYBLE_GATT_ERR_NONE !=
 190:Generated_Source\PSoC4/BLE_1_bas.c ****             CyBle_GattsReadAttributeValue(&locHandleValuePair, NULL, CYBLE_GATT_DB_LOCALLY_INITIATE
 306              		.loc 1 190 0
 307 0072 0823     		movs	r3, #8
 308 0074 FB18     		adds	r3, r7, r3
 309 0076 0022     		movs	r2, #0
 310 0078 0021     		movs	r1, #0
 311 007a 1800     		movs	r0, r3
 312 007c FFF7FEFF 		bl	CyBle_GattsReadAttributeValue
 313 0080 031E     		subs	r3, r0, #0
 189:Generated_Source\PSoC4/BLE_1_bas.c ****         if(CYBLE_GATT_ERR_NONE !=
 314              		.loc 1 189 0
 315 0082 03D0     		beq	.L15
 191:Generated_Source\PSoC4/BLE_1_bas.c ****         {
 192:Generated_Source\PSoC4/BLE_1_bas.c ****             apiResult = CYBLE_ERROR_INVALID_PARAMETER;
 316              		.loc 1 192 0
 317 0084 1623     		movs	r3, #22
 318 0086 FB18     		adds	r3, r7, r3
 319 0088 0122     		movs	r2, #1
ARM GAS  C:\Users\puria\AppData\Local\Temp\cc5eK9ZY.s 			page 10


 320 008a 1A80     		strh	r2, [r3]
 321              	.L15:
 193:Generated_Source\PSoC4/BLE_1_bas.c ****         }
 194:Generated_Source\PSoC4/BLE_1_bas.c ****     }
 195:Generated_Source\PSoC4/BLE_1_bas.c ****     return (apiResult);
 322              		.loc 1 195 0
 323 008c 1623     		movs	r3, #22
 324 008e FB18     		adds	r3, r7, r3
 325 0090 1B88     		ldrh	r3, [r3]
 196:Generated_Source\PSoC4/BLE_1_bas.c **** }
 326              		.loc 1 196 0
 327 0092 1800     		movs	r0, r3
 328 0094 BD46     		mov	sp, r7
 329 0096 07B0     		add	sp, sp, #28
 330              		@ sp needed
 331 0098 90BD     		pop	{r4, r7, pc}
 332              	.L18:
 333 009a C046     		.align	2
 334              	.L17:
 335 009c 00000000 		.word	cyBle_bass
 336              		.cfi_endproc
 337              	.LFE5:
 338              		.size	CyBle_BassGetCharacteristicValue, .-CyBle_BassGetCharacteristicValue
 339              		.section	.text.CyBle_BassGetCharacteristicDescriptor,"ax",%progbits
 340              		.align	2
 341              		.global	CyBle_BassGetCharacteristicDescriptor
 342              		.code	16
 343              		.thumb_func
 344              		.type	CyBle_BassGetCharacteristicDescriptor, %function
 345              	CyBle_BassGetCharacteristicDescriptor:
 346              	.LFB6:
 197:Generated_Source\PSoC4/BLE_1_bas.c **** 
 198:Generated_Source\PSoC4/BLE_1_bas.c **** 
 199:Generated_Source\PSoC4/BLE_1_bas.c **** /******************************************************************************
 200:Generated_Source\PSoC4/BLE_1_bas.c **** * Function Name: CyBle_BassGetCharacteristicDescriptor
 201:Generated_Source\PSoC4/BLE_1_bas.c **** ***************************************************************************//**
 202:Generated_Source\PSoC4/BLE_1_bas.c **** * 
 203:Generated_Source\PSoC4/BLE_1_bas.c **** *  Gets a characteristic descriptor of a specified characteristic of the 
 204:Generated_Source\PSoC4/BLE_1_bas.c **** *   Battery service from the local GATT database.
 205:Generated_Source\PSoC4/BLE_1_bas.c **** * 
 206:Generated_Source\PSoC4/BLE_1_bas.c **** *  \param serviceIndex: The index of the service instance. e.g. If two Battery Services
 207:Generated_Source\PSoC4/BLE_1_bas.c **** *                 are supported in your design, then first service will be 
 208:Generated_Source\PSoC4/BLE_1_bas.c **** *                 identified by serviceIndex of 0 and the second by serviceIndex
 209:Generated_Source\PSoC4/BLE_1_bas.c **** *                 of 1.
 210:Generated_Source\PSoC4/BLE_1_bas.c **** *  \param charIndex: The index of a service characteristic of type 
 211:Generated_Source\PSoC4/BLE_1_bas.c **** *              CYBLE_BAS_CHAR_INDEX_T.
 212:Generated_Source\PSoC4/BLE_1_bas.c **** *  \param descrIndex: The index of a service characteristic descriptor of type 
 213:Generated_Source\PSoC4/BLE_1_bas.c **** *               CYBLE_BAS_DESCR_INDEX_T.
 214:Generated_Source\PSoC4/BLE_1_bas.c **** *  \param attrSize: The size of the characteristic descriptor attribute.
 215:Generated_Source\PSoC4/BLE_1_bas.c **** *  \param attrValue: The pointer to the location where characteristic descriptor 
 216:Generated_Source\PSoC4/BLE_1_bas.c **** *               value data should be stored.
 217:Generated_Source\PSoC4/BLE_1_bas.c **** * 
 218:Generated_Source\PSoC4/BLE_1_bas.c **** * \return
 219:Generated_Source\PSoC4/BLE_1_bas.c **** *  Return value is of type CYBLE_API_RESULT_T.
 220:Generated_Source\PSoC4/BLE_1_bas.c **** *  * CYBLE_ERROR_OK - The request handled successfully
 221:Generated_Source\PSoC4/BLE_1_bas.c **** *  * CYBLE_ERROR_INVALID_PARAMETER - Validation of the input parameter failed
 222:Generated_Source\PSoC4/BLE_1_bas.c **** *
ARM GAS  C:\Users\puria\AppData\Local\Temp\cc5eK9ZY.s 			page 11


 223:Generated_Source\PSoC4/BLE_1_bas.c **** ******************************************************************************/
 224:Generated_Source\PSoC4/BLE_1_bas.c **** CYBLE_API_RESULT_T CyBle_BassGetCharacteristicDescriptor(uint8 serviceIndex, CYBLE_BAS_CHAR_INDEX_T
 225:Generated_Source\PSoC4/BLE_1_bas.c ****     CYBLE_BAS_DESCR_INDEX_T descrIndex, uint8 attrSize, uint8 *attrValue)
 226:Generated_Source\PSoC4/BLE_1_bas.c **** {
 347              		.loc 1 226 0
 348              		.cfi_startproc
 349              		@ args = 4, pretend = 0, frame = 24
 350              		@ frame_needed = 1, uses_anonymous_args = 0
 351 0000 B0B5     		push	{r4, r5, r7, lr}
 352              		.cfi_def_cfa_offset 16
 353              		.cfi_offset 4, -16
 354              		.cfi_offset 5, -12
 355              		.cfi_offset 7, -8
 356              		.cfi_offset 14, -4
 357 0002 86B0     		sub	sp, sp, #24
 358              		.cfi_def_cfa_offset 40
 359 0004 00AF     		add	r7, sp, #0
 360              		.cfi_def_cfa_register 7
 361 0006 0500     		movs	r5, r0
 362 0008 0C00     		movs	r4, r1
 363 000a 1000     		movs	r0, r2
 364 000c 1900     		movs	r1, r3
 365 000e FB1D     		adds	r3, r7, #7
 366 0010 2A1C     		adds	r2, r5, #0
 367 0012 1A70     		strb	r2, [r3]
 368 0014 BB1D     		adds	r3, r7, #6
 369 0016 221C     		adds	r2, r4, #0
 370 0018 1A70     		strb	r2, [r3]
 371 001a 7B1D     		adds	r3, r7, #5
 372 001c 021C     		adds	r2, r0, #0
 373 001e 1A70     		strb	r2, [r3]
 374 0020 3B1D     		adds	r3, r7, #4
 375 0022 0A1C     		adds	r2, r1, #0
 376 0024 1A70     		strb	r2, [r3]
 227:Generated_Source\PSoC4/BLE_1_bas.c ****     CYBLE_API_RESULT_T apiResult = CYBLE_ERROR_OK;
 377              		.loc 1 227 0
 378 0026 1623     		movs	r3, #22
 379 0028 FB18     		adds	r3, r7, r3
 380 002a 0022     		movs	r2, #0
 381 002c 1A80     		strh	r2, [r3]
 228:Generated_Source\PSoC4/BLE_1_bas.c ****     CYBLE_GATT_HANDLE_VALUE_PAIR_T locHandleValuePair;
 229:Generated_Source\PSoC4/BLE_1_bas.c **** 
 230:Generated_Source\PSoC4/BLE_1_bas.c ****     if((serviceIndex >= CYBLE_BASS_SERVICE_COUNT) || (charIndex >= CYBLE_BAS_CHAR_COUNT) ||
 382              		.loc 1 230 0
 383 002e FB1D     		adds	r3, r7, #7
 384 0030 1B78     		ldrb	r3, [r3]
 385 0032 002B     		cmp	r3, #0
 386 0034 07D1     		bne	.L20
 387              		.loc 1 230 0 is_stmt 0 discriminator 1
 388 0036 BB1D     		adds	r3, r7, #6
 389 0038 1B78     		ldrb	r3, [r3]
 390 003a 002B     		cmp	r3, #0
 391 003c 03D1     		bne	.L20
 392              		.loc 1 230 0 discriminator 2
 393 003e 7B1D     		adds	r3, r7, #5
 394 0040 1B78     		ldrb	r3, [r3]
 395 0042 012B     		cmp	r3, #1
ARM GAS  C:\Users\puria\AppData\Local\Temp\cc5eK9ZY.s 			page 12


 396 0044 04D9     		bls	.L21
 397              	.L20:
 231:Generated_Source\PSoC4/BLE_1_bas.c ****        (descrIndex >= CYBLE_BAS_DESCR_COUNT))
 232:Generated_Source\PSoC4/BLE_1_bas.c ****     {
 233:Generated_Source\PSoC4/BLE_1_bas.c ****         apiResult = CYBLE_ERROR_INVALID_PARAMETER;
 398              		.loc 1 233 0 is_stmt 1
 399 0046 1623     		movs	r3, #22
 400 0048 FB18     		adds	r3, r7, r3
 401 004a 0122     		movs	r2, #1
 402 004c 1A80     		strh	r2, [r3]
 403 004e 29E0     		b	.L22
 404              	.L21:
 234:Generated_Source\PSoC4/BLE_1_bas.c ****     }
 235:Generated_Source\PSoC4/BLE_1_bas.c ****     else
 236:Generated_Source\PSoC4/BLE_1_bas.c ****     {
 237:Generated_Source\PSoC4/BLE_1_bas.c ****         /* Get data from database */
 238:Generated_Source\PSoC4/BLE_1_bas.c ****         if(descrIndex == CYBLE_BAS_BATTERY_LEVEL_CCCD)
 405              		.loc 1 238 0
 406 0050 7B1D     		adds	r3, r7, #5
 407 0052 1B78     		ldrb	r3, [r3]
 408 0054 002B     		cmp	r3, #0
 409 0056 04D1     		bne	.L23
 239:Generated_Source\PSoC4/BLE_1_bas.c ****         {
 240:Generated_Source\PSoC4/BLE_1_bas.c ****             locHandleValuePair.attrHandle = cyBle_bass[serviceIndex].cccdHandle;
 410              		.loc 1 240 0
 411 0058 3F22     		movs	r2, #63
 412 005a 0823     		movs	r3, #8
 413 005c FB18     		adds	r3, r7, r3
 414 005e 1A81     		strh	r2, [r3, #8]
 415 0060 09E0     		b	.L24
 416              	.L23:
 241:Generated_Source\PSoC4/BLE_1_bas.c ****         }
 242:Generated_Source\PSoC4/BLE_1_bas.c ****         else
 243:Generated_Source\PSoC4/BLE_1_bas.c ****         {
 244:Generated_Source\PSoC4/BLE_1_bas.c ****             locHandleValuePair.attrHandle = cyBle_bass[serviceIndex].cpfdHandle;
 417              		.loc 1 244 0
 418 0062 FB1D     		adds	r3, r7, #7
 419 0064 1B78     		ldrb	r3, [r3]
 420 0066 134A     		ldr	r2, .L26
 421 0068 DB00     		lsls	r3, r3, #3
 422 006a D318     		adds	r3, r2, r3
 423 006c 0433     		adds	r3, r3, #4
 424 006e 1A88     		ldrh	r2, [r3]
 425 0070 0823     		movs	r3, #8
 426 0072 FB18     		adds	r3, r7, r3
 427 0074 1A81     		strh	r2, [r3, #8]
 428              	.L24:
 245:Generated_Source\PSoC4/BLE_1_bas.c ****         }
 246:Generated_Source\PSoC4/BLE_1_bas.c ****         locHandleValuePair.value.len = attrSize;
 429              		.loc 1 246 0
 430 0076 3B1D     		adds	r3, r7, #4
 431 0078 1B78     		ldrb	r3, [r3]
 432 007a 9AB2     		uxth	r2, r3
 433 007c 0823     		movs	r3, #8
 434 007e FB18     		adds	r3, r7, r3
 435 0080 9A80     		strh	r2, [r3, #4]
 247:Generated_Source\PSoC4/BLE_1_bas.c ****         locHandleValuePair.value.val = attrValue;
ARM GAS  C:\Users\puria\AppData\Local\Temp\cc5eK9ZY.s 			page 13


 436              		.loc 1 247 0
 437 0082 0823     		movs	r3, #8
 438 0084 FB18     		adds	r3, r7, r3
 439 0086 BA6A     		ldr	r2, [r7, #40]
 440 0088 1A60     		str	r2, [r3]
 248:Generated_Source\PSoC4/BLE_1_bas.c ****         if(CYBLE_GATT_ERR_NONE !=
 249:Generated_Source\PSoC4/BLE_1_bas.c ****             CyBle_GattsReadAttributeValue(&locHandleValuePair, NULL, CYBLE_GATT_DB_LOCALLY_INITIATE
 441              		.loc 1 249 0
 442 008a 0823     		movs	r3, #8
 443 008c FB18     		adds	r3, r7, r3
 444 008e 0022     		movs	r2, #0
 445 0090 0021     		movs	r1, #0
 446 0092 1800     		movs	r0, r3
 447 0094 FFF7FEFF 		bl	CyBle_GattsReadAttributeValue
 448 0098 031E     		subs	r3, r0, #0
 248:Generated_Source\PSoC4/BLE_1_bas.c ****         if(CYBLE_GATT_ERR_NONE !=
 449              		.loc 1 248 0
 450 009a 03D0     		beq	.L22
 250:Generated_Source\PSoC4/BLE_1_bas.c ****         {
 251:Generated_Source\PSoC4/BLE_1_bas.c ****             apiResult = CYBLE_ERROR_INVALID_PARAMETER;
 451              		.loc 1 251 0
 452 009c 1623     		movs	r3, #22
 453 009e FB18     		adds	r3, r7, r3
 454 00a0 0122     		movs	r2, #1
 455 00a2 1A80     		strh	r2, [r3]
 456              	.L22:
 252:Generated_Source\PSoC4/BLE_1_bas.c ****         }
 253:Generated_Source\PSoC4/BLE_1_bas.c ****     }
 254:Generated_Source\PSoC4/BLE_1_bas.c ****     return (apiResult);
 457              		.loc 1 254 0
 458 00a4 1623     		movs	r3, #22
 459 00a6 FB18     		adds	r3, r7, r3
 460 00a8 1B88     		ldrh	r3, [r3]
 255:Generated_Source\PSoC4/BLE_1_bas.c **** }
 461              		.loc 1 255 0
 462 00aa 1800     		movs	r0, r3
 463 00ac BD46     		mov	sp, r7
 464 00ae 06B0     		add	sp, sp, #24
 465              		@ sp needed
 466 00b0 B0BD     		pop	{r4, r5, r7, pc}
 467              	.L27:
 468 00b2 C046     		.align	2
 469              	.L26:
 470 00b4 00000000 		.word	cyBle_bass
 471              		.cfi_endproc
 472              	.LFE6:
 473              		.size	CyBle_BassGetCharacteristicDescriptor, .-CyBle_BassGetCharacteristicDescriptor
 474              		.section	.text.CyBle_BassWriteEventHandler,"ax",%progbits
 475              		.align	2
 476              		.global	CyBle_BassWriteEventHandler
 477              		.code	16
 478              		.thumb_func
 479              		.type	CyBle_BassWriteEventHandler, %function
 480              	CyBle_BassWriteEventHandler:
 481              	.LFB7:
 256:Generated_Source\PSoC4/BLE_1_bas.c **** 
 257:Generated_Source\PSoC4/BLE_1_bas.c **** 
ARM GAS  C:\Users\puria\AppData\Local\Temp\cc5eK9ZY.s 			page 14


 258:Generated_Source\PSoC4/BLE_1_bas.c **** /******************************************************************************
 259:Generated_Source\PSoC4/BLE_1_bas.c **** * Function Name: CyBle_BassWriteEventHandler
 260:Generated_Source\PSoC4/BLE_1_bas.c **** ***************************************************************************//**
 261:Generated_Source\PSoC4/BLE_1_bas.c **** * 
 262:Generated_Source\PSoC4/BLE_1_bas.c **** *  Handles the Write Request Event for Battery service.
 263:Generated_Source\PSoC4/BLE_1_bas.c **** * 
 264:Generated_Source\PSoC4/BLE_1_bas.c **** *  \param void *eventParam: the pointer to the data structure specified by the event.
 265:Generated_Source\PSoC4/BLE_1_bas.c **** * 
 266:Generated_Source\PSoC4/BLE_1_bas.c **** * \return
 267:Generated_Source\PSoC4/BLE_1_bas.c **** *  Return value is of type CYBLE_GATT_ERR_CODE_T.
 268:Generated_Source\PSoC4/BLE_1_bas.c **** *   * CYBLE_GATT_ERR_NONE - Write request is handled successfully.
 269:Generated_Source\PSoC4/BLE_1_bas.c **** *   * CYBLE_GATT_ERR_REQUEST_NOT_SUPPORTED - Notification isn't supported.
 270:Generated_Source\PSoC4/BLE_1_bas.c **** *   * CYBLE_GATT_ERR_UNLIKELY_ERROR - Internal error while writing attribute
 271:Generated_Source\PSoC4/BLE_1_bas.c **** *                                      value.
 272:Generated_Source\PSoC4/BLE_1_bas.c **** * 
 273:Generated_Source\PSoC4/BLE_1_bas.c **** ******************************************************************************/
 274:Generated_Source\PSoC4/BLE_1_bas.c **** CYBLE_GATT_ERR_CODE_T CyBle_BassWriteEventHandler(CYBLE_GATTS_WRITE_REQ_PARAM_T *eventParam)
 275:Generated_Source\PSoC4/BLE_1_bas.c **** {
 482              		.loc 1 275 0
 483              		.cfi_startproc
 484              		@ args = 0, pretend = 0, frame = 24
 485              		@ frame_needed = 1, uses_anonymous_args = 0
 486 0000 90B5     		push	{r4, r7, lr}
 487              		.cfi_def_cfa_offset 12
 488              		.cfi_offset 4, -12
 489              		.cfi_offset 7, -8
 490              		.cfi_offset 14, -4
 491 0002 87B0     		sub	sp, sp, #28
 492              		.cfi_def_cfa_offset 40
 493 0004 00AF     		add	r7, sp, #0
 494              		.cfi_def_cfa_register 7
 495 0006 7860     		str	r0, [r7, #4]
 276:Generated_Source\PSoC4/BLE_1_bas.c ****     uint8 locServIndex = 0u;
 496              		.loc 1 276 0
 497 0008 1723     		movs	r3, #23
 498 000a FB18     		adds	r3, r7, r3
 499 000c 0022     		movs	r2, #0
 500 000e 1A70     		strb	r2, [r3]
 277:Generated_Source\PSoC4/BLE_1_bas.c ****     CYBLE_BAS_CHAR_VALUE_T locCharIndex;
 278:Generated_Source\PSoC4/BLE_1_bas.c ****     CYBLE_GATT_ERR_CODE_T gattErr = CYBLE_GATT_ERR_NONE;
 501              		.loc 1 278 0
 502 0010 1623     		movs	r3, #22
 503 0012 FB18     		adds	r3, r7, r3
 504 0014 0022     		movs	r2, #0
 505 0016 1A70     		strb	r2, [r3]
 279:Generated_Source\PSoC4/BLE_1_bas.c **** 
 280:Generated_Source\PSoC4/BLE_1_bas.c ****     if(NULL != CyBle_BasApplCallback)
 506              		.loc 1 280 0
 507 0018 454B     		ldr	r3, .L38
 508 001a 1B68     		ldr	r3, [r3]
 509 001c 002B     		cmp	r3, #0
 510 001e 00D1     		bne	.LCB421
 511 0020 7FE0     		b	.L29	@long jump
 512              	.LCB421:
 513              	.L36:
 281:Generated_Source\PSoC4/BLE_1_bas.c ****     {
 282:Generated_Source\PSoC4/BLE_1_bas.c ****         do
ARM GAS  C:\Users\puria\AppData\Local\Temp\cc5eK9ZY.s 			page 15


 283:Generated_Source\PSoC4/BLE_1_bas.c ****         {
 284:Generated_Source\PSoC4/BLE_1_bas.c ****             /* Client Characteristic Configuration descriptor write request */
 285:Generated_Source\PSoC4/BLE_1_bas.c ****             if(eventParam->handleValPair.attrHandle == cyBle_bass[locServIndex].cccdHandle)
 514              		.loc 1 285 0
 515 0022 7B68     		ldr	r3, [r7, #4]
 516 0024 9B89     		ldrh	r3, [r3, #12]
 517 0026 3F22     		movs	r2, #63
 518 0028 9342     		cmp	r3, r2
 519 002a 6DD1     		bne	.L30
 286:Generated_Source\PSoC4/BLE_1_bas.c ****             {
 287:Generated_Source\PSoC4/BLE_1_bas.c ****                 /* Verify that optional notification property is enabled for Battery Level characte
 288:Generated_Source\PSoC4/BLE_1_bas.c ****                 if(CYBLE_IS_NOTIFICATION_SUPPORTED(cyBle_bass[locServIndex].batteryLevelHandle))
 520              		.loc 1 288 0
 521 002c 1723     		movs	r3, #23
 522 002e FB18     		adds	r3, r7, r3
 523 0030 1B78     		ldrb	r3, [r3]
 524 0032 404A     		ldr	r2, .L38+4
 525 0034 DB00     		lsls	r3, r3, #3
 526 0036 D318     		adds	r3, r2, r3
 527 0038 0233     		adds	r3, r3, #2
 528 003a 1B88     		ldrh	r3, [r3]
 529 003c 5A1E     		subs	r2, r3, #1
 530 003e 3E49     		ldr	r1, .L38+8
 531 0040 1300     		movs	r3, r2
 532 0042 9B00     		lsls	r3, r3, #2
 533 0044 9B18     		adds	r3, r3, r2
 534 0046 9B00     		lsls	r3, r3, #2
 535 0048 CB18     		adds	r3, r1, r3
 536 004a 0433     		adds	r3, r3, #4
 537 004c 1A68     		ldr	r2, [r3]
 538 004e 8023     		movs	r3, #128
 539 0050 5B03     		lsls	r3, r3, #13
 540 0052 1340     		ands	r3, r2
 541 0054 4BD0     		beq	.L31
 289:Generated_Source\PSoC4/BLE_1_bas.c ****                 {
 290:Generated_Source\PSoC4/BLE_1_bas.c ****                     gattErr = CyBle_GattsWriteAttributeValue(&eventParam->handleValPair, 0u, 
 542              		.loc 1 290 0
 543 0056 7B68     		ldr	r3, [r7, #4]
 544 0058 181D     		adds	r0, r3, #4
 545 005a 7A68     		ldr	r2, [r7, #4]
 546 005c 1623     		movs	r3, #22
 547 005e FC18     		adds	r4, r7, r3
 548 0060 4023     		movs	r3, #64
 549 0062 0021     		movs	r1, #0
 550 0064 FFF7FEFF 		bl	CyBle_GattsWriteAttributeValue
 551 0068 0300     		movs	r3, r0
 552 006a 2370     		strb	r3, [r4]
 291:Generated_Source\PSoC4/BLE_1_bas.c ****                         &eventParam->connHandle, CYBLE_GATT_DB_PEER_INITIATED);
 292:Generated_Source\PSoC4/BLE_1_bas.c ****                     if(gattErr == CYBLE_GATT_ERR_NONE)
 553              		.loc 1 292 0
 554 006c 1623     		movs	r3, #22
 555 006e FB18     		adds	r3, r7, r3
 556 0070 1B78     		ldrb	r3, [r3]
 557 0072 002B     		cmp	r3, #0
 558 0074 3FD1     		bne	.L35
 293:Generated_Source\PSoC4/BLE_1_bas.c ****                     {
 294:Generated_Source\PSoC4/BLE_1_bas.c ****                         locCharIndex.connHandle = eventParam->connHandle;
ARM GAS  C:\Users\puria\AppData\Local\Temp\cc5eK9ZY.s 			page 16


 559              		.loc 1 294 0
 560 0076 0C23     		movs	r3, #12
 561 0078 FB18     		adds	r3, r7, r3
 562 007a 7A68     		ldr	r2, [r7, #4]
 563 007c 1288     		ldrh	r2, [r2]
 564 007e 1A80     		strh	r2, [r3]
 295:Generated_Source\PSoC4/BLE_1_bas.c ****                         locCharIndex.serviceIndex = locServIndex;
 565              		.loc 1 295 0
 566 0080 0C23     		movs	r3, #12
 567 0082 FB18     		adds	r3, r7, r3
 568 0084 1722     		movs	r2, #23
 569 0086 BA18     		adds	r2, r7, r2
 570 0088 1278     		ldrb	r2, [r2]
 571 008a 9A70     		strb	r2, [r3, #2]
 296:Generated_Source\PSoC4/BLE_1_bas.c ****                         locCharIndex.charIndex = CYBLE_BAS_BATTERY_LEVEL;
 572              		.loc 1 296 0
 573 008c 0C23     		movs	r3, #12
 574 008e FB18     		adds	r3, r7, r3
 575 0090 0022     		movs	r2, #0
 576 0092 DA70     		strb	r2, [r3, #3]
 297:Generated_Source\PSoC4/BLE_1_bas.c ****                         locCharIndex.value = NULL;
 577              		.loc 1 297 0
 578 0094 0C23     		movs	r3, #12
 579 0096 FB18     		adds	r3, r7, r3
 580 0098 0022     		movs	r2, #0
 581 009a 5A60     		str	r2, [r3, #4]
 298:Generated_Source\PSoC4/BLE_1_bas.c ****                         
 299:Generated_Source\PSoC4/BLE_1_bas.c ****                         if(CYBLE_IS_NOTIFICATION_ENABLED_IN_PTR(eventParam->handleValPair.value.val
 582              		.loc 1 299 0
 583 009c 7B68     		ldr	r3, [r7, #4]
 584 009e 5B68     		ldr	r3, [r3, #4]
 585 00a0 1800     		movs	r0, r3
 586 00a2 FFF7FEFF 		bl	CyBle_Get16ByPtr
 587 00a6 0300     		movs	r3, r0
 588 00a8 1A00     		movs	r2, r3
 589 00aa 0123     		movs	r3, #1
 590 00ac 1340     		ands	r3, r2
 591 00ae 9BB2     		uxth	r3, r3
 592 00b0 002B     		cmp	r3, #0
 593 00b2 08D0     		beq	.L33
 300:Generated_Source\PSoC4/BLE_1_bas.c ****                         {
 301:Generated_Source\PSoC4/BLE_1_bas.c ****                             CyBle_BasApplCallback((uint32)CYBLE_EVT_BASS_NOTIFICATION_ENABLED, &loc
 594              		.loc 1 301 0
 595 00b4 1E4B     		ldr	r3, .L38
 596 00b6 1B68     		ldr	r3, [r3]
 597 00b8 0C22     		movs	r2, #12
 598 00ba B918     		adds	r1, r7, r2
 599 00bc 9822     		movs	r2, #152
 600 00be 5200     		lsls	r2, r2, #1
 601 00c0 1000     		movs	r0, r2
 602 00c2 9847     		blx	r3
 603 00c4 07E0     		b	.L34
 604              	.L33:
 302:Generated_Source\PSoC4/BLE_1_bas.c ****                         }
 303:Generated_Source\PSoC4/BLE_1_bas.c ****                         else
 304:Generated_Source\PSoC4/BLE_1_bas.c ****                         {
 305:Generated_Source\PSoC4/BLE_1_bas.c ****                             CyBle_BasApplCallback((uint32)CYBLE_EVT_BASS_NOTIFICATION_DISABLED, &lo
ARM GAS  C:\Users\puria\AppData\Local\Temp\cc5eK9ZY.s 			page 17


 605              		.loc 1 305 0
 606 00c6 1A4B     		ldr	r3, .L38
 607 00c8 1B68     		ldr	r3, [r3]
 608 00ca 0C22     		movs	r2, #12
 609 00cc B918     		adds	r1, r7, r2
 610 00ce 3222     		movs	r2, #50
 611 00d0 FF32     		adds	r2, r2, #255
 612 00d2 1000     		movs	r0, r2
 613 00d4 9847     		blx	r3
 614              	.L34:
 306:Generated_Source\PSoC4/BLE_1_bas.c ****                         }
 307:Generated_Source\PSoC4/BLE_1_bas.c ****                     #if((CYBLE_GAP_ROLE_PERIPHERAL || CYBLE_GAP_ROLE_CENTRAL) && \
 308:Generated_Source\PSoC4/BLE_1_bas.c ****                         (CYBLE_BONDING_REQUIREMENT == CYBLE_BONDING_YES))
 309:Generated_Source\PSoC4/BLE_1_bas.c ****                         /* Set flag to store bonding data to flash */
 310:Generated_Source\PSoC4/BLE_1_bas.c ****                         if(cyBle_peerBonding == CYBLE_GAP_BONDING)
 615              		.loc 1 310 0
 616 00d6 194B     		ldr	r3, .L38+12
 617 00d8 1B78     		ldrb	r3, [r3]
 618 00da 012B     		cmp	r3, #1
 619 00dc 0BD1     		bne	.L35
 311:Generated_Source\PSoC4/BLE_1_bas.c ****                         {
 312:Generated_Source\PSoC4/BLE_1_bas.c ****                             cyBle_pendingFlashWrite |= CYBLE_PENDING_CCCD_FLASH_WRITE_BIT;
 620              		.loc 1 312 0
 621 00de 184B     		ldr	r3, .L38+16
 622 00e0 1B78     		ldrb	r3, [r3]
 623 00e2 0222     		movs	r2, #2
 624 00e4 1343     		orrs	r3, r2
 625 00e6 DAB2     		uxtb	r2, r3
 626 00e8 154B     		ldr	r3, .L38+16
 627 00ea 1A70     		strb	r2, [r3]
 628 00ec 03E0     		b	.L35
 629              	.L31:
 313:Generated_Source\PSoC4/BLE_1_bas.c ****                         }
 314:Generated_Source\PSoC4/BLE_1_bas.c ****                     #endif /* (CYBLE_BONDING_REQUIREMENT == CYBLE_BONDING_YES) */
 315:Generated_Source\PSoC4/BLE_1_bas.c ****                     }
 316:Generated_Source\PSoC4/BLE_1_bas.c ****                 }
 317:Generated_Source\PSoC4/BLE_1_bas.c ****                 else
 318:Generated_Source\PSoC4/BLE_1_bas.c ****                 {
 319:Generated_Source\PSoC4/BLE_1_bas.c ****                     gattErr = CYBLE_GATT_ERR_REQUEST_NOT_SUPPORTED;
 630              		.loc 1 319 0
 631 00ee 1623     		movs	r3, #22
 632 00f0 FB18     		adds	r3, r7, r3
 633 00f2 0622     		movs	r2, #6
 634 00f4 1A70     		strb	r2, [r3]
 635              	.L35:
 320:Generated_Source\PSoC4/BLE_1_bas.c ****                 }
 321:Generated_Source\PSoC4/BLE_1_bas.c ****                 cyBle_eventHandlerFlag &= (uint8)~CYBLE_CALLBACK;
 636              		.loc 1 321 0
 637 00f6 134B     		ldr	r3, .L38+20
 638 00f8 1B78     		ldrb	r3, [r3]
 639 00fa DBB2     		uxtb	r3, r3
 640 00fc 0122     		movs	r2, #1
 641 00fe 9343     		bics	r3, r2
 642 0100 DAB2     		uxtb	r2, r3
 643 0102 104B     		ldr	r3, .L38+20
 644 0104 1A70     		strb	r2, [r3]
 322:Generated_Source\PSoC4/BLE_1_bas.c ****                 break;
ARM GAS  C:\Users\puria\AppData\Local\Temp\cc5eK9ZY.s 			page 18


 645              		.loc 1 322 0
 646 0106 0CE0     		b	.L29
 647              	.L30:
 323:Generated_Source\PSoC4/BLE_1_bas.c ****             }
 324:Generated_Source\PSoC4/BLE_1_bas.c ****         locServIndex++;
 648              		.loc 1 324 0
 649 0108 1723     		movs	r3, #23
 650 010a FB18     		adds	r3, r7, r3
 651 010c 1A78     		ldrb	r2, [r3]
 652 010e 1723     		movs	r3, #23
 653 0110 FB18     		adds	r3, r7, r3
 654 0112 0132     		adds	r2, r2, #1
 655 0114 1A70     		strb	r2, [r3]
 325:Generated_Source\PSoC4/BLE_1_bas.c ****         }while(locServIndex < CYBLE_BASS_SERVICE_COUNT);
 656              		.loc 1 325 0
 657 0116 1723     		movs	r3, #23
 658 0118 FB18     		adds	r3, r7, r3
 659 011a 1B78     		ldrb	r3, [r3]
 660 011c 002B     		cmp	r3, #0
 661 011e 00D1     		bne	.LCB561
 662 0120 7FE7     		b	.L36	@long jump
 663              	.LCB561:
 664              	.L29:
 326:Generated_Source\PSoC4/BLE_1_bas.c ****     }
 327:Generated_Source\PSoC4/BLE_1_bas.c ****     return (gattErr);
 665              		.loc 1 327 0
 666 0122 1623     		movs	r3, #22
 667 0124 FB18     		adds	r3, r7, r3
 668 0126 1B78     		ldrb	r3, [r3]
 328:Generated_Source\PSoC4/BLE_1_bas.c **** }
 669              		.loc 1 328 0
 670 0128 1800     		movs	r0, r3
 671 012a BD46     		mov	sp, r7
 672 012c 07B0     		add	sp, sp, #28
 673              		@ sp needed
 674 012e 90BD     		pop	{r4, r7, pc}
 675              	.L39:
 676              		.align	2
 677              	.L38:
 678 0130 00000000 		.word	CyBle_BasApplCallback
 679 0134 00000000 		.word	cyBle_bass
 680 0138 00000000 		.word	cyBle_gattDB
 681 013c 00000000 		.word	cyBle_peerBonding
 682 0140 00000000 		.word	cyBle_pendingFlashWrite
 683 0144 00000000 		.word	cyBle_eventHandlerFlag
 684              		.cfi_endproc
 685              	.LFE7:
 686              		.size	CyBle_BassWriteEventHandler, .-CyBle_BassWriteEventHandler
 687              		.section	.text.CyBle_BassSendNotification,"ax",%progbits
 688              		.align	2
 689              		.global	CyBle_BassSendNotification
 690              		.code	16
 691              		.thumb_func
 692              		.type	CyBle_BassSendNotification, %function
 693              	CyBle_BassSendNotification:
 694              	.LFB8:
 329:Generated_Source\PSoC4/BLE_1_bas.c **** 
ARM GAS  C:\Users\puria\AppData\Local\Temp\cc5eK9ZY.s 			page 19


 330:Generated_Source\PSoC4/BLE_1_bas.c **** 
 331:Generated_Source\PSoC4/BLE_1_bas.c **** /******************************************************************************
 332:Generated_Source\PSoC4/BLE_1_bas.c **** * Function Name: CyBle_BassSendNotification
 333:Generated_Source\PSoC4/BLE_1_bas.c **** ***************************************************************************//**
 334:Generated_Source\PSoC4/BLE_1_bas.c **** * 
 335:Generated_Source\PSoC4/BLE_1_bas.c **** *  This function updates the value of the Battery Level characteristic in the 
 336:Generated_Source\PSoC4/BLE_1_bas.c **** *  GATT database. If the client has configured a notification on the Battery
 337:Generated_Source\PSoC4/BLE_1_bas.c **** *  Level characteristic, the function additionally sends this value using a 
 338:Generated_Source\PSoC4/BLE_1_bas.c **** *  GATT Notification message.
 339:Generated_Source\PSoC4/BLE_1_bas.c **** *
 340:Generated_Source\PSoC4/BLE_1_bas.c **** *  On enabling notification successfully for a service characteristic, if the GATT
 341:Generated_Source\PSoC4/BLE_1_bas.c **** *  server has an updated value to be notified to the GATT Client, it sends out a
 342:Generated_Source\PSoC4/BLE_1_bas.c **** *  'Handle Value Notification' which results in CYBLE_EVT_BASC_NOTIFICATION event
 343:Generated_Source\PSoC4/BLE_1_bas.c **** *  at the GATT Client's end.
 344:Generated_Source\PSoC4/BLE_1_bas.c **** * 
 345:Generated_Source\PSoC4/BLE_1_bas.c **** *  \param connHandle: The BLE peer device connection handle
 346:Generated_Source\PSoC4/BLE_1_bas.c **** *  \param serviceIndex: The index of the service instance. e.g. If two Battery Services
 347:Generated_Source\PSoC4/BLE_1_bas.c **** *                 are supported in your design, then first service will be 
 348:Generated_Source\PSoC4/BLE_1_bas.c **** *                 identified by serviceIndex of 0 and the second by 
 349:Generated_Source\PSoC4/BLE_1_bas.c **** *                 serviceIndex of 1.
 350:Generated_Source\PSoC4/BLE_1_bas.c **** *  \param charIndex: The index of a service characteristic of type 
 351:Generated_Source\PSoC4/BLE_1_bas.c **** *              CYBLE_BAS_CHAR_INDEX_T.
 352:Generated_Source\PSoC4/BLE_1_bas.c **** *  \param attrSize: The size of the characteristic value attribute. A battery level
 353:Generated_Source\PSoC4/BLE_1_bas.c **** *             characteristic has 1 byte length.
 354:Generated_Source\PSoC4/BLE_1_bas.c **** *  \param attrValue: The pointer to the characteristic value data that should be
 355:Generated_Source\PSoC4/BLE_1_bas.c **** *               sent to the Client device.
 356:Generated_Source\PSoC4/BLE_1_bas.c **** * 
 357:Generated_Source\PSoC4/BLE_1_bas.c **** * \return
 358:Generated_Source\PSoC4/BLE_1_bas.c **** *  Return value is of type CYBLE_API_RESULT_T.
 359:Generated_Source\PSoC4/BLE_1_bas.c **** *   * CYBLE_ERROR_OK - The request handled successfully
 360:Generated_Source\PSoC4/BLE_1_bas.c **** *   * CYBLE_ERROR_INVALID_PARAMETER - Validation of the input parameter failed
 361:Generated_Source\PSoC4/BLE_1_bas.c **** *   * CYBLE_ERROR_INVALID_OPERATION - This operation is not permitted
 362:Generated_Source\PSoC4/BLE_1_bas.c **** *   * CYBLE_ERROR_INVALID_STATE - Connection with the client is not established
 363:Generated_Source\PSoC4/BLE_1_bas.c **** *   * CYBLE_ERROR_MEMORY_ALLOCATION_FAILED - Memory allocation failed. 
 364:Generated_Source\PSoC4/BLE_1_bas.c **** *   * CYBLE_ERROR_NTF_DISABLED - Notification is not enabled by the client.
 365:Generated_Source\PSoC4/BLE_1_bas.c **** * 
 366:Generated_Source\PSoC4/BLE_1_bas.c **** ******************************************************************************/
 367:Generated_Source\PSoC4/BLE_1_bas.c **** CYBLE_API_RESULT_T CyBle_BassSendNotification(CYBLE_CONN_HANDLE_T connHandle,
 368:Generated_Source\PSoC4/BLE_1_bas.c ****     uint8 serviceIndex, CYBLE_BAS_CHAR_INDEX_T charIndex, uint8 attrSize, uint8 *attrValue)
 369:Generated_Source\PSoC4/BLE_1_bas.c **** {
 695              		.loc 1 369 0
 696              		.cfi_startproc
 697              		@ args = 4, pretend = 0, frame = 24
 698              		@ frame_needed = 1, uses_anonymous_args = 0
 699 0000 B0B5     		push	{r4, r5, r7, lr}
 700              		.cfi_def_cfa_offset 16
 701              		.cfi_offset 4, -16
 702              		.cfi_offset 5, -12
 703              		.cfi_offset 7, -8
 704              		.cfi_offset 14, -4
 705 0002 86B0     		sub	sp, sp, #24
 706              		.cfi_def_cfa_offset 40
 707 0004 00AF     		add	r7, sp, #0
 708              		.cfi_def_cfa_register 7
 709 0006 3C1D     		adds	r4, r7, #4
 710 0008 2080     		strh	r0, [r4]
 711 000a 0C00     		movs	r4, r1
ARM GAS  C:\Users\puria\AppData\Local\Temp\cc5eK9ZY.s 			page 20


 712 000c 1000     		movs	r0, r2
 713 000e 1900     		movs	r1, r3
 714 0010 FB1C     		adds	r3, r7, #3
 715 0012 221C     		adds	r2, r4, #0
 716 0014 1A70     		strb	r2, [r3]
 717 0016 BB1C     		adds	r3, r7, #2
 718 0018 021C     		adds	r2, r0, #0
 719 001a 1A70     		strb	r2, [r3]
 720 001c 7B1C     		adds	r3, r7, #1
 721 001e 0A1C     		adds	r2, r1, #0
 722 0020 1A70     		strb	r2, [r3]
 370:Generated_Source\PSoC4/BLE_1_bas.c ****     CYBLE_API_RESULT_T apiResult;
 371:Generated_Source\PSoC4/BLE_1_bas.c **** 
 372:Generated_Source\PSoC4/BLE_1_bas.c ****     /* Store new data in database */
 373:Generated_Source\PSoC4/BLE_1_bas.c ****     apiResult = CyBle_BassSetCharacteristicValue(serviceIndex, charIndex, attrSize, attrValue);
 723              		.loc 1 373 0
 724 0022 1623     		movs	r3, #22
 725 0024 FC18     		adds	r4, r7, r3
 726 0026 BD6A     		ldr	r5, [r7, #40]
 727 0028 7B1C     		adds	r3, r7, #1
 728 002a 1A78     		ldrb	r2, [r3]
 729 002c BB1C     		adds	r3, r7, #2
 730 002e 1978     		ldrb	r1, [r3]
 731 0030 FB1C     		adds	r3, r7, #3
 732 0032 1878     		ldrb	r0, [r3]
 733 0034 2B00     		movs	r3, r5
 734 0036 FFF7FEFF 		bl	CyBle_BassSetCharacteristicValue
 735 003a 0300     		movs	r3, r0
 736 003c 2380     		strh	r3, [r4]
 374:Generated_Source\PSoC4/BLE_1_bas.c ****     
 375:Generated_Source\PSoC4/BLE_1_bas.c ****     if(apiResult == CYBLE_ERROR_OK)  
 737              		.loc 1 375 0
 738 003e 1623     		movs	r3, #22
 739 0040 FB18     		adds	r3, r7, r3
 740 0042 1B88     		ldrh	r3, [r3]
 741 0044 002B     		cmp	r3, #0
 742 0046 46D1     		bne	.L41
 376:Generated_Source\PSoC4/BLE_1_bas.c ****     {
 377:Generated_Source\PSoC4/BLE_1_bas.c ****         /* Send Notification if it is enabled and connected */
 378:Generated_Source\PSoC4/BLE_1_bas.c ****         if(CYBLE_STATE_CONNECTED != CyBle_GetState())
 743              		.loc 1 378 0
 744 0048 264B     		ldr	r3, .L46
 745 004a 1B78     		ldrb	r3, [r3]
 746 004c 022B     		cmp	r3, #2
 747 004e 05D0     		beq	.L42
 379:Generated_Source\PSoC4/BLE_1_bas.c ****         {
 380:Generated_Source\PSoC4/BLE_1_bas.c ****             apiResult = CYBLE_ERROR_INVALID_STATE;
 748              		.loc 1 380 0
 749 0050 1623     		movs	r3, #22
 750 0052 FB18     		adds	r3, r7, r3
 751 0054 0422     		movs	r2, #4
 752 0056 FF32     		adds	r2, r2, #255
 753 0058 1A80     		strh	r2, [r3]
 754 005a 3CE0     		b	.L41
 755              	.L42:
 381:Generated_Source\PSoC4/BLE_1_bas.c ****         }
 382:Generated_Source\PSoC4/BLE_1_bas.c ****         else if((cyBle_bass[serviceIndex].cccdHandle == CYBLE_GATT_INVALID_ATTR_HANDLE_VALUE)
ARM GAS  C:\Users\puria\AppData\Local\Temp\cc5eK9ZY.s 			page 21


 756              		.loc 1 382 0
 757 005c 3F23     		movs	r3, #63
 758 005e 002B     		cmp	r3, #0
 759 0060 14D0     		beq	.L43
 383:Generated_Source\PSoC4/BLE_1_bas.c ****             || (!CYBLE_IS_NOTIFICATION_ENABLED(cyBle_bass[serviceIndex].cccdHandle)))
 760              		.loc 1 383 0
 761 0062 3F23     		movs	r3, #63
 762 0064 5A1E     		subs	r2, r3, #1
 763 0066 2049     		ldr	r1, .L46+4
 764 0068 1300     		movs	r3, r2
 765 006a 9B00     		lsls	r3, r3, #2
 766 006c 9B18     		adds	r3, r3, r2
 767 006e 9B00     		lsls	r3, r3, #2
 768 0070 CB18     		adds	r3, r1, r3
 769 0072 1033     		adds	r3, r3, #16
 770 0074 1B68     		ldr	r3, [r3]
 771 0076 5B68     		ldr	r3, [r3, #4]
 772 0078 1800     		movs	r0, r3
 773 007a FFF7FEFF 		bl	CyBle_Get16ByPtr
 774 007e 0300     		movs	r3, r0
 775 0080 1A00     		movs	r2, r3
 776 0082 0123     		movs	r3, #1
 777 0084 1340     		ands	r3, r2
 778 0086 9BB2     		uxth	r3, r3
 779 0088 002B     		cmp	r3, #0
 780 008a 05D1     		bne	.L44
 781              	.L43:
 384:Generated_Source\PSoC4/BLE_1_bas.c ****         {
 385:Generated_Source\PSoC4/BLE_1_bas.c ****             apiResult = CYBLE_ERROR_NTF_DISABLED;
 782              		.loc 1 385 0
 783 008c 1623     		movs	r3, #22
 784 008e FB18     		adds	r3, r7, r3
 785 0090 8022     		movs	r2, #128
 786 0092 5200     		lsls	r2, r2, #1
 787 0094 1A80     		strh	r2, [r3]
 788 0096 1EE0     		b	.L41
 789              	.L44:
 790              	.LBB2:
 386:Generated_Source\PSoC4/BLE_1_bas.c ****         }
 387:Generated_Source\PSoC4/BLE_1_bas.c ****         else
 388:Generated_Source\PSoC4/BLE_1_bas.c ****         {
 389:Generated_Source\PSoC4/BLE_1_bas.c ****             CYBLE_GATTS_HANDLE_VALUE_NTF_T ntfReqParam;
 390:Generated_Source\PSoC4/BLE_1_bas.c ****             
 391:Generated_Source\PSoC4/BLE_1_bas.c ****             /* Fill all fields of write request structure ... */
 392:Generated_Source\PSoC4/BLE_1_bas.c ****             ntfReqParam.attrHandle = cyBle_bass[serviceIndex].batteryLevelHandle;
 791              		.loc 1 392 0
 792 0098 FB1C     		adds	r3, r7, #3
 793 009a 1B78     		ldrb	r3, [r3]
 794 009c 134A     		ldr	r2, .L46+8
 795 009e DB00     		lsls	r3, r3, #3
 796 00a0 D318     		adds	r3, r2, r3
 797 00a2 0233     		adds	r3, r3, #2
 798 00a4 1A88     		ldrh	r2, [r3]
 799 00a6 0823     		movs	r3, #8
 800 00a8 FB18     		adds	r3, r7, r3
 801 00aa 1A81     		strh	r2, [r3, #8]
 393:Generated_Source\PSoC4/BLE_1_bas.c ****             ntfReqParam.value.val = attrValue;
ARM GAS  C:\Users\puria\AppData\Local\Temp\cc5eK9ZY.s 			page 22


 802              		.loc 1 393 0
 803 00ac 0823     		movs	r3, #8
 804 00ae FB18     		adds	r3, r7, r3
 805 00b0 BA6A     		ldr	r2, [r7, #40]
 806 00b2 1A60     		str	r2, [r3]
 394:Generated_Source\PSoC4/BLE_1_bas.c ****             ntfReqParam.value.len = attrSize;
 807              		.loc 1 394 0
 808 00b4 7B1C     		adds	r3, r7, #1
 809 00b6 1B78     		ldrb	r3, [r3]
 810 00b8 9AB2     		uxth	r2, r3
 811 00ba 0823     		movs	r3, #8
 812 00bc FB18     		adds	r3, r7, r3
 813 00be 9A80     		strh	r2, [r3, #4]
 395:Generated_Source\PSoC4/BLE_1_bas.c ****             
 396:Generated_Source\PSoC4/BLE_1_bas.c ****             /* Send notification to client using previously filled structure */
 397:Generated_Source\PSoC4/BLE_1_bas.c ****             apiResult = CyBle_GattsNotification(connHandle, &ntfReqParam);
 814              		.loc 1 397 0
 815 00c0 1623     		movs	r3, #22
 816 00c2 FC18     		adds	r4, r7, r3
 817 00c4 0823     		movs	r3, #8
 818 00c6 FA18     		adds	r2, r7, r3
 819 00c8 3B1D     		adds	r3, r7, #4
 820 00ca 1100     		movs	r1, r2
 821 00cc 1868     		ldr	r0, [r3]
 822 00ce FFF7FEFF 		bl	CyBle_GattsNotification
 823 00d2 0300     		movs	r3, r0
 824 00d4 2380     		strh	r3, [r4]
 825              	.L41:
 826              	.LBE2:
 398:Generated_Source\PSoC4/BLE_1_bas.c ****         }
 399:Generated_Source\PSoC4/BLE_1_bas.c ****     }
 400:Generated_Source\PSoC4/BLE_1_bas.c ****     
 401:Generated_Source\PSoC4/BLE_1_bas.c ****     return (apiResult);
 827              		.loc 1 401 0
 828 00d6 1623     		movs	r3, #22
 829 00d8 FB18     		adds	r3, r7, r3
 830 00da 1B88     		ldrh	r3, [r3]
 402:Generated_Source\PSoC4/BLE_1_bas.c **** }
 831              		.loc 1 402 0
 832 00dc 1800     		movs	r0, r3
 833 00de BD46     		mov	sp, r7
 834 00e0 06B0     		add	sp, sp, #24
 835              		@ sp needed
 836 00e2 B0BD     		pop	{r4, r5, r7, pc}
 837              	.L47:
 838              		.align	2
 839              	.L46:
 840 00e4 00000000 		.word	cyBle_state
 841 00e8 00000000 		.word	cyBle_gattDB
 842 00ec 00000000 		.word	cyBle_bass
 843              		.cfi_endproc
 844              	.LFE8:
 845              		.size	CyBle_BassSendNotification, .-CyBle_BassSendNotification
 846              		.text
 847              	.Letext0:
 848              		.file 2 "Generated_Source\\PSoC4\\cytypes.h"
 849              		.file 3 "Generated_Source\\PSoC4\\BLE_1_Stack.h"
ARM GAS  C:\Users\puria\AppData\Local\Temp\cc5eK9ZY.s 			page 23


 850              		.file 4 "Generated_Source\\PSoC4\\BLE_1_StackGatt.h"
 851              		.file 5 "Generated_Source\\PSoC4\\BLE_1_StackGattServer.h"
 852              		.file 6 "Generated_Source\\PSoC4\\BLE_1_StackGattDb.h"
 853              		.file 7 "Generated_Source\\PSoC4\\BLE_1.h"
 854              		.file 8 "Generated_Source\\PSoC4\\BLE_1_bas.h"
 855              		.file 9 "Generated_Source\\PSoC4\\BLE_1_dis.h"
 856              		.file 10 "Generated_Source\\PSoC4\\BLE_1_eventHandler.h"
 857              		.file 11 "Generated_Source\\PSoC4\\BLE_1_gatt.h"