ARM GAS  C:\Users\puria\AppData\Local\Temp\ccNg8omH.s 			page 1


   1              		.syntax unified
   2              		.cpu cortex-m0
   3              		.fpu softvfp
   4              		.eabi_attribute 20, 1
   5              		.eabi_attribute 21, 1
   6              		.eabi_attribute 23, 3
   7              		.eabi_attribute 24, 1
   8              		.eabi_attribute 25, 1
   9              		.eabi_attribute 26, 1
  10              		.eabi_attribute 30, 6
  11              		.eabi_attribute 34, 0
  12              		.eabi_attribute 18, 4
  13              		.thumb
  14              		.syntax unified
  15              		.file	"BLE_gatt.c"
  16              		.text
  17              	.Ltext0:
  18              		.cfi_sections	.debug_frame
  19              		.comm	cyBle_state,1,1
  20              		.global	cyBle_gatts
  21              		.section	.rodata
  22              		.align	2
  23              		.type	cyBle_gatts, %object
  24              		.size	cyBle_gatts, 6
  25              	cyBle_gatts:
  26 0000 0C00     		.short	12
  27 0002 0E00     		.short	14
  28 0004 0F00     		.short	15
  29              		.data
  30              		.align	2
  31              		.type	cyBle_attValues, %object
  32              		.size	cyBle_attValues, 34
  33              	cyBle_attValues:
  34 0000 43       		.byte	67
  35 0001 50       		.byte	80
  36 0002 50       		.byte	80
  37 0003 50       		.byte	80
  38 0004 20       		.byte	32
  39 0005 23       		.byte	35
  40 0006 34       		.byte	52
  41 0007 00       		.byte	0
  42 0008 00       		.byte	0
  43 0009 06       		.byte	6
  44 000a 00       		.byte	0
  45 000b 28       		.byte	40
  46 000c 00       		.byte	0
  47 000d 00       		.byte	0
  48 000e 00       		.byte	0
  49 000f E8       		.byte	-24
  50 0010 03       		.byte	3
  51 0011 00       		.byte	0
  52 0012 00       		.byte	0
  53 0013 00       		.byte	0
  54 0014 00       		.byte	0
  55 0015 00       		.byte	0
  56 0016 00       		.byte	0
  57 0017 00       		.byte	0
ARM GAS  C:\Users\puria\AppData\Local\Temp\ccNg8omH.s 			page 2


  58 0018 4A       		.byte	74
  59 0019 6F       		.byte	111
  60 001a 79       		.byte	121
  61 001b 73       		.byte	115
  62 001c 74       		.byte	116
  63 001d 69       		.byte	105
  64 001e 63       		.byte	99
  65 001f 6B       		.byte	107
  66 0020 20       		.byte	32
  67 0021 31       		.byte	49
  68              		.comm	cyBle_attValuesCCCD,4,4
  69              		.global	cyBle_attUuid128
  70              		.section	.rodata
  71 0006 0000     		.align	2
  72              		.type	cyBle_attUuid128, %object
  73              		.size	cyBle_attUuid128, 32
  74              	cyBle_attUuid128:
  75 0008 62       		.byte	98
  76 0009 F0       		.byte	-16
  77 000a 58       		.byte	88
  78 000b 22       		.byte	34
  79 000c 55       		.byte	85
  80 000d 2D       		.byte	45
  81 000e A4       		.byte	-92
  82 000f B6       		.byte	-74
  83 0010 54       		.byte	84
  84 0011 4B       		.byte	75
  85 0012 C2       		.byte	-62
  86 0013 C4       		.byte	-60
  87 0014 24       		.byte	36
  88 0015 5E       		.byte	94
  89 0016 50       		.byte	80
  90 0017 C1       		.byte	-63
  91 0018 33       		.byte	51
  92 0019 AB       		.byte	-85
  93 001a C8       		.byte	-56
  94 001b C1       		.byte	-63
  95 001c 07       		.byte	7
  96 001d 4F       		.byte	79
  97 001e FE       		.byte	-2
  98 001f AF       		.byte	-81
  99 0020 CB       		.byte	-53
 100 0021 46       		.byte	70
 101 0022 35       		.byte	53
 102 0023 71       		.byte	113
 103 0024 72       		.byte	114
 104 0025 E8       		.byte	-24
 105 0026 80       		.byte	-128
 106 0027 F8       		.byte	-8
 107              		.global	cyBle_attValuesLen
 108              		.data
 109 0022 0000     		.align	2
 110              		.type	cyBle_attValuesLen, %object
 111              		.size	cyBle_attValuesLen, 96
 112              	cyBle_attValuesLen:
 113 0024 0700     		.short	7
 114 0026 0000     		.space	2
ARM GAS  C:\Users\puria\AppData\Local\Temp\ccNg8omH.s 			page 3


 115 0028 00000000 		.word	cyBle_attValues
 116 002c 0200     		.short	2
 117 002e 0000     		.space	2
 118 0030 07000000 		.word	cyBle_attValues+7
 119 0034 0800     		.short	8
 120 0036 0000     		.space	2
 121 0038 09000000 		.word	cyBle_attValues+9
 122 003c 0100     		.short	1
 123 003e 0000     		.space	2
 124 0040 11000000 		.word	cyBle_attValues+17
 125 0044 0100     		.short	1
 126 0046 0000     		.space	2
 127 0048 12000000 		.word	cyBle_attValues+18
 128 004c 0400     		.short	4
 129 004e 0000     		.space	2
 130 0050 13000000 		.word	cyBle_attValues+19
 131 0054 0200     		.short	2
 132 0056 0000     		.space	2
 133 0058 00000000 		.word	cyBle_attValuesCCCD
 134 005c 1000     		.short	16
 135 005e 0000     		.space	2
 136 0060 00000000 		.word	cyBle_attUuid128
 137 0064 1000     		.short	16
 138 0066 0000     		.space	2
 139 0068 10000000 		.word	cyBle_attUuid128+16
 140 006c 0100     		.short	1
 141 006e 0000     		.space	2
 142 0070 17000000 		.word	cyBle_attValues+23
 143 0074 0A00     		.short	10
 144 0076 0000     		.space	2
 145 0078 18000000 		.word	cyBle_attValues+24
 146 007c 0200     		.short	2
 147 007e 0000     		.space	2
 148 0080 02000000 		.word	cyBle_attValuesCCCD+2
 149              		.global	cyBle_gattDB
 150              		.section	.rodata
 151              		.align	2
 152              		.type	cyBle_gattDB, %object
 153              		.size	cyBle_gattDB, 400
 154              	cyBle_gattDB:
 155 0028 0100     		.short	1
 156 002a 0028     		.short	10240
 157 002c 01000000 		.word	1
 158 0030 0B00     		.short	11
 159 0032 0000     		.space	2
 160 0034 0018     		.short	6144
 161 0036 0000     		.space	2
 162 0038 00000000 		.word	0
 163 003c 0200     		.short	2
 164 003e 0328     		.short	10243
 165 0040 01000200 		.word	131073
 166 0044 0300     		.short	3
 167 0046 0000     		.space	2
 168 0048 002A     		.short	10752
 169 004a 0000     		.space	2
 170 004c 00000000 		.word	0
 171 0050 0300     		.short	3
ARM GAS  C:\Users\puria\AppData\Local\Temp\ccNg8omH.s 			page 4


 172 0052 002A     		.short	10752
 173 0054 01000201 		.word	16908289
 174 0058 0300     		.short	3
 175 005a 0000     		.space	2
 176 005c 0700     		.short	7
 177 005e 0000     		.space	2
 178 0060 00000000 		.word	cyBle_attValuesLen
 179 0064 0400     		.short	4
 180 0066 0328     		.short	10243
 181 0068 01000200 		.word	131073
 182 006c 0500     		.short	5
 183 006e 0000     		.space	2
 184 0070 012A     		.short	10753
 185 0072 0000     		.space	2
 186 0074 00000000 		.word	0
 187 0078 0500     		.short	5
 188 007a 012A     		.short	10753
 189 007c 01000201 		.word	16908289
 190 0080 0500     		.short	5
 191 0082 0000     		.space	2
 192 0084 0200     		.short	2
 193 0086 0000     		.space	2
 194 0088 08000000 		.word	cyBle_attValuesLen+8
 195 008c 0600     		.short	6
 196 008e 0328     		.short	10243
 197 0090 01000200 		.word	131073
 198 0094 0700     		.short	7
 199 0096 0000     		.space	2
 200 0098 042A     		.short	10756
 201 009a 0000     		.space	2
 202 009c 00000000 		.word	0
 203 00a0 0700     		.short	7
 204 00a2 042A     		.short	10756
 205 00a4 01000201 		.word	16908289
 206 00a8 0700     		.short	7
 207 00aa 0000     		.space	2
 208 00ac 0800     		.short	8
 209 00ae 0000     		.space	2
 210 00b0 10000000 		.word	cyBle_attValuesLen+16
 211 00b4 0800     		.short	8
 212 00b6 0328     		.short	10243
 213 00b8 01000200 		.word	131073
 214 00bc 0900     		.short	9
 215 00be 0000     		.space	2
 216 00c0 A62A     		.short	10918
 217 00c2 0000     		.space	2
 218 00c4 00000000 		.word	0
 219 00c8 0900     		.short	9
 220 00ca A62A     		.short	10918
 221 00cc 01000201 		.word	16908289
 222 00d0 0900     		.short	9
 223 00d2 0000     		.space	2
 224 00d4 0100     		.short	1
 225 00d6 0000     		.space	2
 226 00d8 18000000 		.word	cyBle_attValuesLen+24
 227 00dc 0A00     		.short	10
 228 00de 0328     		.short	10243
ARM GAS  C:\Users\puria\AppData\Local\Temp\ccNg8omH.s 			page 5


 229 00e0 01000200 		.word	131073
 230 00e4 0B00     		.short	11
 231 00e6 0000     		.space	2
 232 00e8 C92A     		.short	10953
 233 00ea 0000     		.space	2
 234 00ec 00000000 		.word	0
 235 00f0 0B00     		.short	11
 236 00f2 C92A     		.short	10953
 237 00f4 01000201 		.word	16908289
 238 00f8 0B00     		.short	11
 239 00fa 0000     		.space	2
 240 00fc 0100     		.short	1
 241 00fe 0000     		.space	2
 242 0100 20000000 		.word	cyBle_attValuesLen+32
 243 0104 0C00     		.short	12
 244 0106 0028     		.short	10240
 245 0108 01000000 		.word	1
 246 010c 0F00     		.short	15
 247 010e 0000     		.space	2
 248 0110 0118     		.short	6145
 249 0112 0000     		.space	2
 250 0114 00000000 		.word	0
 251 0118 0D00     		.short	13
 252 011a 0328     		.short	10243
 253 011c 01002000 		.word	2097153
 254 0120 0F00     		.short	15
 255 0122 0000     		.space	2
 256 0124 052A     		.short	10757
 257 0126 0000     		.space	2
 258 0128 00000000 		.word	0
 259 012c 0E00     		.short	14
 260 012e 052A     		.short	10757
 261 0130 00002001 		.word	18874368
 262 0134 0F00     		.short	15
 263 0136 0000     		.space	2
 264 0138 0400     		.short	4
 265 013a 0000     		.space	2
 266 013c 28000000 		.word	cyBle_attValuesLen+40
 267 0140 0F00     		.short	15
 268 0142 0229     		.short	10498
 269 0144 01010A01 		.word	17432833
 270 0148 0F00     		.short	15
 271 014a 0000     		.space	2
 272 014c 0200     		.short	2
 273 014e 0000     		.space	2
 274 0150 30000000 		.word	cyBle_attValuesLen+48
 275 0154 1000     		.short	16
 276 0156 0028     		.short	10240
 277 0158 01000008 		.word	134217729
 278 015c 1400     		.short	20
 279 015e 0000     		.space	2
 280 0160 1000     		.short	16
 281 0162 0000     		.space	2
 282 0164 38000000 		.word	cyBle_attValuesLen+56
 283 0168 1100     		.short	17
 284 016a 0328     		.short	10243
 285 016c 01000A00 		.word	655361
ARM GAS  C:\Users\puria\AppData\Local\Temp\ccNg8omH.s 			page 6


 286 0170 1400     		.short	20
 287 0172 0000     		.space	2
 288 0174 1000     		.short	16
 289 0176 0000     		.space	2
 290 0178 40000000 		.word	cyBle_attValuesLen+64
 291 017c 1200     		.short	18
 292 017e 72E8     		.short	-6030
 293 0180 01010A09 		.word	151650561
 294 0184 1400     		.short	20
 295 0186 0000     		.space	2
 296 0188 0100     		.short	1
 297 018a 0000     		.space	2
 298 018c 48000000 		.word	cyBle_attValuesLen+72
 299 0190 1300     		.short	19
 300 0192 0129     		.short	10497
 301 0194 01000201 		.word	16908289
 302 0198 1300     		.short	19
 303 019a 0000     		.space	2
 304 019c 0A00     		.short	10
 305 019e 0000     		.space	2
 306 01a0 50000000 		.word	cyBle_attValuesLen+80
 307 01a4 1400     		.short	20
 308 01a6 0229     		.short	10498
 309 01a8 01010A01 		.word	17432833
 310 01ac 1400     		.short	20
 311 01ae 0000     		.space	2
 312 01b0 0200     		.short	2
 313 01b2 0000     		.space	2
 314 01b4 58000000 		.word	cyBle_attValuesLen+88
 315              		.section	.text.CyBle_GattsReInitGattDb,"ax",%progbits
 316              		.align	2
 317              		.global	CyBle_GattsReInitGattDb
 318              		.code	16
 319              		.thumb_func
 320              		.type	CyBle_GattsReInitGattDb, %function
 321              	CyBle_GattsReInitGattDb:
 322              	.LFB2:
 323              		.file 1 "Generated_Source\\PSoC4\\BLE_gatt.c"
   1:Generated_Source\PSoC4/BLE_gatt.c **** /***************************************************************************//**
   2:Generated_Source\PSoC4/BLE_gatt.c **** * \file CYBLE_gatt.c
   3:Generated_Source\PSoC4/BLE_gatt.c **** * \version 3.30
   4:Generated_Source\PSoC4/BLE_gatt.c **** * 
   5:Generated_Source\PSoC4/BLE_gatt.c **** * \brief
   6:Generated_Source\PSoC4/BLE_gatt.c **** *  This file contains the source code for the GATT API of the BLE Component.
   7:Generated_Source\PSoC4/BLE_gatt.c **** * 
   8:Generated_Source\PSoC4/BLE_gatt.c **** ********************************************************************************
   9:Generated_Source\PSoC4/BLE_gatt.c **** * \copyright
  10:Generated_Source\PSoC4/BLE_gatt.c **** * Copyright 2014-2016, Cypress Semiconductor Corporation.  All rights reserved.
  11:Generated_Source\PSoC4/BLE_gatt.c **** * You may use this file only in accordance with the license, terms, conditions,
  12:Generated_Source\PSoC4/BLE_gatt.c **** * disclaimers, and limitations in the end user license agreement accompanying
  13:Generated_Source\PSoC4/BLE_gatt.c **** * the software package with which this file was provided.
  14:Generated_Source\PSoC4/BLE_gatt.c **** *******************************************************************************/
  15:Generated_Source\PSoC4/BLE_gatt.c **** 
  16:Generated_Source\PSoC4/BLE_gatt.c **** 
  17:Generated_Source\PSoC4/BLE_gatt.c **** #include "BLE_eventHandler.h"
  18:Generated_Source\PSoC4/BLE_gatt.c **** 
  19:Generated_Source\PSoC4/BLE_gatt.c **** 
ARM GAS  C:\Users\puria\AppData\Local\Temp\ccNg8omH.s 			page 7


  20:Generated_Source\PSoC4/BLE_gatt.c **** /***************************************
  21:Generated_Source\PSoC4/BLE_gatt.c **** * Global variables
  22:Generated_Source\PSoC4/BLE_gatt.c **** ***************************************/
  23:Generated_Source\PSoC4/BLE_gatt.c **** 
  24:Generated_Source\PSoC4/BLE_gatt.c **** CYBLE_STATE_T cyBle_state;
  25:Generated_Source\PSoC4/BLE_gatt.c **** 
  26:Generated_Source\PSoC4/BLE_gatt.c **** #if ((CYBLE_MODE_PROFILE) && (CYBLE_BONDING_REQUIREMENT == CYBLE_BONDING_YES))
  27:Generated_Source\PSoC4/BLE_gatt.c ****     
  28:Generated_Source\PSoC4/BLE_gatt.c **** #if(CYBLE_MODE_PROFILE)
  29:Generated_Source\PSoC4/BLE_gatt.c ****     #if defined(__ARMCC_VERSION)
  30:Generated_Source\PSoC4/BLE_gatt.c ****         CY_ALIGN(CYDEV_FLS_ROW_SIZE) const CY_BLE_FLASH_STORAGE cyBle_flashStorage CY_SECTION(".cy_
  31:Generated_Source\PSoC4/BLE_gatt.c ****     #elif defined (__GNUC__)
  32:Generated_Source\PSoC4/BLE_gatt.c ****         const CY_BLE_FLASH_STORAGE cyBle_flashStorage CY_SECTION(".cy_checksum_exclude")
  33:Generated_Source\PSoC4/BLE_gatt.c ****             CY_ALIGN(CYDEV_FLS_ROW_SIZE) =
  34:Generated_Source\PSoC4/BLE_gatt.c ****     #elif defined (__ICCARM__)
  35:Generated_Source\PSoC4/BLE_gatt.c ****         #pragma data_alignment=CY_FLASH_SIZEOF_ROW
  36:Generated_Source\PSoC4/BLE_gatt.c ****         #pragma location=".cy_checksum_exclude"
  37:Generated_Source\PSoC4/BLE_gatt.c ****         const CY_BLE_FLASH_STORAGE cyBle_flashStorage =
  38:Generated_Source\PSoC4/BLE_gatt.c ****     #endif  /* (__ARMCC_VERSION) */
  39:Generated_Source\PSoC4/BLE_gatt.c ****     {
  40:Generated_Source\PSoC4/BLE_gatt.c ****         { 0x00u, 0x00u, 0x00u, 0x00u, 0x00u, 0x00u, 0x00u, 0x00u, 0x00u, 0x00u, 0x00u, 0x00u, 0x00u
  41:Generated_Source\PSoC4/BLE_gatt.c ****         0x00u, 0x00u, 0x00u, 0x00u, 0x00u, 0x00u, 0x00u, 0x00u, 0x00u, 0x00u, 0x00u, 0x00u, 0x00u, 
  42:Generated_Source\PSoC4/BLE_gatt.c ****         0x00u, 0x00u, 0x00u, 0x00u, 0x00u, 0x00u, 0x00u, 0x00u, 0x00u, 0x00u, 0x00u, 0x00u, 0x00u, 
  43:Generated_Source\PSoC4/BLE_gatt.c ****         0x00u, 0x00u, 0x00u, 0x00u, 0x00u, 0x00u, 0x00u, 0x00u, 0x00u, 0x00u, 0x00u, 0x00u, 0x00u, 
  44:Generated_Source\PSoC4/BLE_gatt.c ****         0x00u, 0x00u, 0x00u, 0x00u, 0x00u, 0x00u, 0x00u, 0x00u, 0x00u, 0x00u, 0x00u, 0x00u, 0x00u, 
  45:Generated_Source\PSoC4/BLE_gatt.c ****         0x00u, 0x00u, 0x00u, 0x00u, 0x00u, 0x00u, 0x00u, 0x00u, 0x00u, 0x00u, 0x00u, 0x00u, 0x00u, 
  46:Generated_Source\PSoC4/BLE_gatt.c ****         0x00u, 0x00u, 0x00u, 0x00u, 0x00u, 0x00u, 0x00u, 0x00u, 0x00u, 0x00u, 0x00u, 0x00u, 0x00u, 
  47:Generated_Source\PSoC4/BLE_gatt.c ****         0x00u, 0x00u, 0x00u, 0x00u, 0x00u, 0x00u, 0x00u, 0x00u, 0x00u, 0x00u, 0x00u, 0x00u, 0x00u, 
  48:Generated_Source\PSoC4/BLE_gatt.c ****         0x00u, 0x00u, 0x00u, 0x00u, 0x00u, 0x00u, 0x00u, 0x00u, 0x00u, 0x00u, 0x00u, 0x00u, 0x00u, 
  49:Generated_Source\PSoC4/BLE_gatt.c ****         0x00u, 0x00u, 0x00u, 0x00u, 0x00u, 0x00u, 0x00u, 0x00u, 0x00u, 0x00u, 0x00u, 0x00u, 0x00u, 
  50:Generated_Source\PSoC4/BLE_gatt.c ****         0x00u, 0x00u, 0x00u, 0x00u, 0x00u, 0x00u, 0x00u, 0x00u, 0x00u, 0x00u, 0x00u, 0x00u, 0x00u, 
  51:Generated_Source\PSoC4/BLE_gatt.c ****         0x00u, 0x00u, 0x00u, 0x00u, 0x00u, 0x00u, 0x00u, 0x00u, 0x00u, 0x00u, 0x00u, 0x00u, 0x00u, 
  52:Generated_Source\PSoC4/BLE_gatt.c ****         0x00u, 0x00u, 0x00u, 0x00u, 0x00u, 0x00u, 0x00u, 0x00u, 0x00u, 0x00u, 0x00u, 0x00u, 0x00u, 
  53:Generated_Source\PSoC4/BLE_gatt.c ****         0x00u, 0x00u, 0x00u, 0x00u, 0x00u, 0x00u, 0x00u, 0x00u, 0x00u, 0x00u, 0x00u, 0x00u, 0x00u, 
  54:Generated_Source\PSoC4/BLE_gatt.c ****         0x00u, 0x00u, 0x00u, 0x00u, 0x00u, 0x00u, 0x00u, 0x00u, 0x00u, 0x00u, 0x00u, 0x00u, 0x00u, 
  55:Generated_Source\PSoC4/BLE_gatt.c ****         0x00u, 0x00u, 0x00u, 0x00u, 0x00u, 0x00u, 0x00u, 0x00u, 0x00u, 0x00u, 0x00u, 0x00u, 0x00u, 
  56:Generated_Source\PSoC4/BLE_gatt.c ****         0x00u, 0x00u, 0x00u, 0x00u, 0x00u, 0x00u, 0x00u, 0x00u, 0x00u, 0x00u, 0x00u, 0x00u, 0x00u, 
  57:Generated_Source\PSoC4/BLE_gatt.c ****         0x00u, 0x00u, 0x00u, 0x00u, 0x00u, 0x00u, 0x00u, 0x00u, 0x00u, 0x00u, 0x00u, 0x00u, 0x00u, 
  58:Generated_Source\PSoC4/BLE_gatt.c ****         0x00u, 0x00u, 0x00u, 0x00u, 0x00u, 0x00u, 0x00u, 0x00u, 0x00u, 0x00u, 0x00u, 0x00u, 0x00u, 
  59:Generated_Source\PSoC4/BLE_gatt.c ****         0x00u, 0x00u, 0x00u, 0x00u, 0x00u, 0x00u, 0x00u, 0x00u, 0x00u, 0x00u, 0x00u, 0x00u, 0x00u, 
  60:Generated_Source\PSoC4/BLE_gatt.c ****         0x00u, 0x00u, 0x00u, 0x00u, 0x00u, 0x00u, 0x00u, 0x00u, 0x00u, 0x00u, 0x00u, 0x00u, 0x00u, 
  61:Generated_Source\PSoC4/BLE_gatt.c ****         0x00u, 0x00u, 0x00u, 0x00u, 0x00u, 0x00u, 0x00u, 0x00u, 0x00u, 0x00u, 0x00u, 0x00u, 0x00u, 
  62:Generated_Source\PSoC4/BLE_gatt.c ****         0x00u, 0x00u, 0x00u, 0x00u, 0x00u, 0x00u, 0x00u, 0x00u, 0x00u, 0x00u, 0x00u, 0x00u, 0x00u, 
  63:Generated_Source\PSoC4/BLE_gatt.c ****         0x00u, 0x00u, 0x00u, 0x00u, 0x00u, 0x00u, 0x00u, 0x00u, 0x00u, 0x00u, 0x00u, 0x00u, 0x00u, 
  64:Generated_Source\PSoC4/BLE_gatt.c ****         0x00u, 0x00u, 0x00u, 0x00u, 0x00u, 0x00u, 0x00u, 0x00u, 0x00u, 0x00u, 0x00u, 0x00u, 0x00u, 
  65:Generated_Source\PSoC4/BLE_gatt.c ****         0x00u, 0x00u, 0x00u, 0x00u, 0x00u, 0x00u, 0x00u, 0x00u, 0x00u, 0x00u, 0x00u, 0x00u, 0x00u, 
  66:Generated_Source\PSoC4/BLE_gatt.c ****         0x00u, 0x00u, 0x00u, 0x00u, 0x00u, 0x00u, 0x00u, 0x00u, 0x00u, 0x00u, 0x00u, 0x00u, 0x00u, 
  67:Generated_Source\PSoC4/BLE_gatt.c ****         0x00u, 0x00u, 0x00u, 0x00u, 0x00u, 0x00u, 0x00u, 0x00u, 0x00u, 0x00u, 0x00u, 0x00u, 0x00u, 
  68:Generated_Source\PSoC4/BLE_gatt.c ****         0x00u, 0x00u, 0x00u, 0x00u, 0x00u, 0x00u, 0x00u, 0x00u, 0x00u, 0x00u, 0x00u, 0x00u, 0x00u, 
  69:Generated_Source\PSoC4/BLE_gatt.c ****         0x00u, 0x00u, 0x00u, 0x00u, 0x00u, 0x00u, 0x00u, 0x00u, 0x00u, 0x00u, 0x00u, 0x00u, 0x00u, 
  70:Generated_Source\PSoC4/BLE_gatt.c ****         0x00u, 0x00u, 0x00u, 0x00u, 0x00u, 0x00u, 0x00u, 0x00u, 0x00u, 0x00u, 0x00u, 0x00u, 0x00u, 
  71:Generated_Source\PSoC4/BLE_gatt.c ****         0x00u, 0x00u, 0x00u, 0x00u, 0x00u, 0x00u, 0x00u, 0x00u, 0x00u, 0x00u, 0x00u, 0x00u, 0x00u, 
  72:Generated_Source\PSoC4/BLE_gatt.c ****         0x00u, 0x00u, 0x00u, 0x00u, 0x00u, 0x00u, 0x00u, 0x00u, 0x00u, 0x00u, 0x00u, 0x00u, 0x00u, 
  73:Generated_Source\PSoC4/BLE_gatt.c ****         0x00u, 0x00u, 0x00u, 0x00u, 0x00u, 0x00u, 0x00u, 0x00u, 0x00u, 0x00u, 0x00u, 0x00u, 0x00u, 
  74:Generated_Source\PSoC4/BLE_gatt.c ****         0x00u, 0x00u, 0x00u, 0x00u, 0x00u, 0x00u, 0x00u, 0x00u, 0x00u, 0x00u, 0x00u, 0x00u, 0x00u, 
  75:Generated_Source\PSoC4/BLE_gatt.c ****         0x00u, 0x00u, 0x00u, 0x00u, 0x00u, 0x00u, 0x00u, 0x00u, 0x00u, 0x00u, 0x00u, 0x00u, 0x00u, 
  76:Generated_Source\PSoC4/BLE_gatt.c ****         0x00u, 0x00u, 0x00u, 0x00u, 0x00u, 0x00u, 0x00u, 0x00u, 0x00u, 0x00u, 0x00u, 0x00u, 0x00u, 
ARM GAS  C:\Users\puria\AppData\Local\Temp\ccNg8omH.s 			page 8


  77:Generated_Source\PSoC4/BLE_gatt.c ****         0x00u, 0x00u, 0x00u, 0x00u, 0x00u, 0x00u, 0x00u, 0x00u, 0x00u, 0x00u, 0x00u, 0x00u, 0x00u, 
  78:Generated_Source\PSoC4/BLE_gatt.c ****         0x00u, 0x00u, 0x00u, 0x00u, 0x00u, 0x00u, 0x00u, 0x00u, 0x00u, 0x00u, 0x00u, 0x00u, 0x00u, 
  79:Generated_Source\PSoC4/BLE_gatt.c ****         0x00u, 0x00u, 0x00u, 0x00u, 0x00u, 0x00u, 0x00u, 0x00u, 0x00u, 0x00u }, 
  80:Generated_Source\PSoC4/BLE_gatt.c ****         {{
  81:Generated_Source\PSoC4/BLE_gatt.c ****             0x00u, 0x00u,
  82:Generated_Source\PSoC4/BLE_gatt.c ****             0x00u, 0x00u,
  83:Generated_Source\PSoC4/BLE_gatt.c ****         },
  84:Generated_Source\PSoC4/BLE_gatt.c ****         {
  85:Generated_Source\PSoC4/BLE_gatt.c ****             0x00u, 0x00u,
  86:Generated_Source\PSoC4/BLE_gatt.c ****             0x00u, 0x00u,
  87:Generated_Source\PSoC4/BLE_gatt.c ****         },
  88:Generated_Source\PSoC4/BLE_gatt.c ****         {
  89:Generated_Source\PSoC4/BLE_gatt.c ****             0x00u, 0x00u,
  90:Generated_Source\PSoC4/BLE_gatt.c ****             0x00u, 0x00u,
  91:Generated_Source\PSoC4/BLE_gatt.c ****         },
  92:Generated_Source\PSoC4/BLE_gatt.c ****         {
  93:Generated_Source\PSoC4/BLE_gatt.c ****             0x00u, 0x00u,
  94:Generated_Source\PSoC4/BLE_gatt.c ****             0x00u, 0x00u,
  95:Generated_Source\PSoC4/BLE_gatt.c ****         },
  96:Generated_Source\PSoC4/BLE_gatt.c ****         {
  97:Generated_Source\PSoC4/BLE_gatt.c ****             0x00u, 0x00u,
  98:Generated_Source\PSoC4/BLE_gatt.c ****             0x00u, 0x00u,
  99:Generated_Source\PSoC4/BLE_gatt.c ****         }}, 
 100:Generated_Source\PSoC4/BLE_gatt.c ****         0x04u, /* CYBLE_GATT_DB_CCCD_COUNT */ 
 101:Generated_Source\PSoC4/BLE_gatt.c ****         0x05u, /* CYBLE_GAP_MAX_BONDED_DEVICE */ 
 102:Generated_Source\PSoC4/BLE_gatt.c ****     };
 103:Generated_Source\PSoC4/BLE_gatt.c **** #endif /* (CYBLE_MODE_PROFILE) */
 104:Generated_Source\PSoC4/BLE_gatt.c **** 
 105:Generated_Source\PSoC4/BLE_gatt.c **** #endif  /* (CYBLE_MODE_PROFILE) && (CYBLE_BONDING_REQUIREMENT == CYBLE_BONDING_YES) */
 106:Generated_Source\PSoC4/BLE_gatt.c **** 
 107:Generated_Source\PSoC4/BLE_gatt.c **** #if(CYBLE_GATT_ROLE_SERVER)
 108:Generated_Source\PSoC4/BLE_gatt.c ****     
 109:Generated_Source\PSoC4/BLE_gatt.c ****     const CYBLE_GATTS_T cyBle_gatts =
 110:Generated_Source\PSoC4/BLE_gatt.c **** {
 111:Generated_Source\PSoC4/BLE_gatt.c ****     0x000Cu,    /* Handle of the GATT service */
 112:Generated_Source\PSoC4/BLE_gatt.c ****     0x000Eu,    /* Handle of the Service Changed characteristic */
 113:Generated_Source\PSoC4/BLE_gatt.c ****     0x000Fu,    /* Handle of the Client Characteristic Configuration descriptor */
 114:Generated_Source\PSoC4/BLE_gatt.c **** };
 115:Generated_Source\PSoC4/BLE_gatt.c ****     
 116:Generated_Source\PSoC4/BLE_gatt.c ****     static uint8 cyBle_attValues[0x22u] = {
 117:Generated_Source\PSoC4/BLE_gatt.c ****     /* Device Name */
 118:Generated_Source\PSoC4/BLE_gatt.c ****     (uint8)'C', (uint8)'P', (uint8)'P', (uint8)'P', (uint8)' ', (uint8)'#', (uint8)'4',
 119:Generated_Source\PSoC4/BLE_gatt.c **** 
 120:Generated_Source\PSoC4/BLE_gatt.c ****     /* Appearance */
 121:Generated_Source\PSoC4/BLE_gatt.c ****     0x00u, 0x00u,
 122:Generated_Source\PSoC4/BLE_gatt.c **** 
 123:Generated_Source\PSoC4/BLE_gatt.c ****     /* Peripheral Preferred Connection Parameters */
 124:Generated_Source\PSoC4/BLE_gatt.c ****     0x06u, 0x00u, 0x28u, 0x00u, 0x00u, 0x00u, 0xE8u, 0x03u,
 125:Generated_Source\PSoC4/BLE_gatt.c **** 
 126:Generated_Source\PSoC4/BLE_gatt.c ****     /* Central Address Resolution */
 127:Generated_Source\PSoC4/BLE_gatt.c ****     0x00u,
 128:Generated_Source\PSoC4/BLE_gatt.c **** 
 129:Generated_Source\PSoC4/BLE_gatt.c ****     /* Resolvable Private Address Only */
 130:Generated_Source\PSoC4/BLE_gatt.c ****     0x00u,
 131:Generated_Source\PSoC4/BLE_gatt.c **** 
 132:Generated_Source\PSoC4/BLE_gatt.c ****     /* Service Changed */
 133:Generated_Source\PSoC4/BLE_gatt.c ****     0x00u, 0x00u, 0x00u, 0x00u,
ARM GAS  C:\Users\puria\AppData\Local\Temp\ccNg8omH.s 			page 9


 134:Generated_Source\PSoC4/BLE_gatt.c **** 
 135:Generated_Source\PSoC4/BLE_gatt.c ****     /* Joystick 1 */
 136:Generated_Source\PSoC4/BLE_gatt.c ****     0x00u,
 137:Generated_Source\PSoC4/BLE_gatt.c **** 
 138:Generated_Source\PSoC4/BLE_gatt.c ****     /* Characteristic User Description */
 139:Generated_Source\PSoC4/BLE_gatt.c ****     (uint8)'J', (uint8)'o', (uint8)'y', (uint8)'s', (uint8)'t', (uint8)'i', (uint8)'c', (uint8)'k',
 140:Generated_Source\PSoC4/BLE_gatt.c ****     (uint8)'1',
 141:Generated_Source\PSoC4/BLE_gatt.c **** 
 142:Generated_Source\PSoC4/BLE_gatt.c **** };
 143:Generated_Source\PSoC4/BLE_gatt.c **** #if(CYBLE_GATT_DB_CCCD_COUNT != 0u)
 144:Generated_Source\PSoC4/BLE_gatt.c **** uint8 cyBle_attValuesCCCD[CYBLE_GATT_DB_CCCD_COUNT];
 145:Generated_Source\PSoC4/BLE_gatt.c **** #endif /* CYBLE_GATT_DB_CCCD_COUNT != 0u */
 146:Generated_Source\PSoC4/BLE_gatt.c **** 
 147:Generated_Source\PSoC4/BLE_gatt.c **** const uint8 cyBle_attUuid128[][16u] = {
 148:Generated_Source\PSoC4/BLE_gatt.c ****     /* Periphery */
 149:Generated_Source\PSoC4/BLE_gatt.c ****     { 0x62u, 0xF0u, 0x58u, 0x22u, 0x55u, 0x2Du, 0xA4u, 0xB6u, 0x54u, 0x4Bu, 0xC2u, 0xC4u, 0x24u, 0x
 150:Generated_Source\PSoC4/BLE_gatt.c ****     /* Joystick 1 */
 151:Generated_Source\PSoC4/BLE_gatt.c ****     { 0x33u, 0xABu, 0xC8u, 0xC1u, 0x07u, 0x4Fu, 0xFEu, 0xAFu, 0xCBu, 0x46u, 0x35u, 0x71u, 0x72u, 0x
 152:Generated_Source\PSoC4/BLE_gatt.c **** };
 153:Generated_Source\PSoC4/BLE_gatt.c **** 
 154:Generated_Source\PSoC4/BLE_gatt.c **** CYBLE_GATTS_ATT_GEN_VAL_LEN_T cyBle_attValuesLen[CYBLE_GATT_DB_ATT_VAL_COUNT] = {
 155:Generated_Source\PSoC4/BLE_gatt.c ****     { 0x0007u, (void *)&cyBle_attValues[0] }, /* Device Name */
 156:Generated_Source\PSoC4/BLE_gatt.c ****     { 0x0002u, (void *)&cyBle_attValues[7] }, /* Appearance */
 157:Generated_Source\PSoC4/BLE_gatt.c ****     { 0x0008u, (void *)&cyBle_attValues[9] }, /* Peripheral Preferred Connection Parameters */
 158:Generated_Source\PSoC4/BLE_gatt.c ****     { 0x0001u, (void *)&cyBle_attValues[17] }, /* Central Address Resolution */
 159:Generated_Source\PSoC4/BLE_gatt.c ****     { 0x0001u, (void *)&cyBle_attValues[18] }, /* Resolvable Private Address Only */
 160:Generated_Source\PSoC4/BLE_gatt.c ****     { 0x0004u, (void *)&cyBle_attValues[19] }, /* Service Changed */
 161:Generated_Source\PSoC4/BLE_gatt.c ****     { 0x0002u, (void *)&cyBle_attValuesCCCD[0] }, /* Client Characteristic Configuration */
 162:Generated_Source\PSoC4/BLE_gatt.c ****     { 0x0010u, (void *)&cyBle_attUuid128[0] }, /* Periphery UUID */
 163:Generated_Source\PSoC4/BLE_gatt.c ****     { 0x0010u, (void *)&cyBle_attUuid128[1] }, /* Joystick 1 UUID */
 164:Generated_Source\PSoC4/BLE_gatt.c ****     { 0x0001u, (void *)&cyBle_attValues[23] }, /* Joystick 1 */
 165:Generated_Source\PSoC4/BLE_gatt.c ****     { 0x000Au, (void *)&cyBle_attValues[24] }, /* Characteristic User Description */
 166:Generated_Source\PSoC4/BLE_gatt.c ****     { 0x0002u, (void *)&cyBle_attValuesCCCD[2] }, /* Client Characteristic Configuration */
 167:Generated_Source\PSoC4/BLE_gatt.c **** };
 168:Generated_Source\PSoC4/BLE_gatt.c **** 
 169:Generated_Source\PSoC4/BLE_gatt.c **** const CYBLE_GATTS_DB_T cyBle_gattDB[0x14u] = {
 170:Generated_Source\PSoC4/BLE_gatt.c ****     { 0x0001u, 0x2800u /* Primary service                     */, 0x00000001u /*       */, 0x000Bu,
 171:Generated_Source\PSoC4/BLE_gatt.c ****     { 0x0002u, 0x2803u /* Characteristic                      */, 0x00020001u /* rd    */, 0x0003u,
 172:Generated_Source\PSoC4/BLE_gatt.c ****     { 0x0003u, 0x2A00u /* Device Name                         */, 0x01020001u /* rd    */, 0x0003u,
 173:Generated_Source\PSoC4/BLE_gatt.c ****     { 0x0004u, 0x2803u /* Characteristic                      */, 0x00020001u /* rd    */, 0x0005u,
 174:Generated_Source\PSoC4/BLE_gatt.c ****     { 0x0005u, 0x2A01u /* Appearance                          */, 0x01020001u /* rd    */, 0x0005u,
 175:Generated_Source\PSoC4/BLE_gatt.c ****     { 0x0006u, 0x2803u /* Characteristic                      */, 0x00020001u /* rd    */, 0x0007u,
 176:Generated_Source\PSoC4/BLE_gatt.c ****     { 0x0007u, 0x2A04u /* Peripheral Preferred Connection Par */, 0x01020001u /* rd    */, 0x0007u,
 177:Generated_Source\PSoC4/BLE_gatt.c ****     { 0x0008u, 0x2803u /* Characteristic                      */, 0x00020001u /* rd    */, 0x0009u,
 178:Generated_Source\PSoC4/BLE_gatt.c ****     { 0x0009u, 0x2AA6u /* Central Address Resolution          */, 0x01020001u /* rd    */, 0x0009u,
 179:Generated_Source\PSoC4/BLE_gatt.c ****     { 0x000Au, 0x2803u /* Characteristic                      */, 0x00020001u /* rd    */, 0x000Bu,
 180:Generated_Source\PSoC4/BLE_gatt.c ****     { 0x000Bu, 0x2AC9u /* Resolvable Private Address Only     */, 0x01020001u /* rd    */, 0x000Bu,
 181:Generated_Source\PSoC4/BLE_gatt.c ****     { 0x000Cu, 0x2800u /* Primary service                     */, 0x00000001u /*       */, 0x000Fu,
 182:Generated_Source\PSoC4/BLE_gatt.c ****     { 0x000Du, 0x2803u /* Characteristic                      */, 0x00200001u /* ind   */, 0x000Fu,
 183:Generated_Source\PSoC4/BLE_gatt.c ****     { 0x000Eu, 0x2A05u /* Service Changed                     */, 0x01200000u /* ind   */, 0x000Fu,
 184:Generated_Source\PSoC4/BLE_gatt.c ****     { 0x000Fu, 0x2902u /* Client Characteristic Configuration */, 0x010A0101u /* rd,wr */, 0x000Fu,
 185:Generated_Source\PSoC4/BLE_gatt.c ****     { 0x0010u, 0x2800u /* Primary service                     */, 0x08000001u /*       */, 0x0014u,
 186:Generated_Source\PSoC4/BLE_gatt.c ****     { 0x0011u, 0x2803u /* Characteristic                      */, 0x000A0001u /* rd,wr */, 0x0014u,
 187:Generated_Source\PSoC4/BLE_gatt.c ****     { 0x0012u, 0xE872u /* Joystick 1                          */, 0x090A0101u /* rd,wr */, 0x0014u,
 188:Generated_Source\PSoC4/BLE_gatt.c ****     { 0x0013u, 0x2901u /* Characteristic User Description     */, 0x01020001u /* rd    */, 0x0013u,
 189:Generated_Source\PSoC4/BLE_gatt.c ****     { 0x0014u, 0x2902u /* Client Characteristic Configuration */, 0x010A0101u /* rd,wr */, 0x0014u,
 190:Generated_Source\PSoC4/BLE_gatt.c **** };
ARM GAS  C:\Users\puria\AppData\Local\Temp\ccNg8omH.s 			page 10


 191:Generated_Source\PSoC4/BLE_gatt.c **** 
 192:Generated_Source\PSoC4/BLE_gatt.c **** 
 193:Generated_Source\PSoC4/BLE_gatt.c **** #endif /* (CYBLE_GATT_ROLE_SERVER) */
 194:Generated_Source\PSoC4/BLE_gatt.c **** 
 195:Generated_Source\PSoC4/BLE_gatt.c **** #if(CYBLE_GATT_ROLE_CLIENT)
 196:Generated_Source\PSoC4/BLE_gatt.c ****     
 197:Generated_Source\PSoC4/BLE_gatt.c **** CYBLE_CLIENT_STATE_T cyBle_clientState;
 198:Generated_Source\PSoC4/BLE_gatt.c **** CYBLE_GATTC_T cyBle_gattc;
 199:Generated_Source\PSoC4/BLE_gatt.c **** CYBLE_GATT_ATTR_HANDLE_RANGE_T cyBle_gattcDiscoveryRange;
 200:Generated_Source\PSoC4/BLE_gatt.c ****     
 201:Generated_Source\PSoC4/BLE_gatt.c **** #endif /* (CYBLE_GATT_ROLE_CLIENT) */
 202:Generated_Source\PSoC4/BLE_gatt.c **** 
 203:Generated_Source\PSoC4/BLE_gatt.c **** 
 204:Generated_Source\PSoC4/BLE_gatt.c **** #if(CYBLE_GATT_ROLE_SERVER)
 205:Generated_Source\PSoC4/BLE_gatt.c **** 
 206:Generated_Source\PSoC4/BLE_gatt.c **** /****************************************************************************** 
 207:Generated_Source\PSoC4/BLE_gatt.c **** * Function Name: CyBle_GattsReInitGattDb
 208:Generated_Source\PSoC4/BLE_gatt.c **** ***************************************************************************//**
 209:Generated_Source\PSoC4/BLE_gatt.c **** * 
 210:Generated_Source\PSoC4/BLE_gatt.c **** *  Reinitializes the GATT database.
 211:Generated_Source\PSoC4/BLE_gatt.c **** * 
 212:Generated_Source\PSoC4/BLE_gatt.c **** *  \return
 213:Generated_Source\PSoC4/BLE_gatt.c **** *  CYBLE_API_RESULT_T: An API result states if the API succeeded or failed with
 214:Generated_Source\PSoC4/BLE_gatt.c **** *  error codes:
 215:Generated_Source\PSoC4/BLE_gatt.c **** 
 216:Generated_Source\PSoC4/BLE_gatt.c **** *  Errors codes                          | Description
 217:Generated_Source\PSoC4/BLE_gatt.c **** *  ------------                          | -----------
 218:Generated_Source\PSoC4/BLE_gatt.c **** *  CYBLE_ERROR_OK						 | GATT database was reinitialized successfully.
 219:Generated_Source\PSoC4/BLE_gatt.c **** *  CYBLE_ERROR_INVALID_STATE             | If the function is called in any state except CYBLE_STAT
 220:Generated_Source\PSoC4/BLE_gatt.c **** *  CYBLE_ERROR_INVALID_PARAMETER         | If the Database has zero entries or is a NULL pointer.
 221:Generated_Source\PSoC4/BLE_gatt.c **** * 
 222:Generated_Source\PSoC4/BLE_gatt.c **** ******************************************************************************/
 223:Generated_Source\PSoC4/BLE_gatt.c **** CYBLE_API_RESULT_T CyBle_GattsReInitGattDb(void)
 224:Generated_Source\PSoC4/BLE_gatt.c **** {
 324              		.loc 1 224 0
 325              		.cfi_startproc
 326              		@ args = 0, pretend = 0, frame = 8
 327              		@ frame_needed = 1, uses_anonymous_args = 0
 328 0000 90B5     		push	{r4, r7, lr}
 329              		.cfi_def_cfa_offset 12
 330              		.cfi_offset 4, -12
 331              		.cfi_offset 7, -8
 332              		.cfi_offset 14, -4
 333 0002 83B0     		sub	sp, sp, #12
 334              		.cfi_def_cfa_offset 24
 335 0004 00AF     		add	r7, sp, #0
 336              		.cfi_def_cfa_register 7
 225:Generated_Source\PSoC4/BLE_gatt.c ****     CYBLE_API_RESULT_T apiResult;
 226:Generated_Source\PSoC4/BLE_gatt.c ****     
 227:Generated_Source\PSoC4/BLE_gatt.c ****     if(CyBle_GetState() == CYBLE_STATE_DISCONNECTED)
 337              		.loc 1 227 0
 338 0006 0C4B     		ldr	r3, .L5
 339 0008 1B78     		ldrb	r3, [r3]
 340 000a 042B     		cmp	r3, #4
 341 000c 09D1     		bne	.L2
 228:Generated_Source\PSoC4/BLE_gatt.c ****     {
 229:Generated_Source\PSoC4/BLE_gatt.c ****         apiResult = CyBle_GattsDbRegister(cyBle_gattDB, CYBLE_GATT_DB_INDEX_COUNT, CYBLE_GATT_DB_MA
ARM GAS  C:\Users\puria\AppData\Local\Temp\ccNg8omH.s 			page 11


 342              		.loc 1 229 0
 343 000e BC1D     		adds	r4, r7, #6
 344 0010 0A4B     		ldr	r3, .L5+4
 345 0012 0A22     		movs	r2, #10
 346 0014 1421     		movs	r1, #20
 347 0016 1800     		movs	r0, r3
 348 0018 FFF7FEFF 		bl	CyBle_GattsDbRegister
 349 001c 0300     		movs	r3, r0
 350 001e 2380     		strh	r3, [r4]
 351 0020 03E0     		b	.L3
 352              	.L2:
 230:Generated_Source\PSoC4/BLE_gatt.c ****     }
 231:Generated_Source\PSoC4/BLE_gatt.c ****     else
 232:Generated_Source\PSoC4/BLE_gatt.c ****     {
 233:Generated_Source\PSoC4/BLE_gatt.c ****         apiResult = CYBLE_ERROR_INVALID_STATE;
 353              		.loc 1 233 0
 354 0022 BB1D     		adds	r3, r7, #6
 355 0024 0422     		movs	r2, #4
 356 0026 FF32     		adds	r2, r2, #255
 357 0028 1A80     		strh	r2, [r3]
 358              	.L3:
 234:Generated_Source\PSoC4/BLE_gatt.c ****     }
 235:Generated_Source\PSoC4/BLE_gatt.c ****     
 236:Generated_Source\PSoC4/BLE_gatt.c ****     return(apiResult);
 359              		.loc 1 236 0
 360 002a BB1D     		adds	r3, r7, #6
 361 002c 1B88     		ldrh	r3, [r3]
 237:Generated_Source\PSoC4/BLE_gatt.c **** }
 362              		.loc 1 237 0
 363 002e 1800     		movs	r0, r3
 364 0030 BD46     		mov	sp, r7
 365 0032 03B0     		add	sp, sp, #12
 366              		@ sp needed
 367 0034 90BD     		pop	{r4, r7, pc}
 368              	.L6:
 369 0036 C046     		.align	2
 370              	.L5:
 371 0038 00000000 		.word	cyBle_state
 372 003c 00000000 		.word	cyBle_gattDB
 373              		.cfi_endproc
 374              	.LFE2:
 375              		.size	CyBle_GattsReInitGattDb, .-CyBle_GattsReInitGattDb
 376              		.section	.text.CyBle_GattsWriteEventHandler,"ax",%progbits
 377              		.align	2
 378              		.global	CyBle_GattsWriteEventHandler
 379              		.code	16
 380              		.thumb_func
 381              		.type	CyBle_GattsWriteEventHandler, %function
 382              	CyBle_GattsWriteEventHandler:
 383              	.LFB3:
 238:Generated_Source\PSoC4/BLE_gatt.c **** 
 239:Generated_Source\PSoC4/BLE_gatt.c **** 
 240:Generated_Source\PSoC4/BLE_gatt.c **** /****************************************************************************** 
 241:Generated_Source\PSoC4/BLE_gatt.c **** * Function Name: CyBle_GattsWriteEventHandler
 242:Generated_Source\PSoC4/BLE_gatt.c **** ***************************************************************************//**
 243:Generated_Source\PSoC4/BLE_gatt.c **** * 
 244:Generated_Source\PSoC4/BLE_gatt.c **** *  Handles the Write Request Event for GATT service.
ARM GAS  C:\Users\puria\AppData\Local\Temp\ccNg8omH.s 			page 12


 245:Generated_Source\PSoC4/BLE_gatt.c **** * 
 246:Generated_Source\PSoC4/BLE_gatt.c **** *  \param eventParam: The pointer to the data structure specified by the event.
 247:Generated_Source\PSoC4/BLE_gatt.c **** * 
 248:Generated_Source\PSoC4/BLE_gatt.c **** *  \return
 249:Generated_Source\PSoC4/BLE_gatt.c **** *  CYBLE_GATT_ERR_CODE_T: An API result returns one of the following status 
 250:Generated_Source\PSoC4/BLE_gatt.c **** *  values.
 251:Generated_Source\PSoC4/BLE_gatt.c **** 
 252:Generated_Source\PSoC4/BLE_gatt.c **** *  Errors codes                          | Description
 253:Generated_Source\PSoC4/BLE_gatt.c **** *  --------------------                  | -----------
 254:Generated_Source\PSoC4/BLE_gatt.c **** *  CYBLE_GATT_ERR_NONE                   | Write is successful.
 255:Generated_Source\PSoC4/BLE_gatt.c **** * 
 256:Generated_Source\PSoC4/BLE_gatt.c **** ******************************************************************************/
 257:Generated_Source\PSoC4/BLE_gatt.c **** CYBLE_GATT_ERR_CODE_T CyBle_GattsWriteEventHandler(CYBLE_GATTS_WRITE_REQ_PARAM_T *eventParam)
 258:Generated_Source\PSoC4/BLE_gatt.c **** {
 384              		.loc 1 258 0
 385              		.cfi_startproc
 386              		@ args = 0, pretend = 0, frame = 16
 387              		@ frame_needed = 1, uses_anonymous_args = 0
 388 0000 90B5     		push	{r4, r7, lr}
 389              		.cfi_def_cfa_offset 12
 390              		.cfi_offset 4, -12
 391              		.cfi_offset 7, -8
 392              		.cfi_offset 14, -4
 393 0002 85B0     		sub	sp, sp, #20
 394              		.cfi_def_cfa_offset 32
 395 0004 00AF     		add	r7, sp, #0
 396              		.cfi_def_cfa_register 7
 397 0006 7860     		str	r0, [r7, #4]
 259:Generated_Source\PSoC4/BLE_gatt.c ****     CYBLE_GATT_ERR_CODE_T gattErr = CYBLE_GATT_ERR_NONE;
 398              		.loc 1 259 0
 399 0008 0F23     		movs	r3, #15
 400 000a FB18     		adds	r3, r7, r3
 401 000c 0022     		movs	r2, #0
 402 000e 1A70     		strb	r2, [r3]
 260:Generated_Source\PSoC4/BLE_gatt.c ****     
 261:Generated_Source\PSoC4/BLE_gatt.c ****     /* Client Characteristic Configuration descriptor write request */
 262:Generated_Source\PSoC4/BLE_gatt.c ****     if(eventParam->handleValPair.attrHandle == cyBle_gatts.cccdHandle)
 403              		.loc 1 262 0
 404 0010 7B68     		ldr	r3, [r7, #4]
 405 0012 9B89     		ldrh	r3, [r3, #12]
 406 0014 0F22     		movs	r2, #15
 407 0016 9342     		cmp	r3, r2
 408 0018 32D1     		bne	.L8
 263:Generated_Source\PSoC4/BLE_gatt.c ****     {
 264:Generated_Source\PSoC4/BLE_gatt.c ****         /* Store value to database */
 265:Generated_Source\PSoC4/BLE_gatt.c ****         gattErr = CyBle_GattsWriteAttributeValue(&eventParam->handleValPair, 0u, 
 409              		.loc 1 265 0
 410 001a 7B68     		ldr	r3, [r7, #4]
 411 001c 181D     		adds	r0, r3, #4
 412 001e 7A68     		ldr	r2, [r7, #4]
 413 0020 0F23     		movs	r3, #15
 414 0022 FC18     		adds	r4, r7, r3
 415 0024 4023     		movs	r3, #64
 416 0026 0021     		movs	r1, #0
 417 0028 FFF7FEFF 		bl	CyBle_GattsWriteAttributeValue
 418 002c 0300     		movs	r3, r0
 419 002e 2370     		strb	r3, [r4]
ARM GAS  C:\Users\puria\AppData\Local\Temp\ccNg8omH.s 			page 13


 266:Generated_Source\PSoC4/BLE_gatt.c ****                         &eventParam->connHandle, CYBLE_GATT_DB_PEER_INITIATED);
 267:Generated_Source\PSoC4/BLE_gatt.c ****         
 268:Generated_Source\PSoC4/BLE_gatt.c ****         if(gattErr == CYBLE_GATT_ERR_NONE)
 420              		.loc 1 268 0
 421 0030 0F23     		movs	r3, #15
 422 0032 FB18     		adds	r3, r7, r3
 423 0034 1B78     		ldrb	r3, [r3]
 424 0036 002B     		cmp	r3, #0
 425 0038 1AD1     		bne	.L9
 269:Generated_Source\PSoC4/BLE_gatt.c ****         {
 270:Generated_Source\PSoC4/BLE_gatt.c ****             if(CYBLE_IS_INDICATION_ENABLED_IN_PTR(eventParam->handleValPair.value.val))
 426              		.loc 1 270 0
 427 003a 7B68     		ldr	r3, [r7, #4]
 428 003c 5B68     		ldr	r3, [r3, #4]
 429 003e 1800     		movs	r0, r3
 430 0040 FFF7FEFF 		bl	CyBle_Get16ByPtr
 431 0044 0300     		movs	r3, r0
 432 0046 1A00     		movs	r2, r3
 433 0048 0223     		movs	r3, #2
 434 004a 1340     		ands	r3, r2
 435 004c 9BB2     		uxth	r3, r3
 436 004e 002B     		cmp	r3, #0
 437 0050 07D0     		beq	.L10
 271:Generated_Source\PSoC4/BLE_gatt.c ****             {
 272:Generated_Source\PSoC4/BLE_gatt.c ****                 CyBle_ApplCallback((uint32)CYBLE_EVT_GATTS_INDICATION_ENABLED, eventParam);
 438              		.loc 1 272 0
 439 0052 0F4B     		ldr	r3, .L12
 440 0054 1B68     		ldr	r3, [r3]
 441 0056 7968     		ldr	r1, [r7, #4]
 442 0058 8222     		movs	r2, #130
 443 005a 5200     		lsls	r2, r2, #1
 444 005c 1000     		movs	r0, r2
 445 005e 9847     		blx	r3
 446 0060 06E0     		b	.L9
 447              	.L10:
 273:Generated_Source\PSoC4/BLE_gatt.c ****             }
 274:Generated_Source\PSoC4/BLE_gatt.c ****             else
 275:Generated_Source\PSoC4/BLE_gatt.c ****             {
 276:Generated_Source\PSoC4/BLE_gatt.c ****                 CyBle_ApplCallback((uint32)CYBLE_EVT_GATTS_INDICATION_DISABLED, eventParam);
 448              		.loc 1 276 0
 449 0062 0B4B     		ldr	r3, .L12
 450 0064 1B68     		ldr	r3, [r3]
 451 0066 7968     		ldr	r1, [r7, #4]
 452 0068 0622     		movs	r2, #6
 453 006a FF32     		adds	r2, r2, #255
 454 006c 1000     		movs	r0, r2
 455 006e 9847     		blx	r3
 456              	.L9:
 277:Generated_Source\PSoC4/BLE_gatt.c ****             }
 278:Generated_Source\PSoC4/BLE_gatt.c ****         }
 279:Generated_Source\PSoC4/BLE_gatt.c ****         cyBle_eventHandlerFlag &= (uint8)~CYBLE_CALLBACK;
 457              		.loc 1 279 0
 458 0070 084B     		ldr	r3, .L12+4
 459 0072 1B78     		ldrb	r3, [r3]
 460 0074 DBB2     		uxtb	r3, r3
 461 0076 0122     		movs	r2, #1
 462 0078 9343     		bics	r3, r2
ARM GAS  C:\Users\puria\AppData\Local\Temp\ccNg8omH.s 			page 14


 463 007a DAB2     		uxtb	r2, r3
 464 007c 054B     		ldr	r3, .L12+4
 465 007e 1A70     		strb	r2, [r3]
 466              	.L8:
 280:Generated_Source\PSoC4/BLE_gatt.c ****     }
 281:Generated_Source\PSoC4/BLE_gatt.c ****     return (gattErr);
 467              		.loc 1 281 0
 468 0080 0F23     		movs	r3, #15
 469 0082 FB18     		adds	r3, r7, r3
 470 0084 1B78     		ldrb	r3, [r3]
 282:Generated_Source\PSoC4/BLE_gatt.c **** }
 471              		.loc 1 282 0
 472 0086 1800     		movs	r0, r3
 473 0088 BD46     		mov	sp, r7
 474 008a 05B0     		add	sp, sp, #20
 475              		@ sp needed
 476 008c 90BD     		pop	{r4, r7, pc}
 477              	.L13:
 478 008e C046     		.align	2
 479              	.L12:
 480 0090 00000000 		.word	CyBle_ApplCallback
 481 0094 00000000 		.word	cyBle_eventHandlerFlag
 482              		.cfi_endproc
 483              	.LFE3:
 484              		.size	CyBle_GattsWriteEventHandler, .-CyBle_GattsWriteEventHandler
 485              		.text
 486              	.Letext0:
 487              		.file 2 "Generated_Source\\PSoC4\\cytypes.h"
 488              		.file 3 "Generated_Source\\PSoC4\\BLE_Stack.h"
 489              		.file 4 "Generated_Source\\PSoC4\\BLE_StackGatt.h"
 490              		.file 5 "Generated_Source\\PSoC4\\BLE_StackGattServer.h"
 491              		.file 6 "Generated_Source\\PSoC4\\BLE_StackGattDb.h"
 492              		.file 7 "Generated_Source\\PSoC4\\BLE.h"
 493              		.file 8 "Generated_Source\\PSoC4\\BLE_gatt.h"
 494              		.file 9 "Generated_Source\\PSoC4\\BLE_eventHandler.h"