ARM GAS  C:\Users\puria\AppData\Local\Temp\cc07Gu7s.s 			page 1


   1              		.syntax unified
   2              		.cpu cortex-m0
   3              		.fpu softvfp
   4              		.eabi_attribute 20, 1
   5              		.eabi_attribute 21, 1
   6              		.eabi_attribute 23, 3
   7              		.eabi_attribute 24, 1
   8              		.eabi_attribute 25, 1
   9              		.eabi_attribute 26, 1
  10              		.eabi_attribute 30, 6
  11              		.eabi_attribute 34, 0
  12              		.eabi_attribute 18, 4
  13              		.thumb
  14              		.syntax unified
  15              		.file	"BLE_1_hids.c"
  16              		.text
  17              	.Ltext0:
  18              		.cfi_sections	.debug_frame
  19              		.bss
  20              		.align	2
  21              	CyBle_HidsApplCallback:
  22 0000 00000000 		.space	4
  23              		.section	.rodata
  24              		.align	2
  25              		.type	cyBle_hids1ReportArray, %object
  26              		.size	cyBle_hids1ReportArray, 6
  27              	cyBle_hids1ReportArray:
  28 0000 1000     		.short	16
  29 0002 1100     		.short	17
  30 0004 1200     		.short	18
  31              		.global	cyBle_hidss
  32 0006 0000     		.align	2
  33              		.type	cyBle_hidss, %object
  34              		.size	cyBle_hidss, 40
  35              	cyBle_hidss:
  36 0008 0C00     		.short	12
  37 000a 0E00     		.short	14
  38 000c 01       		.byte	1
  39 000d 000000   		.space	3
  40 0010 00000000 		.word	cyBle_hids1ReportArray
  41 0014 1700     		.short	23
  42 0016 1800     		.short	24
  43 0018 0000     		.short	0
  44 001a 1A00     		.short	26
  45 001c 0000     		.short	0
  46 001e 0000     		.short	0
  47 0020 1C00     		.short	28
  48 0022 1D00     		.short	29
  49 0024 0000     		.short	0
  50 0026 1400     		.short	20
  51 0028 1500     		.short	21
  52 002a 1F00     		.short	31
  53 002c 2100     		.short	33
  54 002e 0000     		.space	2
  55              		.section	.text.CyBle_HidsInit,"ax",%progbits
  56              		.align	2
  57              		.global	CyBle_HidsInit
ARM GAS  C:\Users\puria\AppData\Local\Temp\cc07Gu7s.s 			page 2


  58              		.code	16
  59              		.thumb_func
  60              		.type	CyBle_HidsInit, %function
  61              	CyBle_HidsInit:
  62              	.LFB2:
  63              		.file 1 "Generated_Source\\PSoC4\\BLE_1_hids.c"
   1:Generated_Source\PSoC4/BLE_1_hids.c **** /***************************************************************************//**
   2:Generated_Source\PSoC4/BLE_1_hids.c **** * \file CYBLE_hids.c
   3:Generated_Source\PSoC4/BLE_1_hids.c **** * \version 3.30
   4:Generated_Source\PSoC4/BLE_1_hids.c **** * 
   5:Generated_Source\PSoC4/BLE_1_hids.c **** * \brief
   6:Generated_Source\PSoC4/BLE_1_hids.c **** *  Contains the source code for the HID service.
   7:Generated_Source\PSoC4/BLE_1_hids.c **** * 
   8:Generated_Source\PSoC4/BLE_1_hids.c **** ********************************************************************************
   9:Generated_Source\PSoC4/BLE_1_hids.c **** * \copyright
  10:Generated_Source\PSoC4/BLE_1_hids.c **** * Copyright 2014-2016, Cypress Semiconductor Corporation.  All rights reserved.
  11:Generated_Source\PSoC4/BLE_1_hids.c **** * You may use this file only in accordance with the license, terms, conditions,
  12:Generated_Source\PSoC4/BLE_1_hids.c **** * disclaimers, and limitations in the end user license agreement accompanying
  13:Generated_Source\PSoC4/BLE_1_hids.c **** * the software package with which this file was provided.
  14:Generated_Source\PSoC4/BLE_1_hids.c **** *******************************************************************************/
  15:Generated_Source\PSoC4/BLE_1_hids.c **** 
  16:Generated_Source\PSoC4/BLE_1_hids.c **** #include "BLE_1_eventHandler.h"
  17:Generated_Source\PSoC4/BLE_1_hids.c **** 
  18:Generated_Source\PSoC4/BLE_1_hids.c **** static CYBLE_CALLBACK_T CyBle_HidsApplCallback;
  19:Generated_Source\PSoC4/BLE_1_hids.c **** 
  20:Generated_Source\PSoC4/BLE_1_hids.c **** #ifdef CYBLE_HIDS_SERVER
  21:Generated_Source\PSoC4/BLE_1_hids.c **** 
  22:Generated_Source\PSoC4/BLE_1_hids.c **** static const CYBLE_HIDSS_REPORT_T cyBle_hids1ReportArray[0x01u] = {
  23:Generated_Source\PSoC4/BLE_1_hids.c ****     {
  24:Generated_Source\PSoC4/BLE_1_hids.c ****         0x0010u, /* Handle of the Report characteristic value */ 
  25:Generated_Source\PSoC4/BLE_1_hids.c ****         0x0011u, /* Handle of the Client Characteristic Configuration descriptor */ 
  26:Generated_Source\PSoC4/BLE_1_hids.c ****         0x0012u, /* Handle of the Report Reference descriptor */ 
  27:Generated_Source\PSoC4/BLE_1_hids.c ****     },
  28:Generated_Source\PSoC4/BLE_1_hids.c **** };
  29:Generated_Source\PSoC4/BLE_1_hids.c **** 
  30:Generated_Source\PSoC4/BLE_1_hids.c **** const CYBLE_HIDSS_T cyBle_hidss[0x01u] = {
  31:Generated_Source\PSoC4/BLE_1_hids.c ****     {
  32:Generated_Source\PSoC4/BLE_1_hids.c ****         0x000Cu, /* Handle of the HID service */ 
  33:Generated_Source\PSoC4/BLE_1_hids.c ****         0x000Eu, /* Handle of the Protocol Mode characteristic */ 
  34:Generated_Source\PSoC4/BLE_1_hids.c ****         0x01u, /* Number of report characteristics */ 
  35:Generated_Source\PSoC4/BLE_1_hids.c ****         cyBle_hids1ReportArray, /* Information about report characteristics */ 
  36:Generated_Source\PSoC4/BLE_1_hids.c ****         {
  37:Generated_Source\PSoC4/BLE_1_hids.c ****             {
  38:Generated_Source\PSoC4/BLE_1_hids.c ****                 0x0017u, /* Handle of the Report characteristic value */ 
  39:Generated_Source\PSoC4/BLE_1_hids.c ****                 0x0018u, /* Handle of the Client Characteristic Configuration descriptor */ 
  40:Generated_Source\PSoC4/BLE_1_hids.c ****                 CYBLE_GATT_INVALID_ATTR_HANDLE_VALUE, /* Handle of the Report Reference descriptor 
  41:Generated_Source\PSoC4/BLE_1_hids.c ****             },
  42:Generated_Source\PSoC4/BLE_1_hids.c ****             {
  43:Generated_Source\PSoC4/BLE_1_hids.c ****                 0x001Au, /* Handle of the Report characteristic value */ 
  44:Generated_Source\PSoC4/BLE_1_hids.c ****                 CYBLE_GATT_INVALID_ATTR_HANDLE_VALUE, /* Handle of the Client Characteristic Config
  45:Generated_Source\PSoC4/BLE_1_hids.c ****                 CYBLE_GATT_INVALID_ATTR_HANDLE_VALUE, /* Handle of the Report Reference descriptor 
  46:Generated_Source\PSoC4/BLE_1_hids.c ****             },
  47:Generated_Source\PSoC4/BLE_1_hids.c ****             {
  48:Generated_Source\PSoC4/BLE_1_hids.c ****                 0x001Cu, /* Handle of the Report characteristic value */ 
  49:Generated_Source\PSoC4/BLE_1_hids.c ****                 0x001Du, /* Handle of the Client Characteristic Configuration descriptor */ 
  50:Generated_Source\PSoC4/BLE_1_hids.c ****                 CYBLE_GATT_INVALID_ATTR_HANDLE_VALUE, /* Handle of the Report Reference descriptor 
  51:Generated_Source\PSoC4/BLE_1_hids.c ****             },
ARM GAS  C:\Users\puria\AppData\Local\Temp\cc07Gu7s.s 			page 3


  52:Generated_Source\PSoC4/BLE_1_hids.c ****         }, /* Information about boot report characteristics */ 
  53:Generated_Source\PSoC4/BLE_1_hids.c ****         0x0014u, /* Handle of the Report Map characteristic */ 
  54:Generated_Source\PSoC4/BLE_1_hids.c ****         0x0015u, /* Handle of the Report Map External Report Reference descriptor */ 
  55:Generated_Source\PSoC4/BLE_1_hids.c ****         0x001Fu, /* Handle of the HID Information characteristic */ 
  56:Generated_Source\PSoC4/BLE_1_hids.c ****         0x0021u, /* Handle of the HID Control Point characteristic */ 
  57:Generated_Source\PSoC4/BLE_1_hids.c ****     },
  58:Generated_Source\PSoC4/BLE_1_hids.c **** };
  59:Generated_Source\PSoC4/BLE_1_hids.c **** 
  60:Generated_Source\PSoC4/BLE_1_hids.c **** /* Local function prototypes */
  61:Generated_Source\PSoC4/BLE_1_hids.c **** static uint32 CyBle_HidssCccdWriteEventHandler(uint8 serviceIndex, const CYBLE_GATTS_WRITE_REQ_PARA
  62:Generated_Source\PSoC4/BLE_1_hids.c **** 
  63:Generated_Source\PSoC4/BLE_1_hids.c **** #endif /* CYBLE_HIDS_SERVER */
  64:Generated_Source\PSoC4/BLE_1_hids.c **** 
  65:Generated_Source\PSoC4/BLE_1_hids.c **** #ifdef CYBLE_HIDS_CLIENT
  66:Generated_Source\PSoC4/BLE_1_hids.c **** 
  67:Generated_Source\PSoC4/BLE_1_hids.c ****     CYBLE_HIDSC_T cyBle_hidsc[CYBLE_HIDSC_SERVICE_COUNT];
  68:Generated_Source\PSoC4/BLE_1_hids.c ****     static CYBLE_GATT_DB_ATTR_HANDLE_T cyBle_hidscReqHandle;
  69:Generated_Source\PSoC4/BLE_1_hids.c ****     uint8 cyBle_hidscServiceCount;
  70:Generated_Source\PSoC4/BLE_1_hids.c **** 
  71:Generated_Source\PSoC4/BLE_1_hids.c **** #endif /* CYBLE_HIDS_CLIENT */
  72:Generated_Source\PSoC4/BLE_1_hids.c **** 
  73:Generated_Source\PSoC4/BLE_1_hids.c **** 
  74:Generated_Source\PSoC4/BLE_1_hids.c **** /****************************************************************************** 
  75:Generated_Source\PSoC4/BLE_1_hids.c **** * Function Name: CyBle_HidsInit
  76:Generated_Source\PSoC4/BLE_1_hids.c **** ***************************************************************************//**
  77:Generated_Source\PSoC4/BLE_1_hids.c **** * 
  78:Generated_Source\PSoC4/BLE_1_hids.c **** *  This function initializes the HID Service.
  79:Generated_Source\PSoC4/BLE_1_hids.c **** * 
  80:Generated_Source\PSoC4/BLE_1_hids.c **** * 
  81:Generated_Source\PSoC4/BLE_1_hids.c **** ******************************************************************************/
  82:Generated_Source\PSoC4/BLE_1_hids.c **** void CyBle_HidsInit(void)
  83:Generated_Source\PSoC4/BLE_1_hids.c **** {
  64              		.loc 1 83 0
  65              		.cfi_startproc
  66              		@ args = 0, pretend = 0, frame = 0
  67              		@ frame_needed = 1, uses_anonymous_args = 0
  68 0000 80B5     		push	{r7, lr}
  69              		.cfi_def_cfa_offset 8
  70              		.cfi_offset 7, -8
  71              		.cfi_offset 14, -4
  72 0002 00AF     		add	r7, sp, #0
  73              		.cfi_def_cfa_register 7
  84:Generated_Source\PSoC4/BLE_1_hids.c **** 
  85:Generated_Source\PSoC4/BLE_1_hids.c **** #ifdef CYBLE_HIDS_CLIENT
  86:Generated_Source\PSoC4/BLE_1_hids.c **** 
  87:Generated_Source\PSoC4/BLE_1_hids.c ****     uint8 locServIndex;
  88:Generated_Source\PSoC4/BLE_1_hids.c ****     for(locServIndex = 0u; locServIndex < CYBLE_HIDSC_SERVICE_COUNT; locServIndex++)
  89:Generated_Source\PSoC4/BLE_1_hids.c ****     {
  90:Generated_Source\PSoC4/BLE_1_hids.c ****         if(cyBle_serverInfo[CYBLE_SRVI_HIDS + locServIndex].range.startHandle == CYBLE_GATT_INVALID
  91:Generated_Source\PSoC4/BLE_1_hids.c ****         {
  92:Generated_Source\PSoC4/BLE_1_hids.c ****             (void)memset(&cyBle_hidsc[locServIndex], 0, sizeof(cyBle_hidsc[locServIndex]));
  93:Generated_Source\PSoC4/BLE_1_hids.c ****         }
  94:Generated_Source\PSoC4/BLE_1_hids.c ****     }
  95:Generated_Source\PSoC4/BLE_1_hids.c ****     cyBle_hidscReqHandle = CYBLE_GATT_INVALID_ATTR_HANDLE_VALUE;
  96:Generated_Source\PSoC4/BLE_1_hids.c ****     cyBle_hidscServiceCount = 0u;
  97:Generated_Source\PSoC4/BLE_1_hids.c **** 
  98:Generated_Source\PSoC4/BLE_1_hids.c **** #endif /* CYBLE_HIDS_CLIENT */
ARM GAS  C:\Users\puria\AppData\Local\Temp\cc07Gu7s.s 			page 4


  99:Generated_Source\PSoC4/BLE_1_hids.c **** }
  74              		.loc 1 99 0
  75 0004 C046     		nop
  76 0006 BD46     		mov	sp, r7
  77              		@ sp needed
  78 0008 80BD     		pop	{r7, pc}
  79              		.cfi_endproc
  80              	.LFE2:
  81              		.size	CyBle_HidsInit, .-CyBle_HidsInit
  82 000a C046     		.section	.text.CyBle_HidsRegisterAttrCallback,"ax",%progbits
  83              		.align	2
  84              		.global	CyBle_HidsRegisterAttrCallback
  85              		.code	16
  86              		.thumb_func
  87              		.type	CyBle_HidsRegisterAttrCallback, %function
  88              	CyBle_HidsRegisterAttrCallback:
  89              	.LFB3:
 100:Generated_Source\PSoC4/BLE_1_hids.c **** 
 101:Generated_Source\PSoC4/BLE_1_hids.c **** 
 102:Generated_Source\PSoC4/BLE_1_hids.c **** /****************************************************************************** 
 103:Generated_Source\PSoC4/BLE_1_hids.c **** * Function Name: CyBle_HidsRegisterAttrCallback
 104:Generated_Source\PSoC4/BLE_1_hids.c **** ***************************************************************************//**
 105:Generated_Source\PSoC4/BLE_1_hids.c **** * 
 106:Generated_Source\PSoC4/BLE_1_hids.c **** *  Registers a callback function for service specific attribute operations.
 107:Generated_Source\PSoC4/BLE_1_hids.c **** *  Service specific write requests from peer device will not be handled with
 108:Generated_Source\PSoC4/BLE_1_hids.c **** *  unregistered callback function.
 109:Generated_Source\PSoC4/BLE_1_hids.c **** * 
 110:Generated_Source\PSoC4/BLE_1_hids.c **** *  \param callbackFunc: An application layer event callback function to receive 
 111:Generated_Source\PSoC4/BLE_1_hids.c **** *                    events from the BLE Component. The definition of 
 112:Generated_Source\PSoC4/BLE_1_hids.c **** *                    CYBLE_CALLBACK_T for HID Service is:\n
 113:Generated_Source\PSoC4/BLE_1_hids.c **** *                    typedef void (* CYBLE_CALLBACK_T) (uint32 eventCode, 
 114:Generated_Source\PSoC4/BLE_1_hids.c **** *                                                       void *eventParam)
 115:Generated_Source\PSoC4/BLE_1_hids.c **** *                    * eventCode indicates the event that triggered this 
 116:Generated_Source\PSoC4/BLE_1_hids.c **** *                      callback (e.g. CYBLE_EVT_HIDS_NOTIFICATION_ENABLED).
 117:Generated_Source\PSoC4/BLE_1_hids.c **** *                    * eventParam contains the parameters corresponding to the 
 118:Generated_Source\PSoC4/BLE_1_hids.c **** *                      current event. (e.g. pointer to CYBLE_HIDS_CHAR_VALUE_T
 119:Generated_Source\PSoC4/BLE_1_hids.c **** *                      structure that contains details of the characteristic for 
 120:Generated_Source\PSoC4/BLE_1_hids.c **** *                      which notification enabled event was triggered).
 121:Generated_Source\PSoC4/BLE_1_hids.c **** *
 122:Generated_Source\PSoC4/BLE_1_hids.c **** *
 123:Generated_Source\PSoC4/BLE_1_hids.c **** * \sideeffect The *eventParams in the callback function should not be used by 
 124:Generated_Source\PSoC4/BLE_1_hids.c **** *                the application once the callback function execution is finished.
 125:Generated_Source\PSoC4/BLE_1_hids.c **** *                Otherwise this data may become corrupted.
 126:Generated_Source\PSoC4/BLE_1_hids.c **** * 
 127:Generated_Source\PSoC4/BLE_1_hids.c **** ******************************************************************************/
 128:Generated_Source\PSoC4/BLE_1_hids.c **** void CyBle_HidsRegisterAttrCallback(CYBLE_CALLBACK_T callbackFunc)
 129:Generated_Source\PSoC4/BLE_1_hids.c **** {
  90              		.loc 1 129 0
  91              		.cfi_startproc
  92              		@ args = 0, pretend = 0, frame = 8
  93              		@ frame_needed = 1, uses_anonymous_args = 0
  94 0000 80B5     		push	{r7, lr}
  95              		.cfi_def_cfa_offset 8
  96              		.cfi_offset 7, -8
  97              		.cfi_offset 14, -4
  98 0002 82B0     		sub	sp, sp, #8
  99              		.cfi_def_cfa_offset 16
ARM GAS  C:\Users\puria\AppData\Local\Temp\cc07Gu7s.s 			page 5


 100 0004 00AF     		add	r7, sp, #0
 101              		.cfi_def_cfa_register 7
 102 0006 7860     		str	r0, [r7, #4]
 130:Generated_Source\PSoC4/BLE_1_hids.c ****     CyBle_HidsApplCallback = callbackFunc;
 103              		.loc 1 130 0
 104 0008 034B     		ldr	r3, .L3
 105 000a 7A68     		ldr	r2, [r7, #4]
 106 000c 1A60     		str	r2, [r3]
 131:Generated_Source\PSoC4/BLE_1_hids.c **** }
 107              		.loc 1 131 0
 108 000e C046     		nop
 109 0010 BD46     		mov	sp, r7
 110 0012 02B0     		add	sp, sp, #8
 111              		@ sp needed
 112 0014 80BD     		pop	{r7, pc}
 113              	.L4:
 114 0016 C046     		.align	2
 115              	.L3:
 116 0018 00000000 		.word	CyBle_HidsApplCallback
 117              		.cfi_endproc
 118              	.LFE3:
 119              		.size	CyBle_HidsRegisterAttrCallback, .-CyBle_HidsRegisterAttrCallback
 120              		.section	.text.CyBle_HidssSetCharacteristicValue,"ax",%progbits
 121              		.align	2
 122              		.global	CyBle_HidssSetCharacteristicValue
 123              		.code	16
 124              		.thumb_func
 125              		.type	CyBle_HidssSetCharacteristicValue, %function
 126              	CyBle_HidssSetCharacteristicValue:
 127              	.LFB4:
 132:Generated_Source\PSoC4/BLE_1_hids.c **** 
 133:Generated_Source\PSoC4/BLE_1_hids.c **** #ifdef CYBLE_HIDS_SERVER
 134:Generated_Source\PSoC4/BLE_1_hids.c **** 
 135:Generated_Source\PSoC4/BLE_1_hids.c **** 
 136:Generated_Source\PSoC4/BLE_1_hids.c **** /****************************************************************************** 
 137:Generated_Source\PSoC4/BLE_1_hids.c **** * Function Name: CyBle_HidssSetCharacteristicValue
 138:Generated_Source\PSoC4/BLE_1_hids.c **** ***************************************************************************//**
 139:Generated_Source\PSoC4/BLE_1_hids.c **** * 
 140:Generated_Source\PSoC4/BLE_1_hids.c **** *  Sets local characteristic value of the specified HID Service characteristics.
 141:Generated_Source\PSoC4/BLE_1_hids.c **** * 
 142:Generated_Source\PSoC4/BLE_1_hids.c **** *  \param serviceIndex: The index of the service instance. e.g. If two HID Services are 
 143:Generated_Source\PSoC4/BLE_1_hids.c **** *                 supported in your design, then first service will be identified
 144:Generated_Source\PSoC4/BLE_1_hids.c **** *                 by serviceIndex of 0 and the second by serviceIndex of 1.
 145:Generated_Source\PSoC4/BLE_1_hids.c **** *  \param charIndex: The index of a service characteristic.
 146:Generated_Source\PSoC4/BLE_1_hids.c **** *              * CYBLE_HIDS_PROTOCOL_MODE - Protocol Mode characteristic
 147:Generated_Source\PSoC4/BLE_1_hids.c **** *              * CYBLE_HIDS_REPORT_MAP - Report Map characteristic
 148:Generated_Source\PSoC4/BLE_1_hids.c **** *              * CYBLE_HIDS_INFORMATION - HID Information characteristic
 149:Generated_Source\PSoC4/BLE_1_hids.c **** *              * CYBLE_HIDS_CONTROL_POINT - HID Control Point characteristic
 150:Generated_Source\PSoC4/BLE_1_hids.c **** *              * CYBLE_HIDS_BOOT_KYBRD_IN_REP - Boot Keyboard Input Report Characteristic
 151:Generated_Source\PSoC4/BLE_1_hids.c **** *              * CYBLE_HIDS_BOOT_KYBRD_OUT_REP - Boot Keyboard Output Report Characteristic
 152:Generated_Source\PSoC4/BLE_1_hids.c **** *              * CYBLE_HIDS_BOOT_MOUSE_IN_REP - Boot Mouse Input Report Characteristic
 153:Generated_Source\PSoC4/BLE_1_hids.c **** *              * CYBLE_HIDS_REPORT - Report Characteristic
 154:Generated_Source\PSoC4/BLE_1_hids.c **** * 
 155:Generated_Source\PSoC4/BLE_1_hids.c **** *  \param attrSize: The size of the characteristic value attribute.
 156:Generated_Source\PSoC4/BLE_1_hids.c **** * 
 157:Generated_Source\PSoC4/BLE_1_hids.c **** *  \param attrValue: The pointer to the characteristic value data that should be 
 158:Generated_Source\PSoC4/BLE_1_hids.c **** *               stored in the GATT database.
ARM GAS  C:\Users\puria\AppData\Local\Temp\cc07Gu7s.s 			page 6


 159:Generated_Source\PSoC4/BLE_1_hids.c **** * 
 160:Generated_Source\PSoC4/BLE_1_hids.c **** * \return
 161:Generated_Source\PSoC4/BLE_1_hids.c **** *  Return value is of type CYBLE_API_RESULT_T.
 162:Generated_Source\PSoC4/BLE_1_hids.c **** *  * CYBLE_ERROR_OK - The request handled successfully.
 163:Generated_Source\PSoC4/BLE_1_hids.c **** *  * CYBLE_ERROR_INVALID_PARAMETER - Validation of the input parameter failed.
 164:Generated_Source\PSoC4/BLE_1_hids.c **** *  * CYBLE_ERROR_GATT_DB_INVALID_ATTR_HANDLE - Optional characteristic is absent
 165:Generated_Source\PSoC4/BLE_1_hids.c **** *
 166:Generated_Source\PSoC4/BLE_1_hids.c **** *
 167:Generated_Source\PSoC4/BLE_1_hids.c **** ******************************************************************************/
 168:Generated_Source\PSoC4/BLE_1_hids.c **** CYBLE_API_RESULT_T CyBle_HidssSetCharacteristicValue(uint8 serviceIndex, CYBLE_HIDS_CHAR_INDEX_T ch
 169:Generated_Source\PSoC4/BLE_1_hids.c ****     uint8 attrSize, uint8 *attrValue)
 170:Generated_Source\PSoC4/BLE_1_hids.c **** {
 128              		.loc 1 170 0
 129              		.cfi_startproc
 130              		@ args = 0, pretend = 0, frame = 24
 131              		@ frame_needed = 1, uses_anonymous_args = 0
 132 0000 90B5     		push	{r4, r7, lr}
 133              		.cfi_def_cfa_offset 12
 134              		.cfi_offset 4, -12
 135              		.cfi_offset 7, -8
 136              		.cfi_offset 14, -4
 137 0002 87B0     		sub	sp, sp, #28
 138              		.cfi_def_cfa_offset 40
 139 0004 00AF     		add	r7, sp, #0
 140              		.cfi_def_cfa_register 7
 141 0006 0400     		movs	r4, r0
 142 0008 0800     		movs	r0, r1
 143 000a 1100     		movs	r1, r2
 144 000c 3B60     		str	r3, [r7]
 145 000e FB1D     		adds	r3, r7, #7
 146 0010 221C     		adds	r2, r4, #0
 147 0012 1A70     		strb	r2, [r3]
 148 0014 BB1D     		adds	r3, r7, #6
 149 0016 021C     		adds	r2, r0, #0
 150 0018 1A70     		strb	r2, [r3]
 151 001a 7B1D     		adds	r3, r7, #5
 152 001c 0A1C     		adds	r2, r1, #0
 153 001e 1A70     		strb	r2, [r3]
 171:Generated_Source\PSoC4/BLE_1_hids.c ****     CYBLE_API_RESULT_T apiResult = CYBLE_ERROR_OK;
 154              		.loc 1 171 0
 155 0020 1623     		movs	r3, #22
 156 0022 FB18     		adds	r3, r7, r3
 157 0024 0022     		movs	r2, #0
 158 0026 1A80     		strh	r2, [r3]
 172:Generated_Source\PSoC4/BLE_1_hids.c ****     CYBLE_GATT_DB_ATTR_HANDLE_T charValueHandle;
 173:Generated_Source\PSoC4/BLE_1_hids.c ****     CYBLE_GATT_HANDLE_VALUE_PAIR_T locHandleValuePair;
 174:Generated_Source\PSoC4/BLE_1_hids.c **** 
 175:Generated_Source\PSoC4/BLE_1_hids.c ****     if((serviceIndex >= CYBLE_HIDSS_SERVICE_COUNT) || (charIndex >= CYBLE_HIDS_CHAR_COUNT))
 159              		.loc 1 175 0
 160 0028 FB1D     		adds	r3, r7, #7
 161 002a 1B78     		ldrb	r3, [r3]
 162 002c 002B     		cmp	r3, #0
 163 002e 03D1     		bne	.L6
 164              		.loc 1 175 0 is_stmt 0 discriminator 1
 165 0030 BB1D     		adds	r3, r7, #6
 166 0032 1B78     		ldrb	r3, [r3]
 167 0034 072B     		cmp	r3, #7
ARM GAS  C:\Users\puria\AppData\Local\Temp\cc07Gu7s.s 			page 7


 168 0036 04D9     		bls	.L7
 169              	.L6:
 176:Generated_Source\PSoC4/BLE_1_hids.c ****     {
 177:Generated_Source\PSoC4/BLE_1_hids.c ****         apiResult = CYBLE_ERROR_INVALID_PARAMETER;
 170              		.loc 1 177 0 is_stmt 1
 171 0038 1623     		movs	r3, #22
 172 003a FB18     		adds	r3, r7, r3
 173 003c 0122     		movs	r2, #1
 174 003e 1A80     		strh	r2, [r3]
 175 0040 BCE0     		b	.L8
 176              	.L7:
 178:Generated_Source\PSoC4/BLE_1_hids.c ****     }
 179:Generated_Source\PSoC4/BLE_1_hids.c ****     else
 180:Generated_Source\PSoC4/BLE_1_hids.c ****     {
 181:Generated_Source\PSoC4/BLE_1_hids.c ****         switch(charIndex)
 177              		.loc 1 181 0
 178 0042 BB1D     		adds	r3, r7, #6
 179 0044 1B78     		ldrb	r3, [r3]
 180 0046 062B     		cmp	r3, #6
 181 0048 66D8     		bhi	.L9
 182 004a 9A00     		lsls	r2, r3, #2
 183 004c 5F4B     		ldr	r3, .L24
 184 004e D318     		adds	r3, r2, r3
 185 0050 1B68     		ldr	r3, [r3]
 186 0052 9F46     		mov	pc, r3
 187              		.section	.rodata
 188              		.align	2
 189              	.L11:
 190 0030 54000000 		.word	.L10
 191 0034 8C000000 		.word	.L12
 192 0038 A8000000 		.word	.L13
 193 003c 70000000 		.word	.L14
 194 0040 C4000000 		.word	.L15
 195 0044 E0000000 		.word	.L16
 196 0048 FC000000 		.word	.L17
 197              		.section	.text.CyBle_HidssSetCharacteristicValue
 198              	.L10:
 182:Generated_Source\PSoC4/BLE_1_hids.c ****         {
 183:Generated_Source\PSoC4/BLE_1_hids.c ****             case CYBLE_HIDS_PROTOCOL_MODE:
 184:Generated_Source\PSoC4/BLE_1_hids.c ****                 charValueHandle = cyBle_hidss[serviceIndex].protocolModeHandle;
 199              		.loc 1 184 0
 200 0054 FB1D     		adds	r3, r7, #7
 201 0056 1A78     		ldrb	r2, [r3]
 202 0058 1423     		movs	r3, #20
 203 005a F918     		adds	r1, r7, r3
 204 005c 5C48     		ldr	r0, .L24+4
 205 005e 1300     		movs	r3, r2
 206 0060 9B00     		lsls	r3, r3, #2
 207 0062 9B18     		adds	r3, r3, r2
 208 0064 DB00     		lsls	r3, r3, #3
 209 0066 C318     		adds	r3, r0, r3
 210 0068 0233     		adds	r3, r3, #2
 211 006a 1B88     		ldrh	r3, [r3]
 212 006c 0B80     		strh	r3, [r1]
 185:Generated_Source\PSoC4/BLE_1_hids.c ****                 break;
 213              		.loc 1 185 0
 214 006e 7EE0     		b	.L18
ARM GAS  C:\Users\puria\AppData\Local\Temp\cc07Gu7s.s 			page 8


 215              	.L14:
 186:Generated_Source\PSoC4/BLE_1_hids.c ****             case CYBLE_HIDS_REPORT_MAP:
 187:Generated_Source\PSoC4/BLE_1_hids.c ****                 charValueHandle = cyBle_hidss[serviceIndex].reportMapHandle;
 216              		.loc 1 187 0
 217 0070 FB1D     		adds	r3, r7, #7
 218 0072 1A78     		ldrb	r2, [r3]
 219 0074 1423     		movs	r3, #20
 220 0076 F918     		adds	r1, r7, r3
 221 0078 5548     		ldr	r0, .L24+4
 222 007a 1300     		movs	r3, r2
 223 007c 9B00     		lsls	r3, r3, #2
 224 007e 9B18     		adds	r3, r3, r2
 225 0080 DB00     		lsls	r3, r3, #3
 226 0082 C318     		adds	r3, r0, r3
 227 0084 1E33     		adds	r3, r3, #30
 228 0086 1B88     		ldrh	r3, [r3]
 229 0088 0B80     		strh	r3, [r1]
 188:Generated_Source\PSoC4/BLE_1_hids.c ****                 break;
 230              		.loc 1 188 0
 231 008a 70E0     		b	.L18
 232              	.L12:
 189:Generated_Source\PSoC4/BLE_1_hids.c ****             case CYBLE_HIDS_INFORMATION:
 190:Generated_Source\PSoC4/BLE_1_hids.c ****                 charValueHandle = cyBle_hidss[serviceIndex].informationHandle;
 233              		.loc 1 190 0
 234 008c FB1D     		adds	r3, r7, #7
 235 008e 1A78     		ldrb	r2, [r3]
 236 0090 1423     		movs	r3, #20
 237 0092 F918     		adds	r1, r7, r3
 238 0094 4E48     		ldr	r0, .L24+4
 239 0096 1300     		movs	r3, r2
 240 0098 9B00     		lsls	r3, r3, #2
 241 009a 9B18     		adds	r3, r3, r2
 242 009c DB00     		lsls	r3, r3, #3
 243 009e C318     		adds	r3, r0, r3
 244 00a0 2233     		adds	r3, r3, #34
 245 00a2 1B88     		ldrh	r3, [r3]
 246 00a4 0B80     		strh	r3, [r1]
 191:Generated_Source\PSoC4/BLE_1_hids.c ****                 break;
 247              		.loc 1 191 0
 248 00a6 62E0     		b	.L18
 249              	.L13:
 192:Generated_Source\PSoC4/BLE_1_hids.c ****             case CYBLE_HIDS_CONTROL_POINT:
 193:Generated_Source\PSoC4/BLE_1_hids.c ****                 charValueHandle = cyBle_hidss[serviceIndex].controlPointHandle;
 250              		.loc 1 193 0
 251 00a8 FB1D     		adds	r3, r7, #7
 252 00aa 1A78     		ldrb	r2, [r3]
 253 00ac 1423     		movs	r3, #20
 254 00ae F918     		adds	r1, r7, r3
 255 00b0 4748     		ldr	r0, .L24+4
 256 00b2 1300     		movs	r3, r2
 257 00b4 9B00     		lsls	r3, r3, #2
 258 00b6 9B18     		adds	r3, r3, r2
 259 00b8 DB00     		lsls	r3, r3, #3
 260 00ba C318     		adds	r3, r0, r3
 261 00bc 2433     		adds	r3, r3, #36
 262 00be 1B88     		ldrh	r3, [r3]
 263 00c0 0B80     		strh	r3, [r1]
ARM GAS  C:\Users\puria\AppData\Local\Temp\cc07Gu7s.s 			page 9


 194:Generated_Source\PSoC4/BLE_1_hids.c ****                 break;
 264              		.loc 1 194 0
 265 00c2 54E0     		b	.L18
 266              	.L15:
 195:Generated_Source\PSoC4/BLE_1_hids.c ****             case CYBLE_HIDS_BOOT_KYBRD_IN_REP:
 196:Generated_Source\PSoC4/BLE_1_hids.c ****                 charValueHandle = cyBle_hidss[serviceIndex].bootReportArray[CYBLE_HIDS_BOOT_KYBRD_I
 267              		.loc 1 196 0
 268 00c4 FB1D     		adds	r3, r7, #7
 269 00c6 1A78     		ldrb	r2, [r3]
 270 00c8 1423     		movs	r3, #20
 271 00ca F918     		adds	r1, r7, r3
 272 00cc 4048     		ldr	r0, .L24+4
 273 00ce 1300     		movs	r3, r2
 274 00d0 9B00     		lsls	r3, r3, #2
 275 00d2 9B18     		adds	r3, r3, r2
 276 00d4 DB00     		lsls	r3, r3, #3
 277 00d6 C318     		adds	r3, r0, r3
 278 00d8 0C33     		adds	r3, r3, #12
 279 00da 1B88     		ldrh	r3, [r3]
 280 00dc 0B80     		strh	r3, [r1]
 197:Generated_Source\PSoC4/BLE_1_hids.c ****                     reportHandle;
 198:Generated_Source\PSoC4/BLE_1_hids.c ****                 break;
 281              		.loc 1 198 0
 282 00de 46E0     		b	.L18
 283              	.L16:
 199:Generated_Source\PSoC4/BLE_1_hids.c ****             case CYBLE_HIDS_BOOT_KYBRD_OUT_REP:
 200:Generated_Source\PSoC4/BLE_1_hids.c ****                 charValueHandle = cyBle_hidss[serviceIndex].bootReportArray[CYBLE_HIDS_BOOT_KYBRD_O
 284              		.loc 1 200 0
 285 00e0 FB1D     		adds	r3, r7, #7
 286 00e2 1A78     		ldrb	r2, [r3]
 287 00e4 1423     		movs	r3, #20
 288 00e6 F918     		adds	r1, r7, r3
 289 00e8 3948     		ldr	r0, .L24+4
 290 00ea 1300     		movs	r3, r2
 291 00ec 9B00     		lsls	r3, r3, #2
 292 00ee 9B18     		adds	r3, r3, r2
 293 00f0 DB00     		lsls	r3, r3, #3
 294 00f2 C318     		adds	r3, r0, r3
 295 00f4 1233     		adds	r3, r3, #18
 296 00f6 1B88     		ldrh	r3, [r3]
 297 00f8 0B80     		strh	r3, [r1]
 201:Generated_Source\PSoC4/BLE_1_hids.c ****                     reportHandle;
 202:Generated_Source\PSoC4/BLE_1_hids.c ****                 break;
 298              		.loc 1 202 0
 299 00fa 38E0     		b	.L18
 300              	.L17:
 203:Generated_Source\PSoC4/BLE_1_hids.c ****             case CYBLE_HIDS_BOOT_MOUSE_IN_REP:
 204:Generated_Source\PSoC4/BLE_1_hids.c ****                 charValueHandle = cyBle_hidss[serviceIndex].bootReportArray[CYBLE_HIDS_BOOT_MOUSE_I
 301              		.loc 1 204 0
 302 00fc FB1D     		adds	r3, r7, #7
 303 00fe 1A78     		ldrb	r2, [r3]
 304 0100 1423     		movs	r3, #20
 305 0102 F918     		adds	r1, r7, r3
 306 0104 3248     		ldr	r0, .L24+4
 307 0106 1300     		movs	r3, r2
 308 0108 9B00     		lsls	r3, r3, #2
 309 010a 9B18     		adds	r3, r3, r2
ARM GAS  C:\Users\puria\AppData\Local\Temp\cc07Gu7s.s 			page 10


 310 010c DB00     		lsls	r3, r3, #3
 311 010e C318     		adds	r3, r0, r3
 312 0110 1833     		adds	r3, r3, #24
 313 0112 1B88     		ldrh	r3, [r3]
 314 0114 0B80     		strh	r3, [r1]
 205:Generated_Source\PSoC4/BLE_1_hids.c ****                     reportHandle;
 206:Generated_Source\PSoC4/BLE_1_hids.c ****                 break;
 315              		.loc 1 206 0
 316 0116 2AE0     		b	.L18
 317              	.L9:
 207:Generated_Source\PSoC4/BLE_1_hids.c ****             default:                    /* Report characteristic */
 208:Generated_Source\PSoC4/BLE_1_hids.c ****                 /* Verify that requested report exists in particular service */
 209:Generated_Source\PSoC4/BLE_1_hids.c ****                 if((charIndex - CYBLE_HIDS_REPORT) < cyBle_hidss[serviceIndex].reportCount)
 318              		.loc 1 209 0
 319 0118 BB1D     		adds	r3, r7, #6
 320 011a 1B78     		ldrb	r3, [r3]
 321 011c D91F     		subs	r1, r3, #7
 322 011e FB1D     		adds	r3, r7, #7
 323 0120 1A78     		ldrb	r2, [r3]
 324 0122 2B48     		ldr	r0, .L24+4
 325 0124 1300     		movs	r3, r2
 326 0126 9B00     		lsls	r3, r3, #2
 327 0128 9B18     		adds	r3, r3, r2
 328 012a DB00     		lsls	r3, r3, #3
 329 012c C318     		adds	r3, r0, r3
 330 012e 0433     		adds	r3, r3, #4
 331 0130 1B78     		ldrb	r3, [r3]
 332 0132 9942     		cmp	r1, r3
 333 0134 16DA     		bge	.L19
 210:Generated_Source\PSoC4/BLE_1_hids.c ****                 {
 211:Generated_Source\PSoC4/BLE_1_hids.c ****                     charValueHandle = cyBle_hidss[serviceIndex].reportArray[charIndex - CYBLE_HIDS_
 334              		.loc 1 211 0
 335 0136 FB1D     		adds	r3, r7, #7
 336 0138 1A78     		ldrb	r2, [r3]
 337 013a 2549     		ldr	r1, .L24+4
 338 013c 1300     		movs	r3, r2
 339 013e 9B00     		lsls	r3, r3, #2
 340 0140 9B18     		adds	r3, r3, r2
 341 0142 DB00     		lsls	r3, r3, #3
 342 0144 CB18     		adds	r3, r1, r3
 343 0146 0833     		adds	r3, r3, #8
 344 0148 1968     		ldr	r1, [r3]
 345 014a BB1D     		adds	r3, r7, #6
 346 014c 1A78     		ldrb	r2, [r3]
 347 014e 1300     		movs	r3, r2
 348 0150 5B00     		lsls	r3, r3, #1
 349 0152 9B18     		adds	r3, r3, r2
 350 0154 5B00     		lsls	r3, r3, #1
 351 0156 2A3B     		subs	r3, r3, #42
 352 0158 CA18     		adds	r2, r1, r3
 353 015a 1423     		movs	r3, #20
 354 015c FB18     		adds	r3, r7, r3
 355 015e 1288     		ldrh	r2, [r2]
 356 0160 1A80     		strh	r2, [r3]
 212:Generated_Source\PSoC4/BLE_1_hids.c ****                 }
 213:Generated_Source\PSoC4/BLE_1_hids.c ****                 else
 214:Generated_Source\PSoC4/BLE_1_hids.c ****                 {
ARM GAS  C:\Users\puria\AppData\Local\Temp\cc07Gu7s.s 			page 11


 215:Generated_Source\PSoC4/BLE_1_hids.c ****                     charValueHandle = CYBLE_GATT_INVALID_ATTR_HANDLE_VALUE;
 216:Generated_Source\PSoC4/BLE_1_hids.c ****                 }
 217:Generated_Source\PSoC4/BLE_1_hids.c ****                 break;
 357              		.loc 1 217 0
 358 0162 03E0     		b	.L23
 359              	.L19:
 215:Generated_Source\PSoC4/BLE_1_hids.c ****                 }
 360              		.loc 1 215 0
 361 0164 1423     		movs	r3, #20
 362 0166 FB18     		adds	r3, r7, r3
 363 0168 0022     		movs	r2, #0
 364 016a 1A80     		strh	r2, [r3]
 365              	.L23:
 366              		.loc 1 217 0
 367 016c C046     		nop
 368              	.L18:
 218:Generated_Source\PSoC4/BLE_1_hids.c ****         }
 219:Generated_Source\PSoC4/BLE_1_hids.c ****         if(charValueHandle == CYBLE_GATT_INVALID_ATTR_HANDLE_VALUE)
 369              		.loc 1 219 0
 370 016e 1423     		movs	r3, #20
 371 0170 FB18     		adds	r3, r7, r3
 372 0172 1B88     		ldrh	r3, [r3]
 373 0174 002B     		cmp	r3, #0
 374 0176 04D1     		bne	.L21
 220:Generated_Source\PSoC4/BLE_1_hids.c ****         {
 221:Generated_Source\PSoC4/BLE_1_hids.c ****             apiResult = CYBLE_ERROR_GATT_DB_INVALID_ATTR_HANDLE;
 375              		.loc 1 221 0
 376 0178 1623     		movs	r3, #22
 377 017a FB18     		adds	r3, r7, r3
 378 017c 1322     		movs	r2, #19
 379 017e 1A80     		strh	r2, [r3]
 380 0180 1CE0     		b	.L8
 381              	.L21:
 222:Generated_Source\PSoC4/BLE_1_hids.c ****         }
 223:Generated_Source\PSoC4/BLE_1_hids.c ****         else
 224:Generated_Source\PSoC4/BLE_1_hids.c ****         {
 225:Generated_Source\PSoC4/BLE_1_hids.c ****             /* Store data in database */
 226:Generated_Source\PSoC4/BLE_1_hids.c ****             locHandleValuePair.attrHandle = charValueHandle;
 382              		.loc 1 226 0
 383 0182 0823     		movs	r3, #8
 384 0184 FB18     		adds	r3, r7, r3
 385 0186 1422     		movs	r2, #20
 386 0188 BA18     		adds	r2, r7, r2
 387 018a 1288     		ldrh	r2, [r2]
 388 018c 1A81     		strh	r2, [r3, #8]
 227:Generated_Source\PSoC4/BLE_1_hids.c ****             locHandleValuePair.value.len = attrSize;
 389              		.loc 1 227 0
 390 018e 7B1D     		adds	r3, r7, #5
 391 0190 1B78     		ldrb	r3, [r3]
 392 0192 9AB2     		uxth	r2, r3
 393 0194 0823     		movs	r3, #8
 394 0196 FB18     		adds	r3, r7, r3
 395 0198 9A80     		strh	r2, [r3, #4]
 228:Generated_Source\PSoC4/BLE_1_hids.c ****             locHandleValuePair.value.val = attrValue;
 396              		.loc 1 228 0
 397 019a 0823     		movs	r3, #8
 398 019c FB18     		adds	r3, r7, r3
ARM GAS  C:\Users\puria\AppData\Local\Temp\cc07Gu7s.s 			page 12


 399 019e 3A68     		ldr	r2, [r7]
 400 01a0 1A60     		str	r2, [r3]
 229:Generated_Source\PSoC4/BLE_1_hids.c **** 
 230:Generated_Source\PSoC4/BLE_1_hids.c ****             if(CYBLE_GATT_ERR_NONE !=
 231:Generated_Source\PSoC4/BLE_1_hids.c ****                 CyBle_GattsWriteAttributeValue(&locHandleValuePair, 0u, NULL, CYBLE_GATT_DB_LOCALLY
 401              		.loc 1 231 0
 402 01a2 0823     		movs	r3, #8
 403 01a4 F818     		adds	r0, r7, r3
 404 01a6 0023     		movs	r3, #0
 405 01a8 0022     		movs	r2, #0
 406 01aa 0021     		movs	r1, #0
 407 01ac FFF7FEFF 		bl	CyBle_GattsWriteAttributeValue
 408 01b0 031E     		subs	r3, r0, #0
 230:Generated_Source\PSoC4/BLE_1_hids.c ****                 CyBle_GattsWriteAttributeValue(&locHandleValuePair, 0u, NULL, CYBLE_GATT_DB_LOCALLY
 409              		.loc 1 230 0
 410 01b2 03D0     		beq	.L8
 232:Generated_Source\PSoC4/BLE_1_hids.c ****             {
 233:Generated_Source\PSoC4/BLE_1_hids.c ****                 apiResult = CYBLE_ERROR_INVALID_PARAMETER;
 411              		.loc 1 233 0
 412 01b4 1623     		movs	r3, #22
 413 01b6 FB18     		adds	r3, r7, r3
 414 01b8 0122     		movs	r2, #1
 415 01ba 1A80     		strh	r2, [r3]
 416              	.L8:
 234:Generated_Source\PSoC4/BLE_1_hids.c ****             }
 235:Generated_Source\PSoC4/BLE_1_hids.c ****         }
 236:Generated_Source\PSoC4/BLE_1_hids.c ****     }
 237:Generated_Source\PSoC4/BLE_1_hids.c ****     return (apiResult);
 417              		.loc 1 237 0
 418 01bc 1623     		movs	r3, #22
 419 01be FB18     		adds	r3, r7, r3
 420 01c0 1B88     		ldrh	r3, [r3]
 238:Generated_Source\PSoC4/BLE_1_hids.c **** }
 421              		.loc 1 238 0
 422 01c2 1800     		movs	r0, r3
 423 01c4 BD46     		mov	sp, r7
 424 01c6 07B0     		add	sp, sp, #28
 425              		@ sp needed
 426 01c8 90BD     		pop	{r4, r7, pc}
 427              	.L25:
 428 01ca C046     		.align	2
 429              	.L24:
 430 01cc 30000000 		.word	.L11
 431 01d0 00000000 		.word	cyBle_hidss
 432              		.cfi_endproc
 433              	.LFE4:
 434              		.size	CyBle_HidssSetCharacteristicValue, .-CyBle_HidssSetCharacteristicValue
 435              		.section	.text.CyBle_HidssGetCharacteristicValue,"ax",%progbits
 436              		.align	2
 437              		.global	CyBle_HidssGetCharacteristicValue
 438              		.code	16
 439              		.thumb_func
 440              		.type	CyBle_HidssGetCharacteristicValue, %function
 441              	CyBle_HidssGetCharacteristicValue:
 442              	.LFB5:
 239:Generated_Source\PSoC4/BLE_1_hids.c **** 
 240:Generated_Source\PSoC4/BLE_1_hids.c **** 
ARM GAS  C:\Users\puria\AppData\Local\Temp\cc07Gu7s.s 			page 13


 241:Generated_Source\PSoC4/BLE_1_hids.c **** /****************************************************************************** 
 242:Generated_Source\PSoC4/BLE_1_hids.c **** * Function Name: CyBle_HidssGetCharacteristicValue
 243:Generated_Source\PSoC4/BLE_1_hids.c **** ***************************************************************************//**
 244:Generated_Source\PSoC4/BLE_1_hids.c **** * 
 245:Generated_Source\PSoC4/BLE_1_hids.c **** *  Gets local characteristic value of the specified HID Service characteristics.
 246:Generated_Source\PSoC4/BLE_1_hids.c **** * 
 247:Generated_Source\PSoC4/BLE_1_hids.c **** *  \param serviceIndex: The index of the service instance. e.g. If two HID Services are 
 248:Generated_Source\PSoC4/BLE_1_hids.c **** *                 supported in your design, then first service will be identified
 249:Generated_Source\PSoC4/BLE_1_hids.c **** *                 by serviceIndex of 0 and the second by serviceIndex of 1.
 250:Generated_Source\PSoC4/BLE_1_hids.c **** * 
 251:Generated_Source\PSoC4/BLE_1_hids.c **** *  \param charIndex: The index of the service characteristic. 
 252:Generated_Source\PSoC4/BLE_1_hids.c **** *              * CYBLE_HIDS_PROTOCOL_MODE - Protocol Mode characteristic
 253:Generated_Source\PSoC4/BLE_1_hids.c **** *              * CYBLE_HIDS_REPORT_MAP - Report Map characteristic
 254:Generated_Source\PSoC4/BLE_1_hids.c **** *              * CYBLE_HIDS_INFORMATION - HID Information characteristic
 255:Generated_Source\PSoC4/BLE_1_hids.c **** *              * CYBLE_HIDS_CONTROL_POINT - HID Control Point characteristic
 256:Generated_Source\PSoC4/BLE_1_hids.c **** *              * CYBLE_HIDS_BOOT_KYBRD_IN_REP - Boot Keyboard Input Report Characteristic
 257:Generated_Source\PSoC4/BLE_1_hids.c **** *              * CYBLE_HIDS_BOOT_KYBRD_OUT_REP - Boot Keyboard Output Report Characteristic
 258:Generated_Source\PSoC4/BLE_1_hids.c **** *              * CYBLE_HIDS_BOOT_MOUSE_IN_REP - Boot Mouse Input Report Characteristic
 259:Generated_Source\PSoC4/BLE_1_hids.c **** *              * CYBLE_HIDS_REPORT - Report Characteristic
 260:Generated_Source\PSoC4/BLE_1_hids.c **** * 
 261:Generated_Source\PSoC4/BLE_1_hids.c **** *  \param attrSize: The size of the characteristic value attribute.
 262:Generated_Source\PSoC4/BLE_1_hids.c **** * 
 263:Generated_Source\PSoC4/BLE_1_hids.c **** *  \param attrValue: The pointer to the location where characteristic value data
 264:Generated_Source\PSoC4/BLE_1_hids.c **** *               should be stored.
 265:Generated_Source\PSoC4/BLE_1_hids.c **** * 
 266:Generated_Source\PSoC4/BLE_1_hids.c **** * \return
 267:Generated_Source\PSoC4/BLE_1_hids.c **** *  Return value is of type CYBLE_API_RESULT_T.
 268:Generated_Source\PSoC4/BLE_1_hids.c **** *  * CYBLE_ERROR_OK - The request handled successfully
 269:Generated_Source\PSoC4/BLE_1_hids.c **** *  * CYBLE_ERROR_INVALID_PARAMETER - Validation of the input parameter failed
 270:Generated_Source\PSoC4/BLE_1_hids.c **** *  * CYBLE_ERROR_GATT_DB_INVALID_ATTR_HANDLE - Optional characteristic is absent
 271:Generated_Source\PSoC4/BLE_1_hids.c **** *
 272:Generated_Source\PSoC4/BLE_1_hids.c **** *
 273:Generated_Source\PSoC4/BLE_1_hids.c **** ******************************************************************************/
 274:Generated_Source\PSoC4/BLE_1_hids.c **** CYBLE_API_RESULT_T CyBle_HidssGetCharacteristicValue(uint8 serviceIndex, CYBLE_HIDS_CHAR_INDEX_T ch
 275:Generated_Source\PSoC4/BLE_1_hids.c ****     uint8 attrSize, uint8 *attrValue)
 276:Generated_Source\PSoC4/BLE_1_hids.c **** {
 443              		.loc 1 276 0
 444              		.cfi_startproc
 445              		@ args = 0, pretend = 0, frame = 24
 446              		@ frame_needed = 1, uses_anonymous_args = 0
 447 0000 90B5     		push	{r4, r7, lr}
 448              		.cfi_def_cfa_offset 12
 449              		.cfi_offset 4, -12
 450              		.cfi_offset 7, -8
 451              		.cfi_offset 14, -4
 452 0002 87B0     		sub	sp, sp, #28
 453              		.cfi_def_cfa_offset 40
 454 0004 00AF     		add	r7, sp, #0
 455              		.cfi_def_cfa_register 7
 456 0006 0400     		movs	r4, r0
 457 0008 0800     		movs	r0, r1
 458 000a 1100     		movs	r1, r2
 459 000c 3B60     		str	r3, [r7]
 460 000e FB1D     		adds	r3, r7, #7
 461 0010 221C     		adds	r2, r4, #0
 462 0012 1A70     		strb	r2, [r3]
 463 0014 BB1D     		adds	r3, r7, #6
ARM GAS  C:\Users\puria\AppData\Local\Temp\cc07Gu7s.s 			page 14


 464 0016 021C     		adds	r2, r0, #0
 465 0018 1A70     		strb	r2, [r3]
 466 001a 7B1D     		adds	r3, r7, #5
 467 001c 0A1C     		adds	r2, r1, #0
 468 001e 1A70     		strb	r2, [r3]
 277:Generated_Source\PSoC4/BLE_1_hids.c ****     CYBLE_API_RESULT_T apiResult = CYBLE_ERROR_OK;
 469              		.loc 1 277 0
 470 0020 1623     		movs	r3, #22
 471 0022 FB18     		adds	r3, r7, r3
 472 0024 0022     		movs	r2, #0
 473 0026 1A80     		strh	r2, [r3]
 278:Generated_Source\PSoC4/BLE_1_hids.c ****     CYBLE_GATT_DB_ATTR_HANDLE_T charValueHandle;
 279:Generated_Source\PSoC4/BLE_1_hids.c ****     CYBLE_GATT_HANDLE_VALUE_PAIR_T locHandleValuePair;
 280:Generated_Source\PSoC4/BLE_1_hids.c **** 
 281:Generated_Source\PSoC4/BLE_1_hids.c ****     if((serviceIndex >= CYBLE_HIDSS_SERVICE_COUNT) || (charIndex >= CYBLE_HIDS_CHAR_COUNT))
 474              		.loc 1 281 0
 475 0028 FB1D     		adds	r3, r7, #7
 476 002a 1B78     		ldrb	r3, [r3]
 477 002c 002B     		cmp	r3, #0
 478 002e 03D1     		bne	.L27
 479              		.loc 1 281 0 is_stmt 0 discriminator 1
 480 0030 BB1D     		adds	r3, r7, #6
 481 0032 1B78     		ldrb	r3, [r3]
 482 0034 072B     		cmp	r3, #7
 483 0036 04D9     		bls	.L28
 484              	.L27:
 282:Generated_Source\PSoC4/BLE_1_hids.c ****     {
 283:Generated_Source\PSoC4/BLE_1_hids.c ****         apiResult = CYBLE_ERROR_INVALID_PARAMETER;
 485              		.loc 1 283 0 is_stmt 1
 486 0038 1623     		movs	r3, #22
 487 003a FB18     		adds	r3, r7, r3
 488 003c 0122     		movs	r2, #1
 489 003e 1A80     		strh	r2, [r3]
 490 0040 BCE0     		b	.L29
 491              	.L28:
 284:Generated_Source\PSoC4/BLE_1_hids.c ****     }
 285:Generated_Source\PSoC4/BLE_1_hids.c ****     else
 286:Generated_Source\PSoC4/BLE_1_hids.c ****     {
 287:Generated_Source\PSoC4/BLE_1_hids.c ****         switch(charIndex)
 492              		.loc 1 287 0
 493 0042 BB1D     		adds	r3, r7, #6
 494 0044 1B78     		ldrb	r3, [r3]
 495 0046 062B     		cmp	r3, #6
 496 0048 66D8     		bhi	.L30
 497 004a 9A00     		lsls	r2, r3, #2
 498 004c 5F4B     		ldr	r3, .L45
 499 004e D318     		adds	r3, r2, r3
 500 0050 1B68     		ldr	r3, [r3]
 501 0052 9F46     		mov	pc, r3
 502              		.section	.rodata
 503              		.align	2
 504              	.L32:
 505 004c 54000000 		.word	.L31
 506 0050 8C000000 		.word	.L33
 507 0054 A8000000 		.word	.L34
 508 0058 70000000 		.word	.L35
 509 005c C4000000 		.word	.L36
ARM GAS  C:\Users\puria\AppData\Local\Temp\cc07Gu7s.s 			page 15


 510 0060 E0000000 		.word	.L37
 511 0064 FC000000 		.word	.L38
 512              		.section	.text.CyBle_HidssGetCharacteristicValue
 513              	.L31:
 288:Generated_Source\PSoC4/BLE_1_hids.c ****         {
 289:Generated_Source\PSoC4/BLE_1_hids.c ****             case CYBLE_HIDS_PROTOCOL_MODE:
 290:Generated_Source\PSoC4/BLE_1_hids.c ****                 charValueHandle = cyBle_hidss[serviceIndex].protocolModeHandle;
 514              		.loc 1 290 0
 515 0054 FB1D     		adds	r3, r7, #7
 516 0056 1A78     		ldrb	r2, [r3]
 517 0058 1423     		movs	r3, #20
 518 005a F918     		adds	r1, r7, r3
 519 005c 5C48     		ldr	r0, .L45+4
 520 005e 1300     		movs	r3, r2
 521 0060 9B00     		lsls	r3, r3, #2
 522 0062 9B18     		adds	r3, r3, r2
 523 0064 DB00     		lsls	r3, r3, #3
 524 0066 C318     		adds	r3, r0, r3
 525 0068 0233     		adds	r3, r3, #2
 526 006a 1B88     		ldrh	r3, [r3]
 527 006c 0B80     		strh	r3, [r1]
 291:Generated_Source\PSoC4/BLE_1_hids.c ****                 break;
 528              		.loc 1 291 0
 529 006e 7EE0     		b	.L39
 530              	.L35:
 292:Generated_Source\PSoC4/BLE_1_hids.c ****             case CYBLE_HIDS_REPORT_MAP:
 293:Generated_Source\PSoC4/BLE_1_hids.c ****                 charValueHandle = cyBle_hidss[serviceIndex].reportMapHandle;
 531              		.loc 1 293 0
 532 0070 FB1D     		adds	r3, r7, #7
 533 0072 1A78     		ldrb	r2, [r3]
 534 0074 1423     		movs	r3, #20
 535 0076 F918     		adds	r1, r7, r3
 536 0078 5548     		ldr	r0, .L45+4
 537 007a 1300     		movs	r3, r2
 538 007c 9B00     		lsls	r3, r3, #2
 539 007e 9B18     		adds	r3, r3, r2
 540 0080 DB00     		lsls	r3, r3, #3
 541 0082 C318     		adds	r3, r0, r3
 542 0084 1E33     		adds	r3, r3, #30
 543 0086 1B88     		ldrh	r3, [r3]
 544 0088 0B80     		strh	r3, [r1]
 294:Generated_Source\PSoC4/BLE_1_hids.c ****                 break;
 545              		.loc 1 294 0
 546 008a 70E0     		b	.L39
 547              	.L33:
 295:Generated_Source\PSoC4/BLE_1_hids.c ****             case CYBLE_HIDS_INFORMATION:
 296:Generated_Source\PSoC4/BLE_1_hids.c ****                 charValueHandle = cyBle_hidss[serviceIndex].informationHandle;
 548              		.loc 1 296 0
 549 008c FB1D     		adds	r3, r7, #7
 550 008e 1A78     		ldrb	r2, [r3]
 551 0090 1423     		movs	r3, #20
 552 0092 F918     		adds	r1, r7, r3
 553 0094 4E48     		ldr	r0, .L45+4
 554 0096 1300     		movs	r3, r2
 555 0098 9B00     		lsls	r3, r3, #2
 556 009a 9B18     		adds	r3, r3, r2
 557 009c DB00     		lsls	r3, r3, #3
ARM GAS  C:\Users\puria\AppData\Local\Temp\cc07Gu7s.s 			page 16


 558 009e C318     		adds	r3, r0, r3
 559 00a0 2233     		adds	r3, r3, #34
 560 00a2 1B88     		ldrh	r3, [r3]
 561 00a4 0B80     		strh	r3, [r1]
 297:Generated_Source\PSoC4/BLE_1_hids.c ****                 break;
 562              		.loc 1 297 0
 563 00a6 62E0     		b	.L39
 564              	.L34:
 298:Generated_Source\PSoC4/BLE_1_hids.c ****             case CYBLE_HIDS_CONTROL_POINT:
 299:Generated_Source\PSoC4/BLE_1_hids.c ****                 charValueHandle = cyBle_hidss[serviceIndex].controlPointHandle;
 565              		.loc 1 299 0
 566 00a8 FB1D     		adds	r3, r7, #7
 567 00aa 1A78     		ldrb	r2, [r3]
 568 00ac 1423     		movs	r3, #20
 569 00ae F918     		adds	r1, r7, r3
 570 00b0 4748     		ldr	r0, .L45+4
 571 00b2 1300     		movs	r3, r2
 572 00b4 9B00     		lsls	r3, r3, #2
 573 00b6 9B18     		adds	r3, r3, r2
 574 00b8 DB00     		lsls	r3, r3, #3
 575 00ba C318     		adds	r3, r0, r3
 576 00bc 2433     		adds	r3, r3, #36
 577 00be 1B88     		ldrh	r3, [r3]
 578 00c0 0B80     		strh	r3, [r1]
 300:Generated_Source\PSoC4/BLE_1_hids.c ****                 break;
 579              		.loc 1 300 0
 580 00c2 54E0     		b	.L39
 581              	.L36:
 301:Generated_Source\PSoC4/BLE_1_hids.c ****             case CYBLE_HIDS_BOOT_KYBRD_IN_REP:
 302:Generated_Source\PSoC4/BLE_1_hids.c ****                 charValueHandle =
 303:Generated_Source\PSoC4/BLE_1_hids.c ****                     cyBle_hidss[serviceIndex].bootReportArray[CYBLE_HIDS_BOOT_KYBRD_IN_REP_INDX].re
 582              		.loc 1 303 0
 583 00c4 FB1D     		adds	r3, r7, #7
 584 00c6 1A78     		ldrb	r2, [r3]
 302:Generated_Source\PSoC4/BLE_1_hids.c ****                     cyBle_hidss[serviceIndex].bootReportArray[CYBLE_HIDS_BOOT_KYBRD_IN_REP_INDX].re
 585              		.loc 1 302 0
 586 00c8 1423     		movs	r3, #20
 587 00ca F918     		adds	r1, r7, r3
 588 00cc 4048     		ldr	r0, .L45+4
 589 00ce 1300     		movs	r3, r2
 590 00d0 9B00     		lsls	r3, r3, #2
 591 00d2 9B18     		adds	r3, r3, r2
 592 00d4 DB00     		lsls	r3, r3, #3
 593 00d6 C318     		adds	r3, r0, r3
 594 00d8 0C33     		adds	r3, r3, #12
 595 00da 1B88     		ldrh	r3, [r3]
 596 00dc 0B80     		strh	r3, [r1]
 304:Generated_Source\PSoC4/BLE_1_hids.c ****                 break;
 597              		.loc 1 304 0
 598 00de 46E0     		b	.L39
 599              	.L37:
 305:Generated_Source\PSoC4/BLE_1_hids.c ****             case CYBLE_HIDS_BOOT_KYBRD_OUT_REP:
 306:Generated_Source\PSoC4/BLE_1_hids.c ****                 charValueHandle =
 307:Generated_Source\PSoC4/BLE_1_hids.c ****                     cyBle_hidss[serviceIndex].bootReportArray[CYBLE_HIDS_BOOT_KYBRD_OUT_REP_INDX].r
 600              		.loc 1 307 0
 601 00e0 FB1D     		adds	r3, r7, #7
 602 00e2 1A78     		ldrb	r2, [r3]
ARM GAS  C:\Users\puria\AppData\Local\Temp\cc07Gu7s.s 			page 17


 306:Generated_Source\PSoC4/BLE_1_hids.c ****                     cyBle_hidss[serviceIndex].bootReportArray[CYBLE_HIDS_BOOT_KYBRD_OUT_REP_INDX].r
 603              		.loc 1 306 0
 604 00e4 1423     		movs	r3, #20
 605 00e6 F918     		adds	r1, r7, r3
 606 00e8 3948     		ldr	r0, .L45+4
 607 00ea 1300     		movs	r3, r2
 608 00ec 9B00     		lsls	r3, r3, #2
 609 00ee 9B18     		adds	r3, r3, r2
 610 00f0 DB00     		lsls	r3, r3, #3
 611 00f2 C318     		adds	r3, r0, r3
 612 00f4 1233     		adds	r3, r3, #18
 613 00f6 1B88     		ldrh	r3, [r3]
 614 00f8 0B80     		strh	r3, [r1]
 308:Generated_Source\PSoC4/BLE_1_hids.c ****                 break;
 615              		.loc 1 308 0
 616 00fa 38E0     		b	.L39
 617              	.L38:
 309:Generated_Source\PSoC4/BLE_1_hids.c ****             case CYBLE_HIDS_BOOT_MOUSE_IN_REP:
 310:Generated_Source\PSoC4/BLE_1_hids.c ****                 charValueHandle =
 311:Generated_Source\PSoC4/BLE_1_hids.c ****                     cyBle_hidss[serviceIndex].bootReportArray[CYBLE_HIDS_BOOT_MOUSE_IN_REP_INDX].re
 618              		.loc 1 311 0
 619 00fc FB1D     		adds	r3, r7, #7
 620 00fe 1A78     		ldrb	r2, [r3]
 310:Generated_Source\PSoC4/BLE_1_hids.c ****                     cyBle_hidss[serviceIndex].bootReportArray[CYBLE_HIDS_BOOT_MOUSE_IN_REP_INDX].re
 621              		.loc 1 310 0
 622 0100 1423     		movs	r3, #20
 623 0102 F918     		adds	r1, r7, r3
 624 0104 3248     		ldr	r0, .L45+4
 625 0106 1300     		movs	r3, r2
 626 0108 9B00     		lsls	r3, r3, #2
 627 010a 9B18     		adds	r3, r3, r2
 628 010c DB00     		lsls	r3, r3, #3
 629 010e C318     		adds	r3, r0, r3
 630 0110 1833     		adds	r3, r3, #24
 631 0112 1B88     		ldrh	r3, [r3]
 632 0114 0B80     		strh	r3, [r1]
 312:Generated_Source\PSoC4/BLE_1_hids.c ****                 break;
 633              		.loc 1 312 0
 634 0116 2AE0     		b	.L39
 635              	.L30:
 313:Generated_Source\PSoC4/BLE_1_hids.c ****             default:                    /* Report characteristic */
 314:Generated_Source\PSoC4/BLE_1_hids.c ****                 /* Verify that requested report exists in particular service */
 315:Generated_Source\PSoC4/BLE_1_hids.c ****                 if((charIndex - CYBLE_HIDS_REPORT) < cyBle_hidss[serviceIndex].reportCount)
 636              		.loc 1 315 0
 637 0118 BB1D     		adds	r3, r7, #6
 638 011a 1B78     		ldrb	r3, [r3]
 639 011c D91F     		subs	r1, r3, #7
 640 011e FB1D     		adds	r3, r7, #7
 641 0120 1A78     		ldrb	r2, [r3]
 642 0122 2B48     		ldr	r0, .L45+4
 643 0124 1300     		movs	r3, r2
 644 0126 9B00     		lsls	r3, r3, #2
 645 0128 9B18     		adds	r3, r3, r2
 646 012a DB00     		lsls	r3, r3, #3
 647 012c C318     		adds	r3, r0, r3
 648 012e 0433     		adds	r3, r3, #4
 649 0130 1B78     		ldrb	r3, [r3]
ARM GAS  C:\Users\puria\AppData\Local\Temp\cc07Gu7s.s 			page 18


 650 0132 9942     		cmp	r1, r3
 651 0134 16DA     		bge	.L40
 316:Generated_Source\PSoC4/BLE_1_hids.c ****                 {
 317:Generated_Source\PSoC4/BLE_1_hids.c ****                     charValueHandle = cyBle_hidss[serviceIndex].reportArray[charIndex - CYBLE_HIDS_
 652              		.loc 1 317 0
 653 0136 FB1D     		adds	r3, r7, #7
 654 0138 1A78     		ldrb	r2, [r3]
 655 013a 2549     		ldr	r1, .L45+4
 656 013c 1300     		movs	r3, r2
 657 013e 9B00     		lsls	r3, r3, #2
 658 0140 9B18     		adds	r3, r3, r2
 659 0142 DB00     		lsls	r3, r3, #3
 660 0144 CB18     		adds	r3, r1, r3
 661 0146 0833     		adds	r3, r3, #8
 662 0148 1968     		ldr	r1, [r3]
 663 014a BB1D     		adds	r3, r7, #6
 664 014c 1A78     		ldrb	r2, [r3]
 665 014e 1300     		movs	r3, r2
 666 0150 5B00     		lsls	r3, r3, #1
 667 0152 9B18     		adds	r3, r3, r2
 668 0154 5B00     		lsls	r3, r3, #1
 669 0156 2A3B     		subs	r3, r3, #42
 670 0158 CA18     		adds	r2, r1, r3
 671 015a 1423     		movs	r3, #20
 672 015c FB18     		adds	r3, r7, r3
 673 015e 1288     		ldrh	r2, [r2]
 674 0160 1A80     		strh	r2, [r3]
 318:Generated_Source\PSoC4/BLE_1_hids.c ****                 }
 319:Generated_Source\PSoC4/BLE_1_hids.c ****                 else
 320:Generated_Source\PSoC4/BLE_1_hids.c ****                 {
 321:Generated_Source\PSoC4/BLE_1_hids.c ****                     charValueHandle = CYBLE_GATT_INVALID_ATTR_HANDLE_VALUE;
 322:Generated_Source\PSoC4/BLE_1_hids.c ****                 }
 323:Generated_Source\PSoC4/BLE_1_hids.c ****                 break;
 675              		.loc 1 323 0
 676 0162 03E0     		b	.L44
 677              	.L40:
 321:Generated_Source\PSoC4/BLE_1_hids.c ****                 }
 678              		.loc 1 321 0
 679 0164 1423     		movs	r3, #20
 680 0166 FB18     		adds	r3, r7, r3
 681 0168 0022     		movs	r2, #0
 682 016a 1A80     		strh	r2, [r3]
 683              	.L44:
 684              		.loc 1 323 0
 685 016c C046     		nop
 686              	.L39:
 324:Generated_Source\PSoC4/BLE_1_hids.c ****         }
 325:Generated_Source\PSoC4/BLE_1_hids.c **** 
 326:Generated_Source\PSoC4/BLE_1_hids.c ****         if(charValueHandle == CYBLE_GATT_INVALID_ATTR_HANDLE_VALUE)
 687              		.loc 1 326 0
 688 016e 1423     		movs	r3, #20
 689 0170 FB18     		adds	r3, r7, r3
 690 0172 1B88     		ldrh	r3, [r3]
 691 0174 002B     		cmp	r3, #0
 692 0176 04D1     		bne	.L42
 327:Generated_Source\PSoC4/BLE_1_hids.c ****         {
 328:Generated_Source\PSoC4/BLE_1_hids.c ****             apiResult = CYBLE_ERROR_GATT_DB_INVALID_ATTR_HANDLE;
ARM GAS  C:\Users\puria\AppData\Local\Temp\cc07Gu7s.s 			page 19


 693              		.loc 1 328 0
 694 0178 1623     		movs	r3, #22
 695 017a FB18     		adds	r3, r7, r3
 696 017c 1322     		movs	r2, #19
 697 017e 1A80     		strh	r2, [r3]
 698 0180 1CE0     		b	.L29
 699              	.L42:
 329:Generated_Source\PSoC4/BLE_1_hids.c ****         }
 330:Generated_Source\PSoC4/BLE_1_hids.c ****         else
 331:Generated_Source\PSoC4/BLE_1_hids.c ****         {
 332:Generated_Source\PSoC4/BLE_1_hids.c ****             /* Read characteristic value from database */
 333:Generated_Source\PSoC4/BLE_1_hids.c ****             locHandleValuePair.attrHandle = charValueHandle;
 700              		.loc 1 333 0
 701 0182 0823     		movs	r3, #8
 702 0184 FB18     		adds	r3, r7, r3
 703 0186 1422     		movs	r2, #20
 704 0188 BA18     		adds	r2, r7, r2
 705 018a 1288     		ldrh	r2, [r2]
 706 018c 1A81     		strh	r2, [r3, #8]
 334:Generated_Source\PSoC4/BLE_1_hids.c ****             locHandleValuePair.value.len = attrSize;
 707              		.loc 1 334 0
 708 018e 7B1D     		adds	r3, r7, #5
 709 0190 1B78     		ldrb	r3, [r3]
 710 0192 9AB2     		uxth	r2, r3
 711 0194 0823     		movs	r3, #8
 712 0196 FB18     		adds	r3, r7, r3
 713 0198 9A80     		strh	r2, [r3, #4]
 335:Generated_Source\PSoC4/BLE_1_hids.c ****             locHandleValuePair.value.val = attrValue;
 714              		.loc 1 335 0
 715 019a 0823     		movs	r3, #8
 716 019c FB18     		adds	r3, r7, r3
 717 019e 3A68     		ldr	r2, [r7]
 718 01a0 1A60     		str	r2, [r3]
 336:Generated_Source\PSoC4/BLE_1_hids.c ****             if(CYBLE_GATT_ERR_NONE !=
 337:Generated_Source\PSoC4/BLE_1_hids.c ****                 CyBle_GattsReadAttributeValue(&locHandleValuePair, NULL, CYBLE_GATT_DB_LOCALLY_INIT
 719              		.loc 1 337 0
 720 01a2 0823     		movs	r3, #8
 721 01a4 FB18     		adds	r3, r7, r3
 722 01a6 0022     		movs	r2, #0
 723 01a8 0021     		movs	r1, #0
 724 01aa 1800     		movs	r0, r3
 725 01ac FFF7FEFF 		bl	CyBle_GattsReadAttributeValue
 726 01b0 031E     		subs	r3, r0, #0
 336:Generated_Source\PSoC4/BLE_1_hids.c ****             if(CYBLE_GATT_ERR_NONE !=
 727              		.loc 1 336 0
 728 01b2 03D0     		beq	.L29
 338:Generated_Source\PSoC4/BLE_1_hids.c ****             {
 339:Generated_Source\PSoC4/BLE_1_hids.c ****                 apiResult = CYBLE_ERROR_INVALID_PARAMETER;
 729              		.loc 1 339 0
 730 01b4 1623     		movs	r3, #22
 731 01b6 FB18     		adds	r3, r7, r3
 732 01b8 0122     		movs	r2, #1
 733 01ba 1A80     		strh	r2, [r3]
 734              	.L29:
 340:Generated_Source\PSoC4/BLE_1_hids.c ****             }
 341:Generated_Source\PSoC4/BLE_1_hids.c ****         }
 342:Generated_Source\PSoC4/BLE_1_hids.c ****     }
ARM GAS  C:\Users\puria\AppData\Local\Temp\cc07Gu7s.s 			page 20


 343:Generated_Source\PSoC4/BLE_1_hids.c ****     return (apiResult);
 735              		.loc 1 343 0
 736 01bc 1623     		movs	r3, #22
 737 01be FB18     		adds	r3, r7, r3
 738 01c0 1B88     		ldrh	r3, [r3]
 344:Generated_Source\PSoC4/BLE_1_hids.c **** }
 739              		.loc 1 344 0
 740 01c2 1800     		movs	r0, r3
 741 01c4 BD46     		mov	sp, r7
 742 01c6 07B0     		add	sp, sp, #28
 743              		@ sp needed
 744 01c8 90BD     		pop	{r4, r7, pc}
 745              	.L46:
 746 01ca C046     		.align	2
 747              	.L45:
 748 01cc 4C000000 		.word	.L32
 749 01d0 00000000 		.word	cyBle_hidss
 750              		.cfi_endproc
 751              	.LFE5:
 752              		.size	CyBle_HidssGetCharacteristicValue, .-CyBle_HidssGetCharacteristicValue
 753              		.section	.text.CyBle_HidssGetCharacteristicDescriptor,"ax",%progbits
 754              		.align	2
 755              		.global	CyBle_HidssGetCharacteristicDescriptor
 756              		.code	16
 757              		.thumb_func
 758              		.type	CyBle_HidssGetCharacteristicDescriptor, %function
 759              	CyBle_HidssGetCharacteristicDescriptor:
 760              	.LFB6:
 345:Generated_Source\PSoC4/BLE_1_hids.c **** 
 346:Generated_Source\PSoC4/BLE_1_hids.c **** 
 347:Generated_Source\PSoC4/BLE_1_hids.c **** /****************************************************************************** 
 348:Generated_Source\PSoC4/BLE_1_hids.c **** * Function Name: CyBle_HidssGetCharacteristicDescriptor
 349:Generated_Source\PSoC4/BLE_1_hids.c **** ***************************************************************************//**
 350:Generated_Source\PSoC4/BLE_1_hids.c **** * 
 351:Generated_Source\PSoC4/BLE_1_hids.c **** *  Gets local characteristic descriptor of the specified HID Service 
 352:Generated_Source\PSoC4/BLE_1_hids.c **** *  characteristic.
 353:Generated_Source\PSoC4/BLE_1_hids.c **** * 
 354:Generated_Source\PSoC4/BLE_1_hids.c **** *  \param serviceIndex: The index of the service instance. e.g. If two HID Services are 
 355:Generated_Source\PSoC4/BLE_1_hids.c **** *                 supported in your design, then first service will be identified
 356:Generated_Source\PSoC4/BLE_1_hids.c **** *                 by serviceIndex of 0 and the second by serviceIndex of 1.
 357:Generated_Source\PSoC4/BLE_1_hids.c **** * 
 358:Generated_Source\PSoC4/BLE_1_hids.c **** *  \param charIndex: The index of the characteristic.
 359:Generated_Source\PSoC4/BLE_1_hids.c **** *              * CYBLE_HIDS_REPORT_MAP          - Report Map Characteristic
 360:Generated_Source\PSoC4/BLE_1_hids.c **** *              * CYBLE_HIDS_BOOT_KYBRD_IN_REP   - Boot Keyboard Input Report Characteristic
 361:Generated_Source\PSoC4/BLE_1_hids.c **** *              * CYBLE_HIDS_BOOT_KYBRD_OUT_REP  - Boot Keyboard Output Report Characteristic
 362:Generated_Source\PSoC4/BLE_1_hids.c **** *              * CYBLE_HIDS_BOOT_MOUSE_IN_REP   - Boot Mouse Input Report Characteristic
 363:Generated_Source\PSoC4/BLE_1_hids.c **** *              * CYBLE_HIDS_REPORT              - Report Characteristic
 364:Generated_Source\PSoC4/BLE_1_hids.c **** * 
 365:Generated_Source\PSoC4/BLE_1_hids.c **** *  \param descrIndex: The index of the descriptor.
 366:Generated_Source\PSoC4/BLE_1_hids.c **** *               * CYBLE_HIDS_REPORT_CCCD - Client Characteristic Configuration descriptor
 367:Generated_Source\PSoC4/BLE_1_hids.c **** *               * CYBLE_HIDS_REPORT_RRD - Report Reference descriptor
 368:Generated_Source\PSoC4/BLE_1_hids.c **** *               * CYBLE_HIDS_REPORT_MAP_ERRD - Report Map External Report Reference descriptor
 369:Generated_Source\PSoC4/BLE_1_hids.c **** * 
 370:Generated_Source\PSoC4/BLE_1_hids.c **** *  \param attrSize: The size of the descriptor value attribute.
 371:Generated_Source\PSoC4/BLE_1_hids.c **** * 
 372:Generated_Source\PSoC4/BLE_1_hids.c **** *  \param attrValue: The pointer to the location where characteristic descriptor
 373:Generated_Source\PSoC4/BLE_1_hids.c **** *               value data should be stored.
ARM GAS  C:\Users\puria\AppData\Local\Temp\cc07Gu7s.s 			page 21


 374:Generated_Source\PSoC4/BLE_1_hids.c **** * 
 375:Generated_Source\PSoC4/BLE_1_hids.c **** * \return
 376:Generated_Source\PSoC4/BLE_1_hids.c **** *  Return value is of type CYBLE_API_RESULT_T.
 377:Generated_Source\PSoC4/BLE_1_hids.c **** *  * CYBLE_ERROR_OK - The request handled successfully
 378:Generated_Source\PSoC4/BLE_1_hids.c **** *  * CYBLE_ERROR_INVALID_PARAMETER - Validation of the input parameter failed
 379:Generated_Source\PSoC4/BLE_1_hids.c **** *  * CYBLE_ERROR_GATT_DB_INVALID_ATTR_HANDLE - Optional descriptor is absent
 380:Generated_Source\PSoC4/BLE_1_hids.c **** *
 381:Generated_Source\PSoC4/BLE_1_hids.c **** *
 382:Generated_Source\PSoC4/BLE_1_hids.c **** ******************************************************************************/
 383:Generated_Source\PSoC4/BLE_1_hids.c **** CYBLE_API_RESULT_T CyBle_HidssGetCharacteristicDescriptor(uint8 serviceIndex, CYBLE_HIDS_CHAR_INDEX
 384:Generated_Source\PSoC4/BLE_1_hids.c ****     CYBLE_HIDS_DESCR_T descrIndex, uint8 attrSize, uint8 *attrValue)
 385:Generated_Source\PSoC4/BLE_1_hids.c **** {
 761              		.loc 1 385 0
 762              		.cfi_startproc
 763              		@ args = 4, pretend = 0, frame = 32
 764              		@ frame_needed = 1, uses_anonymous_args = 0
 765 0000 B0B5     		push	{r4, r5, r7, lr}
 766              		.cfi_def_cfa_offset 16
 767              		.cfi_offset 4, -16
 768              		.cfi_offset 5, -12
 769              		.cfi_offset 7, -8
 770              		.cfi_offset 14, -4
 771 0002 88B0     		sub	sp, sp, #32
 772              		.cfi_def_cfa_offset 48
 773 0004 00AF     		add	r7, sp, #0
 774              		.cfi_def_cfa_register 7
 775 0006 0500     		movs	r5, r0
 776 0008 0C00     		movs	r4, r1
 777 000a 1000     		movs	r0, r2
 778 000c 1900     		movs	r1, r3
 779 000e FB1D     		adds	r3, r7, #7
 780 0010 2A1C     		adds	r2, r5, #0
 781 0012 1A70     		strb	r2, [r3]
 782 0014 BB1D     		adds	r3, r7, #6
 783 0016 221C     		adds	r2, r4, #0
 784 0018 1A70     		strb	r2, [r3]
 785 001a 7B1D     		adds	r3, r7, #5
 786 001c 021C     		adds	r2, r0, #0
 787 001e 1A70     		strb	r2, [r3]
 788 0020 3B1D     		adds	r3, r7, #4
 789 0022 0A1C     		adds	r2, r1, #0
 790 0024 1A70     		strb	r2, [r3]
 386:Generated_Source\PSoC4/BLE_1_hids.c ****     CYBLE_API_RESULT_T apiResult = CYBLE_ERROR_OK;
 791              		.loc 1 386 0
 792 0026 1E23     		movs	r3, #30
 793 0028 FB18     		adds	r3, r7, r3
 794 002a 0022     		movs	r2, #0
 795 002c 1A80     		strh	r2, [r3]
 387:Generated_Source\PSoC4/BLE_1_hids.c ****     CYBLE_GATT_DB_ATTR_HANDLE_T locDescrHandle = CYBLE_GATT_INVALID_ATTR_HANDLE_VALUE;
 796              		.loc 1 387 0
 797 002e 1C23     		movs	r3, #28
 798 0030 FB18     		adds	r3, r7, r3
 799 0032 0022     		movs	r2, #0
 800 0034 1A80     		strh	r2, [r3]
 388:Generated_Source\PSoC4/BLE_1_hids.c ****     const CYBLE_HIDSS_REPORT_T *locReport;
 389:Generated_Source\PSoC4/BLE_1_hids.c ****     CYBLE_GATT_HANDLE_VALUE_PAIR_T locHandleValuePair;
 390:Generated_Source\PSoC4/BLE_1_hids.c **** 
ARM GAS  C:\Users\puria\AppData\Local\Temp\cc07Gu7s.s 			page 22


 391:Generated_Source\PSoC4/BLE_1_hids.c ****     if((serviceIndex >= CYBLE_HIDSS_SERVICE_COUNT) || (descrIndex >= CYBLE_HIDS_DESCR_COUNT) ||
 801              		.loc 1 391 0
 802 0036 FB1D     		adds	r3, r7, #7
 803 0038 1B78     		ldrb	r3, [r3]
 804 003a 002B     		cmp	r3, #0
 805 003c 0FD1     		bne	.L48
 806              		.loc 1 391 0 is_stmt 0 discriminator 1
 807 003e 7B1D     		adds	r3, r7, #5
 808 0040 1B78     		ldrb	r3, [r3]
 809 0042 022B     		cmp	r3, #2
 810 0044 0BD8     		bhi	.L48
 811              		.loc 1 391 0 discriminator 2
 812 0046 BB1D     		adds	r3, r7, #6
 813 0048 1B78     		ldrb	r3, [r3]
 814 004a 072B     		cmp	r3, #7
 815 004c 07D8     		bhi	.L48
 392:Generated_Source\PSoC4/BLE_1_hids.c ****        (charIndex >= CYBLE_HIDS_CHAR_COUNT) || (charIndex < CYBLE_HIDS_REPORT_MAP) || 
 816              		.loc 1 392 0 is_stmt 1
 817 004e BB1D     		adds	r3, r7, #6
 818 0050 1B78     		ldrb	r3, [r3]
 819 0052 022B     		cmp	r3, #2
 820 0054 03D9     		bls	.L48
 821              		.loc 1 392 0 is_stmt 0 discriminator 1
 822 0056 BB1D     		adds	r3, r7, #6
 823 0058 1B78     		ldrb	r3, [r3]
 824 005a 052B     		cmp	r3, #5
 825 005c 04D1     		bne	.L49
 826              	.L48:
 393:Generated_Source\PSoC4/BLE_1_hids.c ****        (charIndex == CYBLE_HIDS_BOOT_KYBRD_OUT_REP))
 394:Generated_Source\PSoC4/BLE_1_hids.c ****     {
 395:Generated_Source\PSoC4/BLE_1_hids.c ****         apiResult = CYBLE_ERROR_INVALID_PARAMETER;
 827              		.loc 1 395 0 is_stmt 1
 828 005e 1E23     		movs	r3, #30
 829 0060 FB18     		adds	r3, r7, r3
 830 0062 0122     		movs	r2, #1
 831 0064 1A80     		strh	r2, [r3]
 832 0066 63E0     		b	.L50
 833              	.L49:
 396:Generated_Source\PSoC4/BLE_1_hids.c ****     }
 397:Generated_Source\PSoC4/BLE_1_hids.c ****     else
 398:Generated_Source\PSoC4/BLE_1_hids.c ****     {
 399:Generated_Source\PSoC4/BLE_1_hids.c ****         if(charIndex == CYBLE_HIDS_REPORT_MAP)
 834              		.loc 1 399 0
 835 0068 BB1D     		adds	r3, r7, #6
 836 006a 1B78     		ldrb	r3, [r3]
 837 006c 032B     		cmp	r3, #3
 838 006e 16D1     		bne	.L51
 400:Generated_Source\PSoC4/BLE_1_hids.c ****         {
 401:Generated_Source\PSoC4/BLE_1_hids.c ****             if(descrIndex == CYBLE_HIDS_REPORT_MAP_ERRD)
 839              		.loc 1 401 0
 840 0070 7B1D     		adds	r3, r7, #5
 841 0072 1B78     		ldrb	r3, [r3]
 842 0074 022B     		cmp	r3, #2
 843 0076 0DD1     		bne	.L52
 402:Generated_Source\PSoC4/BLE_1_hids.c ****             {
 403:Generated_Source\PSoC4/BLE_1_hids.c ****                 locDescrHandle = cyBle_hidss[serviceIndex].reportMapErrdHandle;
 844              		.loc 1 403 0
ARM GAS  C:\Users\puria\AppData\Local\Temp\cc07Gu7s.s 			page 23


 845 0078 FB1D     		adds	r3, r7, #7
 846 007a 1A78     		ldrb	r2, [r3]
 847 007c 1C23     		movs	r3, #28
 848 007e F918     		adds	r1, r7, r3
 849 0080 4548     		ldr	r0, .L61
 850 0082 1300     		movs	r3, r2
 851 0084 9B00     		lsls	r3, r3, #2
 852 0086 9B18     		adds	r3, r3, r2
 853 0088 DB00     		lsls	r3, r3, #3
 854 008a C318     		adds	r3, r0, r3
 855 008c 2033     		adds	r3, r3, #32
 856 008e 1B88     		ldrh	r3, [r3]
 857 0090 0B80     		strh	r3, [r1]
 858 0092 4DE0     		b	.L50
 859              	.L52:
 404:Generated_Source\PSoC4/BLE_1_hids.c ****             }
 405:Generated_Source\PSoC4/BLE_1_hids.c ****             else
 406:Generated_Source\PSoC4/BLE_1_hids.c ****             {
 407:Generated_Source\PSoC4/BLE_1_hids.c ****                 apiResult = CYBLE_ERROR_INVALID_PARAMETER;
 860              		.loc 1 407 0
 861 0094 1E23     		movs	r3, #30
 862 0096 FB18     		adds	r3, r7, r3
 863 0098 0122     		movs	r2, #1
 864 009a 1A80     		strh	r2, [r3]
 865 009c 48E0     		b	.L50
 866              	.L51:
 408:Generated_Source\PSoC4/BLE_1_hids.c ****             }
 409:Generated_Source\PSoC4/BLE_1_hids.c ****         }
 410:Generated_Source\PSoC4/BLE_1_hids.c ****         else /* Report characteristics */
 411:Generated_Source\PSoC4/BLE_1_hids.c ****         {
 412:Generated_Source\PSoC4/BLE_1_hids.c ****             /* Get report structure */
 413:Generated_Source\PSoC4/BLE_1_hids.c ****             if((charIndex >= CYBLE_HIDS_BOOT_KYBRD_IN_REP) && (charIndex <= CYBLE_HIDS_BOOT_MOUSE_I
 867              		.loc 1 413 0
 868 009e BB1D     		adds	r3, r7, #6
 869 00a0 1B78     		ldrb	r3, [r3]
 870 00a2 032B     		cmp	r3, #3
 871 00a4 19D9     		bls	.L54
 872              		.loc 1 413 0 is_stmt 0 discriminator 1
 873 00a6 BB1D     		adds	r3, r7, #6
 874 00a8 1B78     		ldrb	r3, [r3]
 875 00aa 062B     		cmp	r3, #6
 876 00ac 15D8     		bhi	.L54
 414:Generated_Source\PSoC4/BLE_1_hids.c ****             {
 415:Generated_Source\PSoC4/BLE_1_hids.c ****                 locReport = &cyBle_hidss[serviceIndex].bootReportArray[charIndex - CYBLE_HIDS_BOOT_
 877              		.loc 1 415 0 is_stmt 1
 878 00ae FB1D     		adds	r3, r7, #7
 879 00b0 1978     		ldrb	r1, [r3]
 880 00b2 BB1D     		adds	r3, r7, #6
 881 00b4 1B78     		ldrb	r3, [r3]
 882 00b6 043B     		subs	r3, r3, #4
 883 00b8 1A00     		movs	r2, r3
 884 00ba 5200     		lsls	r2, r2, #1
 885 00bc D218     		adds	r2, r2, r3
 886 00be 5300     		lsls	r3, r2, #1
 887 00c0 1A00     		movs	r2, r3
 888 00c2 0B00     		movs	r3, r1
 889 00c4 9B00     		lsls	r3, r3, #2
ARM GAS  C:\Users\puria\AppData\Local\Temp\cc07Gu7s.s 			page 24


 890 00c6 5B18     		adds	r3, r3, r1
 891 00c8 DB00     		lsls	r3, r3, #3
 892 00ca D318     		adds	r3, r2, r3
 893 00cc 0833     		adds	r3, r3, #8
 894 00ce 1A00     		movs	r2, r3
 895 00d0 314B     		ldr	r3, .L61
 896 00d2 D318     		adds	r3, r2, r3
 897 00d4 0433     		adds	r3, r3, #4
 898 00d6 BB61     		str	r3, [r7, #24]
 899 00d8 12E0     		b	.L55
 900              	.L54:
 416:Generated_Source\PSoC4/BLE_1_hids.c ****             }
 417:Generated_Source\PSoC4/BLE_1_hids.c ****             else
 418:Generated_Source\PSoC4/BLE_1_hids.c ****             {
 419:Generated_Source\PSoC4/BLE_1_hids.c ****                 locReport = &cyBle_hidss[serviceIndex].reportArray[charIndex - CYBLE_HIDS_REPORT];
 901              		.loc 1 419 0
 902 00da FB1D     		adds	r3, r7, #7
 903 00dc 1A78     		ldrb	r2, [r3]
 904 00de 2E49     		ldr	r1, .L61
 905 00e0 1300     		movs	r3, r2
 906 00e2 9B00     		lsls	r3, r3, #2
 907 00e4 9B18     		adds	r3, r3, r2
 908 00e6 DB00     		lsls	r3, r3, #3
 909 00e8 CB18     		adds	r3, r1, r3
 910 00ea 0833     		adds	r3, r3, #8
 911 00ec 1968     		ldr	r1, [r3]
 912 00ee BB1D     		adds	r3, r7, #6
 913 00f0 1A78     		ldrb	r2, [r3]
 914 00f2 1300     		movs	r3, r2
 915 00f4 5B00     		lsls	r3, r3, #1
 916 00f6 9B18     		adds	r3, r3, r2
 917 00f8 5B00     		lsls	r3, r3, #1
 918 00fa 2A3B     		subs	r3, r3, #42
 919 00fc CB18     		adds	r3, r1, r3
 920 00fe BB61     		str	r3, [r7, #24]
 921              	.L55:
 420:Generated_Source\PSoC4/BLE_1_hids.c ****             }
 421:Generated_Source\PSoC4/BLE_1_hids.c ****             /* Get descriptor handle from report structure */
 422:Generated_Source\PSoC4/BLE_1_hids.c ****             if(descrIndex == CYBLE_HIDS_REPORT_CCCD)
 922              		.loc 1 422 0
 923 0100 7B1D     		adds	r3, r7, #5
 924 0102 1B78     		ldrb	r3, [r3]
 925 0104 002B     		cmp	r3, #0
 926 0106 05D1     		bne	.L56
 423:Generated_Source\PSoC4/BLE_1_hids.c ****             {
 424:Generated_Source\PSoC4/BLE_1_hids.c ****                 locDescrHandle = locReport->cccdHandle;
 927              		.loc 1 424 0
 928 0108 1C23     		movs	r3, #28
 929 010a FB18     		adds	r3, r7, r3
 930 010c BA69     		ldr	r2, [r7, #24]
 931 010e 5288     		ldrh	r2, [r2, #2]
 932 0110 1A80     		strh	r2, [r3]
 933 0112 0DE0     		b	.L50
 934              	.L56:
 425:Generated_Source\PSoC4/BLE_1_hids.c ****             }
 426:Generated_Source\PSoC4/BLE_1_hids.c ****             else if(descrIndex == CYBLE_HIDS_REPORT_RRD)
 935              		.loc 1 426 0
ARM GAS  C:\Users\puria\AppData\Local\Temp\cc07Gu7s.s 			page 25


 936 0114 7B1D     		adds	r3, r7, #5
 937 0116 1B78     		ldrb	r3, [r3]
 938 0118 012B     		cmp	r3, #1
 939 011a 05D1     		bne	.L57
 427:Generated_Source\PSoC4/BLE_1_hids.c ****             {
 428:Generated_Source\PSoC4/BLE_1_hids.c ****                 locDescrHandle = locReport->rrdHandle;
 940              		.loc 1 428 0
 941 011c 1C23     		movs	r3, #28
 942 011e FB18     		adds	r3, r7, r3
 943 0120 BA69     		ldr	r2, [r7, #24]
 944 0122 9288     		ldrh	r2, [r2, #4]
 945 0124 1A80     		strh	r2, [r3]
 946 0126 03E0     		b	.L50
 947              	.L57:
 429:Generated_Source\PSoC4/BLE_1_hids.c ****             }
 430:Generated_Source\PSoC4/BLE_1_hids.c ****             else /* External Report Reference descriptor doesn't exist for report characteristic */
 431:Generated_Source\PSoC4/BLE_1_hids.c ****             {
 432:Generated_Source\PSoC4/BLE_1_hids.c ****                 apiResult = CYBLE_ERROR_INVALID_PARAMETER;
 948              		.loc 1 432 0
 949 0128 1E23     		movs	r3, #30
 950 012a FB18     		adds	r3, r7, r3
 951 012c 0122     		movs	r2, #1
 952 012e 1A80     		strh	r2, [r3]
 953              	.L50:
 433:Generated_Source\PSoC4/BLE_1_hids.c ****             }
 434:Generated_Source\PSoC4/BLE_1_hids.c ****         }
 435:Generated_Source\PSoC4/BLE_1_hids.c ****     }
 436:Generated_Source\PSoC4/BLE_1_hids.c ****     if(apiResult != CYBLE_ERROR_INVALID_PARAMETER)
 954              		.loc 1 436 0
 955 0130 1E23     		movs	r3, #30
 956 0132 FB18     		adds	r3, r7, r3
 957 0134 1B88     		ldrh	r3, [r3]
 958 0136 012B     		cmp	r3, #1
 959 0138 26D0     		beq	.L58
 437:Generated_Source\PSoC4/BLE_1_hids.c ****     {
 438:Generated_Source\PSoC4/BLE_1_hids.c ****         if(locDescrHandle == CYBLE_GATT_INVALID_ATTR_HANDLE_VALUE)
 960              		.loc 1 438 0
 961 013a 1C23     		movs	r3, #28
 962 013c FB18     		adds	r3, r7, r3
 963 013e 1B88     		ldrh	r3, [r3]
 964 0140 002B     		cmp	r3, #0
 965 0142 04D1     		bne	.L59
 439:Generated_Source\PSoC4/BLE_1_hids.c ****         {
 440:Generated_Source\PSoC4/BLE_1_hids.c ****             apiResult = CYBLE_ERROR_GATT_DB_INVALID_ATTR_HANDLE;
 966              		.loc 1 440 0
 967 0144 1E23     		movs	r3, #30
 968 0146 FB18     		adds	r3, r7, r3
 969 0148 1322     		movs	r2, #19
 970 014a 1A80     		strh	r2, [r3]
 971 014c 1CE0     		b	.L58
 972              	.L59:
 441:Generated_Source\PSoC4/BLE_1_hids.c ****         }
 442:Generated_Source\PSoC4/BLE_1_hids.c ****         else
 443:Generated_Source\PSoC4/BLE_1_hids.c ****         {
 444:Generated_Source\PSoC4/BLE_1_hids.c ****             /* Read value from database */
 445:Generated_Source\PSoC4/BLE_1_hids.c ****             locHandleValuePair.attrHandle = locDescrHandle;
 973              		.loc 1 445 0
ARM GAS  C:\Users\puria\AppData\Local\Temp\cc07Gu7s.s 			page 26


 974 014e 0C23     		movs	r3, #12
 975 0150 FB18     		adds	r3, r7, r3
 976 0152 1C22     		movs	r2, #28
 977 0154 BA18     		adds	r2, r7, r2
 978 0156 1288     		ldrh	r2, [r2]
 979 0158 1A81     		strh	r2, [r3, #8]
 446:Generated_Source\PSoC4/BLE_1_hids.c ****             locHandleValuePair.value.len = attrSize;
 980              		.loc 1 446 0
 981 015a 3B1D     		adds	r3, r7, #4
 982 015c 1B78     		ldrb	r3, [r3]
 983 015e 9AB2     		uxth	r2, r3
 984 0160 0C23     		movs	r3, #12
 985 0162 FB18     		adds	r3, r7, r3
 986 0164 9A80     		strh	r2, [r3, #4]
 447:Generated_Source\PSoC4/BLE_1_hids.c ****             locHandleValuePair.value.val = attrValue;
 987              		.loc 1 447 0
 988 0166 0C23     		movs	r3, #12
 989 0168 FB18     		adds	r3, r7, r3
 990 016a 3A6B     		ldr	r2, [r7, #48]
 991 016c 1A60     		str	r2, [r3]
 448:Generated_Source\PSoC4/BLE_1_hids.c ****             if(CYBLE_GATT_ERR_NONE !=
 449:Generated_Source\PSoC4/BLE_1_hids.c ****                 CyBle_GattsReadAttributeValue(&locHandleValuePair, NULL, CYBLE_GATT_DB_LOCALLY_INIT
 992              		.loc 1 449 0
 993 016e 0C23     		movs	r3, #12
 994 0170 FB18     		adds	r3, r7, r3
 995 0172 0022     		movs	r2, #0
 996 0174 0021     		movs	r1, #0
 997 0176 1800     		movs	r0, r3
 998 0178 FFF7FEFF 		bl	CyBle_GattsReadAttributeValue
 999 017c 031E     		subs	r3, r0, #0
 448:Generated_Source\PSoC4/BLE_1_hids.c ****             if(CYBLE_GATT_ERR_NONE !=
 1000              		.loc 1 448 0
 1001 017e 03D0     		beq	.L58
 450:Generated_Source\PSoC4/BLE_1_hids.c ****             {
 451:Generated_Source\PSoC4/BLE_1_hids.c ****                 apiResult = CYBLE_ERROR_INVALID_PARAMETER;
 1002              		.loc 1 451 0
 1003 0180 1E23     		movs	r3, #30
 1004 0182 FB18     		adds	r3, r7, r3
 1005 0184 0122     		movs	r2, #1
 1006 0186 1A80     		strh	r2, [r3]
 1007              	.L58:
 452:Generated_Source\PSoC4/BLE_1_hids.c ****             }
 453:Generated_Source\PSoC4/BLE_1_hids.c ****         }
 454:Generated_Source\PSoC4/BLE_1_hids.c ****     }
 455:Generated_Source\PSoC4/BLE_1_hids.c ****     return (apiResult);
 1008              		.loc 1 455 0
 1009 0188 1E23     		movs	r3, #30
 1010 018a FB18     		adds	r3, r7, r3
 1011 018c 1B88     		ldrh	r3, [r3]
 456:Generated_Source\PSoC4/BLE_1_hids.c **** }
 1012              		.loc 1 456 0
 1013 018e 1800     		movs	r0, r3
 1014 0190 BD46     		mov	sp, r7
 1015 0192 08B0     		add	sp, sp, #32
 1016              		@ sp needed
 1017 0194 B0BD     		pop	{r4, r5, r7, pc}
 1018              	.L62:
ARM GAS  C:\Users\puria\AppData\Local\Temp\cc07Gu7s.s 			page 27


 1019 0196 C046     		.align	2
 1020              	.L61:
 1021 0198 00000000 		.word	cyBle_hidss
 1022              		.cfi_endproc
 1023              	.LFE6:
 1024              		.size	CyBle_HidssGetCharacteristicDescriptor, .-CyBle_HidssGetCharacteristicDescriptor
 1025              		.section	.text.CyBle_HidssCccdWriteEventHandler,"ax",%progbits
 1026              		.align	2
 1027              		.code	16
 1028              		.thumb_func
 1029              		.type	CyBle_HidssCccdWriteEventHandler, %function
 1030              	CyBle_HidssCccdWriteEventHandler:
 1031              	.LFB7:
 457:Generated_Source\PSoC4/BLE_1_hids.c **** 
 458:Generated_Source\PSoC4/BLE_1_hids.c **** 
 459:Generated_Source\PSoC4/BLE_1_hids.c **** /****************************************************************************** 
 460:Generated_Source\PSoC4/BLE_1_hids.c **** * Function Name: CyBle_HidssCccdWriteEventHandler
 461:Generated_Source\PSoC4/BLE_1_hids.c **** ***************************************************************************//**
 462:Generated_Source\PSoC4/BLE_1_hids.c **** * 
 463:Generated_Source\PSoC4/BLE_1_hids.c **** *  Handles the Write Request Event of the Client Characteristic Configuration
 464:Generated_Source\PSoC4/BLE_1_hids.c **** *  descriptor.
 465:Generated_Source\PSoC4/BLE_1_hids.c **** * 
 466:Generated_Source\PSoC4/BLE_1_hids.c **** *  \param serviceIndex: The index of the service instance.
 467:Generated_Source\PSoC4/BLE_1_hids.c **** *  \param charIndex: The index of the characteristic.
 468:Generated_Source\PSoC4/BLE_1_hids.c **** *  \param eventParam: The pointer to the data structure specified by the event.
 469:Generated_Source\PSoC4/BLE_1_hids.c **** * 
 470:Generated_Source\PSoC4/BLE_1_hids.c **** * \return
 471:Generated_Source\PSoC4/BLE_1_hids.c **** *  uint32 eventCode: The event code to be send to application.
 472:Generated_Source\PSoC4/BLE_1_hids.c **** * 
 473:Generated_Source\PSoC4/BLE_1_hids.c **** ******************************************************************************/
 474:Generated_Source\PSoC4/BLE_1_hids.c **** static uint32 CyBle_HidssCccdWriteEventHandler(uint8 serviceIndex, const CYBLE_GATTS_WRITE_REQ_PARA
 475:Generated_Source\PSoC4/BLE_1_hids.c **** {
 1032              		.loc 1 475 0
 1033              		.cfi_startproc
 1034              		@ args = 0, pretend = 0, frame = 16
 1035              		@ frame_needed = 1, uses_anonymous_args = 0
 1036 0000 80B5     		push	{r7, lr}
 1037              		.cfi_def_cfa_offset 8
 1038              		.cfi_offset 7, -8
 1039              		.cfi_offset 14, -4
 1040 0002 84B0     		sub	sp, sp, #16
 1041              		.cfi_def_cfa_offset 24
 1042 0004 00AF     		add	r7, sp, #0
 1043              		.cfi_def_cfa_register 7
 1044 0006 0200     		movs	r2, r0
 1045 0008 3960     		str	r1, [r7]
 1046 000a FB1D     		adds	r3, r7, #7
 1047 000c 1A70     		strb	r2, [r3]
 476:Generated_Source\PSoC4/BLE_1_hids.c ****     uint32 eventCode;
 477:Generated_Source\PSoC4/BLE_1_hids.c **** 
 478:Generated_Source\PSoC4/BLE_1_hids.c ****     if(CYBLE_IS_NOTIFICATION_ENABLED_IN_PTR(eventParam->handleValPair.value.val))
 1048              		.loc 1 478 0
 1049 000e 3B68     		ldr	r3, [r7]
 1050 0010 5B68     		ldr	r3, [r3, #4]
 1051 0012 1800     		movs	r0, r3
 1052 0014 FFF7FEFF 		bl	CyBle_Get16ByPtr
 1053 0018 0300     		movs	r3, r0
ARM GAS  C:\Users\puria\AppData\Local\Temp\cc07Gu7s.s 			page 28


 1054 001a 1A00     		movs	r2, r3
 1055 001c 0123     		movs	r3, #1
 1056 001e 1340     		ands	r3, r2
 1057 0020 9BB2     		uxth	r3, r3
 1058 0022 002B     		cmp	r3, #0
 1059 0024 03D0     		beq	.L64
 479:Generated_Source\PSoC4/BLE_1_hids.c ****     {
 480:Generated_Source\PSoC4/BLE_1_hids.c ****         eventCode = (uint32)CYBLE_EVT_HIDSS_NOTIFICATION_ENABLED;
 1060              		.loc 1 480 0
 1061 0026 CA23     		movs	r3, #202
 1062 0028 5B00     		lsls	r3, r3, #1
 1063 002a FB60     		str	r3, [r7, #12]
 1064 002c 02E0     		b	.L65
 1065              	.L64:
 481:Generated_Source\PSoC4/BLE_1_hids.c ****     }
 482:Generated_Source\PSoC4/BLE_1_hids.c ****     else
 483:Generated_Source\PSoC4/BLE_1_hids.c ****     {
 484:Generated_Source\PSoC4/BLE_1_hids.c ****         eventCode = (uint32)CYBLE_EVT_HIDSS_NOTIFICATION_DISABLED;
 1066              		.loc 1 484 0
 1067 002e 9623     		movs	r3, #150
 1068 0030 FF33     		adds	r3, r3, #255
 1069 0032 FB60     		str	r3, [r7, #12]
 1070              	.L65:
 485:Generated_Source\PSoC4/BLE_1_hids.c ****     }
 486:Generated_Source\PSoC4/BLE_1_hids.c ****     cyBle_eventHandlerFlag &= (uint8)~CYBLE_CALLBACK;
 1071              		.loc 1 486 0
 1072 0034 0B4B     		ldr	r3, .L68
 1073 0036 1B78     		ldrb	r3, [r3]
 1074 0038 DBB2     		uxtb	r3, r3
 1075 003a 0122     		movs	r2, #1
 1076 003c 9343     		bics	r3, r2
 1077 003e DAB2     		uxtb	r2, r3
 1078 0040 084B     		ldr	r3, .L68
 1079 0042 1A70     		strb	r2, [r3]
 487:Generated_Source\PSoC4/BLE_1_hids.c ****     
 488:Generated_Source\PSoC4/BLE_1_hids.c **** #if((CYBLE_GAP_ROLE_PERIPHERAL || CYBLE_GAP_ROLE_CENTRAL) && (CYBLE_BONDING_REQUIREMENT == CYBLE_BO
 489:Generated_Source\PSoC4/BLE_1_hids.c ****     /* Set flag to store bonding data to flash */
 490:Generated_Source\PSoC4/BLE_1_hids.c ****     if(cyBle_peerBonding == CYBLE_GAP_BONDING)
 1080              		.loc 1 490 0
 1081 0044 084B     		ldr	r3, .L68+4
 1082 0046 1B78     		ldrb	r3, [r3]
 1083 0048 012B     		cmp	r3, #1
 1084 004a 06D1     		bne	.L66
 491:Generated_Source\PSoC4/BLE_1_hids.c ****     {
 492:Generated_Source\PSoC4/BLE_1_hids.c ****         cyBle_pendingFlashWrite |= CYBLE_PENDING_CCCD_FLASH_WRITE_BIT;
 1085              		.loc 1 492 0
 1086 004c 074B     		ldr	r3, .L68+8
 1087 004e 1B78     		ldrb	r3, [r3]
 1088 0050 0222     		movs	r2, #2
 1089 0052 1343     		orrs	r3, r2
 1090 0054 DAB2     		uxtb	r2, r3
 1091 0056 054B     		ldr	r3, .L68+8
 1092 0058 1A70     		strb	r2, [r3]
 1093              	.L66:
 493:Generated_Source\PSoC4/BLE_1_hids.c ****     }
 494:Generated_Source\PSoC4/BLE_1_hids.c **** #endif /* (CYBLE_BONDING_REQUIREMENT == CYBLE_BONDING_YES) */
 495:Generated_Source\PSoC4/BLE_1_hids.c **** 
ARM GAS  C:\Users\puria\AppData\Local\Temp\cc07Gu7s.s 			page 29


 496:Generated_Source\PSoC4/BLE_1_hids.c ****     return(eventCode);
 1094              		.loc 1 496 0
 1095 005a FB68     		ldr	r3, [r7, #12]
 497:Generated_Source\PSoC4/BLE_1_hids.c **** }
 1096              		.loc 1 497 0
 1097 005c 1800     		movs	r0, r3
 1098 005e BD46     		mov	sp, r7
 1099 0060 04B0     		add	sp, sp, #16
 1100              		@ sp needed
 1101 0062 80BD     		pop	{r7, pc}
 1102              	.L69:
 1103              		.align	2
 1104              	.L68:
 1105 0064 00000000 		.word	cyBle_eventHandlerFlag
 1106 0068 00000000 		.word	cyBle_peerBonding
 1107 006c 00000000 		.word	cyBle_pendingFlashWrite
 1108              		.cfi_endproc
 1109              	.LFE7:
 1110              		.size	CyBle_HidssCccdWriteEventHandler, .-CyBle_HidssCccdWriteEventHandler
 1111              		.section	.text.CyBle_HidssWriteEventHandler,"ax",%progbits
 1112              		.align	2
 1113              		.global	CyBle_HidssWriteEventHandler
 1114              		.code	16
 1115              		.thumb_func
 1116              		.type	CyBle_HidssWriteEventHandler, %function
 1117              	CyBle_HidssWriteEventHandler:
 1118              	.LFB8:
 498:Generated_Source\PSoC4/BLE_1_hids.c **** 
 499:Generated_Source\PSoC4/BLE_1_hids.c **** 
 500:Generated_Source\PSoC4/BLE_1_hids.c **** /****************************************************************************** 
 501:Generated_Source\PSoC4/BLE_1_hids.c **** * Function Name: CyBle_HidssWriteEventHandler
 502:Generated_Source\PSoC4/BLE_1_hids.c **** ***************************************************************************//**
 503:Generated_Source\PSoC4/BLE_1_hids.c **** * 
 504:Generated_Source\PSoC4/BLE_1_hids.c **** *  Handles the Write Request Event.
 505:Generated_Source\PSoC4/BLE_1_hids.c **** * 
 506:Generated_Source\PSoC4/BLE_1_hids.c **** *  \param eventParam: The pointer to the data structure specified by the event.
 507:Generated_Source\PSoC4/BLE_1_hids.c **** * 
 508:Generated_Source\PSoC4/BLE_1_hids.c **** * \return
 509:Generated_Source\PSoC4/BLE_1_hids.c **** *  Return value is of type CYBLE_GATT_ERR_CODE_T.
 510:Generated_Source\PSoC4/BLE_1_hids.c **** *   * CYBLE_GATT_ERR_NONE - Write is successful.
 511:Generated_Source\PSoC4/BLE_1_hids.c **** * 
 512:Generated_Source\PSoC4/BLE_1_hids.c **** ******************************************************************************/
 513:Generated_Source\PSoC4/BLE_1_hids.c **** CYBLE_GATT_ERR_CODE_T CyBle_HidssWriteEventHandler(CYBLE_GATTS_WRITE_REQ_PARAM_T *eventParam)
 514:Generated_Source\PSoC4/BLE_1_hids.c **** {
 1119              		.loc 1 514 0
 1120              		.cfi_startproc
 1121              		@ args = 0, pretend = 0, frame = 32
 1122              		@ frame_needed = 1, uses_anonymous_args = 0
 1123 0000 90B5     		push	{r4, r7, lr}
 1124              		.cfi_def_cfa_offset 12
 1125              		.cfi_offset 4, -12
 1126              		.cfi_offset 7, -8
 1127              		.cfi_offset 14, -4
 1128 0002 89B0     		sub	sp, sp, #36
 1129              		.cfi_def_cfa_offset 48
 1130 0004 00AF     		add	r7, sp, #0
 1131              		.cfi_def_cfa_register 7
ARM GAS  C:\Users\puria\AppData\Local\Temp\cc07Gu7s.s 			page 30


 1132 0006 7860     		str	r0, [r7, #4]
 515:Generated_Source\PSoC4/BLE_1_hids.c ****     CYBLE_GATT_ERR_CODE_T gattErr = CYBLE_GATT_ERR_NONE;
 1133              		.loc 1 515 0
 1134 0008 1F23     		movs	r3, #31
 1135 000a FB18     		adds	r3, r7, r3
 1136 000c 0022     		movs	r2, #0
 1137 000e 1A70     		strb	r2, [r3]
 516:Generated_Source\PSoC4/BLE_1_hids.c ****     uint8 locServIndex = 0u;
 1138              		.loc 1 516 0
 1139 0010 1E23     		movs	r3, #30
 1140 0012 FB18     		adds	r3, r7, r3
 1141 0014 0022     		movs	r2, #0
 1142 0016 1A70     		strb	r2, [r3]
 517:Generated_Source\PSoC4/BLE_1_hids.c ****     uint8 reportIndex;
 518:Generated_Source\PSoC4/BLE_1_hids.c ****     CYBLE_HIDS_CHAR_INDEX_T locCharIndex;
 519:Generated_Source\PSoC4/BLE_1_hids.c ****     CYBLE_HIDS_CHAR_VALUE_T locCharValue;
 520:Generated_Source\PSoC4/BLE_1_hids.c ****     uint32 eventCode = 0u;
 1143              		.loc 1 520 0
 1144 0018 0023     		movs	r3, #0
 1145 001a BB61     		str	r3, [r7, #24]
 521:Generated_Source\PSoC4/BLE_1_hids.c **** 
 522:Generated_Source\PSoC4/BLE_1_hids.c ****     if(NULL != CyBle_HidsApplCallback)
 1146              		.loc 1 522 0
 1147 001c 9C4B     		ldr	r3, .L97
 1148 001e 1B68     		ldr	r3, [r3]
 1149 0020 002B     		cmp	r3, #0
 1150 0022 00D1     		bne	.LCB1010
 1151 0024 EAE1     		b	.L71	@long jump
 1152              	.LCB1010:
 523:Generated_Source\PSoC4/BLE_1_hids.c ****     {
 524:Generated_Source\PSoC4/BLE_1_hids.c ****         locCharValue.connHandle = eventParam->connHandle;
 1153              		.loc 1 524 0
 1154 0026 0C23     		movs	r3, #12
 1155 0028 FB18     		adds	r3, r7, r3
 1156 002a 7A68     		ldr	r2, [r7, #4]
 1157 002c 1288     		ldrh	r2, [r2]
 1158 002e 1A80     		strh	r2, [r3]
 525:Generated_Source\PSoC4/BLE_1_hids.c ****         locCharValue.value = NULL;
 1159              		.loc 1 525 0
 1160 0030 0C23     		movs	r3, #12
 1161 0032 FB18     		adds	r3, r7, r3
 1162 0034 0022     		movs	r2, #0
 1163 0036 5A60     		str	r2, [r3, #4]
 1164              	.L94:
 526:Generated_Source\PSoC4/BLE_1_hids.c ****         do
 527:Generated_Source\PSoC4/BLE_1_hids.c ****         {
 528:Generated_Source\PSoC4/BLE_1_hids.c ****             locCharValue.serviceIndex = locServIndex;
 1165              		.loc 1 528 0
 1166 0038 0C23     		movs	r3, #12
 1167 003a FB18     		adds	r3, r7, r3
 1168 003c 1E22     		movs	r2, #30
 1169 003e BA18     		adds	r2, r7, r2
 1170 0040 1278     		ldrb	r2, [r2]
 1171 0042 9A70     		strb	r2, [r3, #2]
 529:Generated_Source\PSoC4/BLE_1_hids.c ****             /* Protocol Mode characteristic write request */
 530:Generated_Source\PSoC4/BLE_1_hids.c ****             if(eventParam->handleValPair.attrHandle == cyBle_hidss[locServIndex].protocolModeHandle
 1172              		.loc 1 530 0
ARM GAS  C:\Users\puria\AppData\Local\Temp\cc07Gu7s.s 			page 31


 1173 0044 7B68     		ldr	r3, [r7, #4]
 1174 0046 9989     		ldrh	r1, [r3, #12]
 1175 0048 1E23     		movs	r3, #30
 1176 004a FB18     		adds	r3, r7, r3
 1177 004c 1A78     		ldrb	r2, [r3]
 1178 004e 9148     		ldr	r0, .L97+4
 1179 0050 1300     		movs	r3, r2
 1180 0052 9B00     		lsls	r3, r3, #2
 1181 0054 9B18     		adds	r3, r3, r2
 1182 0056 DB00     		lsls	r3, r3, #3
 1183 0058 C318     		adds	r3, r0, r3
 1184 005a 0233     		adds	r3, r3, #2
 1185 005c 1B88     		ldrh	r3, [r3]
 1186 005e 9942     		cmp	r1, r3
 1187 0060 28D1     		bne	.L72
 531:Generated_Source\PSoC4/BLE_1_hids.c ****             {
 532:Generated_Source\PSoC4/BLE_1_hids.c ****                 locCharValue.charIndex = CYBLE_HIDS_PROTOCOL_MODE;
 1188              		.loc 1 532 0
 1189 0062 0C23     		movs	r3, #12
 1190 0064 FB18     		adds	r3, r7, r3
 1191 0066 0022     		movs	r2, #0
 1192 0068 DA70     		strb	r2, [r3, #3]
 533:Generated_Source\PSoC4/BLE_1_hids.c ****                 if(eventParam->handleValPair.value.len == CYBLE_HIDS_PM_CHAR_LEN)
 1193              		.loc 1 533 0
 1194 006a 7B68     		ldr	r3, [r7, #4]
 1195 006c 1B89     		ldrh	r3, [r3, #8]
 1196 006e 012B     		cmp	r3, #1
 1197 0070 00D0     		beq	.LCB1050
 1198 0072 95E1     		b	.L77	@long jump
 1199              	.LCB1050:
 534:Generated_Source\PSoC4/BLE_1_hids.c ****                 {
 535:Generated_Source\PSoC4/BLE_1_hids.c ****                     switch(eventParam->handleValPair.value.val[0u])
 1200              		.loc 1 535 0
 1201 0074 7B68     		ldr	r3, [r7, #4]
 1202 0076 5B68     		ldr	r3, [r3, #4]
 1203 0078 1B78     		ldrb	r3, [r3]
 1204 007a 002B     		cmp	r3, #0
 1205 007c 02D0     		beq	.L75
 1206 007e 012B     		cmp	r3, #1
 1207 0080 0CD0     		beq	.L76
 536:Generated_Source\PSoC4/BLE_1_hids.c ****                     {
 537:Generated_Source\PSoC4/BLE_1_hids.c ****                         case CYBLE_HIDS_PROTOCOL_MODE_BOOT:
 538:Generated_Source\PSoC4/BLE_1_hids.c ****                             eventCode = (uint32)CYBLE_EVT_HIDSS_BOOT_MODE_ENTER;
 539:Generated_Source\PSoC4/BLE_1_hids.c ****                             cyBle_eventHandlerFlag &= (uint8)~CYBLE_CALLBACK;
 540:Generated_Source\PSoC4/BLE_1_hids.c ****                             break;
 541:Generated_Source\PSoC4/BLE_1_hids.c ****                         case CYBLE_HIDS_PROTOCOL_MODE_REPORT:
 542:Generated_Source\PSoC4/BLE_1_hids.c ****                             eventCode = (uint32)CYBLE_EVT_HIDSS_REPORT_MODE_ENTER;
 543:Generated_Source\PSoC4/BLE_1_hids.c ****                             cyBle_eventHandlerFlag &= (uint8)~CYBLE_CALLBACK;
 544:Generated_Source\PSoC4/BLE_1_hids.c ****                             break;
 545:Generated_Source\PSoC4/BLE_1_hids.c ****                         default:    /* Reserved for Future Use. */
 546:Generated_Source\PSoC4/BLE_1_hids.c ****                             break;
 1208              		.loc 1 546 0
 1209 0082 8DE1     		b	.L77
 1210              	.L75:
 538:Generated_Source\PSoC4/BLE_1_hids.c ****                             cyBle_eventHandlerFlag &= (uint8)~CYBLE_CALLBACK;
 1211              		.loc 1 538 0
 1212 0084 CB23     		movs	r3, #203
ARM GAS  C:\Users\puria\AppData\Local\Temp\cc07Gu7s.s 			page 32


 1213 0086 5B00     		lsls	r3, r3, #1
 1214 0088 BB61     		str	r3, [r7, #24]
 539:Generated_Source\PSoC4/BLE_1_hids.c ****                             break;
 1215              		.loc 1 539 0
 1216 008a 834B     		ldr	r3, .L97+8
 1217 008c 1B78     		ldrb	r3, [r3]
 1218 008e DBB2     		uxtb	r3, r3
 1219 0090 0122     		movs	r2, #1
 1220 0092 9343     		bics	r3, r2
 1221 0094 DAB2     		uxtb	r2, r3
 1222 0096 804B     		ldr	r3, .L97+8
 1223 0098 1A70     		strb	r2, [r3]
 540:Generated_Source\PSoC4/BLE_1_hids.c ****                         case CYBLE_HIDS_PROTOCOL_MODE_REPORT:
 1224              		.loc 1 540 0
 1225 009a 81E1     		b	.L77
 1226              	.L76:
 542:Generated_Source\PSoC4/BLE_1_hids.c ****                             cyBle_eventHandlerFlag &= (uint8)~CYBLE_CALLBACK;
 1227              		.loc 1 542 0
 1228 009c 9823     		movs	r3, #152
 1229 009e FF33     		adds	r3, r3, #255
 1230 00a0 BB61     		str	r3, [r7, #24]
 543:Generated_Source\PSoC4/BLE_1_hids.c ****                             break;
 1231              		.loc 1 543 0
 1232 00a2 7D4B     		ldr	r3, .L97+8
 1233 00a4 1B78     		ldrb	r3, [r3]
 1234 00a6 DBB2     		uxtb	r3, r3
 1235 00a8 0122     		movs	r2, #1
 1236 00aa 9343     		bics	r3, r2
 1237 00ac DAB2     		uxtb	r2, r3
 1238 00ae 7A4B     		ldr	r3, .L97+8
 1239 00b0 1A70     		strb	r2, [r3]
 544:Generated_Source\PSoC4/BLE_1_hids.c ****                         default:    /* Reserved for Future Use. */
 1240              		.loc 1 544 0
 1241 00b2 75E1     		b	.L77
 1242              	.L72:
 547:Generated_Source\PSoC4/BLE_1_hids.c ****                     }
 548:Generated_Source\PSoC4/BLE_1_hids.c ****                 }
 549:Generated_Source\PSoC4/BLE_1_hids.c ****             }
 550:Generated_Source\PSoC4/BLE_1_hids.c ****             /* Control Point characteristic write request */
 551:Generated_Source\PSoC4/BLE_1_hids.c ****             else if(eventParam->handleValPair.attrHandle == cyBle_hidss[locServIndex].controlPointH
 1243              		.loc 1 551 0
 1244 00b4 7B68     		ldr	r3, [r7, #4]
 1245 00b6 9989     		ldrh	r1, [r3, #12]
 1246 00b8 1E23     		movs	r3, #30
 1247 00ba FB18     		adds	r3, r7, r3
 1248 00bc 1A78     		ldrb	r2, [r3]
 1249 00be 7548     		ldr	r0, .L97+4
 1250 00c0 1300     		movs	r3, r2
 1251 00c2 9B00     		lsls	r3, r3, #2
 1252 00c4 9B18     		adds	r3, r3, r2
 1253 00c6 DB00     		lsls	r3, r3, #3
 1254 00c8 C318     		adds	r3, r0, r3
 1255 00ca 2433     		adds	r3, r3, #36
 1256 00cc 1B88     		ldrh	r3, [r3]
 1257 00ce 9942     		cmp	r1, r3
 1258 00d0 28D1     		bne	.L78
 552:Generated_Source\PSoC4/BLE_1_hids.c ****             {
ARM GAS  C:\Users\puria\AppData\Local\Temp\cc07Gu7s.s 			page 33


 553:Generated_Source\PSoC4/BLE_1_hids.c ****                 locCharValue.charIndex = CYBLE_HIDS_CONTROL_POINT;
 1259              		.loc 1 553 0
 1260 00d2 0C23     		movs	r3, #12
 1261 00d4 FB18     		adds	r3, r7, r3
 1262 00d6 0222     		movs	r2, #2
 1263 00d8 DA70     		strb	r2, [r3, #3]
 554:Generated_Source\PSoC4/BLE_1_hids.c ****                 if(eventParam->handleValPair.value.len == CYBLE_HIDS_CP_CHAR_LEN)
 1264              		.loc 1 554 0
 1265 00da 7B68     		ldr	r3, [r7, #4]
 1266 00dc 1B89     		ldrh	r3, [r3, #8]
 1267 00de 012B     		cmp	r3, #1
 1268 00e0 00D0     		beq	.LCB1114
 1269 00e2 5DE1     		b	.L77	@long jump
 1270              	.LCB1114:
 555:Generated_Source\PSoC4/BLE_1_hids.c ****                 {
 556:Generated_Source\PSoC4/BLE_1_hids.c ****                     switch(eventParam->handleValPair.value.val[0u])
 1271              		.loc 1 556 0
 1272 00e4 7B68     		ldr	r3, [r7, #4]
 1273 00e6 5B68     		ldr	r3, [r3, #4]
 1274 00e8 1B78     		ldrb	r3, [r3]
 1275 00ea 002B     		cmp	r3, #0
 1276 00ec 02D0     		beq	.L81
 1277 00ee 012B     		cmp	r3, #1
 1278 00f0 0CD0     		beq	.L82
 557:Generated_Source\PSoC4/BLE_1_hids.c ****                     {
 558:Generated_Source\PSoC4/BLE_1_hids.c ****                         case CYBLE_HIDS_CP_SUSPEND:
 559:Generated_Source\PSoC4/BLE_1_hids.c ****                             eventCode = (uint32)CYBLE_EVT_HIDSS_SUSPEND;
 560:Generated_Source\PSoC4/BLE_1_hids.c ****                             cyBle_eventHandlerFlag &= (uint8)~CYBLE_CALLBACK;
 561:Generated_Source\PSoC4/BLE_1_hids.c ****                             break;
 562:Generated_Source\PSoC4/BLE_1_hids.c ****                         case CYBLE_HIDS_CP_EXIT_SUSPEND:
 563:Generated_Source\PSoC4/BLE_1_hids.c ****                             eventCode = (uint32)CYBLE_EVT_HIDSS_EXIT_SUSPEND;
 564:Generated_Source\PSoC4/BLE_1_hids.c ****                             cyBle_eventHandlerFlag &= (uint8)~CYBLE_CALLBACK;
 565:Generated_Source\PSoC4/BLE_1_hids.c ****                             break;
 566:Generated_Source\PSoC4/BLE_1_hids.c ****                         default:    /* Reserved for Future Use. */
 567:Generated_Source\PSoC4/BLE_1_hids.c ****                             break;
 1279              		.loc 1 567 0
 1280 00f2 55E1     		b	.L77
 1281              	.L81:
 559:Generated_Source\PSoC4/BLE_1_hids.c ****                             cyBle_eventHandlerFlag &= (uint8)~CYBLE_CALLBACK;
 1282              		.loc 1 559 0
 1283 00f4 CC23     		movs	r3, #204
 1284 00f6 5B00     		lsls	r3, r3, #1
 1285 00f8 BB61     		str	r3, [r7, #24]
 560:Generated_Source\PSoC4/BLE_1_hids.c ****                             break;
 1286              		.loc 1 560 0
 1287 00fa 674B     		ldr	r3, .L97+8
 1288 00fc 1B78     		ldrb	r3, [r3]
 1289 00fe DBB2     		uxtb	r3, r3
 1290 0100 0122     		movs	r2, #1
 1291 0102 9343     		bics	r3, r2
 1292 0104 DAB2     		uxtb	r2, r3
 1293 0106 644B     		ldr	r3, .L97+8
 1294 0108 1A70     		strb	r2, [r3]
 561:Generated_Source\PSoC4/BLE_1_hids.c ****                         case CYBLE_HIDS_CP_EXIT_SUSPEND:
 1295              		.loc 1 561 0
 1296 010a 49E1     		b	.L77
 1297              	.L82:
ARM GAS  C:\Users\puria\AppData\Local\Temp\cc07Gu7s.s 			page 34


 563:Generated_Source\PSoC4/BLE_1_hids.c ****                             cyBle_eventHandlerFlag &= (uint8)~CYBLE_CALLBACK;
 1298              		.loc 1 563 0
 1299 010c 9A23     		movs	r3, #154
 1300 010e FF33     		adds	r3, r3, #255
 1301 0110 BB61     		str	r3, [r7, #24]
 564:Generated_Source\PSoC4/BLE_1_hids.c ****                             break;
 1302              		.loc 1 564 0
 1303 0112 614B     		ldr	r3, .L97+8
 1304 0114 1B78     		ldrb	r3, [r3]
 1305 0116 DBB2     		uxtb	r3, r3
 1306 0118 0122     		movs	r2, #1
 1307 011a 9343     		bics	r3, r2
 1308 011c DAB2     		uxtb	r2, r3
 1309 011e 5E4B     		ldr	r3, .L97+8
 1310 0120 1A70     		strb	r2, [r3]
 565:Generated_Source\PSoC4/BLE_1_hids.c ****                         default:    /* Reserved for Future Use. */
 1311              		.loc 1 565 0
 1312 0122 3DE1     		b	.L77
 1313              	.L78:
 568:Generated_Source\PSoC4/BLE_1_hids.c ****                     }
 569:Generated_Source\PSoC4/BLE_1_hids.c ****                 }
 570:Generated_Source\PSoC4/BLE_1_hids.c ****             }
 571:Generated_Source\PSoC4/BLE_1_hids.c ****             else if(eventParam->handleValPair.attrHandle ==
 1314              		.loc 1 571 0
 1315 0124 7B68     		ldr	r3, [r7, #4]
 1316 0126 9989     		ldrh	r1, [r3, #12]
 572:Generated_Source\PSoC4/BLE_1_hids.c ****                         cyBle_hidss[locServIndex].bootReportArray[CYBLE_HIDS_BOOT_KYBRD_IN_REP_INDX
 1317              		.loc 1 572 0
 1318 0128 1E23     		movs	r3, #30
 1319 012a FB18     		adds	r3, r7, r3
 1320 012c 1A78     		ldrb	r2, [r3]
 1321 012e 5948     		ldr	r0, .L97+4
 1322 0130 1300     		movs	r3, r2
 1323 0132 9B00     		lsls	r3, r3, #2
 1324 0134 9B18     		adds	r3, r3, r2
 1325 0136 DB00     		lsls	r3, r3, #3
 1326 0138 C318     		adds	r3, r0, r3
 1327 013a 0C33     		adds	r3, r3, #12
 1328 013c 1B88     		ldrh	r3, [r3]
 571:Generated_Source\PSoC4/BLE_1_hids.c ****                         cyBle_hidss[locServIndex].bootReportArray[CYBLE_HIDS_BOOT_KYBRD_IN_REP_INDX
 1329              		.loc 1 571 0
 1330 013e 9942     		cmp	r1, r3
 1331 0140 14D1     		bne	.L83
 573:Generated_Source\PSoC4/BLE_1_hids.c ****             {
 574:Generated_Source\PSoC4/BLE_1_hids.c ****                 locCharValue.charIndex = CYBLE_HIDS_BOOT_KYBRD_IN_REP;
 1332              		.loc 1 574 0
 1333 0142 0C23     		movs	r3, #12
 1334 0144 FB18     		adds	r3, r7, r3
 1335 0146 0422     		movs	r2, #4
 1336 0148 DA70     		strb	r2, [r3, #3]
 575:Generated_Source\PSoC4/BLE_1_hids.c ****                 locCharValue.value = &eventParam->handleValPair.value;
 1337              		.loc 1 575 0
 1338 014a 7B68     		ldr	r3, [r7, #4]
 1339 014c 1A1D     		adds	r2, r3, #4
 1340 014e 0C23     		movs	r3, #12
 1341 0150 FB18     		adds	r3, r7, r3
 1342 0152 5A60     		str	r2, [r3, #4]
ARM GAS  C:\Users\puria\AppData\Local\Temp\cc07Gu7s.s 			page 35


 576:Generated_Source\PSoC4/BLE_1_hids.c ****                 eventCode = (uint32)CYBLE_EVT_HIDSS_REPORT_CHAR_WRITE;
 1343              		.loc 1 576 0
 1344 0154 CD23     		movs	r3, #205
 1345 0156 5B00     		lsls	r3, r3, #1
 1346 0158 BB61     		str	r3, [r7, #24]
 577:Generated_Source\PSoC4/BLE_1_hids.c ****                 cyBle_eventHandlerFlag &= (uint8)~CYBLE_CALLBACK;
 1347              		.loc 1 577 0
 1348 015a 4F4B     		ldr	r3, .L97+8
 1349 015c 1B78     		ldrb	r3, [r3]
 1350 015e DBB2     		uxtb	r3, r3
 1351 0160 0122     		movs	r2, #1
 1352 0162 9343     		bics	r3, r2
 1353 0164 DAB2     		uxtb	r2, r3
 1354 0166 4C4B     		ldr	r3, .L97+8
 1355 0168 1A70     		strb	r2, [r3]
 1356 016a 19E1     		b	.L77
 1357              	.L83:
 578:Generated_Source\PSoC4/BLE_1_hids.c ****             }
 579:Generated_Source\PSoC4/BLE_1_hids.c ****             else if(eventParam->handleValPair.attrHandle ==
 1358              		.loc 1 579 0
 1359 016c 7B68     		ldr	r3, [r7, #4]
 1360 016e 9989     		ldrh	r1, [r3, #12]
 580:Generated_Source\PSoC4/BLE_1_hids.c ****                         cyBle_hidss[locServIndex].bootReportArray[CYBLE_HIDS_BOOT_KYBRD_IN_REP_INDX
 1361              		.loc 1 580 0
 1362 0170 1E23     		movs	r3, #30
 1363 0172 FB18     		adds	r3, r7, r3
 1364 0174 1A78     		ldrb	r2, [r3]
 1365 0176 4748     		ldr	r0, .L97+4
 1366 0178 1300     		movs	r3, r2
 1367 017a 9B00     		lsls	r3, r3, #2
 1368 017c 9B18     		adds	r3, r3, r2
 1369 017e DB00     		lsls	r3, r3, #3
 1370 0180 C318     		adds	r3, r0, r3
 1371 0182 0E33     		adds	r3, r3, #14
 1372 0184 1B88     		ldrh	r3, [r3]
 579:Generated_Source\PSoC4/BLE_1_hids.c ****                         cyBle_hidss[locServIndex].bootReportArray[CYBLE_HIDS_BOOT_KYBRD_IN_REP_INDX
 1373              		.loc 1 579 0
 1374 0186 9942     		cmp	r1, r3
 1375 0188 0ED1     		bne	.L84
 581:Generated_Source\PSoC4/BLE_1_hids.c ****             {
 582:Generated_Source\PSoC4/BLE_1_hids.c ****                 locCharValue.charIndex = CYBLE_HIDS_BOOT_KYBRD_IN_REP;
 1376              		.loc 1 582 0
 1377 018a 0C23     		movs	r3, #12
 1378 018c FB18     		adds	r3, r7, r3
 1379 018e 0422     		movs	r2, #4
 1380 0190 DA70     		strb	r2, [r3, #3]
 583:Generated_Source\PSoC4/BLE_1_hids.c ****                 eventCode = CyBle_HidssCccdWriteEventHandler(locServIndex, eventParam);
 1381              		.loc 1 583 0
 1382 0192 7A68     		ldr	r2, [r7, #4]
 1383 0194 1E23     		movs	r3, #30
 1384 0196 FB18     		adds	r3, r7, r3
 1385 0198 1B78     		ldrb	r3, [r3]
 1386 019a 1100     		movs	r1, r2
 1387 019c 1800     		movs	r0, r3
 1388 019e FFF7FEFF 		bl	CyBle_HidssCccdWriteEventHandler
 1389 01a2 0300     		movs	r3, r0
 1390 01a4 BB61     		str	r3, [r7, #24]
ARM GAS  C:\Users\puria\AppData\Local\Temp\cc07Gu7s.s 			page 36


 1391 01a6 FBE0     		b	.L77
 1392              	.L84:
 584:Generated_Source\PSoC4/BLE_1_hids.c ****             }
 585:Generated_Source\PSoC4/BLE_1_hids.c ****             else if(eventParam->handleValPair.attrHandle ==
 1393              		.loc 1 585 0
 1394 01a8 7B68     		ldr	r3, [r7, #4]
 1395 01aa 9989     		ldrh	r1, [r3, #12]
 586:Generated_Source\PSoC4/BLE_1_hids.c ****                         cyBle_hidss[locServIndex].bootReportArray[CYBLE_HIDS_BOOT_KYBRD_OUT_REP_IND
 1396              		.loc 1 586 0
 1397 01ac 1E23     		movs	r3, #30
 1398 01ae FB18     		adds	r3, r7, r3
 1399 01b0 1A78     		ldrb	r2, [r3]
 1400 01b2 3848     		ldr	r0, .L97+4
 1401 01b4 1300     		movs	r3, r2
 1402 01b6 9B00     		lsls	r3, r3, #2
 1403 01b8 9B18     		adds	r3, r3, r2
 1404 01ba DB00     		lsls	r3, r3, #3
 1405 01bc C318     		adds	r3, r0, r3
 1406 01be 1233     		adds	r3, r3, #18
 1407 01c0 1B88     		ldrh	r3, [r3]
 585:Generated_Source\PSoC4/BLE_1_hids.c ****                         cyBle_hidss[locServIndex].bootReportArray[CYBLE_HIDS_BOOT_KYBRD_OUT_REP_IND
 1408              		.loc 1 585 0
 1409 01c2 9942     		cmp	r1, r3
 1410 01c4 14D1     		bne	.L85
 587:Generated_Source\PSoC4/BLE_1_hids.c ****             {
 588:Generated_Source\PSoC4/BLE_1_hids.c ****                 locCharValue.charIndex = CYBLE_HIDS_BOOT_KYBRD_OUT_REP;
 1411              		.loc 1 588 0
 1412 01c6 0C23     		movs	r3, #12
 1413 01c8 FB18     		adds	r3, r7, r3
 1414 01ca 0522     		movs	r2, #5
 1415 01cc DA70     		strb	r2, [r3, #3]
 589:Generated_Source\PSoC4/BLE_1_hids.c ****                 locCharValue.value = &eventParam->handleValPair.value;
 1416              		.loc 1 589 0
 1417 01ce 7B68     		ldr	r3, [r7, #4]
 1418 01d0 1A1D     		adds	r2, r3, #4
 1419 01d2 0C23     		movs	r3, #12
 1420 01d4 FB18     		adds	r3, r7, r3
 1421 01d6 5A60     		str	r2, [r3, #4]
 590:Generated_Source\PSoC4/BLE_1_hids.c ****                 eventCode = (uint32)CYBLE_EVT_HIDSS_REPORT_CHAR_WRITE;
 1422              		.loc 1 590 0
 1423 01d8 CD23     		movs	r3, #205
 1424 01da 5B00     		lsls	r3, r3, #1
 1425 01dc BB61     		str	r3, [r7, #24]
 591:Generated_Source\PSoC4/BLE_1_hids.c ****                 cyBle_eventHandlerFlag &= (uint8)~CYBLE_CALLBACK;
 1426              		.loc 1 591 0
 1427 01de 2E4B     		ldr	r3, .L97+8
 1428 01e0 1B78     		ldrb	r3, [r3]
 1429 01e2 DBB2     		uxtb	r3, r3
 1430 01e4 0122     		movs	r2, #1
 1431 01e6 9343     		bics	r3, r2
 1432 01e8 DAB2     		uxtb	r2, r3
 1433 01ea 2B4B     		ldr	r3, .L97+8
 1434 01ec 1A70     		strb	r2, [r3]
 1435 01ee D7E0     		b	.L77
 1436              	.L85:
 592:Generated_Source\PSoC4/BLE_1_hids.c ****             }
 593:Generated_Source\PSoC4/BLE_1_hids.c ****             else if(eventParam->handleValPair.attrHandle ==
ARM GAS  C:\Users\puria\AppData\Local\Temp\cc07Gu7s.s 			page 37


 1437              		.loc 1 593 0
 1438 01f0 7B68     		ldr	r3, [r7, #4]
 1439 01f2 9989     		ldrh	r1, [r3, #12]
 594:Generated_Source\PSoC4/BLE_1_hids.c ****                         cyBle_hidss[locServIndex].bootReportArray[CYBLE_HIDS_BOOT_MOUSE_IN_REP_INDX
 1440              		.loc 1 594 0
 1441 01f4 1E23     		movs	r3, #30
 1442 01f6 FB18     		adds	r3, r7, r3
 1443 01f8 1A78     		ldrb	r2, [r3]
 1444 01fa 2648     		ldr	r0, .L97+4
 1445 01fc 1300     		movs	r3, r2
 1446 01fe 9B00     		lsls	r3, r3, #2
 1447 0200 9B18     		adds	r3, r3, r2
 1448 0202 DB00     		lsls	r3, r3, #3
 1449 0204 C318     		adds	r3, r0, r3
 1450 0206 1833     		adds	r3, r3, #24
 1451 0208 1B88     		ldrh	r3, [r3]
 593:Generated_Source\PSoC4/BLE_1_hids.c ****                         cyBle_hidss[locServIndex].bootReportArray[CYBLE_HIDS_BOOT_MOUSE_IN_REP_INDX
 1452              		.loc 1 593 0
 1453 020a 9942     		cmp	r1, r3
 1454 020c 14D1     		bne	.L86
 595:Generated_Source\PSoC4/BLE_1_hids.c ****             {
 596:Generated_Source\PSoC4/BLE_1_hids.c ****                 locCharValue.charIndex = CYBLE_HIDS_BOOT_MOUSE_IN_REP;
 1455              		.loc 1 596 0
 1456 020e 0C23     		movs	r3, #12
 1457 0210 FB18     		adds	r3, r7, r3
 1458 0212 0622     		movs	r2, #6
 1459 0214 DA70     		strb	r2, [r3, #3]
 597:Generated_Source\PSoC4/BLE_1_hids.c ****                 locCharValue.value = &eventParam->handleValPair.value;
 1460              		.loc 1 597 0
 1461 0216 7B68     		ldr	r3, [r7, #4]
 1462 0218 1A1D     		adds	r2, r3, #4
 1463 021a 0C23     		movs	r3, #12
 1464 021c FB18     		adds	r3, r7, r3
 1465 021e 5A60     		str	r2, [r3, #4]
 598:Generated_Source\PSoC4/BLE_1_hids.c ****                 eventCode = (uint32)CYBLE_EVT_HIDSS_REPORT_CHAR_WRITE;
 1466              		.loc 1 598 0
 1467 0220 CD23     		movs	r3, #205
 1468 0222 5B00     		lsls	r3, r3, #1
 1469 0224 BB61     		str	r3, [r7, #24]
 599:Generated_Source\PSoC4/BLE_1_hids.c ****                 cyBle_eventHandlerFlag &= (uint8)~CYBLE_CALLBACK;
 1470              		.loc 1 599 0
 1471 0226 1C4B     		ldr	r3, .L97+8
 1472 0228 1B78     		ldrb	r3, [r3]
 1473 022a DBB2     		uxtb	r3, r3
 1474 022c 0122     		movs	r2, #1
 1475 022e 9343     		bics	r3, r2
 1476 0230 DAB2     		uxtb	r2, r3
 1477 0232 194B     		ldr	r3, .L97+8
 1478 0234 1A70     		strb	r2, [r3]
 1479 0236 B3E0     		b	.L77
 1480              	.L86:
 600:Generated_Source\PSoC4/BLE_1_hids.c ****             }
 601:Generated_Source\PSoC4/BLE_1_hids.c ****             else if(eventParam->handleValPair.attrHandle ==
 1481              		.loc 1 601 0
 1482 0238 7B68     		ldr	r3, [r7, #4]
 1483 023a 9989     		ldrh	r1, [r3, #12]
 602:Generated_Source\PSoC4/BLE_1_hids.c ****                         cyBle_hidss[locServIndex].bootReportArray[CYBLE_HIDS_BOOT_MOUSE_IN_REP_INDX
ARM GAS  C:\Users\puria\AppData\Local\Temp\cc07Gu7s.s 			page 38


 1484              		.loc 1 602 0
 1485 023c 1E23     		movs	r3, #30
 1486 023e FB18     		adds	r3, r7, r3
 1487 0240 1A78     		ldrb	r2, [r3]
 1488 0242 1448     		ldr	r0, .L97+4
 1489 0244 1300     		movs	r3, r2
 1490 0246 9B00     		lsls	r3, r3, #2
 1491 0248 9B18     		adds	r3, r3, r2
 1492 024a DB00     		lsls	r3, r3, #3
 1493 024c C318     		adds	r3, r0, r3
 1494 024e 1A33     		adds	r3, r3, #26
 1495 0250 1B88     		ldrh	r3, [r3]
 601:Generated_Source\PSoC4/BLE_1_hids.c ****                         cyBle_hidss[locServIndex].bootReportArray[CYBLE_HIDS_BOOT_MOUSE_IN_REP_INDX
 1496              		.loc 1 601 0
 1497 0252 9942     		cmp	r1, r3
 1498 0254 0ED1     		bne	.L87
 603:Generated_Source\PSoC4/BLE_1_hids.c ****             {
 604:Generated_Source\PSoC4/BLE_1_hids.c ****                 locCharValue.charIndex = CYBLE_HIDS_BOOT_MOUSE_IN_REP;
 1499              		.loc 1 604 0
 1500 0256 0C23     		movs	r3, #12
 1501 0258 FB18     		adds	r3, r7, r3
 1502 025a 0622     		movs	r2, #6
 1503 025c DA70     		strb	r2, [r3, #3]
 605:Generated_Source\PSoC4/BLE_1_hids.c ****                 eventCode = CyBle_HidssCccdWriteEventHandler(locServIndex, eventParam);
 1504              		.loc 1 605 0
 1505 025e 7A68     		ldr	r2, [r7, #4]
 1506 0260 1E23     		movs	r3, #30
 1507 0262 FB18     		adds	r3, r7, r3
 1508 0264 1B78     		ldrb	r3, [r3]
 1509 0266 1100     		movs	r1, r2
 1510 0268 1800     		movs	r0, r3
 1511 026a FFF7FEFF 		bl	CyBle_HidssCccdWriteEventHandler
 1512 026e 0300     		movs	r3, r0
 1513 0270 BB61     		str	r3, [r7, #24]
 1514 0272 95E0     		b	.L77
 1515              	.L87:
 1516              	.LBB2:
 606:Generated_Source\PSoC4/BLE_1_hids.c ****             }
 607:Generated_Source\PSoC4/BLE_1_hids.c ****             else
 608:Generated_Source\PSoC4/BLE_1_hids.c ****             {
 609:Generated_Source\PSoC4/BLE_1_hids.c ****                 uint8 locReqHandle = 0u;
 1517              		.loc 1 609 0
 1518 0274 1723     		movs	r3, #23
 1519 0276 FB18     		adds	r3, r7, r3
 1520 0278 0022     		movs	r2, #0
 1521 027a 1A70     		strb	r2, [r3]
 610:Generated_Source\PSoC4/BLE_1_hids.c ****                 
 611:Generated_Source\PSoC4/BLE_1_hids.c ****                 locCharIndex = CYBLE_HIDS_REPORT;
 1522              		.loc 1 611 0
 1523 027c 1C23     		movs	r3, #28
 1524 027e FB18     		adds	r3, r7, r3
 1525 0280 0722     		movs	r2, #7
 1526 0282 1A70     		strb	r2, [r3]
 612:Generated_Source\PSoC4/BLE_1_hids.c ****                 for(reportIndex = 0u; (reportIndex < cyBle_hidss[locServIndex].reportCount) && (loc
 1527              		.loc 1 612 0
 1528 0284 1D23     		movs	r3, #29
 1529 0286 FB18     		adds	r3, r7, r3
ARM GAS  C:\Users\puria\AppData\Local\Temp\cc07Gu7s.s 			page 39


 1530 0288 0022     		movs	r2, #0
 1531 028a 1A70     		strb	r2, [r3]
 1532 028c 72E0     		b	.L88
 1533              	.L98:
 1534 028e C046     		.align	2
 1535              	.L97:
 1536 0290 00000000 		.word	CyBle_HidsApplCallback
 1537 0294 00000000 		.word	cyBle_hidss
 1538 0298 00000000 		.word	cyBle_eventHandlerFlag
 1539              	.L91:
 613:Generated_Source\PSoC4/BLE_1_hids.c ****                         reportIndex++)
 614:Generated_Source\PSoC4/BLE_1_hids.c ****                 {
 615:Generated_Source\PSoC4/BLE_1_hids.c ****                     if(eventParam->handleValPair.attrHandle == 
 1540              		.loc 1 615 0
 1541 029c 7B68     		ldr	r3, [r7, #4]
 1542 029e 9989     		ldrh	r1, [r3, #12]
 616:Generated_Source\PSoC4/BLE_1_hids.c ****                         cyBle_hidss[locServIndex].reportArray[reportIndex].reportHandle)
 1543              		.loc 1 616 0
 1544 02a0 1E23     		movs	r3, #30
 1545 02a2 FB18     		adds	r3, r7, r3
 1546 02a4 1A78     		ldrb	r2, [r3]
 1547 02a6 5948     		ldr	r0, .L99
 1548 02a8 1300     		movs	r3, r2
 1549 02aa 9B00     		lsls	r3, r3, #2
 1550 02ac 9B18     		adds	r3, r3, r2
 1551 02ae DB00     		lsls	r3, r3, #3
 1552 02b0 C318     		adds	r3, r0, r3
 1553 02b2 0833     		adds	r3, r3, #8
 1554 02b4 1868     		ldr	r0, [r3]
 1555 02b6 1D23     		movs	r3, #29
 1556 02b8 FB18     		adds	r3, r7, r3
 1557 02ba 1A78     		ldrb	r2, [r3]
 1558 02bc 1300     		movs	r3, r2
 1559 02be 5B00     		lsls	r3, r3, #1
 1560 02c0 9B18     		adds	r3, r3, r2
 1561 02c2 5B00     		lsls	r3, r3, #1
 1562 02c4 C318     		adds	r3, r0, r3
 1563 02c6 1B88     		ldrh	r3, [r3]
 615:Generated_Source\PSoC4/BLE_1_hids.c ****                         cyBle_hidss[locServIndex].reportArray[reportIndex].reportHandle)
 1564              		.loc 1 615 0
 1565 02c8 9942     		cmp	r1, r3
 1566 02ca 19D1     		bne	.L89
 617:Generated_Source\PSoC4/BLE_1_hids.c ****                     {
 618:Generated_Source\PSoC4/BLE_1_hids.c ****                         locCharValue.charIndex = locCharIndex;
 1567              		.loc 1 618 0
 1568 02cc 0C23     		movs	r3, #12
 1569 02ce FB18     		adds	r3, r7, r3
 1570 02d0 1C22     		movs	r2, #28
 1571 02d2 BA18     		adds	r2, r7, r2
 1572 02d4 1278     		ldrb	r2, [r2]
 1573 02d6 DA70     		strb	r2, [r3, #3]
 619:Generated_Source\PSoC4/BLE_1_hids.c ****                         locCharValue.value = &eventParam->handleValPair.value;
 1574              		.loc 1 619 0
 1575 02d8 7B68     		ldr	r3, [r7, #4]
 1576 02da 1A1D     		adds	r2, r3, #4
 1577 02dc 0C23     		movs	r3, #12
 1578 02de FB18     		adds	r3, r7, r3
ARM GAS  C:\Users\puria\AppData\Local\Temp\cc07Gu7s.s 			page 40


 1579 02e0 5A60     		str	r2, [r3, #4]
 620:Generated_Source\PSoC4/BLE_1_hids.c ****                         eventCode = (uint32)CYBLE_EVT_HIDSS_REPORT_CHAR_WRITE;
 1580              		.loc 1 620 0
 1581 02e2 CD23     		movs	r3, #205
 1582 02e4 5B00     		lsls	r3, r3, #1
 1583 02e6 BB61     		str	r3, [r7, #24]
 621:Generated_Source\PSoC4/BLE_1_hids.c ****                         cyBle_eventHandlerFlag &= (uint8)~CYBLE_CALLBACK;
 1584              		.loc 1 621 0
 1585 02e8 494B     		ldr	r3, .L99+4
 1586 02ea 1B78     		ldrb	r3, [r3]
 1587 02ec DBB2     		uxtb	r3, r3
 1588 02ee 0122     		movs	r2, #1
 1589 02f0 9343     		bics	r3, r2
 1590 02f2 DAB2     		uxtb	r2, r3
 1591 02f4 464B     		ldr	r3, .L99+4
 1592 02f6 1A70     		strb	r2, [r3]
 622:Generated_Source\PSoC4/BLE_1_hids.c ****                         locReqHandle = 1u;
 1593              		.loc 1 622 0
 1594 02f8 1723     		movs	r3, #23
 1595 02fa FB18     		adds	r3, r7, r3
 1596 02fc 0122     		movs	r2, #1
 1597 02fe 1A70     		strb	r2, [r3]
 1598              	.L89:
 623:Generated_Source\PSoC4/BLE_1_hids.c ****                     }
 624:Generated_Source\PSoC4/BLE_1_hids.c ****                     if(eventParam->handleValPair.attrHandle == 
 1599              		.loc 1 624 0
 1600 0300 7B68     		ldr	r3, [r7, #4]
 1601 0302 9989     		ldrh	r1, [r3, #12]
 625:Generated_Source\PSoC4/BLE_1_hids.c ****                         cyBle_hidss[locServIndex].reportArray[reportIndex].cccdHandle)
 1602              		.loc 1 625 0
 1603 0304 1E23     		movs	r3, #30
 1604 0306 FB18     		adds	r3, r7, r3
 1605 0308 1A78     		ldrb	r2, [r3]
 1606 030a 4048     		ldr	r0, .L99
 1607 030c 1300     		movs	r3, r2
 1608 030e 9B00     		lsls	r3, r3, #2
 1609 0310 9B18     		adds	r3, r3, r2
 1610 0312 DB00     		lsls	r3, r3, #3
 1611 0314 C318     		adds	r3, r0, r3
 1612 0316 0833     		adds	r3, r3, #8
 1613 0318 1868     		ldr	r0, [r3]
 1614 031a 1D23     		movs	r3, #29
 1615 031c FB18     		adds	r3, r7, r3
 1616 031e 1A78     		ldrb	r2, [r3]
 1617 0320 1300     		movs	r3, r2
 1618 0322 5B00     		lsls	r3, r3, #1
 1619 0324 9B18     		adds	r3, r3, r2
 1620 0326 5B00     		lsls	r3, r3, #1
 1621 0328 C318     		adds	r3, r0, r3
 1622 032a 5B88     		ldrh	r3, [r3, #2]
 624:Generated_Source\PSoC4/BLE_1_hids.c ****                         cyBle_hidss[locServIndex].reportArray[reportIndex].cccdHandle)
 1623              		.loc 1 624 0
 1624 032c 9942     		cmp	r1, r3
 1625 032e 13D1     		bne	.L90
 626:Generated_Source\PSoC4/BLE_1_hids.c ****                     {
 627:Generated_Source\PSoC4/BLE_1_hids.c ****                         locCharValue.charIndex = locCharIndex;
 1626              		.loc 1 627 0
ARM GAS  C:\Users\puria\AppData\Local\Temp\cc07Gu7s.s 			page 41


 1627 0330 0C23     		movs	r3, #12
 1628 0332 FB18     		adds	r3, r7, r3
 1629 0334 1C22     		movs	r2, #28
 1630 0336 BA18     		adds	r2, r7, r2
 1631 0338 1278     		ldrb	r2, [r2]
 1632 033a DA70     		strb	r2, [r3, #3]
 628:Generated_Source\PSoC4/BLE_1_hids.c ****                         eventCode = CyBle_HidssCccdWriteEventHandler(locServIndex, eventParam);
 1633              		.loc 1 628 0
 1634 033c 7A68     		ldr	r2, [r7, #4]
 1635 033e 1E23     		movs	r3, #30
 1636 0340 FB18     		adds	r3, r7, r3
 1637 0342 1B78     		ldrb	r3, [r3]
 1638 0344 1100     		movs	r1, r2
 1639 0346 1800     		movs	r0, r3
 1640 0348 FFF7FEFF 		bl	CyBle_HidssCccdWriteEventHandler
 1641 034c 0300     		movs	r3, r0
 1642 034e BB61     		str	r3, [r7, #24]
 629:Generated_Source\PSoC4/BLE_1_hids.c ****                         locReqHandle = 1u;
 1643              		.loc 1 629 0
 1644 0350 1723     		movs	r3, #23
 1645 0352 FB18     		adds	r3, r7, r3
 1646 0354 0122     		movs	r2, #1
 1647 0356 1A70     		strb	r2, [r3]
 1648              	.L90:
 630:Generated_Source\PSoC4/BLE_1_hids.c ****                     }
 631:Generated_Source\PSoC4/BLE_1_hids.c ****                     locCharIndex++;
 1649              		.loc 1 631 0
 1650 0358 1C23     		movs	r3, #28
 1651 035a FB18     		adds	r3, r7, r3
 1652 035c 1A78     		ldrb	r2, [r3]
 1653 035e 1C23     		movs	r3, #28
 1654 0360 FB18     		adds	r3, r7, r3
 1655 0362 0132     		adds	r2, r2, #1
 1656 0364 1A70     		strb	r2, [r3]
 613:Generated_Source\PSoC4/BLE_1_hids.c ****                 {
 1657              		.loc 1 613 0
 1658 0366 1D23     		movs	r3, #29
 1659 0368 FB18     		adds	r3, r7, r3
 1660 036a 1A78     		ldrb	r2, [r3]
 1661 036c 1D23     		movs	r3, #29
 1662 036e FB18     		adds	r3, r7, r3
 1663 0370 0132     		adds	r2, r2, #1
 1664 0372 1A70     		strb	r2, [r3]
 1665              	.L88:
 612:Generated_Source\PSoC4/BLE_1_hids.c ****                         reportIndex++)
 1666              		.loc 1 612 0 discriminator 1
 1667 0374 1E23     		movs	r3, #30
 1668 0376 FB18     		adds	r3, r7, r3
 1669 0378 1A78     		ldrb	r2, [r3]
 1670 037a 2449     		ldr	r1, .L99
 1671 037c 1300     		movs	r3, r2
 1672 037e 9B00     		lsls	r3, r3, #2
 1673 0380 9B18     		adds	r3, r3, r2
 1674 0382 DB00     		lsls	r3, r3, #3
 1675 0384 CB18     		adds	r3, r1, r3
 1676 0386 0433     		adds	r3, r3, #4
 1677 0388 1B78     		ldrb	r3, [r3]
ARM GAS  C:\Users\puria\AppData\Local\Temp\cc07Gu7s.s 			page 42


 1678 038a 1D22     		movs	r2, #29
 1679 038c BA18     		adds	r2, r7, r2
 1680 038e 1278     		ldrb	r2, [r2]
 1681 0390 9A42     		cmp	r2, r3
 1682 0392 05D2     		bcs	.L77
 612:Generated_Source\PSoC4/BLE_1_hids.c ****                         reportIndex++)
 1683              		.loc 1 612 0 is_stmt 0 discriminator 2
 1684 0394 1723     		movs	r3, #23
 1685 0396 FB18     		adds	r3, r7, r3
 1686 0398 1B78     		ldrb	r3, [r3]
 1687 039a 002B     		cmp	r3, #0
 1688 039c 00D1     		bne	.LCB1495
 1689 039e 7DE7     		b	.L91	@long jump
 1690              	.LCB1495:
 1691              	.L77:
 1692              	.LBE2:
 632:Generated_Source\PSoC4/BLE_1_hids.c ****                 }
 633:Generated_Source\PSoC4/BLE_1_hids.c ****             }
 634:Generated_Source\PSoC4/BLE_1_hids.c ****             locServIndex++;
 1693              		.loc 1 634 0 is_stmt 1
 1694 03a0 1E23     		movs	r3, #30
 1695 03a2 FB18     		adds	r3, r7, r3
 1696 03a4 1A78     		ldrb	r2, [r3]
 1697 03a6 1E23     		movs	r3, #30
 1698 03a8 FB18     		adds	r3, r7, r3
 1699 03aa 0132     		adds	r2, r2, #1
 1700 03ac 1A70     		strb	r2, [r3]
 635:Generated_Source\PSoC4/BLE_1_hids.c ****             /* Store data to database if event is handled */
 636:Generated_Source\PSoC4/BLE_1_hids.c ****             if((cyBle_eventHandlerFlag & CYBLE_CALLBACK) == 0u)
 1701              		.loc 1 636 0
 1702 03ae 184B     		ldr	r3, .L99+4
 1703 03b0 1B78     		ldrb	r3, [r3]
 1704 03b2 DBB2     		uxtb	r3, r3
 1705 03b4 1A00     		movs	r2, r3
 1706 03b6 0123     		movs	r3, #1
 1707 03b8 1340     		ands	r3, r2
 1708 03ba 17D1     		bne	.L92
 637:Generated_Source\PSoC4/BLE_1_hids.c ****             {
 638:Generated_Source\PSoC4/BLE_1_hids.c ****                 gattErr = CyBle_GattsWriteAttributeValue(&eventParam->handleValPair, 0u, 
 1709              		.loc 1 638 0
 1710 03bc 7B68     		ldr	r3, [r7, #4]
 1711 03be 181D     		adds	r0, r3, #4
 1712 03c0 7A68     		ldr	r2, [r7, #4]
 1713 03c2 1F23     		movs	r3, #31
 1714 03c4 FC18     		adds	r4, r7, r3
 1715 03c6 4023     		movs	r3, #64
 1716 03c8 0021     		movs	r1, #0
 1717 03ca FFF7FEFF 		bl	CyBle_GattsWriteAttributeValue
 1718 03ce 0300     		movs	r3, r0
 1719 03d0 2370     		strb	r3, [r4]
 639:Generated_Source\PSoC4/BLE_1_hids.c ****                     &eventParam->connHandle, CYBLE_GATT_DB_PEER_INITIATED);
 640:Generated_Source\PSoC4/BLE_1_hids.c ****                 if(gattErr == CYBLE_GATT_ERR_NONE)
 1720              		.loc 1 640 0
 1721 03d2 1F23     		movs	r3, #31
 1722 03d4 FB18     		adds	r3, r7, r3
 1723 03d6 1B78     		ldrb	r3, [r3]
 1724 03d8 002B     		cmp	r3, #0
ARM GAS  C:\Users\puria\AppData\Local\Temp\cc07Gu7s.s 			page 43


 1725 03da 0ED1     		bne	.L96
 641:Generated_Source\PSoC4/BLE_1_hids.c ****                 {                
 642:Generated_Source\PSoC4/BLE_1_hids.c ****                     CyBle_HidsApplCallback(eventCode, &locCharValue);
 1726              		.loc 1 642 0
 1727 03dc 0D4B     		ldr	r3, .L99+8
 1728 03de 1B68     		ldr	r3, [r3]
 1729 03e0 0C22     		movs	r2, #12
 1730 03e2 B918     		adds	r1, r7, r2
 1731 03e4 BA69     		ldr	r2, [r7, #24]
 1732 03e6 1000     		movs	r0, r2
 1733 03e8 9847     		blx	r3
 643:Generated_Source\PSoC4/BLE_1_hids.c ****                 }
 644:Generated_Source\PSoC4/BLE_1_hids.c ****                 break;
 1734              		.loc 1 644 0
 1735 03ea 06E0     		b	.L96
 1736              	.L92:
 645:Generated_Source\PSoC4/BLE_1_hids.c ****             }
 646:Generated_Source\PSoC4/BLE_1_hids.c ****         }while(locServIndex < CYBLE_HIDSS_SERVICE_COUNT);
 1737              		.loc 1 646 0
 1738 03ec 1E23     		movs	r3, #30
 1739 03ee FB18     		adds	r3, r7, r3
 1740 03f0 1B78     		ldrb	r3, [r3]
 1741 03f2 002B     		cmp	r3, #0
 1742 03f4 00D1     		bne	.LCB1543
 1743 03f6 1FE6     		b	.L94	@long jump
 1744              	.LCB1543:
 1745 03f8 00E0     		b	.L71
 1746              	.L96:
 644:Generated_Source\PSoC4/BLE_1_hids.c ****             }
 1747              		.loc 1 644 0
 1748 03fa C046     		nop
 1749              	.L71:
 647:Generated_Source\PSoC4/BLE_1_hids.c ****     }
 648:Generated_Source\PSoC4/BLE_1_hids.c ****     return (gattErr);
 1750              		.loc 1 648 0
 1751 03fc 1F23     		movs	r3, #31
 1752 03fe FB18     		adds	r3, r7, r3
 1753 0400 1B78     		ldrb	r3, [r3]
 649:Generated_Source\PSoC4/BLE_1_hids.c **** }
 1754              		.loc 1 649 0
 1755 0402 1800     		movs	r0, r3
 1756 0404 BD46     		mov	sp, r7
 1757 0406 09B0     		add	sp, sp, #36
 1758              		@ sp needed
 1759 0408 90BD     		pop	{r4, r7, pc}
 1760              	.L100:
 1761 040a C046     		.align	2
 1762              	.L99:
 1763 040c 00000000 		.word	cyBle_hidss
 1764 0410 00000000 		.word	cyBle_eventHandlerFlag
 1765 0414 00000000 		.word	CyBle_HidsApplCallback
 1766              		.cfi_endproc
 1767              	.LFE8:
 1768              		.size	CyBle_HidssWriteEventHandler, .-CyBle_HidssWriteEventHandler
 1769              		.section	.text.CyBle_HidssSendNotification,"ax",%progbits
 1770              		.align	2
 1771              		.global	CyBle_HidssSendNotification
ARM GAS  C:\Users\puria\AppData\Local\Temp\cc07Gu7s.s 			page 44


 1772              		.code	16
 1773              		.thumb_func
 1774              		.type	CyBle_HidssSendNotification, %function
 1775              	CyBle_HidssSendNotification:
 1776              	.LFB9:
 650:Generated_Source\PSoC4/BLE_1_hids.c **** 
 651:Generated_Source\PSoC4/BLE_1_hids.c **** 
 652:Generated_Source\PSoC4/BLE_1_hids.c **** /****************************************************************************** 
 653:Generated_Source\PSoC4/BLE_1_hids.c **** * Function Name: CyBle_HidssSendNotification
 654:Generated_Source\PSoC4/BLE_1_hids.c **** ***************************************************************************//**
 655:Generated_Source\PSoC4/BLE_1_hids.c **** * 
 656:Generated_Source\PSoC4/BLE_1_hids.c **** *  Sends specified HID Service characteristic notification to the Client device.
 657:Generated_Source\PSoC4/BLE_1_hids.c **** * 
 658:Generated_Source\PSoC4/BLE_1_hids.c **** *  CYBLE_EVT_HIDSC_NOTIFICATION event is received by the peer device, on invoking 
 659:Generated_Source\PSoC4/BLE_1_hids.c **** *   this function.
 660:Generated_Source\PSoC4/BLE_1_hids.c **** *
 661:Generated_Source\PSoC4/BLE_1_hids.c **** *  On enabling notification successfully for a service characteristic, if the GATT
 662:Generated_Source\PSoC4/BLE_1_hids.c **** *  server has an updated value to be notified to the GATT Client, it sends out a
 663:Generated_Source\PSoC4/BLE_1_hids.c **** *  'Handle Value Notification' which results in CYBLE_EVT_HIDSC_NOTIFICATION event
 664:Generated_Source\PSoC4/BLE_1_hids.c **** *  at the GATT Client's end.
 665:Generated_Source\PSoC4/BLE_1_hids.c **** * 
 666:Generated_Source\PSoC4/BLE_1_hids.c **** *  \param connHandle: BLE peer device connection handle.
 667:Generated_Source\PSoC4/BLE_1_hids.c **** *  \param serviceIndex: The index of the HID service instance. e.g. If two HID Services
 668:Generated_Source\PSoC4/BLE_1_hids.c **** *                 are supported in your design, then first service will be 
 669:Generated_Source\PSoC4/BLE_1_hids.c **** *                 identified by serviceIndex of 0 and the second by serviceIndex
 670:Generated_Source\PSoC4/BLE_1_hids.c **** *                 of 1.
 671:Generated_Source\PSoC4/BLE_1_hids.c **** *  \param charIndex: The index of the service characteristic.
 672:Generated_Source\PSoC4/BLE_1_hids.c **** *  \param attrSize: The size of the characteristic value attribute.
 673:Generated_Source\PSoC4/BLE_1_hids.c **** *  \param attrValue: Pointer to the characteristic value data that should be sent to
 674:Generated_Source\PSoC4/BLE_1_hids.c **** *               the Client device.
 675:Generated_Source\PSoC4/BLE_1_hids.c **** * 
 676:Generated_Source\PSoC4/BLE_1_hids.c **** * \return
 677:Generated_Source\PSoC4/BLE_1_hids.c **** *  Return value is of type CYBLE_API_RESULT_T.
 678:Generated_Source\PSoC4/BLE_1_hids.c **** *   * CYBLE_ERROR_OK - The request handled successfully
 679:Generated_Source\PSoC4/BLE_1_hids.c **** *   * CYBLE_ERROR_INVALID_PARAMETER - Validation of the input parameter failed
 680:Generated_Source\PSoC4/BLE_1_hids.c **** *   * CYBLE_ERROR_INVALID_OPERATION - This operation is not permitted
 681:Generated_Source\PSoC4/BLE_1_hids.c **** *   * CYBLE_ERROR_GATT_DB_INVALID_ATTR_HANDLE - Optional characteristic is absent
 682:Generated_Source\PSoC4/BLE_1_hids.c **** *   * CYBLE_ERROR_INVALID_STATE - Connection with the client is not established
 683:Generated_Source\PSoC4/BLE_1_hids.c **** *   * CYBLE_ERROR_MEMORY_ALLOCATION_FAILED - Memory allocation failed. 
 684:Generated_Source\PSoC4/BLE_1_hids.c **** * 
 685:Generated_Source\PSoC4/BLE_1_hids.c **** ******************************************************************************/
 686:Generated_Source\PSoC4/BLE_1_hids.c **** CYBLE_API_RESULT_T CyBle_HidssSendNotification(CYBLE_CONN_HANDLE_T connHandle,
 687:Generated_Source\PSoC4/BLE_1_hids.c ****     uint8 serviceIndex, CYBLE_HIDS_CHAR_INDEX_T charIndex, uint8 attrSize, uint8 *attrValue)
 688:Generated_Source\PSoC4/BLE_1_hids.c **** {
 1777              		.loc 1 688 0
 1778              		.cfi_startproc
 1779              		@ args = 4, pretend = 0, frame = 40
 1780              		@ frame_needed = 1, uses_anonymous_args = 0
 1781 0000 90B5     		push	{r4, r7, lr}
 1782              		.cfi_def_cfa_offset 12
 1783              		.cfi_offset 4, -12
 1784              		.cfi_offset 7, -8
 1785              		.cfi_offset 14, -4
 1786 0002 8BB0     		sub	sp, sp, #44
 1787              		.cfi_def_cfa_offset 56
 1788 0004 00AF     		add	r7, sp, #0
 1789              		.cfi_def_cfa_register 7
ARM GAS  C:\Users\puria\AppData\Local\Temp\cc07Gu7s.s 			page 45


 1790 0006 3C1D     		adds	r4, r7, #4
 1791 0008 2080     		strh	r0, [r4]
 1792 000a 0C00     		movs	r4, r1
 1793 000c 1000     		movs	r0, r2
 1794 000e 1900     		movs	r1, r3
 1795 0010 FB1C     		adds	r3, r7, #3
 1796 0012 221C     		adds	r2, r4, #0
 1797 0014 1A70     		strb	r2, [r3]
 1798 0016 BB1C     		adds	r3, r7, #2
 1799 0018 021C     		adds	r2, r0, #0
 1800 001a 1A70     		strb	r2, [r3]
 1801 001c 7B1C     		adds	r3, r7, #1
 1802 001e 0A1C     		adds	r2, r1, #0
 1803 0020 1A70     		strb	r2, [r3]
 689:Generated_Source\PSoC4/BLE_1_hids.c ****     CYBLE_API_RESULT_T apiResult = CYBLE_ERROR_OK;
 1804              		.loc 1 689 0
 1805 0022 2623     		movs	r3, #38
 1806 0024 FB18     		adds	r3, r7, r3
 1807 0026 0022     		movs	r2, #0
 1808 0028 1A80     		strh	r2, [r3]
 690:Generated_Source\PSoC4/BLE_1_hids.c ****     const CYBLE_HIDSS_REPORT_T *locReport;
 691:Generated_Source\PSoC4/BLE_1_hids.c ****     CYBLE_GATTS_HANDLE_VALUE_NTF_T ntfReqParam;
 692:Generated_Source\PSoC4/BLE_1_hids.c ****     CYBLE_GATT_HANDLE_VALUE_PAIR_T locHandleValuePair;
 693:Generated_Source\PSoC4/BLE_1_hids.c **** 
 694:Generated_Source\PSoC4/BLE_1_hids.c ****     if((serviceIndex >= CYBLE_HIDSS_SERVICE_COUNT) || (charIndex >= CYBLE_HIDS_CHAR_COUNT))
 1809              		.loc 1 694 0
 1810 002a FB1C     		adds	r3, r7, #3
 1811 002c 1B78     		ldrb	r3, [r3]
 1812 002e 002B     		cmp	r3, #0
 1813 0030 03D1     		bne	.L102
 1814              		.loc 1 694 0 is_stmt 0 discriminator 1
 1815 0032 BB1C     		adds	r3, r7, #2
 1816 0034 1B78     		ldrb	r3, [r3]
 1817 0036 072B     		cmp	r3, #7
 1818 0038 04D9     		bls	.L103
 1819              	.L102:
 695:Generated_Source\PSoC4/BLE_1_hids.c ****     {
 696:Generated_Source\PSoC4/BLE_1_hids.c ****         apiResult = CYBLE_ERROR_INVALID_PARAMETER;
 1820              		.loc 1 696 0 is_stmt 1
 1821 003a 2623     		movs	r3, #38
 1822 003c FB18     		adds	r3, r7, r3
 1823 003e 0122     		movs	r2, #1
 1824 0040 1A80     		strh	r2, [r3]
 1825 0042 BAE0     		b	.L104
 1826              	.L103:
 697:Generated_Source\PSoC4/BLE_1_hids.c ****     }
 698:Generated_Source\PSoC4/BLE_1_hids.c ****     else
 699:Generated_Source\PSoC4/BLE_1_hids.c ****     {
 700:Generated_Source\PSoC4/BLE_1_hids.c ****         if(charIndex == CYBLE_HIDS_BOOT_KYBRD_IN_REP)
 1827              		.loc 1 700 0
 1828 0044 BB1C     		adds	r3, r7, #2
 1829 0046 1B78     		ldrb	r3, [r3]
 1830 0048 042B     		cmp	r3, #4
 1831 004a 0CD1     		bne	.L105
 701:Generated_Source\PSoC4/BLE_1_hids.c ****         {
 702:Generated_Source\PSoC4/BLE_1_hids.c ****             locReport = &cyBle_hidss[serviceIndex].bootReportArray[CYBLE_HIDS_BOOT_KYBRD_IN_REP_IND
 1832              		.loc 1 702 0
ARM GAS  C:\Users\puria\AppData\Local\Temp\cc07Gu7s.s 			page 46


 1833 004c FB1C     		adds	r3, r7, #3
 1834 004e 1A78     		ldrb	r2, [r3]
 1835 0050 1300     		movs	r3, r2
 1836 0052 9B00     		lsls	r3, r3, #2
 1837 0054 9B18     		adds	r3, r3, r2
 1838 0056 DB00     		lsls	r3, r3, #3
 1839 0058 0833     		adds	r3, r3, #8
 1840 005a 1A00     		movs	r2, r3
 1841 005c 5A4B     		ldr	r3, .L116
 1842 005e D318     		adds	r3, r2, r3
 1843 0060 0433     		adds	r3, r3, #4
 1844 0062 3B62     		str	r3, [r7, #32]
 1845 0064 44E0     		b	.L106
 1846              	.L105:
 703:Generated_Source\PSoC4/BLE_1_hids.c ****         }
 704:Generated_Source\PSoC4/BLE_1_hids.c ****         else if(charIndex == CYBLE_HIDS_BOOT_MOUSE_IN_REP)
 1847              		.loc 1 704 0
 1848 0066 BB1C     		adds	r3, r7, #2
 1849 0068 1B78     		ldrb	r3, [r3]
 1850 006a 062B     		cmp	r3, #6
 1851 006c 0CD1     		bne	.L107
 705:Generated_Source\PSoC4/BLE_1_hids.c ****         {
 706:Generated_Source\PSoC4/BLE_1_hids.c ****             locReport = &cyBle_hidss[serviceIndex].bootReportArray[CYBLE_HIDS_BOOT_MOUSE_IN_REP_IND
 1852              		.loc 1 706 0
 1853 006e FB1C     		adds	r3, r7, #3
 1854 0070 1A78     		ldrb	r2, [r3]
 1855 0072 1300     		movs	r3, r2
 1856 0074 9B00     		lsls	r3, r3, #2
 1857 0076 9B18     		adds	r3, r3, r2
 1858 0078 DB00     		lsls	r3, r3, #3
 1859 007a 1433     		adds	r3, r3, #20
 1860 007c 1A00     		movs	r2, r3
 1861 007e 524B     		ldr	r3, .L116
 1862 0080 D318     		adds	r3, r2, r3
 1863 0082 0433     		adds	r3, r3, #4
 1864 0084 3B62     		str	r3, [r7, #32]
 1865 0086 33E0     		b	.L106
 1866              	.L107:
 707:Generated_Source\PSoC4/BLE_1_hids.c ****         }
 708:Generated_Source\PSoC4/BLE_1_hids.c ****         else if((charIndex >= CYBLE_HIDS_REPORT) && (charIndex <= CYBLE_HIDS_REPORT_END))
 1867              		.loc 1 708 0
 1868 0088 BB1C     		adds	r3, r7, #2
 1869 008a 1B78     		ldrb	r3, [r3]
 1870 008c 062B     		cmp	r3, #6
 1871 008e 2BD9     		bls	.L108
 1872              		.loc 1 708 0 is_stmt 0 discriminator 1
 1873 0090 BB1C     		adds	r3, r7, #2
 1874 0092 1B78     		ldrb	r3, [r3]
 1875 0094 072B     		cmp	r3, #7
 1876 0096 27D8     		bhi	.L108
 709:Generated_Source\PSoC4/BLE_1_hids.c ****         {
 710:Generated_Source\PSoC4/BLE_1_hids.c ****             /* Verify that requested report exists in particular service */
 711:Generated_Source\PSoC4/BLE_1_hids.c ****             if((charIndex - CYBLE_HIDS_REPORT) < cyBle_hidss[serviceIndex].reportCount)
 1877              		.loc 1 711 0 is_stmt 1
 1878 0098 BB1C     		adds	r3, r7, #2
 1879 009a 1B78     		ldrb	r3, [r3]
 1880 009c D91F     		subs	r1, r3, #7
ARM GAS  C:\Users\puria\AppData\Local\Temp\cc07Gu7s.s 			page 47


 1881 009e FB1C     		adds	r3, r7, #3
 1882 00a0 1A78     		ldrb	r2, [r3]
 1883 00a2 4948     		ldr	r0, .L116
 1884 00a4 1300     		movs	r3, r2
 1885 00a6 9B00     		lsls	r3, r3, #2
 1886 00a8 9B18     		adds	r3, r3, r2
 1887 00aa DB00     		lsls	r3, r3, #3
 1888 00ac C318     		adds	r3, r0, r3
 1889 00ae 0433     		adds	r3, r3, #4
 1890 00b0 1B78     		ldrb	r3, [r3]
 1891 00b2 9942     		cmp	r1, r3
 1892 00b4 13DA     		bge	.L109
 712:Generated_Source\PSoC4/BLE_1_hids.c ****             {
 713:Generated_Source\PSoC4/BLE_1_hids.c ****                 locReport = &cyBle_hidss[serviceIndex].reportArray[charIndex - CYBLE_HIDS_REPORT];
 1893              		.loc 1 713 0
 1894 00b6 FB1C     		adds	r3, r7, #3
 1895 00b8 1A78     		ldrb	r2, [r3]
 1896 00ba 4349     		ldr	r1, .L116
 1897 00bc 1300     		movs	r3, r2
 1898 00be 9B00     		lsls	r3, r3, #2
 1899 00c0 9B18     		adds	r3, r3, r2
 1900 00c2 DB00     		lsls	r3, r3, #3
 1901 00c4 CB18     		adds	r3, r1, r3
 1902 00c6 0833     		adds	r3, r3, #8
 1903 00c8 1968     		ldr	r1, [r3]
 1904 00ca BB1C     		adds	r3, r7, #2
 1905 00cc 1A78     		ldrb	r2, [r3]
 1906 00ce 1300     		movs	r3, r2
 1907 00d0 5B00     		lsls	r3, r3, #1
 1908 00d2 9B18     		adds	r3, r3, r2
 1909 00d4 5B00     		lsls	r3, r3, #1
 1910 00d6 2A3B     		subs	r3, r3, #42
 1911 00d8 CB18     		adds	r3, r1, r3
 1912 00da 3B62     		str	r3, [r7, #32]
 711:Generated_Source\PSoC4/BLE_1_hids.c ****             {
 1913              		.loc 1 711 0
 1914 00dc 08E0     		b	.L106
 1915              	.L109:
 714:Generated_Source\PSoC4/BLE_1_hids.c ****             }
 715:Generated_Source\PSoC4/BLE_1_hids.c ****             else
 716:Generated_Source\PSoC4/BLE_1_hids.c ****             {
 717:Generated_Source\PSoC4/BLE_1_hids.c ****                 apiResult = CYBLE_ERROR_INVALID_PARAMETER;
 1916              		.loc 1 717 0
 1917 00de 2623     		movs	r3, #38
 1918 00e0 FB18     		adds	r3, r7, r3
 1919 00e2 0122     		movs	r2, #1
 1920 00e4 1A80     		strh	r2, [r3]
 711:Generated_Source\PSoC4/BLE_1_hids.c ****             {
 1921              		.loc 1 711 0
 1922 00e6 03E0     		b	.L106
 1923              	.L108:
 718:Generated_Source\PSoC4/BLE_1_hids.c ****             }
 719:Generated_Source\PSoC4/BLE_1_hids.c ****         }
 720:Generated_Source\PSoC4/BLE_1_hids.c ****         else
 721:Generated_Source\PSoC4/BLE_1_hids.c ****         {
 722:Generated_Source\PSoC4/BLE_1_hids.c ****             apiResult = CYBLE_ERROR_INVALID_PARAMETER;
 1924              		.loc 1 722 0
ARM GAS  C:\Users\puria\AppData\Local\Temp\cc07Gu7s.s 			page 48


 1925 00e8 2623     		movs	r3, #38
 1926 00ea FB18     		adds	r3, r7, r3
 1927 00ec 0122     		movs	r2, #1
 1928 00ee 1A80     		strh	r2, [r3]
 1929              	.L106:
 723:Generated_Source\PSoC4/BLE_1_hids.c ****         }
 724:Generated_Source\PSoC4/BLE_1_hids.c ****         if(apiResult == CYBLE_ERROR_OK)
 1930              		.loc 1 724 0
 1931 00f0 2623     		movs	r3, #38
 1932 00f2 FB18     		adds	r3, r7, r3
 1933 00f4 1B88     		ldrh	r3, [r3]
 1934 00f6 002B     		cmp	r3, #0
 1935 00f8 5FD1     		bne	.L104
 725:Generated_Source\PSoC4/BLE_1_hids.c ****         {
 726:Generated_Source\PSoC4/BLE_1_hids.c ****             if(locReport->reportHandle == CYBLE_GATT_INVALID_ATTR_HANDLE_VALUE)
 1936              		.loc 1 726 0
 1937 00fa 3B6A     		ldr	r3, [r7, #32]
 1938 00fc 1B88     		ldrh	r3, [r3]
 1939 00fe 002B     		cmp	r3, #0
 1940 0100 04D1     		bne	.L111
 727:Generated_Source\PSoC4/BLE_1_hids.c ****             {
 728:Generated_Source\PSoC4/BLE_1_hids.c ****                 apiResult = CYBLE_ERROR_GATT_DB_INVALID_ATTR_HANDLE;
 1941              		.loc 1 728 0
 1942 0102 2623     		movs	r3, #38
 1943 0104 FB18     		adds	r3, r7, r3
 1944 0106 1322     		movs	r2, #19
 1945 0108 1A80     		strh	r2, [r3]
 1946 010a 56E0     		b	.L104
 1947              	.L111:
 729:Generated_Source\PSoC4/BLE_1_hids.c ****             }
 730:Generated_Source\PSoC4/BLE_1_hids.c ****             else
 731:Generated_Source\PSoC4/BLE_1_hids.c ****             {
 732:Generated_Source\PSoC4/BLE_1_hids.c ****                 /* Send Notification if it is enabled and connected */
 733:Generated_Source\PSoC4/BLE_1_hids.c ****                 if(CYBLE_IS_NOTIFICATION_ENABLED(locReport->cccdHandle))
 1948              		.loc 1 733 0
 1949 010c 3B6A     		ldr	r3, [r7, #32]
 1950 010e 5B88     		ldrh	r3, [r3, #2]
 1951 0110 5A1E     		subs	r2, r3, #1
 1952 0112 2E49     		ldr	r1, .L116+4
 1953 0114 1300     		movs	r3, r2
 1954 0116 9B00     		lsls	r3, r3, #2
 1955 0118 9B18     		adds	r3, r3, r2
 1956 011a 9B00     		lsls	r3, r3, #2
 1957 011c CB18     		adds	r3, r1, r3
 1958 011e 1033     		adds	r3, r3, #16
 1959 0120 1B68     		ldr	r3, [r3]
 1960 0122 5B68     		ldr	r3, [r3, #4]
 1961 0124 1800     		movs	r0, r3
 1962 0126 FFF7FEFF 		bl	CyBle_Get16ByPtr
 1963 012a 0300     		movs	r3, r0
 1964 012c 1A00     		movs	r2, r3
 1965 012e 0123     		movs	r3, #1
 1966 0130 1340     		ands	r3, r2
 1967 0132 9BB2     		uxth	r3, r3
 1968 0134 002B     		cmp	r3, #0
 1969 0136 24D0     		beq	.L112
 734:Generated_Source\PSoC4/BLE_1_hids.c ****                 {
ARM GAS  C:\Users\puria\AppData\Local\Temp\cc07Gu7s.s 			page 49


 735:Generated_Source\PSoC4/BLE_1_hids.c ****                     if(cyBle_state == CYBLE_STATE_CONNECTED)
 1970              		.loc 1 735 0
 1971 0138 254B     		ldr	r3, .L116+8
 1972 013a 1B78     		ldrb	r3, [r3]
 1973 013c 022B     		cmp	r3, #2
 1974 013e 1AD1     		bne	.L113
 736:Generated_Source\PSoC4/BLE_1_hids.c ****                     {
 737:Generated_Source\PSoC4/BLE_1_hids.c ****                         /* Fill all fields of write request structure ... */
 738:Generated_Source\PSoC4/BLE_1_hids.c ****                         ntfReqParam.attrHandle = locReport->reportHandle;
 1975              		.loc 1 738 0
 1976 0140 3B6A     		ldr	r3, [r7, #32]
 1977 0142 1A88     		ldrh	r2, [r3]
 1978 0144 1423     		movs	r3, #20
 1979 0146 FB18     		adds	r3, r7, r3
 1980 0148 1A81     		strh	r2, [r3, #8]
 739:Generated_Source\PSoC4/BLE_1_hids.c ****                         ntfReqParam.value.val = attrValue;
 1981              		.loc 1 739 0
 1982 014a 1423     		movs	r3, #20
 1983 014c FB18     		adds	r3, r7, r3
 1984 014e BA6B     		ldr	r2, [r7, #56]
 1985 0150 1A60     		str	r2, [r3]
 740:Generated_Source\PSoC4/BLE_1_hids.c ****                         ntfReqParam.value.len = attrSize;
 1986              		.loc 1 740 0
 1987 0152 7B1C     		adds	r3, r7, #1
 1988 0154 1B78     		ldrb	r3, [r3]
 1989 0156 9AB2     		uxth	r2, r3
 1990 0158 1423     		movs	r3, #20
 1991 015a FB18     		adds	r3, r7, r3
 1992 015c 9A80     		strh	r2, [r3, #4]
 741:Generated_Source\PSoC4/BLE_1_hids.c **** 
 742:Generated_Source\PSoC4/BLE_1_hids.c ****                         /* Send notification to client using previously filled structure */
 743:Generated_Source\PSoC4/BLE_1_hids.c ****                         apiResult = CyBle_GattsNotification(connHandle, &ntfReqParam);
 1993              		.loc 1 743 0
 1994 015e 2623     		movs	r3, #38
 1995 0160 FC18     		adds	r4, r7, r3
 1996 0162 1423     		movs	r3, #20
 1997 0164 FA18     		adds	r2, r7, r3
 1998 0166 3B1D     		adds	r3, r7, #4
 1999 0168 1100     		movs	r1, r2
 2000 016a 1868     		ldr	r0, [r3]
 2001 016c FFF7FEFF 		bl	CyBle_GattsNotification
 2002 0170 0300     		movs	r3, r0
 2003 0172 2380     		strh	r3, [r4]
 2004 0174 21E0     		b	.L104
 2005              	.L113:
 744:Generated_Source\PSoC4/BLE_1_hids.c ****                     }
 745:Generated_Source\PSoC4/BLE_1_hids.c ****                     else
 746:Generated_Source\PSoC4/BLE_1_hids.c ****                     {
 747:Generated_Source\PSoC4/BLE_1_hids.c ****                         apiResult = CYBLE_ERROR_INVALID_STATE;
 2006              		.loc 1 747 0
 2007 0176 2623     		movs	r3, #38
 2008 0178 FB18     		adds	r3, r7, r3
 2009 017a 0422     		movs	r2, #4
 2010 017c FF32     		adds	r2, r2, #255
 2011 017e 1A80     		strh	r2, [r3]
 2012 0180 1BE0     		b	.L104
 2013              	.L112:
ARM GAS  C:\Users\puria\AppData\Local\Temp\cc07Gu7s.s 			page 50


 748:Generated_Source\PSoC4/BLE_1_hids.c ****                     }
 749:Generated_Source\PSoC4/BLE_1_hids.c ****                 }
 750:Generated_Source\PSoC4/BLE_1_hids.c ****                 else    /* Store data in database */
 751:Generated_Source\PSoC4/BLE_1_hids.c ****                 {
 752:Generated_Source\PSoC4/BLE_1_hids.c ****                     locHandleValuePair.attrHandle = locReport->reportHandle;
 2014              		.loc 1 752 0
 2015 0182 3B6A     		ldr	r3, [r7, #32]
 2016 0184 1A88     		ldrh	r2, [r3]
 2017 0186 0823     		movs	r3, #8
 2018 0188 FB18     		adds	r3, r7, r3
 2019 018a 1A81     		strh	r2, [r3, #8]
 753:Generated_Source\PSoC4/BLE_1_hids.c ****                     locHandleValuePair.value.len = attrSize;
 2020              		.loc 1 753 0
 2021 018c 7B1C     		adds	r3, r7, #1
 2022 018e 1B78     		ldrb	r3, [r3]
 2023 0190 9AB2     		uxth	r2, r3
 2024 0192 0823     		movs	r3, #8
 2025 0194 FB18     		adds	r3, r7, r3
 2026 0196 9A80     		strh	r2, [r3, #4]
 754:Generated_Source\PSoC4/BLE_1_hids.c ****                     locHandleValuePair.value.val = attrValue;
 2027              		.loc 1 754 0
 2028 0198 0823     		movs	r3, #8
 2029 019a FB18     		adds	r3, r7, r3
 2030 019c BA6B     		ldr	r2, [r7, #56]
 2031 019e 1A60     		str	r2, [r3]
 755:Generated_Source\PSoC4/BLE_1_hids.c ****                     if(CYBLE_GATT_ERR_NONE !=
 756:Generated_Source\PSoC4/BLE_1_hids.c ****                         CyBle_GattsWriteAttributeValue(&locHandleValuePair, 0u, NULL, CYBLE_GATT_DB
 2032              		.loc 1 756 0
 2033 01a0 0823     		movs	r3, #8
 2034 01a2 F818     		adds	r0, r7, r3
 2035 01a4 0023     		movs	r3, #0
 2036 01a6 0022     		movs	r2, #0
 2037 01a8 0021     		movs	r1, #0
 2038 01aa FFF7FEFF 		bl	CyBle_GattsWriteAttributeValue
 2039 01ae 031E     		subs	r3, r0, #0
 755:Generated_Source\PSoC4/BLE_1_hids.c ****                     if(CYBLE_GATT_ERR_NONE !=
 2040              		.loc 1 755 0
 2041 01b0 03D0     		beq	.L104
 757:Generated_Source\PSoC4/BLE_1_hids.c ****                     {
 758:Generated_Source\PSoC4/BLE_1_hids.c ****                         apiResult = CYBLE_ERROR_INVALID_PARAMETER;
 2042              		.loc 1 758 0
 2043 01b2 2623     		movs	r3, #38
 2044 01b4 FB18     		adds	r3, r7, r3
 2045 01b6 0122     		movs	r2, #1
 2046 01b8 1A80     		strh	r2, [r3]
 2047              	.L104:
 759:Generated_Source\PSoC4/BLE_1_hids.c ****                     }
 760:Generated_Source\PSoC4/BLE_1_hids.c ****                 }
 761:Generated_Source\PSoC4/BLE_1_hids.c ****             }
 762:Generated_Source\PSoC4/BLE_1_hids.c ****         }
 763:Generated_Source\PSoC4/BLE_1_hids.c ****     }
 764:Generated_Source\PSoC4/BLE_1_hids.c ****     return (apiResult);
 2048              		.loc 1 764 0
 2049 01ba 2623     		movs	r3, #38
 2050 01bc FB18     		adds	r3, r7, r3
 2051 01be 1B88     		ldrh	r3, [r3]
 765:Generated_Source\PSoC4/BLE_1_hids.c **** }
ARM GAS  C:\Users\puria\AppData\Local\Temp\cc07Gu7s.s 			page 51


 2052              		.loc 1 765 0
 2053 01c0 1800     		movs	r0, r3
 2054 01c2 BD46     		mov	sp, r7
 2055 01c4 0BB0     		add	sp, sp, #44
 2056              		@ sp needed
 2057 01c6 90BD     		pop	{r4, r7, pc}
 2058              	.L117:
 2059              		.align	2
 2060              	.L116:
 2061 01c8 00000000 		.word	cyBle_hidss
 2062 01cc 00000000 		.word	cyBle_gattDB
 2063 01d0 00000000 		.word	cyBle_state
 2064              		.cfi_endproc
 2065              	.LFE9:
 2066              		.size	CyBle_HidssSendNotification, .-CyBle_HidssSendNotification
 2067              		.section	.text.CyBle_HidssOnDeviceConnected,"ax",%progbits
 2068              		.align	2
 2069              		.global	CyBle_HidssOnDeviceConnected
 2070              		.code	16
 2071              		.thumb_func
 2072              		.type	CyBle_HidssOnDeviceConnected, %function
 2073              	CyBle_HidssOnDeviceConnected:
 2074              	.LFB10:
 766:Generated_Source\PSoC4/BLE_1_hids.c **** 
 767:Generated_Source\PSoC4/BLE_1_hids.c **** 
 768:Generated_Source\PSoC4/BLE_1_hids.c **** /****************************************************************************** 
 769:Generated_Source\PSoC4/BLE_1_hids.c **** * Function Name: CyBle_HidssOnDeviceConnected
 770:Generated_Source\PSoC4/BLE_1_hids.c **** ***************************************************************************//**
 771:Generated_Source\PSoC4/BLE_1_hids.c **** * 
 772:Generated_Source\PSoC4/BLE_1_hids.c **** *  Handles the connection establishment request.
 773:Generated_Source\PSoC4/BLE_1_hids.c **** * 
 774:Generated_Source\PSoC4/BLE_1_hids.c **** * \return
 775:Generated_Source\PSoC4/BLE_1_hids.c **** *  None
 776:Generated_Source\PSoC4/BLE_1_hids.c **** * 
 777:Generated_Source\PSoC4/BLE_1_hids.c **** ******************************************************************************/
 778:Generated_Source\PSoC4/BLE_1_hids.c **** void CyBle_HidssOnDeviceConnected(void)
 779:Generated_Source\PSoC4/BLE_1_hids.c **** {
 2075              		.loc 1 779 0
 2076              		.cfi_startproc
 2077              		@ args = 0, pretend = 0, frame = 8
 2078              		@ frame_needed = 1, uses_anonymous_args = 0
 2079 0000 80B5     		push	{r7, lr}
 2080              		.cfi_def_cfa_offset 8
 2081              		.cfi_offset 7, -8
 2082              		.cfi_offset 14, -4
 2083 0002 82B0     		sub	sp, sp, #8
 2084              		.cfi_def_cfa_offset 16
 2085 0004 00AF     		add	r7, sp, #0
 2086              		.cfi_def_cfa_register 7
 780:Generated_Source\PSoC4/BLE_1_hids.c ****     /* The Protocol Mode characteristic value shall be reset to the default value
 781:Generated_Source\PSoC4/BLE_1_hids.c ****        following a connection establishment */
 782:Generated_Source\PSoC4/BLE_1_hids.c ****     uint8 defaultProtocol = CYBLE_HIDS_PROTOCOL_DEFAULT;
 2087              		.loc 1 782 0
 2088 0006 BB1D     		adds	r3, r7, #6
 2089 0008 0122     		movs	r2, #1
 2090 000a 1A70     		strb	r2, [r3]
 783:Generated_Source\PSoC4/BLE_1_hids.c ****     uint8 locServIndex = 0u;
ARM GAS  C:\Users\puria\AppData\Local\Temp\cc07Gu7s.s 			page 52


 2091              		.loc 1 783 0
 2092 000c FB1D     		adds	r3, r7, #7
 2093 000e 0022     		movs	r2, #0
 2094 0010 1A70     		strb	r2, [r3]
 2095              	.L120:
 784:Generated_Source\PSoC4/BLE_1_hids.c ****     do
 785:Generated_Source\PSoC4/BLE_1_hids.c ****     {
 786:Generated_Source\PSoC4/BLE_1_hids.c ****         if(cyBle_hidss[locServIndex].protocolModeHandle !=
 2096              		.loc 1 786 0
 2097 0012 FB1D     		adds	r3, r7, #7
 2098 0014 1A78     		ldrb	r2, [r3]
 2099 0016 1749     		ldr	r1, .L121
 2100 0018 1300     		movs	r3, r2
 2101 001a 9B00     		lsls	r3, r3, #2
 2102 001c 9B18     		adds	r3, r3, r2
 2103 001e DB00     		lsls	r3, r3, #3
 2104 0020 CB18     		adds	r3, r1, r3
 2105 0022 0233     		adds	r3, r3, #2
 2106 0024 1B88     		ldrh	r3, [r3]
 2107 0026 002B     		cmp	r3, #0
 2108 0028 16D0     		beq	.L119
 787:Generated_Source\PSoC4/BLE_1_hids.c ****            CYBLE_GATT_INVALID_ATTR_HANDLE_VALUE)
 788:Generated_Source\PSoC4/BLE_1_hids.c ****         {
 789:Generated_Source\PSoC4/BLE_1_hids.c ****             /* Store default protocol value in database */
 790:Generated_Source\PSoC4/BLE_1_hids.c ****             CYBLE_GATT_DB_ATTR_SET_GEN_VALUE(cyBle_hidss[locServIndex].protocolModeHandle,
 2109              		.loc 1 790 0
 2110 002a FB1D     		adds	r3, r7, #7
 2111 002c 1A78     		ldrb	r2, [r3]
 2112 002e 1149     		ldr	r1, .L121
 2113 0030 1300     		movs	r3, r2
 2114 0032 9B00     		lsls	r3, r3, #2
 2115 0034 9B18     		adds	r3, r3, r2
 2116 0036 DB00     		lsls	r3, r3, #3
 2117 0038 CB18     		adds	r3, r1, r3
 2118 003a 0233     		adds	r3, r3, #2
 2119 003c 1B88     		ldrh	r3, [r3]
 2120 003e 5A1E     		subs	r2, r3, #1
 2121 0040 0D49     		ldr	r1, .L121+4
 2122 0042 1300     		movs	r3, r2
 2123 0044 9B00     		lsls	r3, r3, #2
 2124 0046 9B18     		adds	r3, r3, r2
 2125 0048 9B00     		lsls	r3, r3, #2
 2126 004a CB18     		adds	r3, r1, r3
 2127 004c 1033     		adds	r3, r3, #16
 2128 004e 1B68     		ldr	r3, [r3]
 2129 0050 5B68     		ldr	r3, [r3, #4]
 2130 0052 BA1D     		adds	r2, r7, #6
 2131 0054 1278     		ldrb	r2, [r2]
 2132 0056 1A70     		strb	r2, [r3]
 2133              	.L119:
 791:Generated_Source\PSoC4/BLE_1_hids.c ****                                                     &defaultProtocol, sizeof(defaultProtocol));
 792:Generated_Source\PSoC4/BLE_1_hids.c ****         }
 793:Generated_Source\PSoC4/BLE_1_hids.c ****         ++locServIndex;
 2134              		.loc 1 793 0
 2135 0058 FB1D     		adds	r3, r7, #7
 2136 005a FA1D     		adds	r2, r7, #7
 2137 005c 1278     		ldrb	r2, [r2]
ARM GAS  C:\Users\puria\AppData\Local\Temp\cc07Gu7s.s 			page 53


 2138 005e 0132     		adds	r2, r2, #1
 2139 0060 1A70     		strb	r2, [r3]
 794:Generated_Source\PSoC4/BLE_1_hids.c ****     }while(locServIndex < CYBLE_HIDSS_SERVICE_COUNT);
 2140              		.loc 1 794 0
 2141 0062 FB1D     		adds	r3, r7, #7
 2142 0064 1B78     		ldrb	r3, [r3]
 2143 0066 002B     		cmp	r3, #0
 2144 0068 D3D0     		beq	.L120
 795:Generated_Source\PSoC4/BLE_1_hids.c **** }
 2145              		.loc 1 795 0
 2146 006a C046     		nop
 2147 006c BD46     		mov	sp, r7
 2148 006e 02B0     		add	sp, sp, #8
 2149              		@ sp needed
 2150 0070 80BD     		pop	{r7, pc}
 2151              	.L122:
 2152 0072 C046     		.align	2
 2153              	.L121:
 2154 0074 00000000 		.word	cyBle_hidss
 2155 0078 00000000 		.word	cyBle_gattDB
 2156              		.cfi_endproc
 2157              	.LFE10:
 2158              		.size	CyBle_HidssOnDeviceConnected, .-CyBle_HidssOnDeviceConnected
 2159              		.text
 2160              	.Letext0:
 2161              		.file 2 "Generated_Source\\PSoC4\\cytypes.h"
 2162              		.file 3 "Generated_Source\\PSoC4\\BLE_1_Stack.h"
 2163              		.file 4 "Generated_Source\\PSoC4\\BLE_1_StackGatt.h"
 2164              		.file 5 "Generated_Source\\PSoC4\\BLE_1_StackGattServer.h"
 2165              		.file 6 "Generated_Source\\PSoC4\\BLE_1_StackGattDb.h"
 2166              		.file 7 "Generated_Source\\PSoC4\\BLE_1.h"
 2167              		.file 8 "Generated_Source\\PSoC4\\BLE_1_dis.h"
 2168              		.file 9 "Generated_Source\\PSoC4\\BLE_1_hids.h"
 2169              		.file 10 "Generated_Source\\PSoC4\\BLE_1_eventHandler.h"
 2170              		.file 11 "Generated_Source\\PSoC4\\BLE_1_gatt.h"
 2171              		.section	.debug_info,"",%progbits
 2172              	.Ldebug_info0:
 2173 0000 CC140000 		.4byte	0x14cc
 2174 0004 0400     		.2byte	0x4
 2175 0006 00000000 		.4byte	.Ldebug_abbrev0
 2176 000a 04       		.byte	0x4
 2177 000b 01       		.uleb128 0x1
 2178 000c CC190000 		.4byte	.LASF568
 2179 0010 0C       		.byte	0xc
 2180 0011 4C190000 		.4byte	.LASF569
 2181 0015 82270000 		.4byte	.LASF570
 2182 0019 00000000 		.4byte	.Ldebug_ranges0+0
 2183 001d 00000000 		.4byte	0
 2184 0021 00000000 		.4byte	.Ldebug_line0
 2185 0025 02       		.uleb128 0x2
 2186 0026 01       		.byte	0x1
 2187 0027 06       		.byte	0x6
 2188 0028 940E0000 		.4byte	.LASF0
 2189 002c 02       		.uleb128 0x2
 2190 002d 01       		.byte	0x1
 2191 002e 08       		.byte	0x8
 2192 002f 9D0F0000 		.4byte	.LASF1
ARM GAS  C:\Users\puria\AppData\Local\Temp\cc07Gu7s.s 			page 54


 2193 0033 02       		.uleb128 0x2
 2194 0034 02       		.byte	0x2
 2195 0035 05       		.byte	0x5
 2196 0036 1B370000 		.4byte	.LASF2
 2197 003a 02       		.uleb128 0x2
 2198 003b 02       		.byte	0x2
 2199 003c 07       		.byte	0x7
 2200 003d E63E0000 		.4byte	.LASF3
 2201 0041 02       		.uleb128 0x2
 2202 0042 04       		.byte	0x4
 2203 0043 05       		.byte	0x5
 2204 0044 470B0000 		.4byte	.LASF4
 2205 0048 02       		.uleb128 0x2
 2206 0049 04       		.byte	0x4
 2207 004a 07       		.byte	0x7
 2208 004b 7A1C0000 		.4byte	.LASF5
 2209 004f 02       		.uleb128 0x2
 2210 0050 08       		.byte	0x8
 2211 0051 05       		.byte	0x5
 2212 0052 63210000 		.4byte	.LASF6
 2213 0056 02       		.uleb128 0x2
 2214 0057 08       		.byte	0x8
 2215 0058 07       		.byte	0x7
 2216 0059 592F0000 		.4byte	.LASF7
 2217 005d 03       		.uleb128 0x3
 2218 005e 04       		.byte	0x4
 2219 005f 05       		.byte	0x5
 2220 0060 696E7400 		.ascii	"int\000"
 2221 0064 02       		.uleb128 0x2
 2222 0065 04       		.byte	0x4
 2223 0066 07       		.byte	0x7
 2224 0067 89260000 		.4byte	.LASF8
 2225 006b 04       		.uleb128 0x4
 2226 006c 83360000 		.4byte	.LASF9
 2227 0070 02       		.byte	0x2
 2228 0071 D201     		.2byte	0x1d2
 2229 0073 2C000000 		.4byte	0x2c
 2230 0077 04       		.uleb128 0x4
 2231 0078 E5410000 		.4byte	.LASF10
 2232 007c 02       		.byte	0x2
 2233 007d D301     		.2byte	0x1d3
 2234 007f 3A000000 		.4byte	0x3a
 2235 0083 04       		.uleb128 0x4
 2236 0084 6D030000 		.4byte	.LASF11
 2237 0088 02       		.byte	0x2
 2238 0089 D401     		.2byte	0x1d4
 2239 008b 48000000 		.4byte	0x48
 2240 008f 02       		.uleb128 0x2
 2241 0090 04       		.byte	0x4
 2242 0091 04       		.byte	0x4
 2243 0092 F2240000 		.4byte	.LASF12
 2244 0096 02       		.uleb128 0x2
 2245 0097 08       		.byte	0x8
 2246 0098 04       		.byte	0x4
 2247 0099 D8220000 		.4byte	.LASF13
 2248 009d 02       		.uleb128 0x2
 2249 009e 01       		.byte	0x1
ARM GAS  C:\Users\puria\AppData\Local\Temp\cc07Gu7s.s 			page 55


 2250 009f 08       		.byte	0x8
 2251 00a0 03120000 		.4byte	.LASF14
 2252 00a4 05       		.uleb128 0x5
 2253 00a5 6B000000 		.4byte	0x6b
 2254 00a9 02       		.uleb128 0x2
 2255 00aa 08       		.byte	0x8
 2256 00ab 04       		.byte	0x4
 2257 00ac FC2B0000 		.4byte	.LASF15
 2258 00b0 02       		.uleb128 0x2
 2259 00b1 04       		.byte	0x4
 2260 00b2 07       		.byte	0x7
 2261 00b3 A6000000 		.4byte	.LASF16
 2262 00b7 06       		.uleb128 0x6
 2263 00b8 04       		.byte	0x4
 2264 00b9 07       		.uleb128 0x7
 2265 00ba 04       		.byte	0x4
 2266 00bb BF000000 		.4byte	0xbf
 2267 00bf 08       		.uleb128 0x8
 2268 00c0 CF000000 		.4byte	0xcf
 2269 00c4 09       		.uleb128 0x9
 2270 00c5 83000000 		.4byte	0x83
 2271 00c9 09       		.uleb128 0x9
 2272 00ca B7000000 		.4byte	0xb7
 2273 00ce 00       		.byte	0
 2274 00cf 0A       		.uleb128 0xa
 2275 00d0 01       		.byte	0x1
 2276 00d1 2C000000 		.4byte	0x2c
 2277 00d5 03       		.byte	0x3
 2278 00d6 4D01     		.2byte	0x14d
 2279 00d8 8D020000 		.4byte	0x28d
 2280 00dc 0B       		.uleb128 0xb
 2281 00dd C8120000 		.4byte	.LASF17
 2282 00e1 00       		.byte	0
 2283 00e2 0B       		.uleb128 0xb
 2284 00e3 DF0B0000 		.4byte	.LASF18
 2285 00e7 01       		.byte	0x1
 2286 00e8 0B       		.uleb128 0xb
 2287 00e9 8E2F0000 		.4byte	.LASF19
 2288 00ed 02       		.byte	0x2
 2289 00ee 0B       		.uleb128 0xb
 2290 00ef 0A0F0000 		.4byte	.LASF20
 2291 00f3 03       		.byte	0x3
 2292 00f4 0B       		.uleb128 0xb
 2293 00f5 F93F0000 		.4byte	.LASF21
 2294 00f9 04       		.byte	0x4
 2295 00fa 0B       		.uleb128 0xb
 2296 00fb 703D0000 		.4byte	.LASF22
 2297 00ff 05       		.byte	0x5
 2298 0100 0B       		.uleb128 0xb
 2299 0101 492C0000 		.4byte	.LASF23
 2300 0105 06       		.byte	0x6
 2301 0106 0B       		.uleb128 0xb
 2302 0107 50390000 		.4byte	.LASF24
 2303 010b 20       		.byte	0x20
 2304 010c 0B       		.uleb128 0xb
 2305 010d 39080000 		.4byte	.LASF25
 2306 0111 21       		.byte	0x21
ARM GAS  C:\Users\puria\AppData\Local\Temp\cc07Gu7s.s 			page 56


 2307 0112 0B       		.uleb128 0xb
 2308 0113 1A200000 		.4byte	.LASF26
 2309 0117 22       		.byte	0x22
 2310 0118 0B       		.uleb128 0xb
 2311 0119 452A0000 		.4byte	.LASF27
 2312 011d 23       		.byte	0x23
 2313 011e 0B       		.uleb128 0xb
 2314 011f 0D1B0000 		.4byte	.LASF28
 2315 0123 24       		.byte	0x24
 2316 0124 0B       		.uleb128 0xb
 2317 0125 701B0000 		.4byte	.LASF29
 2318 0129 25       		.byte	0x25
 2319 012a 0B       		.uleb128 0xb
 2320 012b C4350000 		.4byte	.LASF30
 2321 012f 26       		.byte	0x26
 2322 0130 0B       		.uleb128 0xb
 2323 0131 E4020000 		.4byte	.LASF31
 2324 0135 27       		.byte	0x27
 2325 0136 0B       		.uleb128 0xb
 2326 0137 33410000 		.4byte	.LASF32
 2327 013b 28       		.byte	0x28
 2328 013c 0B       		.uleb128 0xb
 2329 013d 282D0000 		.4byte	.LASF33
 2330 0141 29       		.byte	0x29
 2331 0142 0B       		.uleb128 0xb
 2332 0143 F51E0000 		.4byte	.LASF34
 2333 0147 2A       		.byte	0x2a
 2334 0148 0B       		.uleb128 0xb
 2335 0149 93290000 		.4byte	.LASF35
 2336 014d 2B       		.byte	0x2b
 2337 014e 0B       		.uleb128 0xb
 2338 014f CE3D0000 		.4byte	.LASF36
 2339 0153 2C       		.byte	0x2c
 2340 0154 0B       		.uleb128 0xb
 2341 0155 C0010000 		.4byte	.LASF37
 2342 0159 2D       		.byte	0x2d
 2343 015a 0B       		.uleb128 0xb
 2344 015b AB360000 		.4byte	.LASF38
 2345 015f 2E       		.byte	0x2e
 2346 0160 0B       		.uleb128 0xb
 2347 0161 91090000 		.4byte	.LASF39
 2348 0165 2F       		.byte	0x2f
 2349 0166 0B       		.uleb128 0xb
 2350 0167 BD110000 		.4byte	.LASF40
 2351 016b 30       		.byte	0x30
 2352 016c 0B       		.uleb128 0xb
 2353 016d E1230000 		.4byte	.LASF41
 2354 0171 31       		.byte	0x31
 2355 0172 0B       		.uleb128 0xb
 2356 0173 FD120000 		.4byte	.LASF42
 2357 0177 32       		.byte	0x32
 2358 0178 0B       		.uleb128 0xb
 2359 0179 74100000 		.4byte	.LASF43
 2360 017d 33       		.byte	0x33
 2361 017e 0B       		.uleb128 0xb
 2362 017f 9B100000 		.4byte	.LASF44
 2363 0183 34       		.byte	0x34
ARM GAS  C:\Users\puria\AppData\Local\Temp\cc07Gu7s.s 			page 57


 2364 0184 0B       		.uleb128 0xb
 2365 0185 A23A0000 		.4byte	.LASF45
 2366 0189 35       		.byte	0x35
 2367 018a 0B       		.uleb128 0xb
 2368 018b 36090000 		.4byte	.LASF46
 2369 018f 36       		.byte	0x36
 2370 0190 0B       		.uleb128 0xb
 2371 0191 6D2E0000 		.4byte	.LASF47
 2372 0195 37       		.byte	0x37
 2373 0196 0B       		.uleb128 0xb
 2374 0197 27380000 		.4byte	.LASF48
 2375 019b 40       		.byte	0x40
 2376 019c 0B       		.uleb128 0xb
 2377 019d 26030000 		.4byte	.LASF49
 2378 01a1 41       		.byte	0x41
 2379 01a2 0B       		.uleb128 0xb
 2380 01a3 0E400000 		.4byte	.LASF50
 2381 01a7 42       		.byte	0x42
 2382 01a8 0B       		.uleb128 0xb
 2383 01a9 A72D0000 		.4byte	.LASF51
 2384 01ad 43       		.byte	0x43
 2385 01ae 0B       		.uleb128 0xb
 2386 01af AB0F0000 		.4byte	.LASF52
 2387 01b3 44       		.byte	0x44
 2388 01b4 0B       		.uleb128 0xb
 2389 01b5 3F0F0000 		.4byte	.LASF53
 2390 01b9 45       		.byte	0x45
 2391 01ba 0B       		.uleb128 0xb
 2392 01bb 4E330000 		.4byte	.LASF54
 2393 01bf 46       		.byte	0x46
 2394 01c0 0B       		.uleb128 0xb
 2395 01c1 30330000 		.4byte	.LASF55
 2396 01c5 47       		.byte	0x47
 2397 01c6 0B       		.uleb128 0xb
 2398 01c7 71110000 		.4byte	.LASF56
 2399 01cb 48       		.byte	0x48
 2400 01cc 0B       		.uleb128 0xb
 2401 01cd AA2A0000 		.4byte	.LASF57
 2402 01d1 49       		.byte	0x49
 2403 01d2 0B       		.uleb128 0xb
 2404 01d3 5E130000 		.4byte	.LASF58
 2405 01d7 4A       		.byte	0x4a
 2406 01d8 0B       		.uleb128 0xb
 2407 01d9 6F120000 		.4byte	.LASF59
 2408 01dd 4B       		.byte	0x4b
 2409 01de 0B       		.uleb128 0xb
 2410 01df ED290000 		.4byte	.LASF60
 2411 01e3 4C       		.byte	0x4c
 2412 01e4 0B       		.uleb128 0xb
 2413 01e5 E0340000 		.4byte	.LASF61
 2414 01e9 4D       		.byte	0x4d
 2415 01ea 0B       		.uleb128 0xb
 2416 01eb E20A0000 		.4byte	.LASF62
 2417 01ef 4E       		.byte	0x4e
 2418 01f0 0B       		.uleb128 0xb
 2419 01f1 96260000 		.4byte	.LASF63
 2420 01f5 4F       		.byte	0x4f
ARM GAS  C:\Users\puria\AppData\Local\Temp\cc07Gu7s.s 			page 58


 2421 01f6 0B       		.uleb128 0xb
 2422 01f7 31390000 		.4byte	.LASF64
 2423 01fb 50       		.byte	0x50
 2424 01fc 0B       		.uleb128 0xb
 2425 01fd C2130000 		.4byte	.LASF65
 2426 0201 51       		.byte	0x51
 2427 0202 0B       		.uleb128 0xb
 2428 0203 18080000 		.4byte	.LASF66
 2429 0207 52       		.byte	0x52
 2430 0208 0B       		.uleb128 0xb
 2431 0209 CD3C0000 		.4byte	.LASF67
 2432 020d 53       		.byte	0x53
 2433 020e 0B       		.uleb128 0xb
 2434 020f 75410000 		.4byte	.LASF68
 2435 0213 54       		.byte	0x54
 2436 0214 0B       		.uleb128 0xb
 2437 0215 86060000 		.4byte	.LASF69
 2438 0219 55       		.byte	0x55
 2439 021a 0B       		.uleb128 0xb
 2440 021b BB140000 		.4byte	.LASF70
 2441 021f 56       		.byte	0x56
 2442 0220 0B       		.uleb128 0xb
 2443 0221 9E250000 		.4byte	.LASF71
 2444 0225 57       		.byte	0x57
 2445 0226 0B       		.uleb128 0xb
 2446 0227 F4400000 		.4byte	.LASF72
 2447 022b 58       		.byte	0x58
 2448 022c 0B       		.uleb128 0xb
 2449 022d 173E0000 		.4byte	.LASF73
 2450 0231 70       		.byte	0x70
 2451 0232 0B       		.uleb128 0xb
 2452 0233 26190000 		.4byte	.LASF74
 2453 0237 71       		.byte	0x71
 2454 0238 0B       		.uleb128 0xb
 2455 0239 F30D0000 		.4byte	.LASF75
 2456 023d 72       		.byte	0x72
 2457 023e 0B       		.uleb128 0xb
 2458 023f 13390000 		.4byte	.LASF76
 2459 0243 73       		.byte	0x73
 2460 0244 0B       		.uleb128 0xb
 2461 0245 1D2B0000 		.4byte	.LASF77
 2462 0249 74       		.byte	0x74
 2463 024a 0B       		.uleb128 0xb
 2464 024b 7E1F0000 		.4byte	.LASF78
 2465 024f 75       		.byte	0x75
 2466 0250 0B       		.uleb128 0xb
 2467 0251 50110000 		.4byte	.LASF79
 2468 0255 76       		.byte	0x76
 2469 0256 0B       		.uleb128 0xb
 2470 0257 4F300000 		.4byte	.LASF80
 2471 025b 77       		.byte	0x77
 2472 025c 0B       		.uleb128 0xb
 2473 025d AA060000 		.4byte	.LASF81
 2474 0261 78       		.byte	0x78
 2475 0262 0B       		.uleb128 0xb
 2476 0263 240B0000 		.4byte	.LASF82
 2477 0267 79       		.byte	0x79
ARM GAS  C:\Users\puria\AppData\Local\Temp\cc07Gu7s.s 			page 59


 2478 0268 0B       		.uleb128 0xb
 2479 0269 52400000 		.4byte	.LASF83
 2480 026d 7A       		.byte	0x7a
 2481 026e 0B       		.uleb128 0xb
 2482 026f 24230000 		.4byte	.LASF84
 2483 0273 FA       		.byte	0xfa
 2484 0274 0B       		.uleb128 0xb
 2485 0275 E13B0000 		.4byte	.LASF85
 2486 0279 FB       		.byte	0xfb
 2487 027a 0B       		.uleb128 0xb
 2488 027b 70190000 		.4byte	.LASF86
 2489 027f FC       		.byte	0xfc
 2490 0280 0B       		.uleb128 0xb
 2491 0281 E42B0000 		.4byte	.LASF87
 2492 0285 FD       		.byte	0xfd
 2493 0286 0B       		.uleb128 0xb
 2494 0287 85290000 		.4byte	.LASF88
 2495 028b FF       		.byte	0xff
 2496 028c 00       		.byte	0
 2497 028d 0A       		.uleb128 0xa
 2498 028e 02       		.byte	0x2
 2499 028f 3A000000 		.4byte	0x3a
 2500 0293 03       		.byte	0x3
 2501 0294 0204     		.2byte	0x402
 2502 0296 66030000 		.4byte	0x366
 2503 029a 0B       		.uleb128 0xb
 2504 029b 230F0000 		.4byte	.LASF89
 2505 029f 00       		.byte	0
 2506 02a0 0B       		.uleb128 0xb
 2507 02a1 53160000 		.4byte	.LASF90
 2508 02a5 01       		.byte	0x1
 2509 02a6 0B       		.uleb128 0xb
 2510 02a7 DB3F0000 		.4byte	.LASF91
 2511 02ab 02       		.byte	0x2
 2512 02ac 0B       		.uleb128 0xb
 2513 02ad 9F170000 		.4byte	.LASF92
 2514 02b1 03       		.byte	0x3
 2515 02b2 0B       		.uleb128 0xb
 2516 02b3 E81B0000 		.4byte	.LASF93
 2517 02b7 04       		.byte	0x4
 2518 02b8 0B       		.uleb128 0xb
 2519 02b9 97220000 		.4byte	.LASF94
 2520 02bd 05       		.byte	0x5
 2521 02be 0B       		.uleb128 0xb
 2522 02bf A43B0000 		.4byte	.LASF95
 2523 02c3 06       		.byte	0x6
 2524 02c4 0B       		.uleb128 0xb
 2525 02c5 41130000 		.4byte	.LASF96
 2526 02c9 07       		.byte	0x7
 2527 02ca 0B       		.uleb128 0xb
 2528 02cb 97240000 		.4byte	.LASF97
 2529 02cf 08       		.byte	0x8
 2530 02d0 0B       		.uleb128 0xb
 2531 02d1 2C3A0000 		.4byte	.LASF98
 2532 02d5 09       		.byte	0x9
 2533 02d6 0B       		.uleb128 0xb
 2534 02d7 10420000 		.4byte	.LASF99
ARM GAS  C:\Users\puria\AppData\Local\Temp\cc07Gu7s.s 			page 60


 2535 02db 0A       		.byte	0xa
 2536 02dc 0B       		.uleb128 0xb
 2537 02dd AF080000 		.4byte	.LASF100
 2538 02e1 0B       		.byte	0xb
 2539 02e2 0B       		.uleb128 0xb
 2540 02e3 403D0000 		.4byte	.LASF101
 2541 02e7 0C       		.byte	0xc
 2542 02e8 0B       		.uleb128 0xb
 2543 02e9 A5280000 		.4byte	.LASF102
 2544 02ed 0D       		.byte	0xd
 2545 02ee 0B       		.uleb128 0xb
 2546 02ef C01D0000 		.4byte	.LASF103
 2547 02f3 0E       		.byte	0xe
 2548 02f4 0B       		.uleb128 0xb
 2549 02f5 72220000 		.4byte	.LASF104
 2550 02f9 0F       		.byte	0xf
 2551 02fa 0B       		.uleb128 0xb
 2552 02fb D0050000 		.4byte	.LASF105
 2553 02ff 10       		.byte	0x10
 2554 0300 0B       		.uleb128 0xb
 2555 0301 4F240000 		.4byte	.LASF106
 2556 0305 11       		.byte	0x11
 2557 0306 0B       		.uleb128 0xb
 2558 0307 F20B0000 		.4byte	.LASF107
 2559 030b 12       		.byte	0x12
 2560 030c 0B       		.uleb128 0xb
 2561 030d 6C0E0000 		.4byte	.LASF108
 2562 0311 13       		.byte	0x13
 2563 0312 0B       		.uleb128 0xb
 2564 0313 DF220000 		.4byte	.LASF109
 2565 0317 27       		.byte	0x27
 2566 0318 0B       		.uleb128 0xb
 2567 0319 53250000 		.4byte	.LASF110
 2568 031d 28       		.byte	0x28
 2569 031e 0B       		.uleb128 0xb
 2570 031f 2D060000 		.4byte	.LASF111
 2571 0323 29       		.byte	0x29
 2572 0324 0B       		.uleb128 0xb
 2573 0325 91370000 		.4byte	.LASF112
 2574 0329 2A       		.byte	0x2a
 2575 032a 0B       		.uleb128 0xb
 2576 032b 221D0000 		.4byte	.LASF113
 2577 032f 2B       		.byte	0x2b
 2578 0330 0B       		.uleb128 0xb
 2579 0331 1F310000 		.4byte	.LASF114
 2580 0335 2C       		.byte	0x2c
 2581 0336 0B       		.uleb128 0xb
 2582 0337 37160000 		.4byte	.LASF115
 2583 033b FE       		.byte	0xfe
 2584 033c 0B       		.uleb128 0xb
 2585 033d F3180000 		.4byte	.LASF116
 2586 0341 FF       		.byte	0xff
 2587 0342 0C       		.uleb128 0xc
 2588 0343 842A0000 		.4byte	.LASF117
 2589 0347 0001     		.2byte	0x100
 2590 0349 0C       		.uleb128 0xc
 2591 034a 6B2A0000 		.4byte	.LASF118
ARM GAS  C:\Users\puria\AppData\Local\Temp\cc07Gu7s.s 			page 61


 2592 034e 0101     		.2byte	0x101
 2593 0350 0C       		.uleb128 0xc
 2594 0351 200D0000 		.4byte	.LASF119
 2595 0355 0201     		.2byte	0x102
 2596 0357 0C       		.uleb128 0xc
 2597 0358 F62F0000 		.4byte	.LASF120
 2598 035c 0301     		.2byte	0x103
 2599 035e 0C       		.uleb128 0xc
 2600 035f A71B0000 		.4byte	.LASF121
 2601 0363 0401     		.2byte	0x104
 2602 0365 00       		.byte	0
 2603 0366 04       		.uleb128 0x4
 2604 0367 003C0000 		.4byte	.LASF122
 2605 036b 03       		.byte	0x3
 2606 036c 7104     		.2byte	0x471
 2607 036e 8D020000 		.4byte	0x28d
 2608 0372 07       		.uleb128 0x7
 2609 0373 04       		.byte	0x4
 2610 0374 6B000000 		.4byte	0x6b
 2611 0378 0D       		.uleb128 0xd
 2612 0379 01       		.byte	0x1
 2613 037a 2C000000 		.4byte	0x2c
 2614 037e 04       		.byte	0x4
 2615 037f A5       		.byte	0xa5
 2616 0380 6F040000 		.4byte	0x46f
 2617 0384 0B       		.uleb128 0xb
 2618 0385 6E300000 		.4byte	.LASF123
 2619 0389 00       		.byte	0
 2620 038a 0B       		.uleb128 0xb
 2621 038b 702F0000 		.4byte	.LASF124
 2622 038f 01       		.byte	0x1
 2623 0390 0B       		.uleb128 0xb
 2624 0391 4E050000 		.4byte	.LASF125
 2625 0395 02       		.byte	0x2
 2626 0396 0B       		.uleb128 0xb
 2627 0397 C33E0000 		.4byte	.LASF126
 2628 039b 03       		.byte	0x3
 2629 039c 0B       		.uleb128 0xb
 2630 039d F90C0000 		.4byte	.LASF127
 2631 03a1 04       		.byte	0x4
 2632 03a2 0B       		.uleb128 0xb
 2633 03a3 C2260000 		.4byte	.LASF128
 2634 03a7 05       		.byte	0x5
 2635 03a8 0B       		.uleb128 0xb
 2636 03a9 02380000 		.4byte	.LASF129
 2637 03ad 06       		.byte	0x6
 2638 03ae 0B       		.uleb128 0xb
 2639 03af DD2A0000 		.4byte	.LASF130
 2640 03b3 07       		.byte	0x7
 2641 03b4 0B       		.uleb128 0xb
 2642 03b5 EB250000 		.4byte	.LASF131
 2643 03b9 08       		.byte	0x8
 2644 03ba 0B       		.uleb128 0xb
 2645 03bb 28220000 		.4byte	.LASF132
 2646 03bf 09       		.byte	0x9
 2647 03c0 0B       		.uleb128 0xb
 2648 03c1 EF280000 		.4byte	.LASF133
ARM GAS  C:\Users\puria\AppData\Local\Temp\cc07Gu7s.s 			page 62


 2649 03c5 0A       		.byte	0xa
 2650 03c6 0B       		.uleb128 0xb
 2651 03c7 3B140000 		.4byte	.LASF134
 2652 03cb 0B       		.byte	0xb
 2653 03cc 0B       		.uleb128 0xb
 2654 03cd 42230000 		.4byte	.LASF135
 2655 03d1 0C       		.byte	0xc
 2656 03d2 0B       		.uleb128 0xb
 2657 03d3 340E0000 		.4byte	.LASF136
 2658 03d7 0D       		.byte	0xd
 2659 03d8 0B       		.uleb128 0xb
 2660 03d9 DF120000 		.4byte	.LASF137
 2661 03dd 0E       		.byte	0xe
 2662 03de 0B       		.uleb128 0xb
 2663 03df F93E0000 		.4byte	.LASF138
 2664 03e3 0F       		.byte	0xf
 2665 03e4 0B       		.uleb128 0xb
 2666 03e5 AA050000 		.4byte	.LASF139
 2667 03e9 10       		.byte	0x10
 2668 03ea 0B       		.uleb128 0xb
 2669 03eb 70050000 		.4byte	.LASF140
 2670 03ef 11       		.byte	0x11
 2671 03f0 0B       		.uleb128 0xb
 2672 03f1 28070000 		.4byte	.LASF141
 2673 03f5 80       		.byte	0x80
 2674 03f6 0B       		.uleb128 0xb
 2675 03f7 E1130000 		.4byte	.LASF142
 2676 03fb 80       		.byte	0x80
 2677 03fc 0B       		.uleb128 0xb
 2678 03fd DF1A0000 		.4byte	.LASF143
 2679 0401 80       		.byte	0x80
 2680 0402 0B       		.uleb128 0xb
 2681 0403 AE370000 		.4byte	.LASF144
 2682 0407 80       		.byte	0x80
 2683 0408 0B       		.uleb128 0xb
 2684 0409 5A310000 		.4byte	.LASF145
 2685 040d 80       		.byte	0x80
 2686 040e 0B       		.uleb128 0xb
 2687 040f 2F280000 		.4byte	.LASF146
 2688 0413 80       		.byte	0x80
 2689 0414 0B       		.uleb128 0xb
 2690 0415 311C0000 		.4byte	.LASF147
 2691 0419 80       		.byte	0x80
 2692 041a 0B       		.uleb128 0xb
 2693 041b DB2F0000 		.4byte	.LASF148
 2694 041f 80       		.byte	0x80
 2695 0420 0B       		.uleb128 0xb
 2696 0421 8E180000 		.4byte	.LASF149
 2697 0425 81       		.byte	0x81
 2698 0426 0B       		.uleb128 0xb
 2699 0427 DC330000 		.4byte	.LASF150
 2700 042b 81       		.byte	0x81
 2701 042c 0B       		.uleb128 0xb
 2702 042d 76000000 		.4byte	.LASF151
 2703 0431 81       		.byte	0x81
 2704 0432 0B       		.uleb128 0xb
 2705 0433 800C0000 		.4byte	.LASF152
ARM GAS  C:\Users\puria\AppData\Local\Temp\cc07Gu7s.s 			page 63


 2706 0437 81       		.byte	0x81
 2707 0438 0B       		.uleb128 0xb
 2708 0439 C3090000 		.4byte	.LASF153
 2709 043d 82       		.byte	0x82
 2710 043e 0B       		.uleb128 0xb
 2711 043f FD3A0000 		.4byte	.LASF154
 2712 0443 A0       		.byte	0xa0
 2713 0444 0B       		.uleb128 0xb
 2714 0445 201E0000 		.4byte	.LASF155
 2715 0449 A0       		.byte	0xa0
 2716 044a 0B       		.uleb128 0xb
 2717 044b 0E0A0000 		.4byte	.LASF156
 2718 044f A1       		.byte	0xa1
 2719 0450 0B       		.uleb128 0xb
 2720 0451 063A0000 		.4byte	.LASF157
 2721 0455 A2       		.byte	0xa2
 2722 0456 0B       		.uleb128 0xb
 2723 0457 1C150000 		.4byte	.LASF158
 2724 045b A3       		.byte	0xa3
 2725 045c 0B       		.uleb128 0xb
 2726 045d BE1B0000 		.4byte	.LASF159
 2727 0461 FD       		.byte	0xfd
 2728 0462 0B       		.uleb128 0xb
 2729 0463 90230000 		.4byte	.LASF160
 2730 0467 FE       		.byte	0xfe
 2731 0468 0B       		.uleb128 0xb
 2732 0469 AE2B0000 		.4byte	.LASF161
 2733 046d FF       		.byte	0xff
 2734 046e 00       		.byte	0
 2735 046f 04       		.uleb128 0x4
 2736 0470 F0390000 		.4byte	.LASF162
 2737 0474 04       		.byte	0x4
 2738 0475 5F01     		.2byte	0x15f
 2739 0477 78030000 		.4byte	0x378
 2740 047b 04       		.uleb128 0x4
 2741 047c 10300000 		.4byte	.LASF163
 2742 0480 04       		.byte	0x4
 2743 0481 8901     		.2byte	0x189
 2744 0483 77000000 		.4byte	0x77
 2745 0487 0E       		.uleb128 0xe
 2746 0488 02       		.byte	0x2
 2747 0489 04       		.byte	0x4
 2748 048a 9301     		.2byte	0x193
 2749 048c AB040000 		.4byte	0x4ab
 2750 0490 0F       		.uleb128 0xf
 2751 0491 BA090000 		.4byte	.LASF164
 2752 0495 04       		.byte	0x4
 2753 0496 9A01     		.2byte	0x19a
 2754 0498 6B000000 		.4byte	0x6b
 2755 049c 00       		.byte	0
 2756 049d 0F       		.uleb128 0xf
 2757 049e D53F0000 		.4byte	.LASF165
 2758 04a2 04       		.byte	0x4
 2759 04a3 A001     		.2byte	0x1a0
 2760 04a5 6B000000 		.4byte	0x6b
 2761 04a9 01       		.byte	0x1
 2762 04aa 00       		.byte	0
ARM GAS  C:\Users\puria\AppData\Local\Temp\cc07Gu7s.s 			page 64


 2763 04ab 04       		.uleb128 0x4
 2764 04ac 78080000 		.4byte	.LASF166
 2765 04b0 04       		.byte	0x4
 2766 04b1 A201     		.2byte	0x1a2
 2767 04b3 87040000 		.4byte	0x487
 2768 04b7 0E       		.uleb128 0xe
 2769 04b8 08       		.byte	0x8
 2770 04b9 04       		.byte	0x4
 2771 04ba BE01     		.2byte	0x1be
 2772 04bc E8040000 		.4byte	0x4e8
 2773 04c0 10       		.uleb128 0x10
 2774 04c1 76616C00 		.ascii	"val\000"
 2775 04c5 04       		.byte	0x4
 2776 04c6 C101     		.2byte	0x1c1
 2777 04c8 72030000 		.4byte	0x372
 2778 04cc 00       		.byte	0
 2779 04cd 10       		.uleb128 0x10
 2780 04ce 6C656E00 		.ascii	"len\000"
 2781 04d2 04       		.byte	0x4
 2782 04d3 C401     		.2byte	0x1c4
 2783 04d5 77000000 		.4byte	0x77
 2784 04d9 04       		.byte	0x4
 2785 04da 0F       		.uleb128 0xf
 2786 04db 693F0000 		.4byte	.LASF167
 2787 04df 04       		.byte	0x4
 2788 04e0 CB01     		.2byte	0x1cb
 2789 04e2 77000000 		.4byte	0x77
 2790 04e6 06       		.byte	0x6
 2791 04e7 00       		.byte	0
 2792 04e8 04       		.uleb128 0x4
 2793 04e9 CD060000 		.4byte	.LASF168
 2794 04ed 04       		.byte	0x4
 2795 04ee CD01     		.2byte	0x1cd
 2796 04f0 B7040000 		.4byte	0x4b7
 2797 04f4 0E       		.uleb128 0xe
 2798 04f5 0C       		.byte	0xc
 2799 04f6 04       		.byte	0x4
 2800 04f7 D001     		.2byte	0x1d0
 2801 04f9 18050000 		.4byte	0x518
 2802 04fd 0F       		.uleb128 0xf
 2803 04fe 82300000 		.4byte	.LASF169
 2804 0502 04       		.byte	0x4
 2805 0503 D301     		.2byte	0x1d3
 2806 0505 E8040000 		.4byte	0x4e8
 2807 0509 00       		.byte	0
 2808 050a 0F       		.uleb128 0xf
 2809 050b 20260000 		.4byte	.LASF170
 2810 050f 04       		.byte	0x4
 2811 0510 D601     		.2byte	0x1d6
 2812 0512 7B040000 		.4byte	0x47b
 2813 0516 08       		.byte	0x8
 2814 0517 00       		.byte	0
 2815 0518 04       		.uleb128 0x4
 2816 0519 800D0000 		.4byte	.LASF171
 2817 051d 04       		.byte	0x4
 2818 051e D801     		.2byte	0x1d8
 2819 0520 F4040000 		.4byte	0x4f4
ARM GAS  C:\Users\puria\AppData\Local\Temp\cc07Gu7s.s 			page 65


 2820 0524 11       		.uleb128 0x11
 2821 0525 D1000000 		.4byte	.LASF172
 2822 0529 05       		.byte	0x5
 2823 052a 34       		.byte	0x34
 2824 052b 18050000 		.4byte	0x518
 2825 052f 12       		.uleb128 0x12
 2826 0530 10       		.byte	0x10
 2827 0531 05       		.byte	0x5
 2828 0532 8A       		.byte	0x8a
 2829 0533 50050000 		.4byte	0x550
 2830 0537 13       		.uleb128 0x13
 2831 0538 4C320000 		.4byte	.LASF173
 2832 053c 05       		.byte	0x5
 2833 053d 8D       		.byte	0x8d
 2834 053e AB040000 		.4byte	0x4ab
 2835 0542 00       		.byte	0
 2836 0543 13       		.uleb128 0x13
 2837 0544 25370000 		.4byte	.LASF174
 2838 0548 05       		.byte	0x5
 2839 0549 90       		.byte	0x90
 2840 054a 18050000 		.4byte	0x518
 2841 054e 04       		.byte	0x4
 2842 054f 00       		.byte	0
 2843 0550 11       		.uleb128 0x11
 2844 0551 6B260000 		.4byte	.LASF175
 2845 0555 05       		.byte	0x5
 2846 0556 92       		.byte	0x92
 2847 0557 2F050000 		.4byte	0x52f
 2848 055b 12       		.uleb128 0x12
 2849 055c 08       		.byte	0x8
 2850 055d 06       		.byte	0x6
 2851 055e C8       		.byte	0xc8
 2852 055f 7C050000 		.4byte	0x57c
 2853 0563 13       		.uleb128 0x13
 2854 0564 57320000 		.4byte	.LASF176
 2855 0568 06       		.byte	0x6
 2856 0569 CB       		.byte	0xcb
 2857 056a 77000000 		.4byte	0x77
 2858 056e 00       		.byte	0
 2859 056f 13       		.uleb128 0x13
 2860 0570 51360000 		.4byte	.LASF177
 2861 0574 06       		.byte	0x6
 2862 0575 D0       		.byte	0xd0
 2863 0576 B7000000 		.4byte	0xb7
 2864 057a 04       		.byte	0x4
 2865 057b 00       		.byte	0
 2866 057c 11       		.uleb128 0x11
 2867 057d 532B0000 		.4byte	.LASF178
 2868 0581 06       		.byte	0x6
 2869 0582 D2       		.byte	0xd2
 2870 0583 5B050000 		.4byte	0x55b
 2871 0587 12       		.uleb128 0x12
 2872 0588 08       		.byte	0x8
 2873 0589 06       		.byte	0x6
 2874 058a D5       		.byte	0xd5
 2875 058b A8050000 		.4byte	0x5a8
 2876 058f 13       		.uleb128 0x13
ARM GAS  C:\Users\puria\AppData\Local\Temp\cc07Gu7s.s 			page 66


 2877 0590 08120000 		.4byte	.LASF179
 2878 0594 06       		.byte	0x6
 2879 0595 D8       		.byte	0xd8
 2880 0596 77000000 		.4byte	0x77
 2881 059a 00       		.byte	0
 2882 059b 13       		.uleb128 0x13
 2883 059c 4D370000 		.4byte	.LASF180
 2884 05a0 06       		.byte	0x6
 2885 05a1 DD       		.byte	0xdd
 2886 05a2 A8050000 		.4byte	0x5a8
 2887 05a6 04       		.byte	0x4
 2888 05a7 00       		.byte	0
 2889 05a8 07       		.uleb128 0x7
 2890 05a9 04       		.byte	0x4
 2891 05aa 7C050000 		.4byte	0x57c
 2892 05ae 11       		.uleb128 0x11
 2893 05af A5350000 		.4byte	.LASF181
 2894 05b3 06       		.byte	0x6
 2895 05b4 DF       		.byte	0xdf
 2896 05b5 87050000 		.4byte	0x587
 2897 05b9 14       		.uleb128 0x14
 2898 05ba 08       		.byte	0x8
 2899 05bb 06       		.byte	0x6
 2900 05bc E2       		.byte	0xe2
 2901 05bd D8050000 		.4byte	0x5d8
 2902 05c1 15       		.uleb128 0x15
 2903 05c2 5E370000 		.4byte	.LASF182
 2904 05c6 06       		.byte	0x6
 2905 05c7 E9       		.byte	0xe9
 2906 05c8 AE050000 		.4byte	0x5ae
 2907 05cc 15       		.uleb128 0x15
 2908 05cd 131E0000 		.4byte	.LASF183
 2909 05d1 06       		.byte	0x6
 2910 05d2 EC       		.byte	0xec
 2911 05d3 77000000 		.4byte	0x77
 2912 05d7 00       		.byte	0
 2913 05d8 11       		.uleb128 0x11
 2914 05d9 53350000 		.4byte	.LASF184
 2915 05dd 06       		.byte	0x6
 2916 05de EE       		.byte	0xee
 2917 05df B9050000 		.4byte	0x5b9
 2918 05e3 12       		.uleb128 0x12
 2919 05e4 14       		.byte	0x14
 2920 05e5 06       		.byte	0x6
 2921 05e6 F1       		.byte	0xf1
 2922 05e7 2B060000 		.4byte	0x62b
 2923 05eb 13       		.uleb128 0x13
 2924 05ec B3100000 		.4byte	.LASF185
 2925 05f0 06       		.byte	0x6
 2926 05f1 F4       		.byte	0xf4
 2927 05f2 77000000 		.4byte	0x77
 2928 05f6 00       		.byte	0
 2929 05f7 13       		.uleb128 0x13
 2930 05f8 9F0D0000 		.4byte	.LASF186
 2931 05fc 06       		.byte	0x6
 2932 05fd FA       		.byte	0xfa
 2933 05fe 77000000 		.4byte	0x77
ARM GAS  C:\Users\puria\AppData\Local\Temp\cc07Gu7s.s 			page 67


 2934 0602 02       		.byte	0x2
 2935 0603 0F       		.uleb128 0xf
 2936 0604 03070000 		.4byte	.LASF187
 2937 0608 06       		.byte	0x6
 2938 0609 0501     		.2byte	0x105
 2939 060b 83000000 		.4byte	0x83
 2940 060f 04       		.byte	0x4
 2941 0610 0F       		.uleb128 0xf
 2942 0611 B5260000 		.4byte	.LASF188
 2943 0615 06       		.byte	0x6
 2944 0616 0801     		.2byte	0x108
 2945 0618 77000000 		.4byte	0x77
 2946 061c 08       		.byte	0x8
 2947 061d 0F       		.uleb128 0xf
 2948 061e C8300000 		.4byte	.LASF189
 2949 0622 06       		.byte	0x6
 2950 0623 1101     		.2byte	0x111
 2951 0625 D8050000 		.4byte	0x5d8
 2952 0629 0C       		.byte	0xc
 2953 062a 00       		.byte	0
 2954 062b 04       		.uleb128 0x4
 2955 062c 7A150000 		.4byte	.LASF190
 2956 0630 06       		.byte	0x6
 2957 0631 1201     		.2byte	0x112
 2958 0633 E3050000 		.4byte	0x5e3
 2959 0637 04       		.uleb128 0x4
 2960 0638 BD070000 		.4byte	.LASF191
 2961 063c 07       		.byte	0x7
 2962 063d 0102     		.2byte	0x201
 2963 063f B9000000 		.4byte	0xb9
 2964 0643 07       		.uleb128 0x7
 2965 0644 04       		.byte	0x4
 2966 0645 E8040000 		.4byte	0x4e8
 2967 0649 0D       		.uleb128 0xd
 2968 064a 01       		.byte	0x1
 2969 064b 2C000000 		.4byte	0x2c
 2970 064f 08       		.byte	0x8
 2971 0650 22       		.byte	0x22
 2972 0651 92060000 		.4byte	0x692
 2973 0655 0B       		.uleb128 0xb
 2974 0656 E82E0000 		.4byte	.LASF192
 2975 065a 00       		.byte	0
 2976 065b 0B       		.uleb128 0xb
 2977 065c 3E150000 		.4byte	.LASF193
 2978 0660 01       		.byte	0x1
 2979 0661 0B       		.uleb128 0xb
 2980 0662 DD1E0000 		.4byte	.LASF194
 2981 0666 02       		.byte	0x2
 2982 0667 0B       		.uleb128 0xb
 2983 0668 150C0000 		.4byte	.LASF195
 2984 066c 03       		.byte	0x3
 2985 066d 0B       		.uleb128 0xb
 2986 066e 01080000 		.4byte	.LASF196
 2987 0672 04       		.byte	0x4
 2988 0673 0B       		.uleb128 0xb
 2989 0674 A4140000 		.4byte	.LASF197
 2990 0678 05       		.byte	0x5
ARM GAS  C:\Users\puria\AppData\Local\Temp\cc07Gu7s.s 			page 68


 2991 0679 0B       		.uleb128 0xb
 2992 067a E5150000 		.4byte	.LASF198
 2993 067e 06       		.byte	0x6
 2994 067f 0B       		.uleb128 0xb
 2995 0680 58270000 		.4byte	.LASF199
 2996 0684 07       		.byte	0x7
 2997 0685 0B       		.uleb128 0xb
 2998 0686 D2210000 		.4byte	.LASF200
 2999 068a 08       		.byte	0x8
 3000 068b 0B       		.uleb128 0xb
 3001 068c 91000000 		.4byte	.LASF201
 3002 0690 09       		.byte	0x9
 3003 0691 00       		.byte	0
 3004 0692 0D       		.uleb128 0xd
 3005 0693 01       		.byte	0x1
 3006 0694 2C000000 		.4byte	0x2c
 3007 0698 09       		.byte	0x9
 3008 0699 4E       		.byte	0x4e
 3009 069a E1060000 		.4byte	0x6e1
 3010 069e 0B       		.uleb128 0xb
 3011 069f 573D0000 		.4byte	.LASF202
 3012 06a3 00       		.byte	0
 3013 06a4 0B       		.uleb128 0xb
 3014 06a5 3E200000 		.4byte	.LASF203
 3015 06a9 01       		.byte	0x1
 3016 06aa 0B       		.uleb128 0xb
 3017 06ab BA1F0000 		.4byte	.LASF204
 3018 06af 02       		.byte	0x2
 3019 06b0 0B       		.uleb128 0xb
 3020 06b1 20090000 		.4byte	.LASF205
 3021 06b5 03       		.byte	0x3
 3022 06b6 0B       		.uleb128 0xb
 3023 06b7 452D0000 		.4byte	.LASF206
 3024 06bb 04       		.byte	0x4
 3025 06bc 0B       		.uleb128 0xb
 3026 06bd 2E320000 		.4byte	.LASF207
 3027 06c1 05       		.byte	0x5
 3028 06c2 0B       		.uleb128 0xb
 3029 06c3 6B350000 		.4byte	.LASF208
 3030 06c7 06       		.byte	0x6
 3031 06c8 0B       		.uleb128 0xb
 3032 06c9 133C0000 		.4byte	.LASF209
 3033 06cd 07       		.byte	0x7
 3034 06ce 0B       		.uleb128 0xb
 3035 06cf 8C210000 		.4byte	.LASF210
 3036 06d3 07       		.byte	0x7
 3037 06d4 0B       		.uleb128 0xb
 3038 06d5 633E0000 		.4byte	.LASF211
 3039 06d9 07       		.byte	0x7
 3040 06da 0B       		.uleb128 0xb
 3041 06db DE400000 		.4byte	.LASF212
 3042 06df 08       		.byte	0x8
 3043 06e0 00       		.byte	0
 3044 06e1 11       		.uleb128 0x11
 3045 06e2 32120000 		.4byte	.LASF213
 3046 06e6 09       		.byte	0x9
 3047 06e7 5B       		.byte	0x5b
ARM GAS  C:\Users\puria\AppData\Local\Temp\cc07Gu7s.s 			page 69


 3048 06e8 92060000 		.4byte	0x692
 3049 06ec 0D       		.uleb128 0xd
 3050 06ed 01       		.byte	0x1
 3051 06ee 2C000000 		.4byte	0x2c
 3052 06f2 09       		.byte	0x9
 3053 06f3 5F       		.byte	0x5f
 3054 06f4 11070000 		.4byte	0x711
 3055 06f8 0B       		.uleb128 0xb
 3056 06f9 80240000 		.4byte	.LASF214
 3057 06fd 00       		.byte	0
 3058 06fe 0B       		.uleb128 0xb
 3059 06ff EA2D0000 		.4byte	.LASF215
 3060 0703 01       		.byte	0x1
 3061 0704 0B       		.uleb128 0xb
 3062 0705 893B0000 		.4byte	.LASF216
 3063 0709 02       		.byte	0x2
 3064 070a 0B       		.uleb128 0xb
 3065 070b DC180000 		.4byte	.LASF217
 3066 070f 03       		.byte	0x3
 3067 0710 00       		.byte	0
 3068 0711 11       		.uleb128 0x11
 3069 0712 D7420000 		.4byte	.LASF218
 3070 0716 09       		.byte	0x9
 3071 0717 64       		.byte	0x64
 3072 0718 EC060000 		.4byte	0x6ec
 3073 071c 12       		.uleb128 0x12
 3074 071d 06       		.byte	0x6
 3075 071e 09       		.byte	0x9
 3076 071f 7E       		.byte	0x7e
 3077 0720 49070000 		.4byte	0x749
 3078 0724 13       		.uleb128 0x13
 3079 0725 9D2A0000 		.4byte	.LASF219
 3080 0729 09       		.byte	0x9
 3081 072a 80       		.byte	0x80
 3082 072b 7B040000 		.4byte	0x47b
 3083 072f 00       		.byte	0
 3084 0730 13       		.uleb128 0x13
 3085 0731 733F0000 		.4byte	.LASF220
 3086 0735 09       		.byte	0x9
 3087 0736 81       		.byte	0x81
 3088 0737 7B040000 		.4byte	0x47b
 3089 073b 02       		.byte	0x2
 3090 073c 13       		.uleb128 0x13
 3091 073d 7B290000 		.4byte	.LASF221
 3092 0741 09       		.byte	0x9
 3093 0742 82       		.byte	0x82
 3094 0743 7B040000 		.4byte	0x47b
 3095 0747 04       		.byte	0x4
 3096 0748 00       		.byte	0
 3097 0749 11       		.uleb128 0x11
 3098 074a 95050000 		.4byte	.LASF222
 3099 074e 09       		.byte	0x9
 3100 074f 83       		.byte	0x83
 3101 0750 1C070000 		.4byte	0x71c
 3102 0754 12       		.uleb128 0x12
 3103 0755 28       		.byte	0x28
 3104 0756 09       		.byte	0x9
ARM GAS  C:\Users\puria\AppData\Local\Temp\cc07Gu7s.s 			page 70


 3105 0757 86       		.byte	0x86
 3106 0758 C9070000 		.4byte	0x7c9
 3107 075c 13       		.uleb128 0x13
 3108 075d C70C0000 		.4byte	.LASF223
 3109 0761 09       		.byte	0x9
 3110 0762 88       		.byte	0x88
 3111 0763 7B040000 		.4byte	0x47b
 3112 0767 00       		.byte	0
 3113 0768 13       		.uleb128 0x13
 3114 0769 590E0000 		.4byte	.LASF224
 3115 076d 09       		.byte	0x9
 3116 076e 89       		.byte	0x89
 3117 076f 7B040000 		.4byte	0x47b
 3118 0773 02       		.byte	0x2
 3119 0774 13       		.uleb128 0x13
 3120 0775 CF2F0000 		.4byte	.LASF225
 3121 0779 09       		.byte	0x9
 3122 077a 8A       		.byte	0x8a
 3123 077b 6B000000 		.4byte	0x6b
 3124 077f 04       		.byte	0x4
 3125 0780 13       		.uleb128 0x13
 3126 0781 71210000 		.4byte	.LASF226
 3127 0785 09       		.byte	0x9
 3128 0786 8B       		.byte	0x8b
 3129 0787 C9070000 		.4byte	0x7c9
 3130 078b 08       		.byte	0x8
 3131 078c 13       		.uleb128 0x13
 3132 078d 0F310000 		.4byte	.LASF227
 3133 0791 09       		.byte	0x9
 3134 0792 8C       		.byte	0x8c
 3135 0793 D4070000 		.4byte	0x7d4
 3136 0797 0C       		.byte	0xc
 3137 0798 13       		.uleb128 0x13
 3138 0799 203F0000 		.4byte	.LASF228
 3139 079d 09       		.byte	0x9
 3140 079e 8D       		.byte	0x8d
 3141 079f 7B040000 		.4byte	0x47b
 3142 07a3 1E       		.byte	0x1e
 3143 07a4 13       		.uleb128 0x13
 3144 07a5 681E0000 		.4byte	.LASF229
 3145 07a9 09       		.byte	0x9
 3146 07aa 8E       		.byte	0x8e
 3147 07ab 7B040000 		.4byte	0x47b
 3148 07af 20       		.byte	0x20
 3149 07b0 13       		.uleb128 0x13
 3150 07b1 70270000 		.4byte	.LASF230
 3151 07b5 09       		.byte	0x9
 3152 07b6 8F       		.byte	0x8f
 3153 07b7 7B040000 		.4byte	0x47b
 3154 07bb 22       		.byte	0x22
 3155 07bc 13       		.uleb128 0x13
 3156 07bd 1B320000 		.4byte	.LASF231
 3157 07c1 09       		.byte	0x9
 3158 07c2 90       		.byte	0x90
 3159 07c3 7B040000 		.4byte	0x47b
 3160 07c7 24       		.byte	0x24
 3161 07c8 00       		.byte	0
ARM GAS  C:\Users\puria\AppData\Local\Temp\cc07Gu7s.s 			page 71


 3162 07c9 07       		.uleb128 0x7
 3163 07ca 04       		.byte	0x4
 3164 07cb CF070000 		.4byte	0x7cf
 3165 07cf 16       		.uleb128 0x16
 3166 07d0 49070000 		.4byte	0x749
 3167 07d4 17       		.uleb128 0x17
 3168 07d5 49070000 		.4byte	0x749
 3169 07d9 E4070000 		.4byte	0x7e4
 3170 07dd 18       		.uleb128 0x18
 3171 07de B0000000 		.4byte	0xb0
 3172 07e2 02       		.byte	0x2
 3173 07e3 00       		.byte	0
 3174 07e4 11       		.uleb128 0x11
 3175 07e5 FE050000 		.4byte	.LASF232
 3176 07e9 09       		.byte	0x9
 3177 07ea 91       		.byte	0x91
 3178 07eb 54070000 		.4byte	0x754
 3179 07ef 12       		.uleb128 0x12
 3180 07f0 08       		.byte	0x8
 3181 07f1 09       		.byte	0x9
 3182 07f2 C9       		.byte	0xc9
 3183 07f3 28080000 		.4byte	0x828
 3184 07f7 13       		.uleb128 0x13
 3185 07f8 4C320000 		.4byte	.LASF173
 3186 07fc 09       		.byte	0x9
 3187 07fd CB       		.byte	0xcb
 3188 07fe AB040000 		.4byte	0x4ab
 3189 0802 00       		.byte	0
 3190 0803 13       		.uleb128 0x13
 3191 0804 A70D0000 		.4byte	.LASF233
 3192 0808 09       		.byte	0x9
 3193 0809 CC       		.byte	0xcc
 3194 080a 6B000000 		.4byte	0x6b
 3195 080e 02       		.byte	0x2
 3196 080f 13       		.uleb128 0x13
 3197 0810 71010000 		.4byte	.LASF234
 3198 0814 09       		.byte	0x9
 3199 0815 CD       		.byte	0xcd
 3200 0816 E1060000 		.4byte	0x6e1
 3201 081a 03       		.byte	0x3
 3202 081b 13       		.uleb128 0x13
 3203 081c 82300000 		.4byte	.LASF169
 3204 0820 09       		.byte	0x9
 3205 0821 CE       		.byte	0xce
 3206 0822 43060000 		.4byte	0x643
 3207 0826 04       		.byte	0x4
 3208 0827 00       		.byte	0
 3209 0828 11       		.uleb128 0x11
 3210 0829 3B2B0000 		.4byte	.LASF235
 3211 082d 09       		.byte	0x9
 3212 082e CF       		.byte	0xcf
 3213 082f EF070000 		.4byte	0x7ef
 3214 0833 0D       		.uleb128 0xd
 3215 0834 02       		.byte	0x2
 3216 0835 3A000000 		.4byte	0x3a
 3217 0839 0A       		.byte	0xa
 3218 083a B1       		.byte	0xb1
ARM GAS  C:\Users\puria\AppData\Local\Temp\cc07Gu7s.s 			page 72


 3219 083b 3C100000 		.4byte	0x103c
 3220 083f 0C       		.uleb128 0xc
 3221 0840 82280000 		.4byte	.LASF236
 3222 0844 0001     		.2byte	0x100
 3223 0846 0C       		.uleb128 0xc
 3224 0847 76400000 		.4byte	.LASF237
 3225 084b 0101     		.2byte	0x101
 3226 084d 0C       		.uleb128 0xc
 3227 084e BD0B0000 		.4byte	.LASF238
 3228 0852 0201     		.2byte	0x102
 3229 0854 0C       		.uleb128 0xc
 3230 0855 2C400000 		.4byte	.LASF239
 3231 0859 0301     		.2byte	0x103
 3232 085b 0C       		.uleb128 0xc
 3233 085c 362F0000 		.4byte	.LASF240
 3234 0860 0401     		.2byte	0x104
 3235 0862 0C       		.uleb128 0xc
 3236 0863 653B0000 		.4byte	.LASF241
 3237 0867 0501     		.2byte	0x105
 3238 0869 0C       		.uleb128 0xc
 3239 086a BD100000 		.4byte	.LASF242
 3240 086e 0601     		.2byte	0x106
 3241 0870 0C       		.uleb128 0xc
 3242 0871 A7380000 		.4byte	.LASF243
 3243 0875 0701     		.2byte	0x107
 3244 0877 0C       		.uleb128 0xc
 3245 0878 9D3E0000 		.4byte	.LASF244
 3246 087c 0801     		.2byte	0x108
 3247 087e 0C       		.uleb128 0xc
 3248 087f 49060000 		.4byte	.LASF245
 3249 0883 0901     		.2byte	0x109
 3250 0885 0C       		.uleb128 0xc
 3251 0886 74030000 		.4byte	.LASF246
 3252 088a 0A01     		.2byte	0x10a
 3253 088c 0C       		.uleb128 0xc
 3254 088d 95310000 		.4byte	.LASF247
 3255 0891 0B01     		.2byte	0x10b
 3256 0893 0C       		.uleb128 0xc
 3257 0894 E3210000 		.4byte	.LASF248
 3258 0898 0C01     		.2byte	0x10c
 3259 089a 0C       		.uleb128 0xc
 3260 089b 852D0000 		.4byte	.LASF249
 3261 089f 0D01     		.2byte	0x10d
 3262 08a1 0C       		.uleb128 0xc
 3263 08a2 43040000 		.4byte	.LASF250
 3264 08a6 0E01     		.2byte	0x10e
 3265 08a8 0C       		.uleb128 0xc
 3266 08a9 98010000 		.4byte	.LASF251
 3267 08ad 0F01     		.2byte	0x10f
 3268 08af 0C       		.uleb128 0xc
 3269 08b0 50080000 		.4byte	.LASF252
 3270 08b4 1001     		.2byte	0x110
 3271 08b6 0C       		.uleb128 0xc
 3272 08b7 6B3C0000 		.4byte	.LASF253
 3273 08bb 1101     		.2byte	0x111
 3274 08bd 0C       		.uleb128 0xc
 3275 08be 0F0E0000 		.4byte	.LASF254
ARM GAS  C:\Users\puria\AppData\Local\Temp\cc07Gu7s.s 			page 73


 3276 08c2 1201     		.2byte	0x112
 3277 08c4 0C       		.uleb128 0xc
 3278 08c5 EA420000 		.4byte	.LASF255
 3279 08c9 1301     		.2byte	0x113
 3280 08cb 0C       		.uleb128 0xc
 3281 08cc 2C300000 		.4byte	.LASF256
 3282 08d0 1401     		.2byte	0x114
 3283 08d2 0C       		.uleb128 0xc
 3284 08d3 5C0D0000 		.4byte	.LASF257
 3285 08d7 1501     		.2byte	0x115
 3286 08d9 0C       		.uleb128 0xc
 3287 08da 242E0000 		.4byte	.LASF258
 3288 08de 1601     		.2byte	0x116
 3289 08e0 0C       		.uleb128 0xc
 3290 08e1 7A310000 		.4byte	.LASF259
 3291 08e5 1701     		.2byte	0x117
 3292 08e7 0C       		.uleb128 0xc
 3293 08e8 863A0000 		.4byte	.LASF260
 3294 08ec 1801     		.2byte	0x118
 3295 08ee 0C       		.uleb128 0xc
 3296 08ef E9010000 		.4byte	.LASF261
 3297 08f3 1901     		.2byte	0x119
 3298 08f5 0C       		.uleb128 0xc
 3299 08f6 AD120000 		.4byte	.LASF262
 3300 08fa 1A01     		.2byte	0x11a
 3301 08fc 0C       		.uleb128 0xc
 3302 08fd 622C0000 		.4byte	.LASF263
 3303 0901 1B01     		.2byte	0x11b
 3304 0903 0C       		.uleb128 0xc
 3305 0904 6D370000 		.4byte	.LASF264
 3306 0908 1C01     		.2byte	0x11c
 3307 090a 0C       		.uleb128 0xc
 3308 090b 971A0000 		.4byte	.LASF265
 3309 090f 1D01     		.2byte	0x11d
 3310 0911 0C       		.uleb128 0xc
 3311 0912 5D280000 		.4byte	.LASF266
 3312 0916 1E01     		.2byte	0x11e
 3313 0918 0C       		.uleb128 0xc
 3314 0919 8E120000 		.4byte	.LASF267
 3315 091d 1F01     		.2byte	0x11f
 3316 091f 0C       		.uleb128 0xc
 3317 0920 98110000 		.4byte	.LASF268
 3318 0924 2001     		.2byte	0x120
 3319 0926 0C       		.uleb128 0xc
 3320 0927 F5310000 		.4byte	.LASF269
 3321 092b 2101     		.2byte	0x121
 3322 092d 0C       		.uleb128 0xc
 3323 092e 7E3F0000 		.4byte	.LASF270
 3324 0932 2201     		.2byte	0x122
 3325 0934 0C       		.uleb128 0xc
 3326 0935 34360000 		.4byte	.LASF271
 3327 0939 2301     		.2byte	0x123
 3328 093b 0C       		.uleb128 0xc
 3329 093c EC410000 		.4byte	.LASF272
 3330 0940 2401     		.2byte	0x124
 3331 0942 0C       		.uleb128 0xc
 3332 0943 C7250000 		.4byte	.LASF273
ARM GAS  C:\Users\puria\AppData\Local\Temp\cc07Gu7s.s 			page 74


 3333 0947 2501     		.2byte	0x125
 3334 0949 0C       		.uleb128 0xc
 3335 094a 8B160000 		.4byte	.LASF274
 3336 094e 2601     		.2byte	0x126
 3337 0950 0C       		.uleb128 0xc
 3338 0951 64380000 		.4byte	.LASF275
 3339 0955 2701     		.2byte	0x127
 3340 0957 0C       		.uleb128 0xc
 3341 0958 B2290000 		.4byte	.LASF276
 3342 095c 2801     		.2byte	0x128
 3343 095e 0C       		.uleb128 0xc
 3344 095f 4F420000 		.4byte	.LASF277
 3345 0963 2901     		.2byte	0x129
 3346 0965 0C       		.uleb128 0xc
 3347 0966 EF380000 		.4byte	.LASF278
 3348 096a 2A01     		.2byte	0x12a
 3349 096c 0C       		.uleb128 0xc
 3350 096d 17410000 		.4byte	.LASF279
 3351 0971 2B01     		.2byte	0x12b
 3352 0973 0C       		.uleb128 0xc
 3353 0974 9E1D0000 		.4byte	.LASF280
 3354 0978 2C01     		.2byte	0x12c
 3355 097a 0C       		.uleb128 0xc
 3356 097b D8200000 		.4byte	.LASF281
 3357 097f 2D01     		.2byte	0x12d
 3358 0981 0C       		.uleb128 0xc
 3359 0982 2B050000 		.4byte	.LASF282
 3360 0986 2E01     		.2byte	0x12e
 3361 0988 0C       		.uleb128 0xc
 3362 0989 A22E0000 		.4byte	.LASF283
 3363 098d 2F01     		.2byte	0x12f
 3364 098f 0C       		.uleb128 0xc
 3365 0990 441E0000 		.4byte	.LASF284
 3366 0994 3001     		.2byte	0x130
 3367 0996 0C       		.uleb128 0xc
 3368 0997 64320000 		.4byte	.LASF285
 3369 099b 3101     		.2byte	0x131
 3370 099d 0C       		.uleb128 0xc
 3371 099e 0C2D0000 		.4byte	.LASF286
 3372 09a2 3201     		.2byte	0x132
 3373 09a4 0C       		.uleb128 0xc
 3374 09a5 BF3A0000 		.4byte	.LASF287
 3375 09a9 3301     		.2byte	0x133
 3376 09ab 0C       		.uleb128 0xc
 3377 09ac E70E0000 		.4byte	.LASF288
 3378 09b0 3401     		.2byte	0x134
 3379 09b2 0C       		.uleb128 0xc
 3380 09b3 83380000 		.4byte	.LASF289
 3381 09b7 3501     		.2byte	0x135
 3382 09b9 0C       		.uleb128 0xc
 3383 09ba 6C180000 		.4byte	.LASF290
 3384 09be 3601     		.2byte	0x136
 3385 09c0 0C       		.uleb128 0xc
 3386 09c1 2C0C0000 		.4byte	.LASF291
 3387 09c5 3701     		.2byte	0x137
 3388 09c7 0C       		.uleb128 0xc
 3389 09c8 C0030000 		.4byte	.LASF292
ARM GAS  C:\Users\puria\AppData\Local\Temp\cc07Gu7s.s 			page 75


 3390 09cc 3801     		.2byte	0x138
 3391 09ce 0C       		.uleb128 0xc
 3392 09cf E4030000 		.4byte	.LASF293
 3393 09d3 3901     		.2byte	0x139
 3394 09d5 0C       		.uleb128 0xc
 3395 09d6 AF000000 		.4byte	.LASF294
 3396 09da 3A01     		.2byte	0x13a
 3397 09dc 0C       		.uleb128 0xc
 3398 09dd A00E0000 		.4byte	.LASF295
 3399 09e1 3B01     		.2byte	0x13b
 3400 09e3 0C       		.uleb128 0xc
 3401 09e4 98400000 		.4byte	.LASF296
 3402 09e8 3C01     		.2byte	0x13c
 3403 09ea 0C       		.uleb128 0xc
 3404 09eb 7F070000 		.4byte	.LASF297
 3405 09ef 3D01     		.2byte	0x13d
 3406 09f1 0C       		.uleb128 0xc
 3407 09f2 35270000 		.4byte	.LASF298
 3408 09f6 3E01     		.2byte	0x13e
 3409 09f8 0C       		.uleb128 0xc
 3410 09f9 EC350000 		.4byte	.LASF299
 3411 09fd 3F01     		.2byte	0x13f
 3412 09ff 0C       		.uleb128 0xc
 3413 0a00 C1150000 		.4byte	.LASF300
 3414 0a04 4001     		.2byte	0x140
 3415 0a06 0C       		.uleb128 0xc
 3416 0a07 CA280000 		.4byte	.LASF301
 3417 0a0b 4101     		.2byte	0x141
 3418 0a0d 0C       		.uleb128 0xc
 3419 0a0e 16180000 		.4byte	.LASF302
 3420 0a12 4201     		.2byte	0x142
 3421 0a14 0C       		.uleb128 0xc
 3422 0a15 A1070000 		.4byte	.LASF303
 3423 0a19 4301     		.2byte	0x143
 3424 0a1b 0C       		.uleb128 0xc
 3425 0a1c C2020000 		.4byte	.LASF304
 3426 0a20 4401     		.2byte	0x144
 3427 0a22 0C       		.uleb128 0xc
 3428 0a23 320A0000 		.4byte	.LASF305
 3429 0a27 4501     		.2byte	0x145
 3430 0a29 0C       		.uleb128 0xc
 3431 0a2a A4300000 		.4byte	.LASF306
 3432 0a2e 4601     		.2byte	0x146
 3433 0a30 0C       		.uleb128 0xc
 3434 0a31 33370000 		.4byte	.LASF307
 3435 0a35 4701     		.2byte	0x147
 3436 0a37 0C       		.uleb128 0xc
 3437 0a38 57090000 		.4byte	.LASF308
 3438 0a3c 4801     		.2byte	0x148
 3439 0a3e 0C       		.uleb128 0xc
 3440 0a3f ED260000 		.4byte	.LASF309
 3441 0a43 4901     		.2byte	0x149
 3442 0a45 0C       		.uleb128 0xc
 3443 0a46 BE3B0000 		.4byte	.LASF310
 3444 0a4a 4A01     		.2byte	0x14a
 3445 0a4c 0C       		.uleb128 0xc
 3446 0a4d B5220000 		.4byte	.LASF311
ARM GAS  C:\Users\puria\AppData\Local\Temp\cc07Gu7s.s 			page 76


 3447 0a51 4B01     		.2byte	0x14b
 3448 0a53 0C       		.uleb128 0xc
 3449 0a54 253C0000 		.4byte	.LASF312
 3450 0a58 4C01     		.2byte	0x14c
 3451 0a5a 0C       		.uleb128 0xc
 3452 0a5b E9090000 		.4byte	.LASF313
 3453 0a5f 4D01     		.2byte	0x14d
 3454 0a61 0C       		.uleb128 0xc
 3455 0a62 082C0000 		.4byte	.LASF314
 3456 0a66 4E01     		.2byte	0x14e
 3457 0a68 0C       		.uleb128 0xc
 3458 0a69 3D3E0000 		.4byte	.LASF315
 3459 0a6d 4F01     		.2byte	0x14f
 3460 0a6f 0C       		.uleb128 0xc
 3461 0a70 8E3C0000 		.4byte	.LASF316
 3462 0a74 5001     		.2byte	0x150
 3463 0a76 0C       		.uleb128 0xc
 3464 0a77 F0000000 		.4byte	.LASF317
 3465 0a7b 5101     		.2byte	0x151
 3466 0a7d 0C       		.uleb128 0xc
 3467 0a7e E5370000 		.4byte	.LASF318
 3468 0a82 5201     		.2byte	0x152
 3469 0a84 0C       		.uleb128 0xc
 3470 0a85 1E1F0000 		.4byte	.LASF319
 3471 0a89 5301     		.2byte	0x153
 3472 0a8b 0C       		.uleb128 0xc
 3473 0a8c 5F360000 		.4byte	.LASF320
 3474 0a90 5401     		.2byte	0x154
 3475 0a92 0C       		.uleb128 0xc
 3476 0a93 95330000 		.4byte	.LASF321
 3477 0a97 5501     		.2byte	0x155
 3478 0a99 0C       		.uleb128 0xc
 3479 0a9a 6D020000 		.4byte	.LASF322
 3480 0a9e 5601     		.2byte	0x156
 3481 0aa0 0C       		.uleb128 0xc
 3482 0aa1 A4320000 		.4byte	.LASF323
 3483 0aa5 5701     		.2byte	0x157
 3484 0aa7 0C       		.uleb128 0xc
 3485 0aa8 ED0F0000 		.4byte	.LASF324
 3486 0aac 5801     		.2byte	0x158
 3487 0aae 0C       		.uleb128 0xc
 3488 0aaf 9C0A0000 		.4byte	.LASF325
 3489 0ab3 5901     		.2byte	0x159
 3490 0ab5 0C       		.uleb128 0xc
 3491 0ab6 790A0000 		.4byte	.LASF326
 3492 0aba 5A01     		.2byte	0x15a
 3493 0abc 0C       		.uleb128 0xc
 3494 0abd C90F0000 		.4byte	.LASF327
 3495 0ac1 5B01     		.2byte	0x15b
 3496 0ac3 0C       		.uleb128 0xc
 3497 0ac4 71200000 		.4byte	.LASF328
 3498 0ac8 5C01     		.2byte	0x15c
 3499 0aca 0C       		.uleb128 0xc
 3500 0acb B33F0000 		.4byte	.LASF329
 3501 0acf 5D01     		.2byte	0x15d
 3502 0ad1 0C       		.uleb128 0xc
 3503 0ad2 DD140000 		.4byte	.LASF330
ARM GAS  C:\Users\puria\AppData\Local\Temp\cc07Gu7s.s 			page 77


 3504 0ad6 5E01     		.2byte	0x15e
 3505 0ad8 0C       		.uleb128 0xc
 3506 0ad9 88300000 		.4byte	.LASF331
 3507 0add 5F01     		.2byte	0x15f
 3508 0adf 0C       		.uleb128 0xc
 3509 0ae0 C32A0000 		.4byte	.LASF332
 3510 0ae4 6001     		.2byte	0x160
 3511 0ae6 0C       		.uleb128 0xc
 3512 0ae7 28020000 		.4byte	.LASF333
 3513 0aeb 6101     		.2byte	0x161
 3514 0aed 0C       		.uleb128 0xc
 3515 0aee BA1E0000 		.4byte	.LASF334
 3516 0af2 6201     		.2byte	0x162
 3517 0af4 0C       		.uleb128 0xc
 3518 0af5 0B010000 		.4byte	.LASF335
 3519 0af9 6301     		.2byte	0x163
 3520 0afb 0C       		.uleb128 0xc
 3521 0afc 000B0000 		.4byte	.LASF336
 3522 0b00 6401     		.2byte	0x164
 3523 0b02 0C       		.uleb128 0xc
 3524 0b03 EE3C0000 		.4byte	.LASF337
 3525 0b07 6501     		.2byte	0x165
 3526 0b09 0C       		.uleb128 0xc
 3527 0b0a E7170000 		.4byte	.LASF338
 3528 0b0e 6601     		.2byte	0x166
 3529 0b10 0C       		.uleb128 0xc
 3530 0b11 F8160000 		.4byte	.LASF339
 3531 0b15 6701     		.2byte	0x167
 3532 0b17 0C       		.uleb128 0xc
 3533 0b18 E0060000 		.4byte	.LASF340
 3534 0b1c 6801     		.2byte	0x168
 3535 0b1e 0C       		.uleb128 0xc
 3536 0b1f 750B0000 		.4byte	.LASF341
 3537 0b23 6901     		.2byte	0x169
 3538 0b25 0C       		.uleb128 0xc
 3539 0b26 27240000 		.4byte	.LASF342
 3540 0b2a 6A01     		.2byte	0x16a
 3541 0b2c 0C       		.uleb128 0xc
 3542 0b2d 9F1F0000 		.4byte	.LASF343
 3543 0b31 6B01     		.2byte	0x16b
 3544 0b33 0C       		.uleb128 0xc
 3545 0b34 CF080000 		.4byte	.LASF344
 3546 0b38 6C01     		.2byte	0x16c
 3547 0b3a 0C       		.uleb128 0xc
 3548 0b3b CE070000 		.4byte	.LASF345
 3549 0b3f 6D01     		.2byte	0x16d
 3550 0b41 0C       		.uleb128 0xc
 3551 0b42 4A020000 		.4byte	.LASF346
 3552 0b46 6E01     		.2byte	0x16e
 3553 0b48 0C       		.uleb128 0xc
 3554 0b49 5A1F0000 		.4byte	.LASF347
 3555 0b4d 6F01     		.2byte	0x16f
 3556 0b4f 0C       		.uleb128 0xc
 3557 0b50 C1410000 		.4byte	.LASF348
 3558 0b54 7001     		.2byte	0x170
 3559 0b56 0C       		.uleb128 0xc
 3560 0b57 A7190000 		.4byte	.LASF349
ARM GAS  C:\Users\puria\AppData\Local\Temp\cc07Gu7s.s 			page 78


 3561 0b5b 7101     		.2byte	0x171
 3562 0b5d 0C       		.uleb128 0xc
 3563 0b5e 1E170000 		.4byte	.LASF350
 3564 0b62 7201     		.2byte	0x172
 3565 0b64 0C       		.uleb128 0xc
 3566 0b65 10270000 		.4byte	.LASF351
 3567 0b69 7301     		.2byte	0x173
 3568 0b6b 0C       		.uleb128 0xc
 3569 0b6c 97390000 		.4byte	.LASF352
 3570 0b70 7401     		.2byte	0x174
 3571 0b72 0C       		.uleb128 0xc
 3572 0b73 793E0000 		.4byte	.LASF353
 3573 0b77 7501     		.2byte	0x175
 3574 0b79 0C       		.uleb128 0xc
 3575 0b7a 21040000 		.4byte	.LASF354
 3576 0b7e 7601     		.2byte	0x176
 3577 0b80 0C       		.uleb128 0xc
 3578 0b81 A02F0000 		.4byte	.LASF355
 3579 0b85 7701     		.2byte	0x177
 3580 0b87 0C       		.uleb128 0xc
 3581 0b88 5D140000 		.4byte	.LASF356
 3582 0b8c 7801     		.2byte	0x178
 3583 0b8e 0C       		.uleb128 0xc
 3584 0b8f 7C1E0000 		.4byte	.LASF357
 3585 0b93 7901     		.2byte	0x179
 3586 0b95 0C       		.uleb128 0xc
 3587 0b96 FB2A0000 		.4byte	.LASF358
 3588 0b9a 7A01     		.2byte	0x17a
 3589 0b9c 0C       		.uleb128 0xc
 3590 0b9d FA340000 		.4byte	.LASF359
 3591 0ba1 7B01     		.2byte	0x17b
 3592 0ba3 0C       		.uleb128 0xc
 3593 0ba4 55150000 		.4byte	.LASF360
 3594 0ba8 7C01     		.2byte	0x17c
 3595 0baa 0C       		.uleb128 0xc
 3596 0bab D0240000 		.4byte	.LASF361
 3597 0baf 7D01     		.2byte	0x17d
 3598 0bb1 0C       		.uleb128 0xc
 3599 0bb2 01230000 		.4byte	.LASF362
 3600 0bb6 7E01     		.2byte	0x17e
 3601 0bb8 0C       		.uleb128 0xc
 3602 0bb9 E5270000 		.4byte	.LASF363
 3603 0bbd 7F01     		.2byte	0x17f
 3604 0bbf 0C       		.uleb128 0xc
 3605 0bc0 C6340000 		.4byte	.LASF364
 3606 0bc4 8001     		.2byte	0x180
 3607 0bc6 0C       		.uleb128 0xc
 3608 0bc7 B5240000 		.4byte	.LASF365
 3609 0bcb 8101     		.2byte	0x181
 3610 0bcd 0C       		.uleb128 0xc
 3611 0bce 37250000 		.4byte	.LASF366
 3612 0bd2 8201     		.2byte	0x182
 3613 0bd4 0C       		.uleb128 0xc
 3614 0bd5 71160000 		.4byte	.LASF367
 3615 0bd9 8301     		.2byte	0x183
 3616 0bdb 0C       		.uleb128 0xc
 3617 0bdc B40D0000 		.4byte	.LASF368
ARM GAS  C:\Users\puria\AppData\Local\Temp\cc07Gu7s.s 			page 79


 3618 0be0 8401     		.2byte	0x184
 3619 0be2 0C       		.uleb128 0xc
 3620 0be3 41380000 		.4byte	.LASF369
 3621 0be7 8501     		.2byte	0x185
 3622 0be9 0C       		.uleb128 0xc
 3623 0bea 4D1B0000 		.4byte	.LASF370
 3624 0bee 8601     		.2byte	0x186
 3625 0bf0 0C       		.uleb128 0xc
 3626 0bf1 5C0C0000 		.4byte	.LASF371
 3627 0bf5 8701     		.2byte	0x187
 3628 0bf7 0C       		.uleb128 0xc
 3629 0bf8 CD380000 		.4byte	.LASF372
 3630 0bfc 8801     		.2byte	0x188
 3631 0bfe 0C       		.uleb128 0xc
 3632 0bff 37310000 		.4byte	.LASF373
 3633 0c03 8901     		.2byte	0x189
 3634 0c05 0C       		.uleb128 0xc
 3635 0c06 042F0000 		.4byte	.LASF374
 3636 0c0a 8A01     		.2byte	0x18a
 3637 0c0c 0C       		.uleb128 0xc
 3638 0c0d 04220000 		.4byte	.LASF375
 3639 0c11 8B01     		.2byte	0x18b
 3640 0c13 0C       		.uleb128 0xc
 3641 0c14 92020000 		.4byte	.LASF376
 3642 0c18 8C01     		.2byte	0x18c
 3643 0c1a 0C       		.uleb128 0xc
 3644 0c1b CA2B0000 		.4byte	.LASF377
 3645 0c1f 8D01     		.2byte	0x18d
 3646 0c21 0C       		.uleb128 0xc
 3647 0c22 993F0000 		.4byte	.LASF378
 3648 0c26 8E01     		.2byte	0x18e
 3649 0c28 0C       		.uleb128 0xc
 3650 0c29 E13A0000 		.4byte	.LASF379
 3651 0c2d 8F01     		.2byte	0x18f
 3652 0c2f 0C       		.uleb128 0xc
 3653 0c30 B6200000 		.4byte	.LASF380
 3654 0c34 9001     		.2byte	0x190
 3655 0c36 0C       		.uleb128 0xc
 3656 0c37 4A030000 		.4byte	.LASF381
 3657 0c3b 9101     		.2byte	0x191
 3658 0c3d 0C       		.uleb128 0xc
 3659 0c3e 1E130000 		.4byte	.LASF382
 3660 0c42 9201     		.2byte	0x192
 3661 0c44 0C       		.uleb128 0xc
 3662 0c45 A93C0000 		.4byte	.LASF383
 3663 0c49 9301     		.2byte	0x193
 3664 0c4b 0C       		.uleb128 0xc
 3665 0c4c 8E420000 		.4byte	.LASF384
 3666 0c50 9401     		.2byte	0x194
 3667 0c52 0C       		.uleb128 0xc
 3668 0c53 78250000 		.4byte	.LASF385
 3669 0c57 9501     		.2byte	0x195
 3670 0c59 0C       		.uleb128 0xc
 3671 0c5a 55410000 		.4byte	.LASF386
 3672 0c5e 9601     		.2byte	0x196
 3673 0c60 0C       		.uleb128 0xc
 3674 0c61 15250000 		.4byte	.LASF387
ARM GAS  C:\Users\puria\AppData\Local\Temp\cc07Gu7s.s 			page 80


 3675 0c65 9701     		.2byte	0x197
 3676 0c67 0C       		.uleb128 0xc
 3677 0c68 E9070000 		.4byte	.LASF388
 3678 0c6c 9801     		.2byte	0x198
 3679 0c6e 0C       		.uleb128 0xc
 3680 0c6f 8A1B0000 		.4byte	.LASF389
 3681 0c73 9901     		.2byte	0x199
 3682 0c75 0C       		.uleb128 0xc
 3683 0c76 4A180000 		.4byte	.LASF390
 3684 0c7a 9A01     		.2byte	0x19a
 3685 0c7c 0C       		.uleb128 0xc
 3686 0c7d D60D0000 		.4byte	.LASF391
 3687 0c81 9B01     		.2byte	0x19b
 3688 0c83 0C       		.uleb128 0xc
 3689 0c84 B9330000 		.4byte	.LASF392
 3690 0c88 9C01     		.2byte	0x19c
 3691 0c8a 0C       		.uleb128 0xc
 3692 0c8b 561C0000 		.4byte	.LASF393
 3693 0c8f 9D01     		.2byte	0x19d
 3694 0c91 0C       		.uleb128 0xc
 3695 0c92 BA2C0000 		.4byte	.LASF394
 3696 0c96 9E01     		.2byte	0x19e
 3697 0c98 0C       		.uleb128 0xc
 3698 0c99 C5040000 		.4byte	.LASF395
 3699 0c9d 9F01     		.2byte	0x19f
 3700 0c9f 0C       		.uleb128 0xc
 3701 0ca0 D8100000 		.4byte	.LASF396
 3702 0ca4 A001     		.2byte	0x1a0
 3703 0ca6 0C       		.uleb128 0xc
 3704 0ca7 C52D0000 		.4byte	.LASF397
 3705 0cab A101     		.2byte	0x1a1
 3706 0cad 0C       		.uleb128 0xc
 3707 0cae 30180000 		.4byte	.LASF398
 3708 0cb2 A201     		.2byte	0x1a2
 3709 0cb4 0C       		.uleb128 0xc
 3710 0cb5 55200000 		.4byte	.LASF399
 3711 0cb9 A301     		.2byte	0x1a3
 3712 0cbb 0C       		.uleb128 0xc
 3713 0cbc 50220000 		.4byte	.LASF400
 3714 0cc0 A401     		.2byte	0x1a4
 3715 0cc2 0C       		.uleb128 0xc
 3716 0cc3 74390000 		.4byte	.LASF401
 3717 0cc7 A501     		.2byte	0x1a5
 3718 0cc9 0C       		.uleb128 0xc
 3719 0cca F9150000 		.4byte	.LASF402
 3720 0cce A601     		.2byte	0x1a6
 3721 0cd0 0C       		.uleb128 0xc
 3722 0cd1 58290000 		.4byte	.LASF403
 3723 0cd5 A701     		.2byte	0x1a7
 3724 0cd7 0C       		.uleb128 0xc
 3725 0cd8 F7140000 		.4byte	.LASF404
 3726 0cdc A801     		.2byte	0x1a8
 3727 0cde 0C       		.uleb128 0xc
 3728 0cdf BB1A0000 		.4byte	.LASF405
 3729 0ce3 A901     		.2byte	0x1a9
 3730 0ce5 0C       		.uleb128 0xc
 3731 0ce6 35430000 		.4byte	.LASF406
ARM GAS  C:\Users\puria\AppData\Local\Temp\cc07Gu7s.s 			page 81


 3732 0cea AA01     		.2byte	0x1aa
 3733 0cec 0C       		.uleb128 0xc
 3734 0ced 2D2C0000 		.4byte	.LASF407
 3735 0cf1 AB01     		.2byte	0x1ab
 3736 0cf3 0C       		.uleb128 0xc
 3737 0cf4 EA2C0000 		.4byte	.LASF408
 3738 0cf8 AC01     		.2byte	0x1ac
 3739 0cfa 0C       		.uleb128 0xc
 3740 0cfb 8C080000 		.4byte	.LASF409
 3741 0cff AD01     		.2byte	0x1ad
 3742 0d01 0C       		.uleb128 0xc
 3743 0d02 C4170000 		.4byte	.LASF410
 3744 0d06 AE01     		.2byte	0x1ae
 3745 0d08 0C       		.uleb128 0xc
 3746 0d09 88340000 		.4byte	.LASF411
 3747 0d0d AF01     		.2byte	0x1af
 3748 0d0f 0C       		.uleb128 0xc
 3749 0d10 D50C0000 		.4byte	.LASF412
 3750 0d14 B001     		.2byte	0x1b0
 3751 0d16 0C       		.uleb128 0xc
 3752 0d17 51000000 		.4byte	.LASF413
 3753 0d1b B101     		.2byte	0x1b1
 3754 0d1d 0C       		.uleb128 0xc
 3755 0d1e 413A0000 		.4byte	.LASF414
 3756 0d22 B201     		.2byte	0x1b2
 3757 0d24 0C       		.uleb128 0xc
 3758 0d25 7C130000 		.4byte	.LASF415
 3759 0d29 B301     		.2byte	0x1b3
 3760 0d2b 0C       		.uleb128 0xc
 3761 0d2c B3420000 		.4byte	.LASF416
 3762 0d30 B401     		.2byte	0x1b4
 3763 0d32 0C       		.uleb128 0xc
 3764 0d33 F91D0000 		.4byte	.LASF417
 3765 0d37 B501     		.2byte	0x1b5
 3766 0d39 0C       		.uleb128 0xc
 3767 0d3a 47210000 		.4byte	.LASF418
 3768 0d3e B601     		.2byte	0x1b6
 3769 0d40 0C       		.uleb128 0xc
 3770 0d41 74420000 		.4byte	.LASF419
 3771 0d45 B701     		.2byte	0x1b7
 3772 0d47 0C       		.uleb128 0xc
 3773 0d48 89360000 		.4byte	.LASF420
 3774 0d4c B801     		.2byte	0x1b8
 3775 0d4e 0C       		.uleb128 0xc
 3776 0d4f 12290000 		.4byte	.LASF421
 3777 0d53 B901     		.2byte	0x1b9
 3778 0d55 0C       		.uleb128 0xc
 3779 0d56 712B0000 		.4byte	.LASF422
 3780 0d5a BA01     		.2byte	0x1ba
 3781 0d5c 0C       		.uleb128 0xc
 3782 0d5d AA3D0000 		.4byte	.LASF423
 3783 0d61 BB01     		.2byte	0x1bb
 3784 0d63 0C       		.uleb128 0xc
 3785 0d64 AF1C0000 		.4byte	.LASF424
 3786 0d68 BC01     		.2byte	0x1bc
 3787 0d6a 0C       		.uleb128 0xc
 3788 0d6b 06090000 		.4byte	.LASF425
ARM GAS  C:\Users\puria\AppData\Local\Temp\cc07Gu7s.s 			page 82


 3789 0d6f BD01     		.2byte	0x1bd
 3790 0d71 0C       		.uleb128 0xc
 3791 0d72 21110000 		.4byte	.LASF426
 3792 0d76 BE01     		.2byte	0x1be
 3793 0d78 0C       		.uleb128 0xc
 3794 0d79 96410000 		.4byte	.LASF427
 3795 0d7d BF01     		.2byte	0x1bf
 3796 0d7f 0C       		.uleb128 0xc
 3797 0d80 A40C0000 		.4byte	.LASF428
 3798 0d84 C001     		.2byte	0x1c0
 3799 0d86 0C       		.uleb128 0xc
 3800 0d87 8C1C0000 		.4byte	.LASF429
 3801 0d8b C101     		.2byte	0x1c1
 3802 0d8d 0C       		.uleb128 0xc
 3803 0d8e 92200000 		.4byte	.LASF430
 3804 0d92 C201     		.2byte	0x1c2
 3805 0d94 0C       		.uleb128 0xc
 3806 0d95 8C3D0000 		.4byte	.LASF431
 3807 0d99 C301     		.2byte	0x1c3
 3808 0d9b 0C       		.uleb128 0xc
 3809 0d9c D3390000 		.4byte	.LASF432
 3810 0da0 C401     		.2byte	0x1c4
 3811 0da2 0C       		.uleb128 0xc
 3812 0da3 81170000 		.4byte	.LASF433
 3813 0da7 C501     		.2byte	0x1c5
 3814 0da9 0C       		.uleb128 0xc
 3815 0daa 05240000 		.4byte	.LASF434
 3816 0dae C601     		.2byte	0x1c6
 3817 0db0 0C       		.uleb128 0xc
 3818 0db1 03030000 		.4byte	.LASF435
 3819 0db5 C701     		.2byte	0x1c7
 3820 0db7 0C       		.uleb128 0xc
 3821 0db8 B6310000 		.4byte	.LASF436
 3822 0dbc C801     		.2byte	0x1c8
 3823 0dbe 0C       		.uleb128 0xc
 3824 0dbf FE030000 		.4byte	.LASF437
 3825 0dc3 C901     		.2byte	0x1c9
 3826 0dc5 0C       		.uleb128 0xc
 3827 0dc6 492E0000 		.4byte	.LASF438
 3828 0dca CA01     		.2byte	0x1ca
 3829 0dcc 0C       		.uleb128 0xc
 3830 0dcd BE0A0000 		.4byte	.LASF439
 3831 0dd1 CB01     		.2byte	0x1cb
 3832 0dd3 0C       		.uleb128 0xc
 3833 0dd4 500B0000 		.4byte	.LASF440
 3834 0dd8 CC01     		.2byte	0x1cc
 3835 0dda 0C       		.uleb128 0xc
 3836 0ddb AC340000 		.4byte	.LASF441
 3837 0ddf CD01     		.2byte	0x1cd
 3838 0de1 0C       		.uleb128 0xc
 3839 0de2 0E070000 		.4byte	.LASF442
 3840 0de6 CE01     		.2byte	0x1ce
 3841 0de8 0C       		.uleb128 0xc
 3842 0de9 D1300000 		.4byte	.LASF443
 3843 0ded CF01     		.2byte	0x1cf
 3844 0def 0C       		.uleb128 0xc
 3845 0df0 C62E0000 		.4byte	.LASF444
ARM GAS  C:\Users\puria\AppData\Local\Temp\cc07Gu7s.s 			page 83


 3846 0df4 D001     		.2byte	0x1d0
 3847 0df6 0C       		.uleb128 0xc
 3848 0df7 03190000 		.4byte	.LASF445
 3849 0dfb D101     		.2byte	0x1d1
 3850 0dfd 0C       		.uleb128 0xc
 3851 0dfe 303F0000 		.4byte	.LASF446
 3852 0e02 D201     		.2byte	0x1d2
 3853 0e04 0C       		.uleb128 0xc
 3854 0e05 BD230000 		.4byte	.LASF447
 3855 0e09 D301     		.2byte	0x1d3
 3856 0e0b 0C       		.uleb128 0xc
 3857 0e0c 622D0000 		.4byte	.LASF448
 3858 0e10 D401     		.2byte	0x1d4
 3859 0e12 0C       		.uleb128 0xc
 3860 0e13 E01C0000 		.4byte	.LASF449
 3861 0e17 D501     		.2byte	0x1d5
 3862 0e19 0C       		.uleb128 0xc
 3863 0e1a 6F330000 		.4byte	.LASF450
 3864 0e1e D601     		.2byte	0x1d6
 3865 0e20 0C       		.uleb128 0xc
 3866 0e21 9F1E0000 		.4byte	.LASF451
 3867 0e25 D701     		.2byte	0x1d7
 3868 0e27 0C       		.uleb128 0xc
 3869 0e28 051D0000 		.4byte	.LASF452
 3870 0e2c D801     		.2byte	0x1d8
 3871 0e2e 0C       		.uleb128 0xc
 3872 0e2f 5C070000 		.4byte	.LASF453
 3873 0e33 D901     		.2byte	0x1d9
 3874 0e35 0C       		.uleb128 0xc
 3875 0e36 291B0000 		.4byte	.LASF454
 3876 0e3a DA01     		.2byte	0x1da
 3877 0e3c 0C       		.uleb128 0xc
 3878 0e3d CF360000 		.4byte	.LASF455
 3879 0e41 DB01     		.2byte	0x1db
 3880 0e43 0C       		.uleb128 0xc
 3881 0e44 89320000 		.4byte	.LASF456
 3882 0e48 DC01     		.2byte	0x1dc
 3883 0e4a 0C       		.uleb128 0xc
 3884 0e4b 4A120000 		.4byte	.LASF457
 3885 0e4f DD01     		.2byte	0x1dd
 3886 0e51 0C       		.uleb128 0xc
 3887 0e52 781D0000 		.4byte	.LASF458
 3888 0e56 DE01     		.2byte	0x1de
 3889 0e58 0C       		.uleb128 0xc
 3890 0e59 0C280000 		.4byte	.LASF459
 3891 0e5d DF01     		.2byte	0x1df
 3892 0e5f 0C       		.uleb128 0xc
 3893 0e60 D31F0000 		.4byte	.LASF460
 3894 0e64 E001     		.2byte	0x1e0
 3895 0e66 0C       		.uleb128 0xc
 3896 0e67 20210000 		.4byte	.LASF461
 3897 0e6b E101     		.2byte	0x1e1
 3898 0e6d 0C       		.uleb128 0xc
 3899 0e6e 34000000 		.4byte	.LASF462
 3900 0e72 E201     		.2byte	0x1e2
 3901 0e74 0C       		.uleb128 0xc
 3902 0e75 86040000 		.4byte	.LASF463
ARM GAS  C:\Users\puria\AppData\Local\Temp\cc07Gu7s.s 			page 84


 3903 0e79 E301     		.2byte	0x1e3
 3904 0e7b 0C       		.uleb128 0xc
 3905 0e7c 741A0000 		.4byte	.LASF464
 3906 0e80 E401     		.2byte	0x1e4
 3907 0e82 0C       		.uleb128 0xc
 3908 0e83 550A0000 		.4byte	.LASF465
 3909 0e87 E501     		.2byte	0x1e5
 3910 0e89 0C       		.uleb128 0xc
 3911 0e8a 2E010000 		.4byte	.LASF466
 3912 0e8e E601     		.2byte	0x1e6
 3913 0e90 0C       		.uleb128 0xc
 3914 0e91 FB200000 		.4byte	.LASF467
 3915 0e95 E701     		.2byte	0x1e7
 3916 0e97 0C       		.uleb128 0xc
 3917 0e98 2A420000 		.4byte	.LASF468
 3918 0e9c E801     		.2byte	0x1e8
 3919 0e9e 0C       		.uleb128 0xc
 3920 0e9f 0B1C0000 		.4byte	.LASF469
 3921 0ea3 E901     		.2byte	0x1e9
 3922 0ea5 0C       		.uleb128 0xc
 3923 0ea6 7A0F0000 		.4byte	.LASF470
 3924 0eaa EA01     		.2byte	0x1ea
 3925 0eac 0C       		.uleb128 0xc
 3926 0ead 42170000 		.4byte	.LASF471
 3927 0eb1 EB01     		.2byte	0x1eb
 3928 0eb3 0C       		.uleb128 0xc
 3929 0eb4 922C0000 		.4byte	.LASF472
 3930 0eb8 EC01     		.2byte	0x1ec
 3931 0eba 0C       		.uleb128 0xc
 3932 0ebb 6B040000 		.4byte	.LASF473
 3933 0ebf ED01     		.2byte	0x1ed
 3934 0ec1 0C       		.uleb128 0xc
 3935 0ec2 88350000 		.4byte	.LASF474
 3936 0ec6 EE01     		.2byte	0x1ee
 3937 0ec8 0C       		.uleb128 0xc
 3938 0ec9 12100000 		.4byte	.LASF475
 3939 0ecd EF01     		.2byte	0x1ef
 3940 0ecf 0C       		.uleb128 0xc
 3941 0ed0 F71F0000 		.4byte	.LASF476
 3942 0ed4 F001     		.2byte	0x1f0
 3943 0ed6 0C       		.uleb128 0xc
 3944 0ed7 B0160000 		.4byte	.LASF477
 3945 0edb F101     		.2byte	0x1f1
 3946 0edd 0C       		.uleb128 0xc
 3947 0ede 123D0000 		.4byte	.LASF478
 3948 0ee2 F201     		.2byte	0x1f2
 3949 0ee4 0C       		.uleb128 0xc
 3950 0ee5 9B030000 		.4byte	.LASF479
 3951 0ee9 F301     		.2byte	0x1f3
 3952 0eeb 0C       		.uleb128 0xc
 3953 0eec 52010000 		.4byte	.LASF480
 3954 0ef0 F401     		.2byte	0x1f4
 3955 0ef2 0C       		.uleb128 0xc
 3956 0ef3 9F130000 		.4byte	.LASF481
 3957 0ef7 F501     		.2byte	0x1f5
 3958 0ef9 0C       		.uleb128 0xc
 3959 0efa FC100000 		.4byte	.LASF482
ARM GAS  C:\Users\puria\AppData\Local\Temp\cc07Gu7s.s 			page 85


 3960 0efe F601     		.2byte	0x1f6
 3961 0f00 0C       		.uleb128 0xc
 3962 0f01 BF270000 		.4byte	.LASF483
 3963 0f05 F701     		.2byte	0x1f7
 3964 0f07 0C       		.uleb128 0xc
 3965 0f08 263B0000 		.4byte	.LASF484
 3966 0f0c F801     		.2byte	0x1f8
 3967 0f0e 0C       		.uleb128 0xc
 3968 0f0f F8240000 		.4byte	.LASF485
 3969 0f13 F901     		.2byte	0x1f9
 3970 0f15 0C       		.uleb128 0xc
 3971 0f16 64340000 		.4byte	.LASF486
 3972 0f1a FA01     		.2byte	0x1fa
 3973 0f1c 0C       		.uleb128 0xc
 3974 0f1d DE110000 		.4byte	.LASF487
 3975 0f21 FB01     		.2byte	0x1fb
 3976 0f23 0C       		.uleb128 0xc
 3977 0f24 07050000 		.4byte	.LASF488
 3978 0f28 FC01     		.2byte	0x1fc
 3979 0f2a 0C       		.uleb128 0xc
 3980 0f2b 3F340000 		.4byte	.LASF489
 3981 0f2f FD01     		.2byte	0x1fd
 3982 0f31 0C       		.uleb128 0xc
 3983 0f32 16120000 		.4byte	.LASF490
 3984 0f36 FE01     		.2byte	0x1fe
 3985 0f38 0C       		.uleb128 0xc
 3986 0f39 B0210000 		.4byte	.LASF491
 3987 0f3d FF01     		.2byte	0x1ff
 3988 0f3f 0C       		.uleb128 0xc
 3989 0f40 C8320000 		.4byte	.LASF492
 3990 0f44 0002     		.2byte	0x200
 3991 0f46 0C       		.uleb128 0xc
 3992 0f47 D4160000 		.4byte	.LASF493
 3993 0f4b 0102     		.2byte	0x201
 3994 0f4d 0C       		.uleb128 0xc
 3995 0f4e B1390000 		.4byte	.LASF494
 3996 0f52 0202     		.2byte	0x202
 3997 0f54 0C       		.uleb128 0xc
 3998 0f55 81140000 		.4byte	.LASF495
 3999 0f59 0302     		.2byte	0x203
 4000 0f5b 0C       		.uleb128 0xc
 4001 0f5c 990B0000 		.4byte	.LASF496
 4002 0f60 0402     		.2byte	0x204
 4003 0f62 0C       		.uleb128 0xc
 4004 0f63 002E0000 		.4byte	.LASF497
 4005 0f67 0502     		.2byte	0x205
 4006 0f69 0C       		.uleb128 0xc
 4007 0f6a 82190000 		.4byte	.LASF498
 4008 0f6e 0602     		.2byte	0x206
 4009 0f70 0C       		.uleb128 0xc
 4010 0f71 430D0000 		.4byte	.LASF499
 4011 0f75 0702     		.2byte	0x207
 4012 0f77 0C       		.uleb128 0xc
 4013 0f78 5A1A0000 		.4byte	.LASF500
 4014 0f7c 0802     		.2byte	0x208
 4015 0f7e 0C       		.uleb128 0xc
 4016 0f7f EC080000 		.4byte	.LASF501
ARM GAS  C:\Users\puria\AppData\Local\Temp\cc07Gu7s.s 			page 86


 4017 0f83 0902     		.2byte	0x209
 4018 0f85 0C       		.uleb128 0xc
 4019 0f86 2B260000 		.4byte	.LASF502
 4020 0f8a 0A02     		.2byte	0x20a
 4021 0f8c 0C       		.uleb128 0xc
 4022 0f8d 12000000 		.4byte	.LASF503
 4023 0f91 0B02     		.2byte	0x20b
 4024 0f93 0C       		.uleb128 0xc
 4025 0f94 072A0000 		.4byte	.LASF504
 4026 0f98 0C02     		.2byte	0x20c
 4027 0f9a 0C       		.uleb128 0xc
 4028 0f9b 633A0000 		.4byte	.LASF505
 4029 0f9f 0D02     		.2byte	0x20d
 4030 0fa1 0C       		.uleb128 0xc
 4031 0fa2 A1040000 		.4byte	.LASF506
 4032 0fa6 0E02     		.2byte	0x20e
 4033 0fa8 0C       		.uleb128 0xc
 4034 0fa9 12330000 		.4byte	.LASF507
 4035 0fad 0F02     		.2byte	0x20f
 4036 0faf 0C       		.uleb128 0xc
 4037 0fb0 6B230000 		.4byte	.LASF508
 4038 0fb4 1002     		.2byte	0x210
 4039 0fb6 0C       		.uleb128 0xc
 4040 0fb7 8B150000 		.4byte	.LASF509
 4041 0fbb 1102     		.2byte	0x211
 4042 0fbd 0C       		.uleb128 0xc
 4043 0fbe 551D0000 		.4byte	.LASF510
 4044 0fc2 1202     		.2byte	0x212
 4045 0fc4 0C       		.uleb128 0xc
 4046 0fc5 50100000 		.4byte	.LASF511
 4047 0fc9 1302     		.2byte	0x213
 4048 0fcb 0C       		.uleb128 0xc
 4049 0fcc 10430000 		.4byte	.LASF512
 4050 0fd0 1402     		.2byte	0x214
 4051 0fd2 0C       		.uleb128 0xc
 4052 0fd3 66170000 		.4byte	.LASF513
 4053 0fd7 1502     		.2byte	0x215
 4054 0fd9 0C       		.uleb128 0xc
 4055 0fda 7B010000 		.4byte	.LASF514
 4056 0fde 1602     		.2byte	0x216
 4057 0fe0 0C       		.uleb128 0xc
 4058 0fe1 2A2A0000 		.4byte	.LASF515
 4059 0fe5 1702     		.2byte	0x217
 4060 0fe7 0C       		.uleb128 0xc
 4061 0fe8 47260000 		.4byte	.LASF516
 4062 0fec 1802     		.2byte	0x218
 4063 0fee 0C       		.uleb128 0xc
 4064 0fef B9180000 		.4byte	.LASF517
 4065 0ff3 1902     		.2byte	0x219
 4066 0ff5 0C       		.uleb128 0xc
 4067 0ff6 10360000 		.4byte	.LASF518
 4068 0ffa 1A02     		.2byte	0x21a
 4069 0ffc 0C       		.uleb128 0xc
 4070 0ffd F23D0000 		.4byte	.LASF519
 4071 1001 1B02     		.2byte	0x21b
 4072 1003 0C       		.uleb128 0xc
 4073 1004 06020000 		.4byte	.LASF520
ARM GAS  C:\Users\puria\AppData\Local\Temp\cc07Gu7s.s 			page 87


 4074 1008 1C02     		.2byte	0x21c
 4075 100a 0C       		.uleb128 0xc
 4076 100b 35290000 		.4byte	.LASF521
 4077 100f 1D02     		.2byte	0x21d
 4078 1011 0C       		.uleb128 0xc
 4079 1012 17140000 		.4byte	.LASF522
 4080 1016 1E02     		.2byte	0x21e
 4081 1018 0C       		.uleb128 0xc
 4082 1019 1D160000 		.4byte	.LASF523
 4083 101d 1F02     		.2byte	0x21f
 4084 101f 0C       		.uleb128 0xc
 4085 1020 BC400000 		.4byte	.LASF524
 4086 1024 2002     		.2byte	0x220
 4087 1026 0C       		.uleb128 0xc
 4088 1027 2D100000 		.4byte	.LASF525
 4089 102b 2102     		.2byte	0x221
 4090 102d 0C       		.uleb128 0xc
 4091 102e C30E0000 		.4byte	.LASF526
 4092 1032 2202     		.2byte	0x222
 4093 1034 0C       		.uleb128 0xc
 4094 1035 942B0000 		.4byte	.LASF527
 4095 1039 00E0     		.2byte	0xe000
 4096 103b 00       		.byte	0
 4097 103c 0A       		.uleb128 0xa
 4098 103d 01       		.byte	0x1
 4099 103e 2C000000 		.4byte	0x2c
 4100 1042 0A       		.byte	0xa
 4101 1043 5008     		.2byte	0x850
 4102 1045 68100000 		.4byte	0x1068
 4103 1049 0B       		.uleb128 0xb
 4104 104a 660F0000 		.4byte	.LASF528
 4105 104e 00       		.byte	0
 4106 104f 0B       		.uleb128 0xb
 4107 1050 411F0000 		.4byte	.LASF529
 4108 1054 01       		.byte	0x1
 4109 1055 0B       		.uleb128 0xb
 4110 1056 533F0000 		.4byte	.LASF530
 4111 105a 02       		.byte	0x2
 4112 105b 0B       		.uleb128 0xb
 4113 105c 79090000 		.4byte	.LASF531
 4114 1060 03       		.byte	0x3
 4115 1061 0B       		.uleb128 0xb
 4116 1062 3A350000 		.4byte	.LASF532
 4117 1066 04       		.byte	0x4
 4118 1067 00       		.byte	0
 4119 1068 04       		.uleb128 0x4
 4120 1069 282F0000 		.4byte	.LASF533
 4121 106d 0A       		.byte	0xa
 4122 106e 5E08     		.2byte	0x85e
 4123 1070 3C100000 		.4byte	0x103c
 4124 1074 19       		.uleb128 0x19
 4125 1075 7D210000 		.4byte	.LASF571
 4126 1079 01       		.byte	0x1
 4127 107a 52       		.byte	0x52
 4128 107b 00000000 		.4byte	.LFB2
 4129 107f 0A000000 		.4byte	.LFE2-.LFB2
 4130 1083 01       		.uleb128 0x1
ARM GAS  C:\Users\puria\AppData\Local\Temp\cc07Gu7s.s 			page 88


 4131 1084 9C       		.byte	0x9c
 4132 1085 1A       		.uleb128 0x1a
 4133 1086 07340000 		.4byte	.LASF557
 4134 108a 01       		.byte	0x1
 4135 108b 80       		.byte	0x80
 4136 108c 00000000 		.4byte	.LFB3
 4137 1090 1C000000 		.4byte	.LFE3-.LFB3
 4138 1094 01       		.uleb128 0x1
 4139 1095 9C       		.byte	0x9c
 4140 1096 A9100000 		.4byte	0x10a9
 4141 109a 1B       		.uleb128 0x1b
 4142 109b 4F0C0000 		.4byte	.LASF534
 4143 109f 01       		.byte	0x1
 4144 10a0 80       		.byte	0x80
 4145 10a1 37060000 		.4byte	0x637
 4146 10a5 02       		.uleb128 0x2
 4147 10a6 91       		.byte	0x91
 4148 10a7 74       		.sleb128 -12
 4149 10a8 00       		.byte	0
 4150 10a9 1C       		.uleb128 0x1c
 4151 10aa 493C0000 		.4byte	.LASF540
 4152 10ae 01       		.byte	0x1
 4153 10af A8       		.byte	0xa8
 4154 10b0 66030000 		.4byte	0x366
 4155 10b4 00000000 		.4byte	.LFB4
 4156 10b8 D4010000 		.4byte	.LFE4-.LFB4
 4157 10bc 01       		.uleb128 0x1
 4158 10bd 9C       		.byte	0x9c
 4159 10be 25110000 		.4byte	0x1125
 4160 10c2 1B       		.uleb128 0x1b
 4161 10c3 A70D0000 		.4byte	.LASF233
 4162 10c7 01       		.byte	0x1
 4163 10c8 A8       		.byte	0xa8
 4164 10c9 6B000000 		.4byte	0x6b
 4165 10cd 02       		.uleb128 0x2
 4166 10ce 91       		.byte	0x91
 4167 10cf 5F       		.sleb128 -33
 4168 10d0 1B       		.uleb128 0x1b
 4169 10d1 71010000 		.4byte	.LASF234
 4170 10d5 01       		.byte	0x1
 4171 10d6 A8       		.byte	0xa8
 4172 10d7 E1060000 		.4byte	0x6e1
 4173 10db 02       		.uleb128 0x2
 4174 10dc 91       		.byte	0x91
 4175 10dd 5E       		.sleb128 -34
 4176 10de 1B       		.uleb128 0x1b
 4177 10df 41030000 		.4byte	.LASF535
 4178 10e3 01       		.byte	0x1
 4179 10e4 A9       		.byte	0xa9
 4180 10e5 6B000000 		.4byte	0x6b
 4181 10e9 02       		.uleb128 0x2
 4182 10ea 91       		.byte	0x91
 4183 10eb 5D       		.sleb128 -35
 4184 10ec 1B       		.uleb128 0x1b
 4185 10ed 0C180000 		.4byte	.LASF536
 4186 10f1 01       		.byte	0x1
 4187 10f2 A9       		.byte	0xa9
ARM GAS  C:\Users\puria\AppData\Local\Temp\cc07Gu7s.s 			page 89


 4188 10f3 72030000 		.4byte	0x372
 4189 10f7 02       		.uleb128 0x2
 4190 10f8 91       		.byte	0x91
 4191 10f9 58       		.sleb128 -40
 4192 10fa 1D       		.uleb128 0x1d
 4193 10fb FD330000 		.4byte	.LASF537
 4194 10ff 01       		.byte	0x1
 4195 1100 AB       		.byte	0xab
 4196 1101 66030000 		.4byte	0x366
 4197 1105 02       		.uleb128 0x2
 4198 1106 91       		.byte	0x91
 4199 1107 6E       		.sleb128 -18
 4200 1108 1D       		.uleb128 0x1d
 4201 1109 B1150000 		.4byte	.LASF538
 4202 110d 01       		.byte	0x1
 4203 110e AC       		.byte	0xac
 4204 110f 7B040000 		.4byte	0x47b
 4205 1113 02       		.uleb128 0x2
 4206 1114 91       		.byte	0x91
 4207 1115 6C       		.sleb128 -20
 4208 1116 1D       		.uleb128 0x1d
 4209 1117 CD1C0000 		.4byte	.LASF539
 4210 111b 01       		.byte	0x1
 4211 111c AD       		.byte	0xad
 4212 111d 18050000 		.4byte	0x518
 4213 1121 02       		.uleb128 0x2
 4214 1122 91       		.byte	0x91
 4215 1123 60       		.sleb128 -32
 4216 1124 00       		.byte	0
 4217 1125 1E       		.uleb128 0x1e
 4218 1126 ED300000 		.4byte	.LASF541
 4219 112a 01       		.byte	0x1
 4220 112b 1201     		.2byte	0x112
 4221 112d 66030000 		.4byte	0x366
 4222 1131 00000000 		.4byte	.LFB5
 4223 1135 D4010000 		.4byte	.LFE5-.LFB5
 4224 1139 01       		.uleb128 0x1
 4225 113a 9C       		.byte	0x9c
 4226 113b A9110000 		.4byte	0x11a9
 4227 113f 1F       		.uleb128 0x1f
 4228 1140 A70D0000 		.4byte	.LASF233
 4229 1144 01       		.byte	0x1
 4230 1145 1201     		.2byte	0x112
 4231 1147 6B000000 		.4byte	0x6b
 4232 114b 02       		.uleb128 0x2
 4233 114c 91       		.byte	0x91
 4234 114d 5F       		.sleb128 -33
 4235 114e 1F       		.uleb128 0x1f
 4236 114f 71010000 		.4byte	.LASF234
 4237 1153 01       		.byte	0x1
 4238 1154 1201     		.2byte	0x112
 4239 1156 E1060000 		.4byte	0x6e1
 4240 115a 02       		.uleb128 0x2
 4241 115b 91       		.byte	0x91
 4242 115c 5E       		.sleb128 -34
 4243 115d 1F       		.uleb128 0x1f
 4244 115e 41030000 		.4byte	.LASF535
ARM GAS  C:\Users\puria\AppData\Local\Temp\cc07Gu7s.s 			page 90


 4245 1162 01       		.byte	0x1
 4246 1163 1301     		.2byte	0x113
 4247 1165 6B000000 		.4byte	0x6b
 4248 1169 02       		.uleb128 0x2
 4249 116a 91       		.byte	0x91
 4250 116b 5D       		.sleb128 -35
 4251 116c 1F       		.uleb128 0x1f
 4252 116d 0C180000 		.4byte	.LASF536
 4253 1171 01       		.byte	0x1
 4254 1172 1301     		.2byte	0x113
 4255 1174 72030000 		.4byte	0x372
 4256 1178 02       		.uleb128 0x2
 4257 1179 91       		.byte	0x91
 4258 117a 58       		.sleb128 -40
 4259 117b 20       		.uleb128 0x20
 4260 117c FD330000 		.4byte	.LASF537
 4261 1180 01       		.byte	0x1
 4262 1181 1501     		.2byte	0x115
 4263 1183 66030000 		.4byte	0x366
 4264 1187 02       		.uleb128 0x2
 4265 1188 91       		.byte	0x91
 4266 1189 6E       		.sleb128 -18
 4267 118a 20       		.uleb128 0x20
 4268 118b B1150000 		.4byte	.LASF538
 4269 118f 01       		.byte	0x1
 4270 1190 1601     		.2byte	0x116
 4271 1192 7B040000 		.4byte	0x47b
 4272 1196 02       		.uleb128 0x2
 4273 1197 91       		.byte	0x91
 4274 1198 6C       		.sleb128 -20
 4275 1199 20       		.uleb128 0x20
 4276 119a CD1C0000 		.4byte	.LASF539
 4277 119e 01       		.byte	0x1
 4278 119f 1701     		.2byte	0x117
 4279 11a1 18050000 		.4byte	0x518
 4280 11a5 02       		.uleb128 0x2
 4281 11a6 91       		.byte	0x91
 4282 11a7 60       		.sleb128 -32
 4283 11a8 00       		.byte	0
 4284 11a9 1E       		.uleb128 0x1e
 4285 11aa F4360000 		.4byte	.LASF542
 4286 11ae 01       		.byte	0x1
 4287 11af 7F01     		.2byte	0x17f
 4288 11b1 66030000 		.4byte	0x366
 4289 11b5 00000000 		.4byte	.LFB6
 4290 11b9 9C010000 		.4byte	.LFE6-.LFB6
 4291 11bd 01       		.uleb128 0x1
 4292 11be 9C       		.byte	0x9c
 4293 11bf 4B120000 		.4byte	0x124b
 4294 11c3 1F       		.uleb128 0x1f
 4295 11c4 A70D0000 		.4byte	.LASF233
 4296 11c8 01       		.byte	0x1
 4297 11c9 7F01     		.2byte	0x17f
 4298 11cb 6B000000 		.4byte	0x6b
 4299 11cf 02       		.uleb128 0x2
 4300 11d0 91       		.byte	0x91
 4301 11d1 57       		.sleb128 -41
ARM GAS  C:\Users\puria\AppData\Local\Temp\cc07Gu7s.s 			page 91


 4302 11d2 1F       		.uleb128 0x1f
 4303 11d3 71010000 		.4byte	.LASF234
 4304 11d7 01       		.byte	0x1
 4305 11d8 7F01     		.2byte	0x17f
 4306 11da E1060000 		.4byte	0x6e1
 4307 11de 02       		.uleb128 0x2
 4308 11df 91       		.byte	0x91
 4309 11e0 56       		.sleb128 -42
 4310 11e1 1F       		.uleb128 0x1f
 4311 11e2 15260000 		.4byte	.LASF543
 4312 11e6 01       		.byte	0x1
 4313 11e7 8001     		.2byte	0x180
 4314 11e9 11070000 		.4byte	0x711
 4315 11ed 02       		.uleb128 0x2
 4316 11ee 91       		.byte	0x91
 4317 11ef 55       		.sleb128 -43
 4318 11f0 1F       		.uleb128 0x1f
 4319 11f1 41030000 		.4byte	.LASF535
 4320 11f5 01       		.byte	0x1
 4321 11f6 8001     		.2byte	0x180
 4322 11f8 6B000000 		.4byte	0x6b
 4323 11fc 02       		.uleb128 0x2
 4324 11fd 91       		.byte	0x91
 4325 11fe 54       		.sleb128 -44
 4326 11ff 1F       		.uleb128 0x1f
 4327 1200 0C180000 		.4byte	.LASF536
 4328 1204 01       		.byte	0x1
 4329 1205 8001     		.2byte	0x180
 4330 1207 72030000 		.4byte	0x372
 4331 120b 02       		.uleb128 0x2
 4332 120c 91       		.byte	0x91
 4333 120d 00       		.sleb128 0
 4334 120e 20       		.uleb128 0x20
 4335 120f FD330000 		.4byte	.LASF537
 4336 1213 01       		.byte	0x1
 4337 1214 8201     		.2byte	0x182
 4338 1216 66030000 		.4byte	0x366
 4339 121a 02       		.uleb128 0x2
 4340 121b 91       		.byte	0x91
 4341 121c 6E       		.sleb128 -18
 4342 121d 20       		.uleb128 0x20
 4343 121e EB320000 		.4byte	.LASF544
 4344 1222 01       		.byte	0x1
 4345 1223 8301     		.2byte	0x183
 4346 1225 7B040000 		.4byte	0x47b
 4347 1229 02       		.uleb128 0x2
 4348 122a 91       		.byte	0x91
 4349 122b 6C       		.sleb128 -20
 4350 122c 20       		.uleb128 0x20
 4351 122d 09390000 		.4byte	.LASF545
 4352 1231 01       		.byte	0x1
 4353 1232 8401     		.2byte	0x184
 4354 1234 C9070000 		.4byte	0x7c9
 4355 1238 02       		.uleb128 0x2
 4356 1239 91       		.byte	0x91
 4357 123a 68       		.sleb128 -24
 4358 123b 20       		.uleb128 0x20
ARM GAS  C:\Users\puria\AppData\Local\Temp\cc07Gu7s.s 			page 92


 4359 123c CD1C0000 		.4byte	.LASF539
 4360 1240 01       		.byte	0x1
 4361 1241 8501     		.2byte	0x185
 4362 1243 18050000 		.4byte	0x518
 4363 1247 02       		.uleb128 0x2
 4364 1248 91       		.byte	0x91
 4365 1249 5C       		.sleb128 -36
 4366 124a 00       		.byte	0
 4367 124b 21       		.uleb128 0x21
 4368 124c 0C060000 		.4byte	.LASF572
 4369 1250 01       		.byte	0x1
 4370 1251 DA01     		.2byte	0x1da
 4371 1253 83000000 		.4byte	0x83
 4372 1257 00000000 		.4byte	.LFB7
 4373 125b 70000000 		.4byte	.LFE7-.LFB7
 4374 125f 01       		.uleb128 0x1
 4375 1260 9C       		.byte	0x9c
 4376 1261 93120000 		.4byte	0x1293
 4377 1265 1F       		.uleb128 0x1f
 4378 1266 A70D0000 		.4byte	.LASF233
 4379 126a 01       		.byte	0x1
 4380 126b DA01     		.2byte	0x1da
 4381 126d 6B000000 		.4byte	0x6b
 4382 1271 02       		.uleb128 0x2
 4383 1272 91       		.byte	0x91
 4384 1273 6F       		.sleb128 -17
 4385 1274 1F       		.uleb128 0x1f
 4386 1275 B7020000 		.4byte	.LASF546
 4387 1279 01       		.byte	0x1
 4388 127a DA01     		.2byte	0x1da
 4389 127c 93120000 		.4byte	0x1293
 4390 1280 02       		.uleb128 0x2
 4391 1281 91       		.byte	0x91
 4392 1282 68       		.sleb128 -24
 4393 1283 20       		.uleb128 0x20
 4394 1284 363D0000 		.4byte	.LASF547
 4395 1288 01       		.byte	0x1
 4396 1289 DC01     		.2byte	0x1dc
 4397 128b 83000000 		.4byte	0x83
 4398 128f 02       		.uleb128 0x2
 4399 1290 91       		.byte	0x91
 4400 1291 74       		.sleb128 -12
 4401 1292 00       		.byte	0
 4402 1293 07       		.uleb128 0x7
 4403 1294 04       		.byte	0x4
 4404 1295 99120000 		.4byte	0x1299
 4405 1299 16       		.uleb128 0x16
 4406 129a 50050000 		.4byte	0x550
 4407 129e 1E       		.uleb128 0x1e
 4408 129f D8310000 		.4byte	.LASF548
 4409 12a3 01       		.byte	0x1
 4410 12a4 0102     		.2byte	0x201
 4411 12a6 6F040000 		.4byte	0x46f
 4412 12aa 00000000 		.4byte	.LFB8
 4413 12ae 18040000 		.4byte	.LFE8-.LFB8
 4414 12b2 01       		.uleb128 0x1
 4415 12b3 9C       		.byte	0x9c
ARM GAS  C:\Users\puria\AppData\Local\Temp\cc07Gu7s.s 			page 93


 4416 12b4 3B130000 		.4byte	0x133b
 4417 12b8 1F       		.uleb128 0x1f
 4418 12b9 B7020000 		.4byte	.LASF546
 4419 12bd 01       		.byte	0x1
 4420 12be 0102     		.2byte	0x201
 4421 12c0 3B130000 		.4byte	0x133b
 4422 12c4 02       		.uleb128 0x2
 4423 12c5 91       		.byte	0x91
 4424 12c6 54       		.sleb128 -44
 4425 12c7 20       		.uleb128 0x20
 4426 12c8 953E0000 		.4byte	.LASF549
 4427 12cc 01       		.byte	0x1
 4428 12cd 0302     		.2byte	0x203
 4429 12cf 6F040000 		.4byte	0x46f
 4430 12d3 02       		.uleb128 0x2
 4431 12d4 91       		.byte	0x91
 4432 12d5 6F       		.sleb128 -17
 4433 12d6 20       		.uleb128 0x20
 4434 12d7 43110000 		.4byte	.LASF550
 4435 12db 01       		.byte	0x1
 4436 12dc 0402     		.2byte	0x204
 4437 12de 6B000000 		.4byte	0x6b
 4438 12e2 02       		.uleb128 0x2
 4439 12e3 91       		.byte	0x91
 4440 12e4 6E       		.sleb128 -18
 4441 12e5 20       		.uleb128 0x20
 4442 12e6 C32F0000 		.4byte	.LASF551
 4443 12ea 01       		.byte	0x1
 4444 12eb 0502     		.2byte	0x205
 4445 12ed 6B000000 		.4byte	0x6b
 4446 12f1 02       		.uleb128 0x2
 4447 12f2 91       		.byte	0x91
 4448 12f3 6D       		.sleb128 -19
 4449 12f4 20       		.uleb128 0x20
 4450 12f5 32340000 		.4byte	.LASF552
 4451 12f9 01       		.byte	0x1
 4452 12fa 0602     		.2byte	0x206
 4453 12fc E1060000 		.4byte	0x6e1
 4454 1300 02       		.uleb128 0x2
 4455 1301 91       		.byte	0x91
 4456 1302 6C       		.sleb128 -20
 4457 1303 20       		.uleb128 0x20
 4458 1304 320F0000 		.4byte	.LASF553
 4459 1308 01       		.byte	0x1
 4460 1309 0702     		.2byte	0x207
 4461 130b 28080000 		.4byte	0x828
 4462 130f 02       		.uleb128 0x2
 4463 1310 91       		.byte	0x91
 4464 1311 5C       		.sleb128 -36
 4465 1312 20       		.uleb128 0x20
 4466 1313 363D0000 		.4byte	.LASF547
 4467 1317 01       		.byte	0x1
 4468 1318 0802     		.2byte	0x208
 4469 131a 83000000 		.4byte	0x83
 4470 131e 02       		.uleb128 0x2
 4471 131f 91       		.byte	0x91
 4472 1320 68       		.sleb128 -24
ARM GAS  C:\Users\puria\AppData\Local\Temp\cc07Gu7s.s 			page 94


 4473 1321 22       		.uleb128 0x22
 4474 1322 74020000 		.4byte	.LBB2
 4475 1326 2C010000 		.4byte	.LBE2-.LBB2
 4476 132a 20       		.uleb128 0x20
 4477 132b 852C0000 		.4byte	.LASF554
 4478 132f 01       		.byte	0x1
 4479 1330 6102     		.2byte	0x261
 4480 1332 6B000000 		.4byte	0x6b
 4481 1336 02       		.uleb128 0x2
 4482 1337 91       		.byte	0x91
 4483 1338 67       		.sleb128 -25
 4484 1339 00       		.byte	0
 4485 133a 00       		.byte	0
 4486 133b 07       		.uleb128 0x7
 4487 133c 04       		.byte	0x4
 4488 133d 50050000 		.4byte	0x550
 4489 1341 1E       		.uleb128 0x1e
 4490 1342 1E350000 		.4byte	.LASF555
 4491 1346 01       		.byte	0x1
 4492 1347 AE02     		.2byte	0x2ae
 4493 1349 66030000 		.4byte	0x366
 4494 134d 00000000 		.4byte	.LFB9
 4495 1351 D4010000 		.4byte	.LFE9-.LFB9
 4496 1355 01       		.uleb128 0x1
 4497 1356 9C       		.byte	0x9c
 4498 1357 E3130000 		.4byte	0x13e3
 4499 135b 1F       		.uleb128 0x1f
 4500 135c 4C320000 		.4byte	.LASF173
 4501 1360 01       		.byte	0x1
 4502 1361 AE02     		.2byte	0x2ae
 4503 1363 AB040000 		.4byte	0x4ab
 4504 1367 02       		.uleb128 0x2
 4505 1368 91       		.byte	0x91
 4506 1369 4C       		.sleb128 -52
 4507 136a 1F       		.uleb128 0x1f
 4508 136b A70D0000 		.4byte	.LASF233
 4509 136f 01       		.byte	0x1
 4510 1370 AF02     		.2byte	0x2af
 4511 1372 6B000000 		.4byte	0x6b
 4512 1376 02       		.uleb128 0x2
 4513 1377 91       		.byte	0x91
 4514 1378 4B       		.sleb128 -53
 4515 1379 1F       		.uleb128 0x1f
 4516 137a 71010000 		.4byte	.LASF234
 4517 137e 01       		.byte	0x1
 4518 137f AF02     		.2byte	0x2af
 4519 1381 E1060000 		.4byte	0x6e1
 4520 1385 02       		.uleb128 0x2
 4521 1386 91       		.byte	0x91
 4522 1387 4A       		.sleb128 -54
 4523 1388 1F       		.uleb128 0x1f
 4524 1389 41030000 		.4byte	.LASF535
 4525 138d 01       		.byte	0x1
 4526 138e AF02     		.2byte	0x2af
 4527 1390 6B000000 		.4byte	0x6b
 4528 1394 02       		.uleb128 0x2
 4529 1395 91       		.byte	0x91
ARM GAS  C:\Users\puria\AppData\Local\Temp\cc07Gu7s.s 			page 95


 4530 1396 49       		.sleb128 -55
 4531 1397 1F       		.uleb128 0x1f
 4532 1398 0C180000 		.4byte	.LASF536
 4533 139c 01       		.byte	0x1
 4534 139d AF02     		.2byte	0x2af
 4535 139f 72030000 		.4byte	0x372
 4536 13a3 02       		.uleb128 0x2
 4537 13a4 91       		.byte	0x91
 4538 13a5 00       		.sleb128 0
 4539 13a6 20       		.uleb128 0x20
 4540 13a7 FD330000 		.4byte	.LASF537
 4541 13ab 01       		.byte	0x1
 4542 13ac B102     		.2byte	0x2b1
 4543 13ae 66030000 		.4byte	0x366
 4544 13b2 02       		.uleb128 0x2
 4545 13b3 91       		.byte	0x91
 4546 13b4 6E       		.sleb128 -18
 4547 13b5 20       		.uleb128 0x20
 4548 13b6 09390000 		.4byte	.LASF545
 4549 13ba 01       		.byte	0x1
 4550 13bb B202     		.2byte	0x2b2
 4551 13bd C9070000 		.4byte	0x7c9
 4552 13c1 02       		.uleb128 0x2
 4553 13c2 91       		.byte	0x91
 4554 13c3 68       		.sleb128 -24
 4555 13c4 20       		.uleb128 0x20
 4556 13c5 DE2C0000 		.4byte	.LASF556
 4557 13c9 01       		.byte	0x1
 4558 13ca B302     		.2byte	0x2b3
 4559 13cc 24050000 		.4byte	0x524
 4560 13d0 02       		.uleb128 0x2
 4561 13d1 91       		.byte	0x91
 4562 13d2 5C       		.sleb128 -36
 4563 13d3 20       		.uleb128 0x20
 4564 13d4 CD1C0000 		.4byte	.LASF539
 4565 13d8 01       		.byte	0x1
 4566 13d9 B402     		.2byte	0x2b4
 4567 13db 18050000 		.4byte	0x518
 4568 13df 02       		.uleb128 0x2
 4569 13e0 91       		.byte	0x91
 4570 13e1 50       		.sleb128 -48
 4571 13e2 00       		.byte	0
 4572 13e3 23       		.uleb128 0x23
 4573 13e4 EA040000 		.4byte	.LASF558
 4574 13e8 01       		.byte	0x1
 4575 13e9 0A03     		.2byte	0x30a
 4576 13eb 00000000 		.4byte	.LFB10
 4577 13ef 7C000000 		.4byte	.LFE10-.LFB10
 4578 13f3 01       		.uleb128 0x1
 4579 13f4 9C       		.byte	0x9c
 4580 13f5 18140000 		.4byte	0x1418
 4581 13f9 20       		.uleb128 0x20
 4582 13fa E91D0000 		.4byte	.LASF559
 4583 13fe 01       		.byte	0x1
 4584 13ff 0E03     		.2byte	0x30e
 4585 1401 6B000000 		.4byte	0x6b
 4586 1405 02       		.uleb128 0x2
ARM GAS  C:\Users\puria\AppData\Local\Temp\cc07Gu7s.s 			page 96


 4587 1406 91       		.byte	0x91
 4588 1407 76       		.sleb128 -10
 4589 1408 20       		.uleb128 0x20
 4590 1409 43110000 		.4byte	.LASF550
 4591 140d 01       		.byte	0x1
 4592 140e 0F03     		.2byte	0x30f
 4593 1410 6B000000 		.4byte	0x6b
 4594 1414 02       		.uleb128 0x2
 4595 1415 91       		.byte	0x91
 4596 1416 77       		.sleb128 -9
 4597 1417 00       		.byte	0
 4598 1418 1D       		.uleb128 0x1d
 4599 1419 6F060000 		.4byte	.LASF560
 4600 141d 01       		.byte	0x1
 4601 141e 12       		.byte	0x12
 4602 141f 37060000 		.4byte	0x637
 4603 1423 05       		.uleb128 0x5
 4604 1424 03       		.byte	0x3
 4605 1425 00000000 		.4byte	CyBle_HidsApplCallback
 4606 1429 17       		.uleb128 0x17
 4607 142a CF070000 		.4byte	0x7cf
 4608 142e 39140000 		.4byte	0x1439
 4609 1432 18       		.uleb128 0x18
 4610 1433 B0000000 		.4byte	0xb0
 4611 1437 00       		.byte	0
 4612 1438 00       		.byte	0
 4613 1439 1D       		.uleb128 0x1d
 4614 143a D6290000 		.4byte	.LASF561
 4615 143e 01       		.byte	0x1
 4616 143f 16       		.byte	0x16
 4617 1440 4A140000 		.4byte	0x144a
 4618 1444 05       		.uleb128 0x5
 4619 1445 03       		.byte	0x3
 4620 1446 00000000 		.4byte	cyBle_hids1ReportArray
 4621 144a 16       		.uleb128 0x16
 4622 144b 29140000 		.4byte	0x1429
 4623 144f 24       		.uleb128 0x24
 4624 1450 4E3B0000 		.4byte	.LASF562
 4625 1454 07       		.byte	0x7
 4626 1455 A102     		.2byte	0x2a1
 4627 1457 A4000000 		.4byte	0xa4
 4628 145b 24       		.uleb128 0x24
 4629 145c FA320000 		.4byte	.LASF563
 4630 1460 07       		.byte	0x7
 4631 1461 C002     		.2byte	0x2c0
 4632 1463 6B000000 		.4byte	0x6b
 4633 1467 24       		.uleb128 0x24
 4634 1468 00000000 		.4byte	.LASF564
 4635 146c 07       		.byte	0x7
 4636 146d C602     		.2byte	0x2c6
 4637 146f 6B000000 		.4byte	0x6b
 4638 1473 17       		.uleb128 0x17
 4639 1474 83140000 		.4byte	0x1483
 4640 1478 83140000 		.4byte	0x1483
 4641 147c 18       		.uleb128 0x18
 4642 147d B0000000 		.4byte	0xb0
 4643 1481 3E       		.byte	0x3e
ARM GAS  C:\Users\puria\AppData\Local\Temp\cc07Gu7s.s 			page 97


 4644 1482 00       		.byte	0
 4645 1483 16       		.uleb128 0x16
 4646 1484 2B060000 		.4byte	0x62b
 4647 1488 25       		.uleb128 0x25
 4648 1489 73240000 		.4byte	.LASF565
 4649 148d 0B       		.byte	0xb
 4650 148e EE       		.byte	0xee
 4651 148f 93140000 		.4byte	0x1493
 4652 1493 16       		.uleb128 0x16
 4653 1494 73140000 		.4byte	0x1473
 4654 1498 17       		.uleb128 0x17
 4655 1499 A8140000 		.4byte	0x14a8
 4656 149d A8140000 		.4byte	0x14a8
 4657 14a1 18       		.uleb128 0x18
 4658 14a2 B0000000 		.4byte	0xb0
 4659 14a6 00       		.byte	0
 4660 14a7 00       		.byte	0
 4661 14a8 16       		.uleb128 0x16
 4662 14a9 E4070000 		.4byte	0x7e4
 4663 14ad 26       		.uleb128 0x26
 4664 14ae 140D0000 		.4byte	.LASF566
 4665 14b2 01       		.byte	0x1
 4666 14b3 1E       		.byte	0x1e
 4667 14b4 BE140000 		.4byte	0x14be
 4668 14b8 05       		.uleb128 0x5
 4669 14b9 03       		.byte	0x3
 4670 14ba 00000000 		.4byte	cyBle_hidss
 4671 14be 16       		.uleb128 0x16
 4672 14bf 98140000 		.4byte	0x1498
 4673 14c3 24       		.uleb128 0x24
 4674 14c4 26340000 		.4byte	.LASF567
 4675 14c8 0A       		.byte	0xa
 4676 14c9 A90A     		.2byte	0xaa9
 4677 14cb 68100000 		.4byte	0x1068
 4678 14cf 00       		.byte	0
 4679              		.section	.debug_abbrev,"",%progbits
 4680              	.Ldebug_abbrev0:
 4681 0000 01       		.uleb128 0x1
 4682 0001 11       		.uleb128 0x11
 4683 0002 01       		.byte	0x1
 4684 0003 25       		.uleb128 0x25
 4685 0004 0E       		.uleb128 0xe
 4686 0005 13       		.uleb128 0x13
 4687 0006 0B       		.uleb128 0xb
 4688 0007 03       		.uleb128 0x3
 4689 0008 0E       		.uleb128 0xe
 4690 0009 1B       		.uleb128 0x1b
 4691 000a 0E       		.uleb128 0xe
 4692 000b 55       		.uleb128 0x55
 4693 000c 17       		.uleb128 0x17
 4694 000d 11       		.uleb128 0x11
 4695 000e 01       		.uleb128 0x1
 4696 000f 10       		.uleb128 0x10
 4697 0010 17       		.uleb128 0x17
 4698 0011 00       		.byte	0
 4699 0012 00       		.byte	0
 4700 0013 02       		.uleb128 0x2
ARM GAS  C:\Users\puria\AppData\Local\Temp\cc07Gu7s.s 			page 98


 4701 0014 24       		.uleb128 0x24
 4702 0015 00       		.byte	0
 4703 0016 0B       		.uleb128 0xb
 4704 0017 0B       		.uleb128 0xb
 4705 0018 3E       		.uleb128 0x3e
 4706 0019 0B       		.uleb128 0xb
 4707 001a 03       		.uleb128 0x3
 4708 001b 0E       		.uleb128 0xe
 4709 001c 00       		.byte	0
 4710 001d 00       		.byte	0
 4711 001e 03       		.uleb128 0x3
 4712 001f 24       		.uleb128 0x24
 4713 0020 00       		.byte	0
 4714 0021 0B       		.uleb128 0xb
 4715 0022 0B       		.uleb128 0xb
 4716 0023 3E       		.uleb128 0x3e
 4717 0024 0B       		.uleb128 0xb
 4718 0025 03       		.uleb128 0x3
 4719 0026 08       		.uleb128 0x8
 4720 0027 00       		.byte	0
 4721 0028 00       		.byte	0
 4722 0029 04       		.uleb128 0x4
 4723 002a 16       		.uleb128 0x16
 4724 002b 00       		.byte	0
 4725 002c 03       		.uleb128 0x3
 4726 002d 0E       		.uleb128 0xe
 4727 002e 3A       		.uleb128 0x3a
 4728 002f 0B       		.uleb128 0xb
 4729 0030 3B       		.uleb128 0x3b
 4730 0031 05       		.uleb128 0x5
 4731 0032 49       		.uleb128 0x49
 4732 0033 13       		.uleb128 0x13
 4733 0034 00       		.byte	0
 4734 0035 00       		.byte	0
 4735 0036 05       		.uleb128 0x5
 4736 0037 35       		.uleb128 0x35
 4737 0038 00       		.byte	0
 4738 0039 49       		.uleb128 0x49
 4739 003a 13       		.uleb128 0x13
 4740 003b 00       		.byte	0
 4741 003c 00       		.byte	0
 4742 003d 06       		.uleb128 0x6
 4743 003e 0F       		.uleb128 0xf
 4744 003f 00       		.byte	0
 4745 0040 0B       		.uleb128 0xb
 4746 0041 0B       		.uleb128 0xb
 4747 0042 00       		.byte	0
 4748 0043 00       		.byte	0
 4749 0044 07       		.uleb128 0x7
 4750 0045 0F       		.uleb128 0xf
 4751 0046 00       		.byte	0
 4752 0047 0B       		.uleb128 0xb
 4753 0048 0B       		.uleb128 0xb
 4754 0049 49       		.uleb128 0x49
 4755 004a 13       		.uleb128 0x13
 4756 004b 00       		.byte	0
 4757 004c 00       		.byte	0
ARM GAS  C:\Users\puria\AppData\Local\Temp\cc07Gu7s.s 			page 99


 4758 004d 08       		.uleb128 0x8
 4759 004e 15       		.uleb128 0x15
 4760 004f 01       		.byte	0x1
 4761 0050 27       		.uleb128 0x27
 4762 0051 19       		.uleb128 0x19
 4763 0052 01       		.uleb128 0x1
 4764 0053 13       		.uleb128 0x13
 4765 0054 00       		.byte	0
 4766 0055 00       		.byte	0
 4767 0056 09       		.uleb128 0x9
 4768 0057 05       		.uleb128 0x5
 4769 0058 00       		.byte	0
 4770 0059 49       		.uleb128 0x49
 4771 005a 13       		.uleb128 0x13
 4772 005b 00       		.byte	0
 4773 005c 00       		.byte	0
 4774 005d 0A       		.uleb128 0xa
 4775 005e 04       		.uleb128 0x4
 4776 005f 01       		.byte	0x1
 4777 0060 0B       		.uleb128 0xb
 4778 0061 0B       		.uleb128 0xb
 4779 0062 49       		.uleb128 0x49
 4780 0063 13       		.uleb128 0x13
 4781 0064 3A       		.uleb128 0x3a
 4782 0065 0B       		.uleb128 0xb
 4783 0066 3B       		.uleb128 0x3b
 4784 0067 05       		.uleb128 0x5
 4785 0068 01       		.uleb128 0x1
 4786 0069 13       		.uleb128 0x13
 4787 006a 00       		.byte	0
 4788 006b 00       		.byte	0
 4789 006c 0B       		.uleb128 0xb
 4790 006d 28       		.uleb128 0x28
 4791 006e 00       		.byte	0
 4792 006f 03       		.uleb128 0x3
 4793 0070 0E       		.uleb128 0xe
 4794 0071 1C       		.uleb128 0x1c
 4795 0072 0B       		.uleb128 0xb
 4796 0073 00       		.byte	0
 4797 0074 00       		.byte	0
 4798 0075 0C       		.uleb128 0xc
 4799 0076 28       		.uleb128 0x28
 4800 0077 00       		.byte	0
 4801 0078 03       		.uleb128 0x3
 4802 0079 0E       		.uleb128 0xe
 4803 007a 1C       		.uleb128 0x1c
 4804 007b 05       		.uleb128 0x5
 4805 007c 00       		.byte	0
 4806 007d 00       		.byte	0
 4807 007e 0D       		.uleb128 0xd
 4808 007f 04       		.uleb128 0x4
 4809 0080 01       		.byte	0x1
 4810 0081 0B       		.uleb128 0xb
 4811 0082 0B       		.uleb128 0xb
 4812 0083 49       		.uleb128 0x49
 4813 0084 13       		.uleb128 0x13
 4814 0085 3A       		.uleb128 0x3a
ARM GAS  C:\Users\puria\AppData\Local\Temp\cc07Gu7s.s 			page 100


 4815 0086 0B       		.uleb128 0xb
 4816 0087 3B       		.uleb128 0x3b
 4817 0088 0B       		.uleb128 0xb
 4818 0089 01       		.uleb128 0x1
 4819 008a 13       		.uleb128 0x13
 4820 008b 00       		.byte	0
 4821 008c 00       		.byte	0
 4822 008d 0E       		.uleb128 0xe
 4823 008e 13       		.uleb128 0x13
 4824 008f 01       		.byte	0x1
 4825 0090 0B       		.uleb128 0xb
 4826 0091 0B       		.uleb128 0xb
 4827 0092 3A       		.uleb128 0x3a
 4828 0093 0B       		.uleb128 0xb
 4829 0094 3B       		.uleb128 0x3b
 4830 0095 05       		.uleb128 0x5
 4831 0096 01       		.uleb128 0x1
 4832 0097 13       		.uleb128 0x13
 4833 0098 00       		.byte	0
 4834 0099 00       		.byte	0
 4835 009a 0F       		.uleb128 0xf
 4836 009b 0D       		.uleb128 0xd
 4837 009c 00       		.byte	0
 4838 009d 03       		.uleb128 0x3
 4839 009e 0E       		.uleb128 0xe
 4840 009f 3A       		.uleb128 0x3a
 4841 00a0 0B       		.uleb128 0xb
 4842 00a1 3B       		.uleb128 0x3b
 4843 00a2 05       		.uleb128 0x5
 4844 00a3 49       		.uleb128 0x49
 4845 00a4 13       		.uleb128 0x13
 4846 00a5 38       		.uleb128 0x38
 4847 00a6 0B       		.uleb128 0xb
 4848 00a7 00       		.byte	0
 4849 00a8 00       		.byte	0
 4850 00a9 10       		.uleb128 0x10
 4851 00aa 0D       		.uleb128 0xd
 4852 00ab 00       		.byte	0
 4853 00ac 03       		.uleb128 0x3
 4854 00ad 08       		.uleb128 0x8
 4855 00ae 3A       		.uleb128 0x3a
 4856 00af 0B       		.uleb128 0xb
 4857 00b0 3B       		.uleb128 0x3b
 4858 00b1 05       		.uleb128 0x5
 4859 00b2 49       		.uleb128 0x49
 4860 00b3 13       		.uleb128 0x13
 4861 00b4 38       		.uleb128 0x38
 4862 00b5 0B       		.uleb128 0xb
 4863 00b6 00       		.byte	0
 4864 00b7 00       		.byte	0
 4865 00b8 11       		.uleb128 0x11
 4866 00b9 16       		.uleb128 0x16
 4867 00ba 00       		.byte	0
 4868 00bb 03       		.uleb128 0x3
 4869 00bc 0E       		.uleb128 0xe
 4870 00bd 3A       		.uleb128 0x3a
 4871 00be 0B       		.uleb128 0xb
ARM GAS  C:\Users\puria\AppData\Local\Temp\cc07Gu7s.s 			page 101


 4872 00bf 3B       		.uleb128 0x3b
 4873 00c0 0B       		.uleb128 0xb
 4874 00c1 49       		.uleb128 0x49
 4875 00c2 13       		.uleb128 0x13
 4876 00c3 00       		.byte	0
 4877 00c4 00       		.byte	0
 4878 00c5 12       		.uleb128 0x12
 4879 00c6 13       		.uleb128 0x13
 4880 00c7 01       		.byte	0x1
 4881 00c8 0B       		.uleb128 0xb
 4882 00c9 0B       		.uleb128 0xb
 4883 00ca 3A       		.uleb128 0x3a
 4884 00cb 0B       		.uleb128 0xb
 4885 00cc 3B       		.uleb128 0x3b
 4886 00cd 0B       		.uleb128 0xb
 4887 00ce 01       		.uleb128 0x1
 4888 00cf 13       		.uleb128 0x13
 4889 00d0 00       		.byte	0
 4890 00d1 00       		.byte	0
 4891 00d2 13       		.uleb128 0x13
 4892 00d3 0D       		.uleb128 0xd
 4893 00d4 00       		.byte	0
 4894 00d5 03       		.uleb128 0x3
 4895 00d6 0E       		.uleb128 0xe
 4896 00d7 3A       		.uleb128 0x3a
 4897 00d8 0B       		.uleb128 0xb
 4898 00d9 3B       		.uleb128 0x3b
 4899 00da 0B       		.uleb128 0xb
 4900 00db 49       		.uleb128 0x49
 4901 00dc 13       		.uleb128 0x13
 4902 00dd 38       		.uleb128 0x38
 4903 00de 0B       		.uleb128 0xb
 4904 00df 00       		.byte	0
 4905 00e0 00       		.byte	0
 4906 00e1 14       		.uleb128 0x14
 4907 00e2 17       		.uleb128 0x17
 4908 00e3 01       		.byte	0x1
 4909 00e4 0B       		.uleb128 0xb
 4910 00e5 0B       		.uleb128 0xb
 4911 00e6 3A       		.uleb128 0x3a
 4912 00e7 0B       		.uleb128 0xb
 4913 00e8 3B       		.uleb128 0x3b
 4914 00e9 0B       		.uleb128 0xb
 4915 00ea 01       		.uleb128 0x1
 4916 00eb 13       		.uleb128 0x13
 4917 00ec 00       		.byte	0
 4918 00ed 00       		.byte	0
 4919 00ee 15       		.uleb128 0x15
 4920 00ef 0D       		.uleb128 0xd
 4921 00f0 00       		.byte	0
 4922 00f1 03       		.uleb128 0x3
 4923 00f2 0E       		.uleb128 0xe
 4924 00f3 3A       		.uleb128 0x3a
 4925 00f4 0B       		.uleb128 0xb
 4926 00f5 3B       		.uleb128 0x3b
 4927 00f6 0B       		.uleb128 0xb
 4928 00f7 49       		.uleb128 0x49
ARM GAS  C:\Users\puria\AppData\Local\Temp\cc07Gu7s.s 			page 102


 4929 00f8 13       		.uleb128 0x13
 4930 00f9 00       		.byte	0
 4931 00fa 00       		.byte	0
 4932 00fb 16       		.uleb128 0x16
 4933 00fc 26       		.uleb128 0x26
 4934 00fd 00       		.byte	0
 4935 00fe 49       		.uleb128 0x49
 4936 00ff 13       		.uleb128 0x13
 4937 0100 00       		.byte	0
 4938 0101 00       		.byte	0
 4939 0102 17       		.uleb128 0x17
 4940 0103 01       		.uleb128 0x1
 4941 0104 01       		.byte	0x1
 4942 0105 49       		.uleb128 0x49
 4943 0106 13       		.uleb128 0x13
 4944 0107 01       		.uleb128 0x1
 4945 0108 13       		.uleb128 0x13
 4946 0109 00       		.byte	0
 4947 010a 00       		.byte	0
 4948 010b 18       		.uleb128 0x18
 4949 010c 21       		.uleb128 0x21
 4950 010d 00       		.byte	0
 4951 010e 49       		.uleb128 0x49
 4952 010f 13       		.uleb128 0x13
 4953 0110 2F       		.uleb128 0x2f
 4954 0111 0B       		.uleb128 0xb
 4955 0112 00       		.byte	0
 4956 0113 00       		.byte	0
 4957 0114 19       		.uleb128 0x19
 4958 0115 2E       		.uleb128 0x2e
 4959 0116 00       		.byte	0
 4960 0117 3F       		.uleb128 0x3f
 4961 0118 19       		.uleb128 0x19
 4962 0119 03       		.uleb128 0x3
 4963 011a 0E       		.uleb128 0xe
 4964 011b 3A       		.uleb128 0x3a
 4965 011c 0B       		.uleb128 0xb
 4966 011d 3B       		.uleb128 0x3b
 4967 011e 0B       		.uleb128 0xb
 4968 011f 27       		.uleb128 0x27
 4969 0120 19       		.uleb128 0x19
 4970 0121 11       		.uleb128 0x11
 4971 0122 01       		.uleb128 0x1
 4972 0123 12       		.uleb128 0x12
 4973 0124 06       		.uleb128 0x6
 4974 0125 40       		.uleb128 0x40
 4975 0126 18       		.uleb128 0x18
 4976 0127 9742     		.uleb128 0x2117
 4977 0129 19       		.uleb128 0x19
 4978 012a 00       		.byte	0
 4979 012b 00       		.byte	0
 4980 012c 1A       		.uleb128 0x1a
 4981 012d 2E       		.uleb128 0x2e
 4982 012e 01       		.byte	0x1
 4983 012f 3F       		.uleb128 0x3f
 4984 0130 19       		.uleb128 0x19
 4985 0131 03       		.uleb128 0x3
ARM GAS  C:\Users\puria\AppData\Local\Temp\cc07Gu7s.s 			page 103


 4986 0132 0E       		.uleb128 0xe
 4987 0133 3A       		.uleb128 0x3a
 4988 0134 0B       		.uleb128 0xb
 4989 0135 3B       		.uleb128 0x3b
 4990 0136 0B       		.uleb128 0xb
 4991 0137 27       		.uleb128 0x27
 4992 0138 19       		.uleb128 0x19
 4993 0139 11       		.uleb128 0x11
 4994 013a 01       		.uleb128 0x1
 4995 013b 12       		.uleb128 0x12
 4996 013c 06       		.uleb128 0x6
 4997 013d 40       		.uleb128 0x40
 4998 013e 18       		.uleb128 0x18
 4999 013f 9742     		.uleb128 0x2117
 5000 0141 19       		.uleb128 0x19
 5001 0142 01       		.uleb128 0x1
 5002 0143 13       		.uleb128 0x13
 5003 0144 00       		.byte	0
 5004 0145 00       		.byte	0
 5005 0146 1B       		.uleb128 0x1b
 5006 0147 05       		.uleb128 0x5
 5007 0148 00       		.byte	0
 5008 0149 03       		.uleb128 0x3
 5009 014a 0E       		.uleb128 0xe
 5010 014b 3A       		.uleb128 0x3a
 5011 014c 0B       		.uleb128 0xb
 5012 014d 3B       		.uleb128 0x3b
 5013 014e 0B       		.uleb128 0xb
 5014 014f 49       		.uleb128 0x49
 5015 0150 13       		.uleb128 0x13
 5016 0151 02       		.uleb128 0x2
 5017 0152 18       		.uleb128 0x18
 5018 0153 00       		.byte	0
 5019 0154 00       		.byte	0
 5020 0155 1C       		.uleb128 0x1c
 5021 0156 2E       		.uleb128 0x2e
 5022 0157 01       		.byte	0x1
 5023 0158 3F       		.uleb128 0x3f
 5024 0159 19       		.uleb128 0x19
 5025 015a 03       		.uleb128 0x3
 5026 015b 0E       		.uleb128 0xe
 5027 015c 3A       		.uleb128 0x3a
 5028 015d 0B       		.uleb128 0xb
 5029 015e 3B       		.uleb128 0x3b
 5030 015f 0B       		.uleb128 0xb
 5031 0160 27       		.uleb128 0x27
 5032 0161 19       		.uleb128 0x19
 5033 0162 49       		.uleb128 0x49
 5034 0163 13       		.uleb128 0x13
 5035 0164 11       		.uleb128 0x11
 5036 0165 01       		.uleb128 0x1
 5037 0166 12       		.uleb128 0x12
 5038 0167 06       		.uleb128 0x6
 5039 0168 40       		.uleb128 0x40
 5040 0169 18       		.uleb128 0x18
 5041 016a 9642     		.uleb128 0x2116
 5042 016c 19       		.uleb128 0x19
ARM GAS  C:\Users\puria\AppData\Local\Temp\cc07Gu7s.s 			page 104


 5043 016d 01       		.uleb128 0x1
 5044 016e 13       		.uleb128 0x13
 5045 016f 00       		.byte	0
 5046 0170 00       		.byte	0
 5047 0171 1D       		.uleb128 0x1d
 5048 0172 34       		.uleb128 0x34
 5049 0173 00       		.byte	0
 5050 0174 03       		.uleb128 0x3
 5051 0175 0E       		.uleb128 0xe
 5052 0176 3A       		.uleb128 0x3a
 5053 0177 0B       		.uleb128 0xb
 5054 0178 3B       		.uleb128 0x3b
 5055 0179 0B       		.uleb128 0xb
 5056 017a 49       		.uleb128 0x49
 5057 017b 13       		.uleb128 0x13
 5058 017c 02       		.uleb128 0x2
 5059 017d 18       		.uleb128 0x18
 5060 017e 00       		.byte	0
 5061 017f 00       		.byte	0
 5062 0180 1E       		.uleb128 0x1e
 5063 0181 2E       		.uleb128 0x2e
 5064 0182 01       		.byte	0x1
 5065 0183 3F       		.uleb128 0x3f
 5066 0184 19       		.uleb128 0x19
 5067 0185 03       		.uleb128 0x3
 5068 0186 0E       		.uleb128 0xe
 5069 0187 3A       		.uleb128 0x3a
 5070 0188 0B       		.uleb128 0xb
 5071 0189 3B       		.uleb128 0x3b
 5072 018a 05       		.uleb128 0x5
 5073 018b 27       		.uleb128 0x27
 5074 018c 19       		.uleb128 0x19
 5075 018d 49       		.uleb128 0x49
 5076 018e 13       		.uleb128 0x13
 5077 018f 11       		.uleb128 0x11
 5078 0190 01       		.uleb128 0x1
 5079 0191 12       		.uleb128 0x12
 5080 0192 06       		.uleb128 0x6
 5081 0193 40       		.uleb128 0x40
 5082 0194 18       		.uleb128 0x18
 5083 0195 9642     		.uleb128 0x2116
 5084 0197 19       		.uleb128 0x19
 5085 0198 01       		.uleb128 0x1
 5086 0199 13       		.uleb128 0x13
 5087 019a 00       		.byte	0
 5088 019b 00       		.byte	0
 5089 019c 1F       		.uleb128 0x1f
 5090 019d 05       		.uleb128 0x5
 5091 019e 00       		.byte	0
 5092 019f 03       		.uleb128 0x3
 5093 01a0 0E       		.uleb128 0xe
 5094 01a1 3A       		.uleb128 0x3a
 5095 01a2 0B       		.uleb128 0xb
 5096 01a3 3B       		.uleb128 0x3b
 5097 01a4 05       		.uleb128 0x5
 5098 01a5 49       		.uleb128 0x49
 5099 01a6 13       		.uleb128 0x13
ARM GAS  C:\Users\puria\AppData\Local\Temp\cc07Gu7s.s 			page 105


 5100 01a7 02       		.uleb128 0x2
 5101 01a8 18       		.uleb128 0x18
 5102 01a9 00       		.byte	0
 5103 01aa 00       		.byte	0
 5104 01ab 20       		.uleb128 0x20
 5105 01ac 34       		.uleb128 0x34
 5106 01ad 00       		.byte	0
 5107 01ae 03       		.uleb128 0x3
 5108 01af 0E       		.uleb128 0xe
 5109 01b0 3A       		.uleb128 0x3a
 5110 01b1 0B       		.uleb128 0xb
 5111 01b2 3B       		.uleb128 0x3b
 5112 01b3 05       		.uleb128 0x5
 5113 01b4 49       		.uleb128 0x49
 5114 01b5 13       		.uleb128 0x13
 5115 01b6 02       		.uleb128 0x2
 5116 01b7 18       		.uleb128 0x18
 5117 01b8 00       		.byte	0
 5118 01b9 00       		.byte	0
 5119 01ba 21       		.uleb128 0x21
 5120 01bb 2E       		.uleb128 0x2e
 5121 01bc 01       		.byte	0x1
 5122 01bd 03       		.uleb128 0x3
 5123 01be 0E       		.uleb128 0xe
 5124 01bf 3A       		.uleb128 0x3a
 5125 01c0 0B       		.uleb128 0xb
 5126 01c1 3B       		.uleb128 0x3b
 5127 01c2 05       		.uleb128 0x5
 5128 01c3 27       		.uleb128 0x27
 5129 01c4 19       		.uleb128 0x19
 5130 01c5 49       		.uleb128 0x49
 5131 01c6 13       		.uleb128 0x13
 5132 01c7 11       		.uleb128 0x11
 5133 01c8 01       		.uleb128 0x1
 5134 01c9 12       		.uleb128 0x12
 5135 01ca 06       		.uleb128 0x6
 5136 01cb 40       		.uleb128 0x40
 5137 01cc 18       		.uleb128 0x18
 5138 01cd 9642     		.uleb128 0x2116
 5139 01cf 19       		.uleb128 0x19
 5140 01d0 01       		.uleb128 0x1
 5141 01d1 13       		.uleb128 0x13
 5142 01d2 00       		.byte	0
 5143 01d3 00       		.byte	0
 5144 01d4 22       		.uleb128 0x22
 5145 01d5 0B       		.uleb128 0xb
 5146 01d6 01       		.byte	0x1
 5147 01d7 11       		.uleb128 0x11
 5148 01d8 01       		.uleb128 0x1
 5149 01d9 12       		.uleb128 0x12
 5150 01da 06       		.uleb128 0x6
 5151 01db 00       		.byte	0
 5152 01dc 00       		.byte	0
 5153 01dd 23       		.uleb128 0x23
 5154 01de 2E       		.uleb128 0x2e
 5155 01df 01       		.byte	0x1
 5156 01e0 3F       		.uleb128 0x3f
ARM GAS  C:\Users\puria\AppData\Local\Temp\cc07Gu7s.s 			page 106


 5157 01e1 19       		.uleb128 0x19
 5158 01e2 03       		.uleb128 0x3
 5159 01e3 0E       		.uleb128 0xe
 5160 01e4 3A       		.uleb128 0x3a
 5161 01e5 0B       		.uleb128 0xb
 5162 01e6 3B       		.uleb128 0x3b
 5163 01e7 05       		.uleb128 0x5
 5164 01e8 27       		.uleb128 0x27
 5165 01e9 19       		.uleb128 0x19
 5166 01ea 11       		.uleb128 0x11
 5167 01eb 01       		.uleb128 0x1
 5168 01ec 12       		.uleb128 0x12
 5169 01ed 06       		.uleb128 0x6
 5170 01ee 40       		.uleb128 0x40
 5171 01ef 18       		.uleb128 0x18
 5172 01f0 9742     		.uleb128 0x2117
 5173 01f2 19       		.uleb128 0x19
 5174 01f3 01       		.uleb128 0x1
 5175 01f4 13       		.uleb128 0x13
 5176 01f5 00       		.byte	0
 5177 01f6 00       		.byte	0
 5178 01f7 24       		.uleb128 0x24
 5179 01f8 34       		.uleb128 0x34
 5180 01f9 00       		.byte	0
 5181 01fa 03       		.uleb128 0x3
 5182 01fb 0E       		.uleb128 0xe
 5183 01fc 3A       		.uleb128 0x3a
 5184 01fd 0B       		.uleb128 0xb
 5185 01fe 3B       		.uleb128 0x3b
 5186 01ff 05       		.uleb128 0x5
 5187 0200 49       		.uleb128 0x49
 5188 0201 13       		.uleb128 0x13
 5189 0202 3F       		.uleb128 0x3f
 5190 0203 19       		.uleb128 0x19
 5191 0204 3C       		.uleb128 0x3c
 5192 0205 19       		.uleb128 0x19
 5193 0206 00       		.byte	0
 5194 0207 00       		.byte	0
 5195 0208 25       		.uleb128 0x25
 5196 0209 34       		.uleb128 0x34
 5197 020a 00       		.byte	0
 5198 020b 03       		.uleb128 0x3
 5199 020c 0E       		.uleb128 0xe
 5200 020d 3A       		.uleb128 0x3a
 5201 020e 0B       		.uleb128 0xb
 5202 020f 3B       		.uleb128 0x3b
 5203 0210 0B       		.uleb128 0xb
 5204 0211 49       		.uleb128 0x49
 5205 0212 13       		.uleb128 0x13
 5206 0213 3F       		.uleb128 0x3f
 5207 0214 19       		.uleb128 0x19
 5208 0215 3C       		.uleb128 0x3c
 5209 0216 19       		.uleb128 0x19
 5210 0217 00       		.byte	0
 5211 0218 00       		.byte	0
 5212 0219 26       		.uleb128 0x26
 5213 021a 34       		.uleb128 0x34
ARM GAS  C:\Users\puria\AppData\Local\Temp\cc07Gu7s.s 			page 107


 5214 021b 00       		.byte	0
 5215 021c 03       		.uleb128 0x3
 5216 021d 0E       		.uleb128 0xe
 5217 021e 3A       		.uleb128 0x3a
 5218 021f 0B       		.uleb128 0xb
 5219 0220 3B       		.uleb128 0x3b
 5220 0221 0B       		.uleb128 0xb
 5221 0222 49       		.uleb128 0x49
 5222 0223 13       		.uleb128 0x13
 5223 0224 3F       		.uleb128 0x3f
 5224 0225 19       		.uleb128 0x19
 5225 0226 02       		.uleb128 0x2
 5226 0227 18       		.uleb128 0x18
 5227 0228 00       		.byte	0
 5228 0229 00       		.byte	0
 5229 022a 00       		.byte	0
 5230              		.section	.debug_aranges,"",%progbits
 5231 0000 5C000000 		.4byte	0x5c
 5232 0004 0200     		.2byte	0x2
 5233 0006 00000000 		.4byte	.Ldebug_info0
 5234 000a 04       		.byte	0x4
 5235 000b 00       		.byte	0
 5236 000c 0000     		.2byte	0
 5237 000e 0000     		.2byte	0
 5238 0010 00000000 		.4byte	.LFB2
 5239 0014 0A000000 		.4byte	.LFE2-.LFB2
 5240 0018 00000000 		.4byte	.LFB3
 5241 001c 1C000000 		.4byte	.LFE3-.LFB3
 5242 0020 00000000 		.4byte	.LFB4
 5243 0024 D4010000 		.4byte	.LFE4-.LFB4
 5244 0028 00000000 		.4byte	.LFB5
 5245 002c D4010000 		.4byte	.LFE5-.LFB5
 5246 0030 00000000 		.4byte	.LFB6
 5247 0034 9C010000 		.4byte	.LFE6-.LFB6
 5248 0038 00000000 		.4byte	.LFB7
 5249 003c 70000000 		.4byte	.LFE7-.LFB7
 5250 0040 00000000 		.4byte	.LFB8
 5251 0044 18040000 		.4byte	.LFE8-.LFB8
 5252 0048 00000000 		.4byte	.LFB9
 5253 004c D4010000 		.4byte	.LFE9-.LFB9
 5254 0050 00000000 		.4byte	.LFB10
 5255 0054 7C000000 		.4byte	.LFE10-.LFB10
 5256 0058 00000000 		.4byte	0
 5257 005c 00000000 		.4byte	0
 5258              		.section	.debug_ranges,"",%progbits
 5259              	.Ldebug_ranges0:
 5260 0000 00000000 		.4byte	.LFB2
 5261 0004 0A000000 		.4byte	.LFE2
 5262 0008 00000000 		.4byte	.LFB3
 5263 000c 1C000000 		.4byte	.LFE3
 5264 0010 00000000 		.4byte	.LFB4
 5265 0014 D4010000 		.4byte	.LFE4
 5266 0018 00000000 		.4byte	.LFB5
 5267 001c D4010000 		.4byte	.LFE5
 5268 0020 00000000 		.4byte	.LFB6
 5269 0024 9C010000 		.4byte	.LFE6
 5270 0028 00000000 		.4byte	.LFB7
ARM GAS  C:\Users\puria\AppData\Local\Temp\cc07Gu7s.s 			page 108


 5271 002c 70000000 		.4byte	.LFE7
 5272 0030 00000000 		.4byte	.LFB8
 5273 0034 18040000 		.4byte	.LFE8
 5274 0038 00000000 		.4byte	.LFB9
 5275 003c D4010000 		.4byte	.LFE9
 5276 0040 00000000 		.4byte	.LFB10
 5277 0044 7C000000 		.4byte	.LFE10
 5278 0048 00000000 		.4byte	0
 5279 004c 00000000 		.4byte	0
 5280              		.section	.debug_line,"",%progbits
 5281              	.Ldebug_line0:
 5282 0000 D2020000 		.section	.debug_str,"MS",%progbits,1
 5282      0200F100 
 5282      00000201 
 5282      FB0E0D00 
 5282      01010101 
 5283              	.LASF564:
 5284 0000 6379426C 		.ascii	"cyBle_peerBonding\000"
 5284      655F7065 
 5284      6572426F 
 5284      6E64696E 
 5284      6700
 5285              	.LASF503:
 5286 0012 4359424C 		.ascii	"CYBLE_EVT_UDSC_READ_CHAR_RESPONSE\000"
 5286      455F4556 
 5286      545F5544 
 5286      53435F52 
 5286      4541445F 
 5287              	.LASF462:
 5288 0034 4359424C 		.ascii	"CYBLE_EVT_PLXSC_NOTIFICATION\000"
 5288      455F4556 
 5288      545F504C 
 5288      5853435F 
 5288      4E4F5449 
 5289              	.LASF413:
 5290 0051 4359424C 		.ascii	"CYBLE_EVT_HTSS_NOTIFICATION_DISABLED\000"
 5290      455F4556 
 5290      545F4854 
 5290      53535F4E 
 5290      4F544946 
 5291              	.LASF151:
 5292 0076 4359424C 		.ascii	"CYBLE_GATT_ERR_INVALID_CRC\000"
 5292      455F4741 
 5292      54545F45 
 5292      52525F49 
 5292      4E56414C 
 5293              	.LASF201:
 5294 0091 4359424C 		.ascii	"CYBLE_DIS_CHAR_COUNT\000"
 5294      455F4449 
 5294      535F4348 
 5294      41525F43 
 5294      4F554E54 
 5295              	.LASF16:
 5296 00a6 73697A65 		.ascii	"sizetype\000"
 5296      74797065 
 5296      00
 5297              	.LASF294:
ARM GAS  C:\Users\puria\AppData\Local\Temp\cc07Gu7s.s 			page 109


 5298 00af 4359424C 		.ascii	"CYBLE_EVT_BCSC_READ_CHAR_RESPONSE\000"
 5298      455F4556 
 5298      545F4243 
 5298      53435F52 
 5298      4541445F 
 5299              	.LASF172:
 5300 00d1 4359424C 		.ascii	"CYBLE_GATTS_HANDLE_VALUE_NTF_T\000"
 5300      455F4741 
 5300      5454535F 
 5300      48414E44 
 5300      4C455F56 
 5301              	.LASF317:
 5302 00f0 4359424C 		.ascii	"CYBLE_EVT_CGMSC_INDICATION\000"
 5302      455F4556 
 5302      545F4347 
 5302      4D53435F 
 5302      494E4449 
 5303              	.LASF335:
 5304 010b 4359424C 		.ascii	"CYBLE_EVT_CPSC_READ_DESCR_RESPONSE\000"
 5304      455F4556 
 5304      545F4350 
 5304      53435F52 
 5304      4541445F 
 5305              	.LASF466:
 5306 012e 4359424C 		.ascii	"CYBLE_EVT_PLXSC_READ_DESCR_RESPONSE\000"
 5306      455F4556 
 5306      545F504C 
 5306      5853435F 
 5306      52454144 
 5307              	.LASF480:
 5308 0152 4359424C 		.ascii	"CYBLE_EVT_RTUSS_WRITE_CHAR_CMD\000"
 5308      455F4556 
 5308      545F5254 
 5308      5553535F 
 5308      57524954 
 5309              	.LASF234:
 5310 0171 63686172 		.ascii	"charIndex\000"
 5310      496E6465 
 5310      7800
 5311              	.LASF514:
 5312 017b 4359424C 		.ascii	"CYBLE_EVT_WPTSC_NOTIFICATION\000"
 5312      455F4556 
 5312      545F5750 
 5312      5453435F 
 5312      4E4F5449 
 5313              	.LASF251:
 5314 0198 4359424C 		.ascii	"CYBLE_EVT_GATTC_INCL_DISCOVERY_COMPLETE\000"
 5314      455F4556 
 5314      545F4741 
 5314      5454435F 
 5314      494E434C 
 5315              	.LASF37:
 5316 01c0 4359424C 		.ascii	"CYBLE_EVT_GAP_NUMERIC_COMPARISON_REQUEST\000"
 5316      455F4556 
 5316      545F4741 
 5316      505F4E55 
 5316      4D455249 
ARM GAS  C:\Users\puria\AppData\Local\Temp\cc07Gu7s.s 			page 110


 5317              	.LASF261:
 5318 01e9 4359424C 		.ascii	"CYBLE_EVT_AIOSC_NOTIFICATION\000"
 5318      455F4556 
 5318      545F4149 
 5318      4F53435F 
 5318      4E4F5449 
 5319              	.LASF520:
 5320 0206 4359424C 		.ascii	"CYBLE_EVT_WSSS_INDICATION_ENABLED\000"
 5320      455F4556 
 5320      545F5753 
 5320      53535F49 
 5320      4E444943 
 5321              	.LASF333:
 5322 0228 4359424C 		.ascii	"CYBLE_EVT_CPSC_READ_CHAR_RESPONSE\000"
 5322      455F4556 
 5322      545F4350 
 5322      53435F52 
 5322      4541445F 
 5323              	.LASF346:
 5324 024a 4359424C 		.ascii	"CYBLE_EVT_CSCSC_READ_CHAR_RESPONSE\000"
 5324      455F4556 
 5324      545F4353 
 5324      4353435F 
 5324      52454144 
 5325              	.LASF322:
 5326 026d 4359424C 		.ascii	"CYBLE_EVT_CGMSC_WRITE_DESCR_RESPONSE\000"
 5326      455F4556 
 5326      545F4347 
 5326      4D53435F 
 5326      57524954 
 5327              	.LASF376:
 5328 0292 4359424C 		.ascii	"CYBLE_EVT_GLSS_NOTIFICATION_DISABLED\000"
 5328      455F4556 
 5328      545F474C 
 5328      53535F4E 
 5328      4F544946 
 5329              	.LASF546:
 5330 02b7 6576656E 		.ascii	"eventParam\000"
 5330      74506172 
 5330      616D00
 5331              	.LASF304:
 5332 02c2 4359424C 		.ascii	"CYBLE_EVT_BLSC_READ_CHAR_RESPONSE\000"
 5332      455F4556 
 5332      545F424C 
 5332      53435F52 
 5332      4541445F 
 5333              	.LASF31:
 5334 02e4 4359424C 		.ascii	"CYBLE_EVT_GAP_DEVICE_CONNECTED\000"
 5334      455F4556 
 5334      545F4741 
 5334      505F4445 
 5334      56494345 
 5335              	.LASF435:
 5336 0303 4359424C 		.ascii	"CYBLE_EVT_LLSC_WRITE_CHAR_RESPONSE\000"
 5336      455F4556 
 5336      545F4C4C 
 5336      53435F57 
ARM GAS  C:\Users\puria\AppData\Local\Temp\cc07Gu7s.s 			page 111


 5336      52495445 
 5337              	.LASF49:
 5338 0326 4359424C 		.ascii	"CYBLE_EVT_GATT_CONNECT_IND\000"
 5338      455F4556 
 5338      545F4741 
 5338      54545F43 
 5338      4F4E4E45 
 5339              	.LASF535:
 5340 0341 61747472 		.ascii	"attrSize\000"
 5340      53697A65 
 5340      00
 5341              	.LASF381:
 5342 034a 4359424C 		.ascii	"CYBLE_EVT_GLSC_WRITE_CHAR_RESPONSE\000"
 5342      455F4556 
 5342      545F474C 
 5342      53435F57 
 5342      52495445 
 5343              	.LASF11:
 5344 036d 75696E74 		.ascii	"uint32\000"
 5344      333200
 5345              	.LASF246:
 5346 0374 4359424C 		.ascii	"CYBLE_EVT_GATTC_DESCR_DISCOVERY_FAILED\000"
 5346      455F4556 
 5346      545F4741 
 5346      5454435F 
 5346      44455343 
 5347              	.LASF479:
 5348 039b 4359424C 		.ascii	"CYBLE_EVT_RSCSC_WRITE_DESCR_RESPONSE\000"
 5348      455F4556 
 5348      545F5253 
 5348      4353435F 
 5348      57524954 
 5349              	.LASF292:
 5350 03c0 4359424C 		.ascii	"CYBLE_EVT_BCSS_INDICATION_CONFIRMED\000"
 5350      455F4556 
 5350      545F4243 
 5350      53535F49 
 5350      4E444943 
 5351              	.LASF293:
 5352 03e4 4359424C 		.ascii	"CYBLE_EVT_BCSC_INDICATION\000"
 5352      455F4556 
 5352      545F4243 
 5352      53435F49 
 5352      4E444943 
 5353              	.LASF437:
 5354 03fe 4359424C 		.ascii	"CYBLE_EVT_LNSS_INDICATION_DISABLED\000"
 5354      455F4556 
 5354      545F4C4E 
 5354      53535F49 
 5354      4E444943 
 5355              	.LASF354:
 5356 0421 4359424C 		.ascii	"CYBLE_EVT_CTSC_READ_CHAR_RESPONSE\000"
 5356      455F4556 
 5356      545F4354 
 5356      53435F52 
 5356      4541445F 
 5357              	.LASF250:
ARM GAS  C:\Users\puria\AppData\Local\Temp\cc07Gu7s.s 			page 112


 5358 0443 4359424C 		.ascii	"CYBLE_EVT_GATTC_SRVC_DISCOVERY_COMPLETE\000"
 5358      455F4556 
 5358      545F4741 
 5358      5454435F 
 5358      53525643 
 5359              	.LASF473:
 5360 046b 4359424C 		.ascii	"CYBLE_EVT_RSCSS_CHAR_WRITE\000"
 5360      455F4556 
 5360      545F5253 
 5360      4353535F 
 5360      43484152 
 5361              	.LASF463:
 5362 0486 4359424C 		.ascii	"CYBLE_EVT_PLXSC_INDICATION\000"
 5362      455F4556 
 5362      545F504C 
 5362      5853435F 
 5362      494E4449 
 5363              	.LASF506:
 5364 04a1 4359424C 		.ascii	"CYBLE_EVT_UDSC_WRITE_DESCR_RESPONSE\000"
 5364      455F4556 
 5364      545F5544 
 5364      53435F57 
 5364      52495445 
 5365              	.LASF395:
 5366 04c5 4359424C 		.ascii	"CYBLE_EVT_HIDSC_WRITE_DESCR_RESPONSE\000"
 5366      455F4556 
 5366      545F4849 
 5366      4453435F 
 5366      57524954 
 5367              	.LASF558:
 5368 04ea 4379426C 		.ascii	"CyBle_HidssOnDeviceConnected\000"
 5368      655F4869 
 5368      6473734F 
 5368      6E446576 
 5368      69636543 
 5369              	.LASF488:
 5370 0507 4359424C 		.ascii	"CYBLE_EVT_TPSS_NOTIFICATION_ENABLED\000"
 5370      455F4556 
 5370      545F5450 
 5370      53535F4E 
 5370      4F544946 
 5371              	.LASF282:
 5372 052b 4359424C 		.ascii	"CYBLE_EVT_ANSC_READ_DESCR_RESPONSE\000"
 5372      455F4556 
 5372      545F414E 
 5372      53435F52 
 5372      4541445F 
 5373              	.LASF125:
 5374 054e 4359424C 		.ascii	"CYBLE_GATT_ERR_READ_NOT_PERMITTED\000"
 5374      455F4741 
 5374      54545F45 
 5374      52525F52 
 5374      4541445F 
 5375              	.LASF140:
 5376 0570 4359424C 		.ascii	"CYBLE_GATT_ERR_INSUFFICIENT_RESOURCE\000"
 5376      455F4741 
 5376      54545F45 
ARM GAS  C:\Users\puria\AppData\Local\Temp\cc07Gu7s.s 			page 113


 5376      52525F49 
 5376      4E535546 
 5377              	.LASF222:
 5378 0595 4359424C 		.ascii	"CYBLE_HIDSS_REPORT_T\000"
 5378      455F4849 
 5378      4453535F 
 5378      5245504F 
 5378      52545F54 
 5379              	.LASF139:
 5380 05aa 4359424C 		.ascii	"CYBLE_GATT_ERR_UNSUPPORTED_GROUP_TYPE\000"
 5380      455F4741 
 5380      54545F45 
 5380      52525F55 
 5380      4E535550 
 5381              	.LASF105:
 5382 05d0 4359424C 		.ascii	"CYBLE_ERROR_L2CAP_CONNECTION_ENTITY_NOT_FOUND\000"
 5382      455F4552 
 5382      524F525F 
 5382      4C324341 
 5382      505F434F 
 5383              	.LASF232:
 5384 05fe 4359424C 		.ascii	"CYBLE_HIDSS_T\000"
 5384      455F4849 
 5384      4453535F 
 5384      5400
 5385              	.LASF572:
 5386 060c 4379426C 		.ascii	"CyBle_HidssCccdWriteEventHandler\000"
 5386      655F4869 
 5386      64737343 
 5386      63636457 
 5386      72697465 
 5387              	.LASF111:
 5388 062d 4359424C 		.ascii	"CYBLE_ERROR_MIC_AUTH_FAILED\000"
 5388      455F4552 
 5388      524F525F 
 5388      4D49435F 
 5388      41555448 
 5389              	.LASF245:
 5390 0649 4359424C 		.ascii	"CYBLE_EVT_GATTC_CHAR_DISCOVERY_FAILED\000"
 5390      455F4556 
 5390      545F4741 
 5390      5454435F 
 5390      43484152 
 5391              	.LASF560:
 5392 066f 4379426C 		.ascii	"CyBle_HidsApplCallback\000"
 5392      655F4869 
 5392      64734170 
 5392      706C4361 
 5392      6C6C6261 
 5393              	.LASF69:
 5394 0686 4359424C 		.ascii	"CYBLE_EVT_GATTS_DATA_SIGNED_CMD_REQ\000"
 5394      455F4556 
 5394      545F4741 
 5394      5454535F 
 5394      44415441 
 5395              	.LASF81:
 5396 06aa 4359424C 		.ascii	"CYBLE_EVT_L2CAP_CBFC_RX_CREDIT_IND\000"
ARM GAS  C:\Users\puria\AppData\Local\Temp\cc07Gu7s.s 			page 114


 5396      455F4556 
 5396      545F4C32 
 5396      4341505F 
 5396      43424643 
 5397              	.LASF168:
 5398 06cd 4359424C 		.ascii	"CYBLE_GATT_VALUE_T\000"
 5398      455F4741 
 5398      54545F56 
 5398      414C5545 
 5398      5F5400
 5399              	.LASF340:
 5400 06e0 4359424C 		.ascii	"CYBLE_EVT_CSCSS_INDICATION_ENABLED\000"
 5400      455F4556 
 5400      545F4353 
 5400      4353535F 
 5400      494E4449 
 5401              	.LASF187:
 5402 0703 7065726D 		.ascii	"permission\000"
 5402      69737369 
 5402      6F6E00
 5403              	.LASF442:
 5404 070e 4359424C 		.ascii	"CYBLE_EVT_LNSC_INDICATION\000"
 5404      455F4556 
 5404      545F4C4E 
 5404      53435F49 
 5404      4E444943 
 5405              	.LASF141:
 5406 0728 4359424C 		.ascii	"CYBLE_GATT_ERR_TRIGGER_CODITION_VALUE_NOT_SUPPORTED"
 5406      455F4741 
 5406      54545F45 
 5406      52525F54 
 5406      52494747 
 5407 075b 00       		.ascii	"\000"
 5408              	.LASF453:
 5409 075c 4359424C 		.ascii	"CYBLE_EVT_PASSC_READ_CHAR_RESPONSE\000"
 5409      455F4556 
 5409      545F5041 
 5409      5353435F 
 5409      52454144 
 5410              	.LASF297:
 5411 077f 4359424C 		.ascii	"CYBLE_EVT_BLSS_INDICATION_ENABLED\000"
 5411      455F4556 
 5411      545F424C 
 5411      53535F49 
 5411      4E444943 
 5412              	.LASF303:
 5413 07a1 4359424C 		.ascii	"CYBLE_EVT_BLSC_NOTIFICATION\000"
 5413      455F4556 
 5413      545F424C 
 5413      53435F4E 
 5413      4F544946 
 5414              	.LASF191:
 5415 07bd 4359424C 		.ascii	"CYBLE_CALLBACK_T\000"
 5415      455F4341 
 5415      4C4C4241 
 5415      434B5F54 
 5415      00
ARM GAS  C:\Users\puria\AppData\Local\Temp\cc07Gu7s.s 			page 115


 5416              	.LASF345:
 5417 07ce 4359424C 		.ascii	"CYBLE_EVT_CSCSC_INDICATION\000"
 5417      455F4556 
 5417      545F4353 
 5417      4353435F 
 5417      494E4449 
 5418              	.LASF388:
 5419 07e9 4359424C 		.ascii	"CYBLE_EVT_HIDSS_SUSPEND\000"
 5419      455F4556 
 5419      545F4849 
 5419      4453535F 
 5419      53555350 
 5420              	.LASF196:
 5421 0801 4359424C 		.ascii	"CYBLE_DIS_FIRMWARE_REV\000"
 5421      455F4449 
 5421      535F4649 
 5421      524D5741 
 5421      52455F52 
 5422              	.LASF66:
 5423 0818 4359424C 		.ascii	"CYBLE_EVT_GATTC_HANDLE_VALUE_NTF\000"
 5423      455F4556 
 5423      545F4741 
 5423      5454435F 
 5423      48414E44 
 5424              	.LASF25:
 5425 0839 4359424C 		.ascii	"CYBLE_EVT_GAP_AUTH_REQ\000"
 5425      455F4556 
 5425      545F4741 
 5425      505F4155 
 5425      54485F52 
 5426              	.LASF252:
 5427 0850 4359424C 		.ascii	"CYBLE_EVT_GATTC_CHAR_DISCOVERY_COMPLETE\000"
 5427      455F4556 
 5427      545F4741 
 5427      5454435F 
 5427      43484152 
 5428              	.LASF166:
 5429 0878 4359424C 		.ascii	"CYBLE_CONN_HANDLE_T\000"
 5429      455F434F 
 5429      4E4E5F48 
 5429      414E444C 
 5429      455F5400 
 5430              	.LASF409:
 5431 088c 4359424C 		.ascii	"CYBLE_EVT_HRSC_WRITE_CHAR_RESPONSE\000"
 5431      455F4556 
 5431      545F4852 
 5431      53435F57 
 5431      52495445 
 5432              	.LASF100:
 5433 08af 4359424C 		.ascii	"CYBLE_ERROR_BT_ON_NOT_COMPLETED\000"
 5433      455F4552 
 5433      524F525F 
 5433      42545F4F 
 5433      4E5F4E4F 
 5434              	.LASF344:
 5435 08cf 4359424C 		.ascii	"CYBLE_EVT_CSCSC_NOTIFICATION\000"
 5435      455F4556 
ARM GAS  C:\Users\puria\AppData\Local\Temp\cc07Gu7s.s 			page 116


 5435      545F4353 
 5435      4353435F 
 5435      4E4F5449 
 5436              	.LASF501:
 5437 08ec 4359424C 		.ascii	"CYBLE_EVT_UDSC_INDICATION\000"
 5437      455F4556 
 5437      545F5544 
 5437      53435F49 
 5437      4E444943 
 5438              	.LASF425:
 5439 0906 4359424C 		.ascii	"CYBLE_EVT_IPSS_WRITE_CHAR\000"
 5439      455F4556 
 5439      545F4950 
 5439      53535F57 
 5439      52495445 
 5440              	.LASF205:
 5441 0920 4359424C 		.ascii	"CYBLE_HIDS_REPORT_MAP\000"
 5441      455F4849 
 5441      44535F52 
 5441      45504F52 
 5441      545F4D41 
 5442              	.LASF46:
 5443 0936 4359424C 		.ascii	"CYBLE_EVT_GAP_AUTH_REQ_REPLY_ERR\000"
 5443      455F4556 
 5443      545F4741 
 5443      505F4155 
 5443      54485F52 
 5444              	.LASF308:
 5445 0957 4359424C 		.ascii	"CYBLE_EVT_BMSC_READ_CHAR_RESPONSE\000"
 5445      455F4556 
 5445      545F424D 
 5445      53435F52 
 5445      4541445F 
 5446              	.LASF531:
 5447 0979 4359424C 		.ascii	"CYBLE_STATE_ADVERTISING\000"
 5447      455F5354 
 5447      4154455F 
 5447      41445645 
 5447      52544953 
 5448              	.LASF39:
 5449 0991 4359424C 		.ascii	"CYBLE_EVT_GAP_OOB_GENERATED_NOTIFICATION\000"
 5449      455F4556 
 5449      545F4741 
 5449      505F4F4F 
 5449      425F4745 
 5450              	.LASF164:
 5451 09ba 62644861 		.ascii	"bdHandle\000"
 5451      6E646C65 
 5451      00
 5452              	.LASF153:
 5453 09c3 4359424C 		.ascii	"CYBLE_GATTS_ERR_NETWORK_NOT_AVAILABLE\000"
 5453      455F4741 
 5453      5454535F 
 5453      4552525F 
 5453      4E455457 
 5454              	.LASF313:
 5455 09e9 4359424C 		.ascii	"CYBLE_EVT_CGMSS_INDICATION_CONFIRMED\000"
ARM GAS  C:\Users\puria\AppData\Local\Temp\cc07Gu7s.s 			page 117


 5455      455F4556 
 5455      545F4347 
 5455      4D53535F 
 5455      494E4449 
 5456              	.LASF156:
 5457 0a0e 4359424C 		.ascii	"CYBLE_GATT_ERR_ANCS_INVALID_COMMAND\000"
 5457      455F4741 
 5457      54545F45 
 5457      52525F41 
 5457      4E43535F 
 5458              	.LASF305:
 5459 0a32 4359424C 		.ascii	"CYBLE_EVT_BLSC_READ_DESCR_RESPONSE\000"
 5459      455F4556 
 5459      545F424C 
 5459      53435F52 
 5459      4541445F 
 5460              	.LASF465:
 5461 0a55 4359424C 		.ascii	"CYBLE_EVT_PLXSC_WRITE_CHAR_RESPONSE\000"
 5461      455F4556 
 5461      545F504C 
 5461      5853435F 
 5461      57524954 
 5462              	.LASF326:
 5463 0a79 4359424C 		.ascii	"CYBLE_EVT_CPSS_INDICATION_DISABLED\000"
 5463      455F4556 
 5463      545F4350 
 5463      53535F49 
 5463      4E444943 
 5464              	.LASF325:
 5465 0a9c 4359424C 		.ascii	"CYBLE_EVT_CPSS_INDICATION_ENABLED\000"
 5465      455F4556 
 5465      545F4350 
 5465      53535F49 
 5465      4E444943 
 5466              	.LASF439:
 5467 0abe 4359424C 		.ascii	"CYBLE_EVT_LNSS_NOTIFICATION_ENABLED\000"
 5467      455F4556 
 5467      545F4C4E 
 5467      53535F4E 
 5467      4F544946 
 5468              	.LASF62:
 5469 0ae2 4359424C 		.ascii	"CYBLE_EVT_GATTS_WRITE_CMD_REQ\000"
 5469      455F4556 
 5469      545F4741 
 5469      5454535F 
 5469      57524954 
 5470              	.LASF336:
 5471 0b00 4359424C 		.ascii	"CYBLE_EVT_CPSC_WRITE_DESCR_RESPONSE\000"
 5471      455F4556 
 5471      545F4350 
 5471      53435F57 
 5471      52495445 
 5472              	.LASF82:
 5473 0b24 4359424C 		.ascii	"CYBLE_EVT_L2CAP_CBFC_TX_CREDIT_IND\000"
 5473      455F4556 
 5473      545F4C32 
 5473      4341505F 
ARM GAS  C:\Users\puria\AppData\Local\Temp\cc07Gu7s.s 			page 118


 5473      43424643 
 5474              	.LASF4:
 5475 0b47 6C6F6E67 		.ascii	"long int\000"
 5475      20696E74 
 5475      00
 5476              	.LASF440:
 5477 0b50 4359424C 		.ascii	"CYBLE_EVT_LNSS_NOTIFICATION_DISABLED\000"
 5477      455F4556 
 5477      545F4C4E 
 5477      53535F4E 
 5477      4F544946 
 5478              	.LASF341:
 5479 0b75 4359424C 		.ascii	"CYBLE_EVT_CSCSS_INDICATION_DISABLED\000"
 5479      455F4556 
 5479      545F4353 
 5479      4353535F 
 5479      494E4449 
 5480              	.LASF496:
 5481 0b99 4359424C 		.ascii	"CYBLE_EVT_UDSS_INDICATION_CONFIRMED\000"
 5481      455F4556 
 5481      545F5544 
 5481      53535F49 
 5481      4E444943 
 5482              	.LASF238:
 5483 0bbd 4359424C 		.ascii	"CYBLE_LONG_TERM_KEY_REQUEST_REPLY\000"
 5483      455F4C4F 
 5483      4E475F54 
 5483      45524D5F 
 5483      4B45595F 
 5484              	.LASF18:
 5485 0bdf 4359424C 		.ascii	"CYBLE_EVT_STACK_ON\000"
 5485      455F4556 
 5485      545F5354 
 5485      41434B5F 
 5485      4F4E00
 5486              	.LASF107:
 5487 0bf2 4359424C 		.ascii	"CYBLE_ERROR_L2CAP_PSM_NOT_IN_RANGE\000"
 5487      455F4552 
 5487      524F525F 
 5487      4C324341 
 5487      505F5053 
 5488              	.LASF195:
 5489 0c15 4359424C 		.ascii	"CYBLE_DIS_HARDWARE_REV\000"
 5489      455F4449 
 5489      535F4841 
 5489      52445741 
 5489      52455F52 
 5490              	.LASF291:
 5491 0c2c 4359424C 		.ascii	"CYBLE_EVT_BCSS_INDICATION_DISABLED\000"
 5491      455F4556 
 5491      545F4243 
 5491      53535F49 
 5491      4E444943 
 5492              	.LASF534:
 5493 0c4f 63616C6C 		.ascii	"callbackFunc\000"
 5493      6261636B 
 5493      46756E63 
ARM GAS  C:\Users\puria\AppData\Local\Temp\cc07Gu7s.s 			page 119


 5493      00
 5494              	.LASF371:
 5495 0c5c 4359424C 		.ascii	"CYBLE_EVT_ESSC_WRITE_DESCR_RESPONSE\000"
 5495      455F4556 
 5495      545F4553 
 5495      53435F57 
 5495      52495445 
 5496              	.LASF152:
 5497 0c80 4359424C 		.ascii	"CYBLE_GATTS_ERR_HPS_INVALID_REQUEST\000"
 5497      455F4741 
 5497      5454535F 
 5497      4552525F 
 5497      4850535F 
 5498              	.LASF428:
 5499 0ca4 4359424C 		.ascii	"CYBLE_EVT_IPSC_WRITE_CHAR_RESPONSE\000"
 5499      455F4556 
 5499      545F4950 
 5499      53435F57 
 5499      52495445 
 5500              	.LASF223:
 5501 0cc7 73657276 		.ascii	"serviceHandle\000"
 5501      69636548 
 5501      616E646C 
 5501      6500
 5502              	.LASF412:
 5503 0cd5 4359424C 		.ascii	"CYBLE_EVT_HTSS_NOTIFICATION_ENABLED\000"
 5503      455F4556 
 5503      545F4854 
 5503      53535F4E 
 5503      4F544946 
 5504              	.LASF127:
 5505 0cf9 4359424C 		.ascii	"CYBLE_GATT_ERR_INVALID_PDU\000"
 5505      455F4741 
 5505      54545F45 
 5505      52525F49 
 5505      4E56414C 
 5506              	.LASF566:
 5507 0d14 6379426C 		.ascii	"cyBle_hidss\000"
 5507      655F6869 
 5507      64737300 
 5508              	.LASF119:
 5509 0d20 4359424C 		.ascii	"CYBLE_ERROR_CHAR_IS_NOT_DISCOVERED\000"
 5509      455F4552 
 5509      524F525F 
 5509      43484152 
 5509      5F49535F 
 5510              	.LASF499:
 5511 0d43 4359424C 		.ascii	"CYBLE_EVT_UDSS_READ_CHAR\000"
 5511      455F4556 
 5511      545F5544 
 5511      53535F52 
 5511      4541445F 
 5512              	.LASF257:
 5513 0d5c 4359424C 		.ascii	"CYBLE_EVT_AIOSS_INDICATION_DISABLED\000"
 5513      455F4556 
 5513      545F4149 
 5513      4F53535F 
ARM GAS  C:\Users\puria\AppData\Local\Temp\cc07Gu7s.s 			page 120


 5513      494E4449 
 5514              	.LASF171:
 5515 0d80 4359424C 		.ascii	"CYBLE_GATT_HANDLE_VALUE_PAIR_T\000"
 5515      455F4741 
 5515      54545F48 
 5515      414E444C 
 5515      455F5641 
 5516              	.LASF186:
 5517 0d9f 61747454 		.ascii	"attType\000"
 5517      79706500 
 5518              	.LASF233:
 5519 0da7 73657276 		.ascii	"serviceIndex\000"
 5519      69636549 
 5519      6E646578 
 5519      00
 5520              	.LASF368:
 5521 0db4 4359424C 		.ascii	"CYBLE_EVT_ESSC_READ_CHAR_RESPONSE\000"
 5521      455F4556 
 5521      545F4553 
 5521      53435F52 
 5521      4541445F 
 5522              	.LASF391:
 5523 0dd6 4359424C 		.ascii	"CYBLE_EVT_HIDSC_NOTIFICATION\000"
 5523      455F4556 
 5523      545F4849 
 5523      4453435F 
 5523      4E4F5449 
 5524              	.LASF75:
 5525 0df3 4359424C 		.ascii	"CYBLE_EVT_L2CAP_COMMAND_REJ\000"
 5525      455F4556 
 5525      545F4C32 
 5525      4341505F 
 5525      434F4D4D 
 5526              	.LASF254:
 5527 0e0f 4359424C 		.ascii	"CYBLE_EVT_AIOSS_NOTIFICATION_ENABLED\000"
 5527      455F4556 
 5527      545F4149 
 5527      4F53535F 
 5527      4E4F5449 
 5528              	.LASF136:
 5529 0e34 4359424C 		.ascii	"CYBLE_GATT_ERR_INVALID_ATTRIBUTE_LEN\000"
 5529      455F4741 
 5529      54545F45 
 5529      52525F49 
 5529      4E56414C 
 5530              	.LASF224:
 5531 0e59 70726F74 		.ascii	"protocolModeHandle\000"
 5531      6F636F6C 
 5531      4D6F6465 
 5531      48616E64 
 5531      6C6500
 5532              	.LASF108:
 5533 0e6c 4359424C 		.ascii	"CYBLE_ERROR_GATT_DB_INVALID_ATTR_HANDLE\000"
 5533      455F4552 
 5533      524F525F 
 5533      47415454 
 5533      5F44425F 
ARM GAS  C:\Users\puria\AppData\Local\Temp\cc07Gu7s.s 			page 121


 5534              	.LASF0:
 5535 0e94 7369676E 		.ascii	"signed char\000"
 5535      65642063 
 5535      68617200 
 5536              	.LASF295:
 5537 0ea0 4359424C 		.ascii	"CYBLE_EVT_BCSC_READ_DESCR_RESPONSE\000"
 5537      455F4556 
 5537      545F4243 
 5537      53435F52 
 5537      4541445F 
 5538              	.LASF526:
 5539 0ec3 4359424C 		.ascii	"CYBLE_EVT_WSSC_WRITE_DESCR_RESPONSE\000"
 5539      455F4556 
 5539      545F5753 
 5539      53435F57 
 5539      52495445 
 5540              	.LASF288:
 5541 0ee7 4359424C 		.ascii	"CYBLE_EVT_BASC_READ_DESCR_RESPONSE\000"
 5541      455F4556 
 5541      545F4241 
 5541      53435F52 
 5541      4541445F 
 5542              	.LASF20:
 5543 0f0a 4359424C 		.ascii	"CYBLE_EVT_HARDWARE_ERROR\000"
 5543      455F4556 
 5543      545F4841 
 5543      52445741 
 5543      52455F45 
 5544              	.LASF89:
 5545 0f23 4359424C 		.ascii	"CYBLE_ERROR_OK\000"
 5545      455F4552 
 5545      524F525F 
 5545      4F4B00
 5546              	.LASF553:
 5547 0f32 6C6F6343 		.ascii	"locCharValue\000"
 5547      68617256 
 5547      616C7565 
 5547      00
 5548              	.LASF53:
 5549 0f3f 4359424C 		.ascii	"CYBLE_EVT_GATTC_READ_BY_GROUP_TYPE_RSP\000"
 5549      455F4556 
 5549      545F4741 
 5549      5454435F 
 5549      52454144 
 5550              	.LASF528:
 5551 0f66 4359424C 		.ascii	"CYBLE_STATE_STOPPED\000"
 5551      455F5354 
 5551      4154455F 
 5551      53544F50 
 5551      50454400 
 5552              	.LASF470:
 5553 0f7a 4359424C 		.ascii	"CYBLE_EVT_RSCSS_INDICATION_ENABLED\000"
 5553      455F4556 
 5553      545F5253 
 5553      4353535F 
 5553      494E4449 
 5554              	.LASF1:
ARM GAS  C:\Users\puria\AppData\Local\Temp\cc07Gu7s.s 			page 122


 5555 0f9d 756E7369 		.ascii	"unsigned char\000"
 5555      676E6564 
 5555      20636861 
 5555      7200
 5556              	.LASF52:
 5557 0fab 4359424C 		.ascii	"CYBLE_EVT_GATTC_XCHNG_MTU_RSP\000"
 5557      455F4556 
 5557      545F4741 
 5557      5454435F 
 5557      5843484E 
 5558              	.LASF327:
 5559 0fc9 4359424C 		.ascii	"CYBLE_EVT_CPSS_INDICATION_CONFIRMED\000"
 5559      455F4556 
 5559      545F4350 
 5559      53535F49 
 5559      4E444943 
 5560              	.LASF324:
 5561 0fed 4359424C 		.ascii	"CYBLE_EVT_CPSS_NOTIFICATION_DISABLED\000"
 5561      455F4556 
 5561      545F4350 
 5561      53535F4E 
 5561      4F544946 
 5562              	.LASF475:
 5563 1012 4359424C 		.ascii	"CYBLE_EVT_RSCSC_INDICATION\000"
 5563      455F4556 
 5563      545F5253 
 5563      4353435F 
 5563      494E4449 
 5564              	.LASF525:
 5565 102d 4359424C 		.ascii	"CYBLE_EVT_WSSC_READ_DESCR_RESPONSE\000"
 5565      455F4556 
 5565      545F5753 
 5565      53435F52 
 5565      4541445F 
 5566              	.LASF511:
 5567 1050 4359424C 		.ascii	"CYBLE_EVT_WPTSS_INDICATION_DISABLED\000"
 5567      455F4556 
 5567      545F5750 
 5567      5453535F 
 5567      494E4449 
 5568              	.LASF43:
 5569 1074 4359424C 		.ascii	"CYBLE_EVT_GAP_SMP_NEGOTIATED_AUTH_INFO\000"
 5569      455F4556 
 5569      545F4741 
 5569      505F534D 
 5569      505F4E45 
 5570              	.LASF44:
 5571 109b 4359424C 		.ascii	"CYBLE_EVT_GAP_CONN_ESTB\000"
 5571      455F4556 
 5571      545F4741 
 5571      505F434F 
 5571      4E4E5F45 
 5572              	.LASF185:
 5573 10b3 61747448 		.ascii	"attHandle\000"
 5573      616E646C 
 5573      6500
 5574              	.LASF242:
ARM GAS  C:\Users\puria\AppData\Local\Temp\cc07Gu7s.s 			page 123


 5575 10bd 4359424C 		.ascii	"CYBLE_EVT_GATTC_INDICATION\000"
 5575      455F4556 
 5575      545F4741 
 5575      5454435F 
 5575      494E4449 
 5576              	.LASF396:
 5577 10d8 4359424C 		.ascii	"CYBLE_EVT_HPSS_NOTIFICATION_ENABLED\000"
 5577      455F4556 
 5577      545F4850 
 5577      53535F4E 
 5577      4F544946 
 5578              	.LASF482:
 5579 10fc 4359424C 		.ascii	"CYBLE_EVT_SCPSS_NOTIFICATION_ENABLED\000"
 5579      455F4556 
 5579      545F5343 
 5579      5053535F 
 5579      4E4F5449 
 5580              	.LASF426:
 5581 1121 4359424C 		.ascii	"CYBLE_EVT_IPSC_READ_CHAR_RESPONSE\000"
 5581      455F4556 
 5581      545F4950 
 5581      53435F52 
 5581      4541445F 
 5582              	.LASF550:
 5583 1143 6C6F6353 		.ascii	"locServIndex\000"
 5583      65727649 
 5583      6E646578 
 5583      00
 5584              	.LASF79:
 5585 1150 4359424C 		.ascii	"CYBLE_EVT_L2CAP_CBFC_DISCONN_CNF\000"
 5585      455F4556 
 5585      545F4C32 
 5585      4341505F 
 5585      43424643 
 5586              	.LASF56:
 5587 1171 4359424C 		.ascii	"CYBLE_EVT_GATTC_FIND_BY_TYPE_VALUE_RSP\000"
 5587      455F4556 
 5587      545F4741 
 5587      5454435F 
 5587      46494E44 
 5588              	.LASF268:
 5589 1198 4359424C 		.ascii	"CYBLE_EVT_ANCSS_NOTIFICATION_ENABLED\000"
 5589      455F4556 
 5589      545F414E 
 5589      4353535F 
 5589      4E4F5449 
 5590              	.LASF40:
 5591 11bd 4359424C 		.ascii	"CYBLE_EVT_GAP_DATA_LENGTH_CHANGE\000"
 5591      455F4556 
 5591      545F4741 
 5591      505F4441 
 5591      54415F4C 
 5592              	.LASF487:
 5593 11de 4359424C 		.ascii	"CYBLE_EVT_SCPSC_WRITE_DESCR_RESPONSE\000"
 5593      455F4556 
 5593      545F5343 
 5593      5053435F 
ARM GAS  C:\Users\puria\AppData\Local\Temp\cc07Gu7s.s 			page 124


 5593      57524954 
 5594              	.LASF14:
 5595 1203 63686172 		.ascii	"char\000"
 5595      00
 5596              	.LASF179:
 5597 1208 6D617841 		.ascii	"maxAttrLength\000"
 5597      7474724C 
 5597      656E6774 
 5597      6800
 5598              	.LASF490:
 5599 1216 4359424C 		.ascii	"CYBLE_EVT_TPSC_NOTIFICATION\000"
 5599      455F4556 
 5599      545F5450 
 5599      53435F4E 
 5599      4F544946 
 5600              	.LASF213:
 5601 1232 4359424C 		.ascii	"CYBLE_HIDS_CHAR_INDEX_T\000"
 5601      455F4849 
 5601      44535F43 
 5601      4841525F 
 5601      494E4445 
 5602              	.LASF457:
 5603 124a 4359424C 		.ascii	"CYBLE_EVT_PLXSS_NOTIFICATION_ENABLED\000"
 5603      455F4556 
 5603      545F504C 
 5603      5853535F 
 5603      4E4F5449 
 5604              	.LASF59:
 5605 126f 4359424C 		.ascii	"CYBLE_EVT_GATTC_READ_MULTI_RSP\000"
 5605      455F4556 
 5605      545F4741 
 5605      5454435F 
 5605      52454144 
 5606              	.LASF267:
 5607 128e 4359424C 		.ascii	"CYBLE_EVT_AIOSC_ERROR_RESPONSE\000"
 5607      455F4556 
 5607      545F4149 
 5607      4F53435F 
 5607      4552524F 
 5608              	.LASF262:
 5609 12ad 4359424C 		.ascii	"CYBLE_EVT_AIOSC_INDICATION\000"
 5609      455F4556 
 5609      545F4149 
 5609      4F53435F 
 5609      494E4449 
 5610              	.LASF17:
 5611 12c8 4359424C 		.ascii	"CYBLE_EVT_HOST_INVALID\000"
 5611      455F4556 
 5611      545F484F 
 5611      53545F49 
 5611      4E56414C 
 5612              	.LASF137:
 5613 12df 4359424C 		.ascii	"CYBLE_GATT_ERR_UNLIKELY_ERROR\000"
 5613      455F4741 
 5613      54545F45 
 5613      52525F55 
 5613      4E4C494B 
ARM GAS  C:\Users\puria\AppData\Local\Temp\cc07Gu7s.s 			page 125


 5614              	.LASF42:
 5615 12fd 4359424C 		.ascii	"CYBLE_EVT_GAPC_DIRECT_ADV_REPORT\000"
 5615      455F4556 
 5615      545F4741 
 5615      50435F44 
 5615      49524543 
 5616              	.LASF382:
 5617 131e 4359424C 		.ascii	"CYBLE_EVT_GLSC_READ_DESCR_RESPONSE\000"
 5617      455F4556 
 5617      545F474C 
 5617      53435F52 
 5617      4541445F 
 5618              	.LASF96:
 5619 1341 4359424C 		.ascii	"CYBLE_ERROR_NO_DEVICE_ENTITY\000"
 5619      455F4552 
 5619      524F525F 
 5619      4E4F5F44 
 5619      45564943 
 5620              	.LASF58:
 5621 135e 4359424C 		.ascii	"CYBLE_EVT_GATTC_READ_BLOB_RSP\000"
 5621      455F4556 
 5621      545F4741 
 5621      5454435F 
 5621      52454144 
 5622              	.LASF415:
 5623 137c 4359424C 		.ascii	"CYBLE_EVT_HTSS_INDICATION_DISABLED\000"
 5623      455F4556 
 5623      545F4854 
 5623      53535F49 
 5623      4E444943 
 5624              	.LASF481:
 5625 139f 4359424C 		.ascii	"CYBLE_EVT_RTUSC_READ_CHAR_RESPONSE\000"
 5625      455F4556 
 5625      545F5254 
 5625      5553435F 
 5625      52454144 
 5626              	.LASF65:
 5627 13c2 4359424C 		.ascii	"CYBLE_EVT_GATTC_EXEC_WRITE_RSP\000"
 5627      455F4556 
 5627      545F4741 
 5627      5454435F 
 5627      45584543 
 5628              	.LASF142:
 5629 13e1 4359424C 		.ascii	"CYBLE_GATT_ERR_HEART_RATE_CONTROL_POINT_NOT_SUPPORT"
 5629      455F4741 
 5629      54545F45 
 5629      52525F48 
 5629      45415254 
 5630 1414 454400   		.ascii	"ED\000"
 5631              	.LASF522:
 5632 1417 4359424C 		.ascii	"CYBLE_EVT_WSSS_INDICATION_CONFIRMED\000"
 5632      455F4556 
 5632      545F5753 
 5632      53535F49 
 5632      4E444943 
 5633              	.LASF134:
 5634 143b 4359424C 		.ascii	"CYBLE_GATT_ERR_ATTRIBUTE_NOT_LONG\000"
ARM GAS  C:\Users\puria\AppData\Local\Temp\cc07Gu7s.s 			page 126


 5634      455F4741 
 5634      54545F45 
 5634      52525F41 
 5634      54545249 
 5635              	.LASF356:
 5636 145d 4359424C 		.ascii	"CYBLE_EVT_CTSC_WRITE_DESCR_RESPONSE\000"
 5636      455F4556 
 5636      545F4354 
 5636      53435F57 
 5636      52495445 
 5637              	.LASF495:
 5638 1481 4359424C 		.ascii	"CYBLE_EVT_UDSS_INDICATION_DISABLED\000"
 5638      455F4556 
 5638      545F5544 
 5638      53535F49 
 5638      4E444943 
 5639              	.LASF197:
 5640 14a4 4359424C 		.ascii	"CYBLE_DIS_SOFTWARE_REV\000"
 5640      455F4449 
 5640      535F534F 
 5640      46545741 
 5640      52455F52 
 5641              	.LASF70:
 5642 14bb 4359424C 		.ascii	"CYBLE_EVT_GATTC_STOP_CMD_COMPLETE\000"
 5642      455F4556 
 5642      545F4741 
 5642      5454435F 
 5642      53544F50 
 5643              	.LASF330:
 5644 14dd 4359424C 		.ascii	"CYBLE_EVT_CPSS_CHAR_WRITE\000"
 5644      455F4556 
 5644      545F4350 
 5644      53535F43 
 5644      4841525F 
 5645              	.LASF404:
 5646 14f7 4359424C 		.ascii	"CYBLE_EVT_HRSS_ENERGY_EXPENDED_RESET\000"
 5646      455F4556 
 5646      545F4852 
 5646      53535F45 
 5646      4E455247 
 5647              	.LASF158:
 5648 151c 4359424C 		.ascii	"CYBLE_GATT_ERR_ANCS_ACTION_FAILED\000"
 5648      455F4741 
 5648      54545F45 
 5648      52525F41 
 5648      4E43535F 
 5649              	.LASF193:
 5650 153e 4359424C 		.ascii	"CYBLE_DIS_MODEL_NUMBER\000"
 5650      455F4449 
 5650      535F4D4F 
 5650      44454C5F 
 5650      4E554D42 
 5651              	.LASF360:
 5652 1555 4359424C 		.ascii	"CYBLE_EVT_ESSS_NOTIFICATION_DISABLED\000"
 5652      455F4556 
 5652      545F4553 
 5652      53535F4E 
ARM GAS  C:\Users\puria\AppData\Local\Temp\cc07Gu7s.s 			page 127


 5652      4F544946 
 5653              	.LASF190:
 5654 157a 4359424C 		.ascii	"CYBLE_GATTS_DB_T\000"
 5654      455F4741 
 5654      5454535F 
 5654      44425F54 
 5654      00
 5655              	.LASF509:
 5656 158b 4359424C 		.ascii	"CYBLE_EVT_WPTSS_NOTIFICATION_DISABLED\000"
 5656      455F4556 
 5656      545F5750 
 5656      5453535F 
 5656      4E4F5449 
 5657              	.LASF538:
 5658 15b1 63686172 		.ascii	"charValueHandle\000"
 5658      56616C75 
 5658      6548616E 
 5658      646C6500 
 5659              	.LASF300:
 5660 15c1 4359424C 		.ascii	"CYBLE_EVT_BLSS_NOTIFICATION_ENABLED\000"
 5660      455F4556 
 5660      545F424C 
 5660      53535F4E 
 5660      4F544946 
 5661              	.LASF198:
 5662 15e5 4359424C 		.ascii	"CYBLE_DIS_SYSTEM_ID\000"
 5662      455F4449 
 5662      535F5359 
 5662      5354454D 
 5662      5F494400 
 5663              	.LASF402:
 5664 15f9 4359424C 		.ascii	"CYBLE_EVT_HPSC_WRITE_DESCR_RESPONSE\000"
 5664      455F4556 
 5664      545F4850 
 5664      53435F57 
 5664      52495445 
 5665              	.LASF523:
 5666 161d 4359424C 		.ascii	"CYBLE_EVT_WSSC_INDICATION\000"
 5666      455F4556 
 5666      545F5753 
 5666      53435F49 
 5666      4E444943 
 5667              	.LASF115:
 5668 1637 4359424C 		.ascii	"CYBLE_ERROR_CONTROLLER_BUSY\000"
 5668      455F4552 
 5668      524F525F 
 5668      434F4E54 
 5668      524F4C4C 
 5669              	.LASF90:
 5670 1653 4359424C 		.ascii	"CYBLE_ERROR_INVALID_PARAMETER\000"
 5670      455F4552 
 5670      524F525F 
 5670      494E5641 
 5670      4C49445F 
 5671              	.LASF367:
 5672 1671 4359424C 		.ascii	"CYBLE_EVT_ESSC_INDICATION\000"
 5672      455F4556 
ARM GAS  C:\Users\puria\AppData\Local\Temp\cc07Gu7s.s 			page 128


 5672      545F4553 
 5672      53435F49 
 5672      4E444943 
 5673              	.LASF274:
 5674 168b 4359424C 		.ascii	"CYBLE_EVT_ANCSC_WRITE_DESCR_RESPONSE\000"
 5674      455F4556 
 5674      545F414E 
 5674      4353435F 
 5674      57524954 
 5675              	.LASF477:
 5676 16b0 4359424C 		.ascii	"CYBLE_EVT_RSCSC_WRITE_CHAR_RESPONSE\000"
 5676      455F4556 
 5676      545F5253 
 5676      4353435F 
 5676      57524954 
 5677              	.LASF493:
 5678 16d4 4359424C 		.ascii	"CYBLE_EVT_TPSC_WRITE_DESCR_RESPONSE\000"
 5678      455F4556 
 5678      545F5450 
 5678      53435F57 
 5678      52495445 
 5679              	.LASF339:
 5680 16f8 4359424C 		.ascii	"CYBLE_EVT_CSCSS_NOTIFICATION_DISABLED\000"
 5680      455F4556 
 5680      545F4353 
 5680      4353535F 
 5680      4E4F5449 
 5681              	.LASF350:
 5682 171e 4359424C 		.ascii	"CYBLE_EVT_CTSS_NOTIFICATION_ENABLED\000"
 5682      455F4556 
 5682      545F4354 
 5682      53535F4E 
 5682      4F544946 
 5683              	.LASF471:
 5684 1742 4359424C 		.ascii	"CYBLE_EVT_RSCSS_INDICATION_DISABLED\000"
 5684      455F4556 
 5684      545F5253 
 5684      4353535F 
 5684      494E4449 
 5685              	.LASF513:
 5686 1766 4359424C 		.ascii	"CYBLE_EVT_WPTSS_WRITE_CHAR\000"
 5686      455F4556 
 5686      545F5750 
 5686      5453535F 
 5686      57524954 
 5687              	.LASF433:
 5688 1781 4359424C 		.ascii	"CYBLE_EVT_LLSS_WRITE_CHAR_REQ\000"
 5688      455F4556 
 5688      545F4C4C 
 5688      53535F57 
 5688      52495445 
 5689              	.LASF92:
 5690 179f 4359424C 		.ascii	"CYBLE_ERROR_MEMORY_ALLOCATION_FAILED\000"
 5690      455F4552 
 5690      524F525F 
 5690      4D454D4F 
 5690      52595F41 
ARM GAS  C:\Users\puria\AppData\Local\Temp\cc07Gu7s.s 			page 129


 5691              	.LASF410:
 5692 17c4 4359424C 		.ascii	"CYBLE_EVT_HRSC_READ_DESCR_RESPONSE\000"
 5692      455F4556 
 5692      545F4852 
 5692      53435F52 
 5692      4541445F 
 5693              	.LASF338:
 5694 17e7 4359424C 		.ascii	"CYBLE_EVT_CSCSS_NOTIFICATION_ENABLED\000"
 5694      455F4556 
 5694      545F4353 
 5694      4353535F 
 5694      4E4F5449 
 5695              	.LASF536:
 5696 180c 61747472 		.ascii	"attrValue\000"
 5696      56616C75 
 5696      6500
 5697              	.LASF302:
 5698 1816 4359424C 		.ascii	"CYBLE_EVT_BLSC_INDICATION\000"
 5698      455F4556 
 5698      545F424C 
 5698      53435F49 
 5698      4E444943 
 5699              	.LASF398:
 5700 1830 4359424C 		.ascii	"CYBLE_EVT_HPSS_CHAR_WRITE\000"
 5700      455F4556 
 5700      545F4850 
 5700      53535F43 
 5700      4841525F 
 5701              	.LASF390:
 5702 184a 4359424C 		.ascii	"CYBLE_EVT_HIDSS_REPORT_CHAR_WRITE\000"
 5702      455F4556 
 5702      545F4849 
 5702      4453535F 
 5702      5245504F 
 5703              	.LASF290:
 5704 186c 4359424C 		.ascii	"CYBLE_EVT_BCSS_INDICATION_ENABLED\000"
 5704      455F4556 
 5704      545F4243 
 5704      53535F49 
 5704      4E444943 
 5705              	.LASF149:
 5706 188e 4359424C 		.ascii	"CYBLE_GATTS_ERR_CCCD_IMPROPERLY_CONFIGURED\000"
 5706      455F4741 
 5706      5454535F 
 5706      4552525F 
 5706      43434344 
 5707              	.LASF517:
 5708 18b9 4359424C 		.ascii	"CYBLE_EVT_WPTSC_READ_CHAR_RESPONSE\000"
 5708      455F4556 
 5708      545F5750 
 5708      5453435F 
 5708      52454144 
 5709              	.LASF217:
 5710 18dc 4359424C 		.ascii	"CYBLE_HIDS_DESCR_COUNT\000"
 5710      455F4849 
 5710      44535F44 
 5710      45534352 
ARM GAS  C:\Users\puria\AppData\Local\Temp\cc07Gu7s.s 			page 130


 5710      5F434F55 
 5711              	.LASF116:
 5712 18f3 4359424C 		.ascii	"CYBLE_ERROR_MAX\000"
 5712      455F4552 
 5712      524F525F 
 5712      4D415800 
 5713              	.LASF445:
 5714 1903 4359424C 		.ascii	"CYBLE_EVT_LNSC_WRITE_CHAR_RESPONSE\000"
 5714      455F4556 
 5714      545F4C4E 
 5714      53435F57 
 5714      52495445 
 5715              	.LASF74:
 5716 1926 4359424C 		.ascii	"CYBLE_EVT_L2CAP_CONN_PARAM_UPDATE_RSP\000"
 5716      455F4556 
 5716      545F4C32 
 5716      4341505F 
 5716      434F4E4E 
 5717              	.LASF569:
 5718 194c 47656E65 		.ascii	"Generated_Source\\PSoC4\\BLE_1_hids.c\000"
 5718      72617465 
 5718      645F536F 
 5718      75726365 
 5718      5C50536F 
 5719              	.LASF86:
 5720 1970 4359424C 		.ascii	"CYBLE_EVT_HCI_PKT\000"
 5720      455F4556 
 5720      545F4843 
 5720      495F504B 
 5720      5400
 5721              	.LASF498:
 5722 1982 4359424C 		.ascii	"CYBLE_EVT_UDSS_NOTIFICATION_DISABLED\000"
 5722      455F4556 
 5722      545F5544 
 5722      53535F4E 
 5722      4F544946 
 5723              	.LASF349:
 5724 19a7 4359424C 		.ascii	"CYBLE_EVT_CSCSC_WRITE_DESCR_RESPONSE\000"
 5724      455F4556 
 5724      545F4353 
 5724      4353435F 
 5724      57524954 
 5725              	.LASF568:
 5726 19cc 474E5520 		.ascii	"GNU C11 5.4.1 20160609 (release) [ARM/embedded-5-br"
 5726      43313120 
 5726      352E342E 
 5726      31203230 
 5726      31363036 
 5727 19ff 616E6368 		.ascii	"anch revision 237715] -mcpu=cortex-m0 -mthumb -g -O"
 5727      20726576 
 5727      6973696F 
 5727      6E203233 
 5727      37373135 
 5728 1a32 30202D66 		.ascii	"0 -ffunction-sections -ffat-lto-objects\000"
 5728      66756E63 
 5728      74696F6E 
 5728      2D736563 
ARM GAS  C:\Users\puria\AppData\Local\Temp\cc07Gu7s.s 			page 131


 5728      74696F6E 
 5729              	.LASF500:
 5730 1a5a 4359424C 		.ascii	"CYBLE_EVT_UDSS_WRITE_CHAR\000"
 5730      455F4556 
 5730      545F5544 
 5730      53535F57 
 5730      52495445 
 5731              	.LASF464:
 5732 1a74 4359424C 		.ascii	"CYBLE_EVT_PLXSC_READ_CHAR_RESPONSE\000"
 5732      455F4556 
 5732      545F504C 
 5732      5853435F 
 5732      52454144 
 5733              	.LASF265:
 5734 1a97 4359424C 		.ascii	"CYBLE_EVT_AIOSC_READ_DESCR_RESPONSE\000"
 5734      455F4556 
 5734      545F4149 
 5734      4F53435F 
 5734      52454144 
 5735              	.LASF405:
 5736 1abb 4359424C 		.ascii	"CYBLE_EVT_HRSS_NOTIFICATION_ENABLED\000"
 5736      455F4556 
 5736      545F4852 
 5736      53535F4E 
 5736      4F544946 
 5737              	.LASF143:
 5738 1adf 4359424C 		.ascii	"CYBLE_GATT_ERR_USER_DATA_ACCESS_NOT_PERMITTED\000"
 5738      455F4741 
 5738      54545F45 
 5738      52525F55 
 5738      5345525F 
 5739              	.LASF28:
 5740 1b0d 4359424C 		.ascii	"CYBLE_EVT_GAP_AUTH_COMPLETE\000"
 5740      455F4556 
 5740      545F4741 
 5740      505F4155 
 5740      54485F43 
 5741              	.LASF454:
 5742 1b29 4359424C 		.ascii	"CYBLE_EVT_PASSC_READ_DESCR_RESPONSE\000"
 5742      455F4556 
 5742      545F5041 
 5742      5353435F 
 5742      52454144 
 5743              	.LASF370:
 5744 1b4d 4359424C 		.ascii	"CYBLE_EVT_ESSC_READ_DESCR_RESPONSE\000"
 5744      455F4556 
 5744      545F4553 
 5744      53435F52 
 5744      4541445F 
 5745              	.LASF29:
 5746 1b70 4359424C 		.ascii	"CYBLE_EVT_GAP_AUTH_FAILED\000"
 5746      455F4556 
 5746      545F4741 
 5746      505F4155 
 5746      54485F46 
 5747              	.LASF389:
 5748 1b8a 4359424C 		.ascii	"CYBLE_EVT_HIDSS_EXIT_SUSPEND\000"
ARM GAS  C:\Users\puria\AppData\Local\Temp\cc07Gu7s.s 			page 132


 5748      455F4556 
 5748      545F4849 
 5748      4453535F 
 5748      45584954 
 5749              	.LASF121:
 5750 1ba7 4359424C 		.ascii	"CYBLE_ERROR_STACK_BUSY\000"
 5750      455F4552 
 5750      524F525F 
 5750      53544143 
 5750      4B5F4255 
 5751              	.LASF159:
 5752 1bbe 4359424C 		.ascii	"CYBLE_GATT_ERR_CCCD_IMPROPERLY_CONFIGURED\000"
 5752      455F4741 
 5752      54545F45 
 5752      52525F43 
 5752      4343445F 
 5753              	.LASF93:
 5754 1be8 4359424C 		.ascii	"CYBLE_ERROR_INSUFFICIENT_RESOURCES\000"
 5754      455F4552 
 5754      524F525F 
 5754      494E5355 
 5754      46464943 
 5755              	.LASF469:
 5756 1c0b 4359424C 		.ascii	"CYBLE_EVT_RSCSS_NOTIFICATION_DISABLED\000"
 5756      455F4556 
 5756      545F5253 
 5756      4353535F 
 5756      4E4F5449 
 5757              	.LASF147:
 5758 1c31 4359424C 		.ascii	"CYBLE_GATT_ERR_OP_CODE_NOT_SUPPORTED\000"
 5758      455F4741 
 5758      54545F45 
 5758      52525F4F 
 5758      505F434F 
 5759              	.LASF393:
 5760 1c56 4359424C 		.ascii	"CYBLE_EVT_HIDSC_WRITE_CHAR_RESPONSE\000"
 5760      455F4556 
 5760      545F4849 
 5760      4453435F 
 5760      57524954 
 5761              	.LASF5:
 5762 1c7a 6C6F6E67 		.ascii	"long unsigned int\000"
 5762      20756E73 
 5762      69676E65 
 5762      6420696E 
 5762      7400
 5763              	.LASF429:
 5764 1c8c 4359424C 		.ascii	"CYBLE_EVT_IPSC_READ_DESCR_RESPONSE\000"
 5764      455F4556 
 5764      545F4950 
 5764      53435F52 
 5764      4541445F 
 5765              	.LASF424:
 5766 1caf 4359424C 		.ascii	"CYBLE_EVT_IASS_WRITE_CHAR_CMD\000"
 5766      455F4556 
 5766      545F4941 
 5766      53535F57 
ARM GAS  C:\Users\puria\AppData\Local\Temp\cc07Gu7s.s 			page 133


 5766      52495445 
 5767              	.LASF539:
 5768 1ccd 6C6F6348 		.ascii	"locHandleValuePair\000"
 5768      616E646C 
 5768      6556616C 
 5768      75655061 
 5768      697200
 5769              	.LASF449:
 5770 1ce0 4359424C 		.ascii	"CYBLE_EVT_PASSS_NOTIFICATION_ENABLED\000"
 5770      455F4556 
 5770      545F5041 
 5770      5353535F 
 5770      4E4F5449 
 5771              	.LASF452:
 5772 1d05 4359424C 		.ascii	"CYBLE_EVT_PASSC_NOTIFICATION\000"
 5772      455F4556 
 5772      545F5041 
 5772      5353435F 
 5772      4E4F5449 
 5773              	.LASF113:
 5774 1d22 4359424C 		.ascii	"CYBLE_ERROR_UNSUPPORTED_FEATURE_OR_PARAMETER_VALUE\000"
 5774      455F4552 
 5774      524F525F 
 5774      554E5355 
 5774      50504F52 
 5775              	.LASF510:
 5776 1d55 4359424C 		.ascii	"CYBLE_EVT_WPTSS_INDICATION_ENABLED\000"
 5776      455F4556 
 5776      545F5750 
 5776      5453535F 
 5776      494E4449 
 5777              	.LASF458:
 5778 1d78 4359424C 		.ascii	"CYBLE_EVT_PLXSS_NOTIFICATION_DISABLED\000"
 5778      455F4556 
 5778      545F504C 
 5778      5853535F 
 5778      4E4F5449 
 5779              	.LASF280:
 5780 1d9e 4359424C 		.ascii	"CYBLE_EVT_ANSC_READ_CHAR_RESPONSE\000"
 5780      455F4556 
 5780      545F414E 
 5780      53435F52 
 5780      4541445F 
 5781              	.LASF103:
 5782 1dc0 4359424C 		.ascii	"CYBLE_ERROR_L2CAP_PSM_ALREADY_REGISTERED\000"
 5782      455F4552 
 5782      524F525F 
 5782      4C324341 
 5782      505F5053 
 5783              	.LASF559:
 5784 1de9 64656661 		.ascii	"defaultProtocol\000"
 5784      756C7450 
 5784      726F746F 
 5784      636F6C00 
 5785              	.LASF417:
 5786 1df9 4359424C 		.ascii	"CYBLE_EVT_HTSS_CHAR_WRITE\000"
 5786      455F4556 
ARM GAS  C:\Users\puria\AppData\Local\Temp\cc07Gu7s.s 			page 134


 5786      545F4854 
 5786      53535F43 
 5786      4841525F 
 5787              	.LASF183:
 5788 1e13 61747456 		.ascii	"attValueUuid\000"
 5788      616C7565 
 5788      55756964 
 5788      00
 5789              	.LASF155:
 5790 1e20 4359424C 		.ascii	"CYBLE_GATT_ERR_ANCS_UNKNOWN_COMMAND\000"
 5790      455F4741 
 5790      54545F45 
 5790      52525F41 
 5790      4E43535F 
 5791              	.LASF284:
 5792 1e44 4359424C 		.ascii	"CYBLE_EVT_BASS_NOTIFICATION_ENABLED\000"
 5792      455F4556 
 5792      545F4241 
 5792      53535F4E 
 5792      4F544946 
 5793              	.LASF229:
 5794 1e68 7265706F 		.ascii	"reportMapErrdHandle\000"
 5794      72744D61 
 5794      70457272 
 5794      6448616E 
 5794      646C6500 
 5795              	.LASF357:
 5796 1e7c 4359424C 		.ascii	"CYBLE_EVT_CTSC_WRITE_CHAR_RESPONSE\000"
 5796      455F4556 
 5796      545F4354 
 5796      53435F57 
 5796      52495445 
 5797              	.LASF451:
 5798 1e9f 4359424C 		.ascii	"CYBLE_EVT_PASSS_WRITE_CHAR\000"
 5798      455F4556 
 5798      545F5041 
 5798      5353535F 
 5798      57524954 
 5799              	.LASF334:
 5800 1eba 4359424C 		.ascii	"CYBLE_EVT_CPSC_WRITE_CHAR_RESPONSE\000"
 5800      455F4556 
 5800      545F4350 
 5800      53435F57 
 5800      52495445 
 5801              	.LASF194:
 5802 1edd 4359424C 		.ascii	"CYBLE_DIS_SERIAL_NUMBER\000"
 5802      455F4449 
 5802      535F5345 
 5802      5249414C 
 5802      5F4E554D 
 5803              	.LASF34:
 5804 1ef5 4359424C 		.ascii	"CYBLE_EVT_GAP_CONNECTION_UPDATE_COMPLETE\000"
 5804      455F4556 
 5804      545F4741 
 5804      505F434F 
 5804      4E4E4543 
 5805              	.LASF319:
ARM GAS  C:\Users\puria\AppData\Local\Temp\cc07Gu7s.s 			page 135


 5806 1f1e 4359424C 		.ascii	"CYBLE_EVT_CGMSC_READ_CHAR_RESPONSE\000"
 5806      455F4556 
 5806      545F4347 
 5806      4D53435F 
 5806      52454144 
 5807              	.LASF529:
 5808 1f41 4359424C 		.ascii	"CYBLE_STATE_INITIALIZING\000"
 5808      455F5354 
 5808      4154455F 
 5808      494E4954 
 5808      49414C49 
 5809              	.LASF347:
 5810 1f5a 4359424C 		.ascii	"CYBLE_EVT_CSCSC_WRITE_CHAR_RESPONSE\000"
 5810      455F4556 
 5810      545F4353 
 5810      4353435F 
 5810      57524954 
 5811              	.LASF78:
 5812 1f7e 4359424C 		.ascii	"CYBLE_EVT_L2CAP_CBFC_DISCONN_IND\000"
 5812      455F4556 
 5812      545F4C32 
 5812      4341505F 
 5812      43424643 
 5813              	.LASF343:
 5814 1f9f 4359424C 		.ascii	"CYBLE_EVT_CSCSS_CHAR_WRITE\000"
 5814      455F4556 
 5814      545F4353 
 5814      4353535F 
 5814      43484152 
 5815              	.LASF204:
 5816 1fba 4359424C 		.ascii	"CYBLE_HIDS_CONTROL_POINT\000"
 5816      455F4849 
 5816      44535F43 
 5816      4F4E5452 
 5816      4F4C5F50 
 5817              	.LASF460:
 5818 1fd3 4359424C 		.ascii	"CYBLE_EVT_PLXSS_INDICATION_DISABLED\000"
 5818      455F4556 
 5818      545F504C 
 5818      5853535F 
 5818      494E4449 
 5819              	.LASF476:
 5820 1ff7 4359424C 		.ascii	"CYBLE_EVT_RSCSC_READ_CHAR_RESPONSE\000"
 5820      455F4556 
 5820      545F5253 
 5820      4353435F 
 5820      52454144 
 5821              	.LASF26:
 5822 201a 4359424C 		.ascii	"CYBLE_EVT_GAP_PASSKEY_ENTRY_REQUEST\000"
 5822      455F4556 
 5822      545F4741 
 5822      505F5041 
 5822      53534B45 
 5823              	.LASF203:
 5824 203e 4359424C 		.ascii	"CYBLE_HIDS_INFORMATION\000"
 5824      455F4849 
 5824      44535F49 
ARM GAS  C:\Users\puria\AppData\Local\Temp\cc07Gu7s.s 			page 136


 5824      4E464F52 
 5824      4D415449 
 5825              	.LASF399:
 5826 2055 4359424C 		.ascii	"CYBLE_EVT_HPSC_NOTIFICATION\000"
 5826      455F4556 
 5826      545F4850 
 5826      53435F4E 
 5826      4F544946 
 5827              	.LASF328:
 5828 2071 4359424C 		.ascii	"CYBLE_EVT_CPSS_BROADCAST_ENABLED\000"
 5828      455F4556 
 5828      545F4350 
 5828      53535F42 
 5828      524F4144 
 5829              	.LASF430:
 5830 2092 4359424C 		.ascii	"CYBLE_EVT_IPSC_WRITE_DESCR_RESPONSE\000"
 5830      455F4556 
 5830      545F4950 
 5830      53435F57 
 5830      52495445 
 5831              	.LASF380:
 5832 20b6 4359424C 		.ascii	"CYBLE_EVT_GLSC_READ_CHAR_RESPONSE\000"
 5832      455F4556 
 5832      545F474C 
 5832      53435F52 
 5832      4541445F 
 5833              	.LASF281:
 5834 20d8 4359424C 		.ascii	"CYBLE_EVT_ANSC_WRITE_CHAR_RESPONSE\000"
 5834      455F4556 
 5834      545F414E 
 5834      53435F57 
 5834      52495445 
 5835              	.LASF467:
 5836 20fb 4359424C 		.ascii	"CYBLE_EVT_PLXSC_WRITE_DESCR_RESPONSE\000"
 5836      455F4556 
 5836      545F504C 
 5836      5853435F 
 5836      57524954 
 5837              	.LASF461:
 5838 2120 4359424C 		.ascii	"CYBLE_EVT_PLXS_INDICATION_CONFIRMATION\000"
 5838      455F4556 
 5838      545F504C 
 5838      58535F49 
 5838      4E444943 
 5839              	.LASF418:
 5840 2147 4359424C 		.ascii	"CYBLE_EVT_HTSC_NOTIFICATION\000"
 5840      455F4556 
 5840      545F4854 
 5840      53435F4E 
 5840      4F544946 
 5841              	.LASF6:
 5842 2163 6C6F6E67 		.ascii	"long long int\000"
 5842      206C6F6E 
 5842      6720696E 
 5842      7400
 5843              	.LASF226:
 5844 2171 7265706F 		.ascii	"reportArray\000"
ARM GAS  C:\Users\puria\AppData\Local\Temp\cc07Gu7s.s 			page 137


 5844      72744172 
 5844      72617900 
 5845              	.LASF571:
 5846 217d 4379426C 		.ascii	"CyBle_HidsInit\000"
 5846      655F4869 
 5846      6473496E 
 5846      697400
 5847              	.LASF210:
 5848 218c 4359424C 		.ascii	"CYBLE_HUMAN_INTERFACE_DEVICE_REPORT\000"
 5848      455F4855 
 5848      4D414E5F 
 5848      494E5445 
 5848      52464143 
 5849              	.LASF491:
 5850 21b0 4359424C 		.ascii	"CYBLE_EVT_TPSC_READ_CHAR_RESPONSE\000"
 5850      455F4556 
 5850      545F5450 
 5850      53435F52 
 5850      4541445F 
 5851              	.LASF200:
 5852 21d2 4359424C 		.ascii	"CYBLE_DIS_PNP_ID\000"
 5852      455F4449 
 5852      535F504E 
 5852      505F4944 
 5852      00
 5853              	.LASF248:
 5854 21e3 4359424C 		.ascii	"CYBLE_EVT_GATTC_CHAR_DUPLICATION\000"
 5854      455F4556 
 5854      545F4741 
 5854      5454435F 
 5854      43484152 
 5855              	.LASF375:
 5856 2204 4359424C 		.ascii	"CYBLE_EVT_GLSS_NOTIFICATION_ENABLED\000"
 5856      455F4556 
 5856      545F474C 
 5856      53535F4E 
 5856      4F544946 
 5857              	.LASF132:
 5858 2228 4359424C 		.ascii	"CYBLE_GATT_ERR_PREPARE_WRITE_QUEUE_FULL\000"
 5858      455F4741 
 5858      54545F45 
 5858      52525F50 
 5858      52455041 
 5859              	.LASF400:
 5860 2250 4359424C 		.ascii	"CYBLE_EVT_HPSC_READ_CHAR_RESPONSE\000"
 5860      455F4556 
 5860      545F4850 
 5860      53435F52 
 5860      4541445F 
 5861              	.LASF104:
 5862 2272 4359424C 		.ascii	"CYBLE_ERROR_L2CAP_PSM_NOT_REGISTERED\000"
 5862      455F4552 
 5862      524F525F 
 5862      4C324341 
 5862      505F5053 
 5863              	.LASF94:
 5864 2297 4359424C 		.ascii	"CYBLE_ERROR_OOB_NOT_AVAILABLE\000"
ARM GAS  C:\Users\puria\AppData\Local\Temp\cc07Gu7s.s 			page 138


 5864      455F4552 
 5864      524F525F 
 5864      4F4F425F 
 5864      4E4F545F 
 5865              	.LASF311:
 5866 22b5 4359424C 		.ascii	"CYBLE_EVT_CGMSS_INDICATION_ENABLED\000"
 5866      455F4556 
 5866      545F4347 
 5866      4D53535F 
 5866      494E4449 
 5867              	.LASF13:
 5868 22d8 646F7562 		.ascii	"double\000"
 5868      6C6500
 5869              	.LASF109:
 5870 22df 4359424C 		.ascii	"CYBLE_ERROR_DEVICE_ALREADY_EXISTS\000"
 5870      455F4552 
 5870      524F525F 
 5870      44455649 
 5870      43455F41 
 5871              	.LASF362:
 5872 2301 4359424C 		.ascii	"CYBLE_EVT_ESSS_INDICATION_DISABLED\000"
 5872      455F4556 
 5872      545F4553 
 5872      53535F49 
 5872      4E444943 
 5873              	.LASF84:
 5874 2324 4359424C 		.ascii	"CYBLE_EVT_PENDING_FLASH_WRITE\000"
 5874      455F4556 
 5874      545F5045 
 5874      4E44494E 
 5874      475F464C 
 5875              	.LASF135:
 5876 2342 4359424C 		.ascii	"CYBLE_GATT_ERR_INSUFFICIENT_ENC_KEY_SIZE\000"
 5876      455F4741 
 5876      54545F45 
 5876      52525F49 
 5876      4E535546 
 5877              	.LASF508:
 5878 236b 4359424C 		.ascii	"CYBLE_EVT_WPTSS_NOTIFICATION_ENABLED\000"
 5878      455F4556 
 5878      545F5750 
 5878      5453535F 
 5878      4E4F5449 
 5879              	.LASF160:
 5880 2390 4359424C 		.ascii	"CYBLE_GATT_ERR_PROCEDURE_ALREADY_IN_PROGRESS\000"
 5880      455F4741 
 5880      54545F45 
 5880      52525F50 
 5880      524F4345 
 5881              	.LASF447:
 5882 23bd 4359424C 		.ascii	"CYBLE_EVT_LNSC_WRITE_DESCR_RESPONSE\000"
 5882      455F4556 
 5882      545F4C4E 
 5882      53435F57 
 5882      52495445 
 5883              	.LASF41:
 5884 23e1 4359424C 		.ascii	"CYBLE_EVT_GAP_ENHANCE_CONN_COMPLETE\000"
ARM GAS  C:\Users\puria\AppData\Local\Temp\cc07Gu7s.s 			page 139


 5884      455F4556 
 5884      545F4741 
 5884      505F454E 
 5884      48414E43 
 5885              	.LASF434:
 5886 2405 4359424C 		.ascii	"CYBLE_EVT_LLSC_READ_CHAR_RESPONSE\000"
 5886      455F4556 
 5886      545F4C4C 
 5886      53435F52 
 5886      4541445F 
 5887              	.LASF342:
 5888 2427 4359424C 		.ascii	"CYBLE_EVT_CSCSS_INDICATION_CONFIRMATION\000"
 5888      455F4556 
 5888      545F4353 
 5888      4353535F 
 5888      494E4449 
 5889              	.LASF106:
 5890 244f 4359424C 		.ascii	"CYBLE_ERROR_L2CAP_CHANNEL_NOT_FOUND\000"
 5890      455F4552 
 5890      524F525F 
 5890      4C324341 
 5890      505F4348 
 5891              	.LASF565:
 5892 2473 6379426C 		.ascii	"cyBle_gattDB\000"
 5892      655F6761 
 5892      74744442 
 5892      00
 5893              	.LASF214:
 5894 2480 4359424C 		.ascii	"CYBLE_HIDS_REPORT_CCCD\000"
 5894      455F4849 
 5894      44535F52 
 5894      45504F52 
 5894      545F4343 
 5895              	.LASF97:
 5896 2497 4359424C 		.ascii	"CYBLE_ERROR_REPEATED_ATTEMPTS\000"
 5896      455F4552 
 5896      524F525F 
 5896      52455045 
 5896      41544544 
 5897              	.LASF365:
 5898 24b5 4359424C 		.ascii	"CYBLE_EVT_ESSS_DESCR_WRITE\000"
 5898      455F4556 
 5898      545F4553 
 5898      53535F44 
 5898      45534352 
 5899              	.LASF361:
 5900 24d0 4359424C 		.ascii	"CYBLE_EVT_ESSS_INDICATION_ENABLED\000"
 5900      455F4556 
 5900      545F4553 
 5900      53535F49 
 5900      4E444943 
 5901              	.LASF12:
 5902 24f2 666C6F61 		.ascii	"float\000"
 5902      7400
 5903              	.LASF485:
 5904 24f8 4359424C 		.ascii	"CYBLE_EVT_SCPSC_NOTIFICATION\000"
 5904      455F4556 
ARM GAS  C:\Users\puria\AppData\Local\Temp\cc07Gu7s.s 			page 140


 5904      545F5343 
 5904      5053435F 
 5904      4E4F5449 
 5905              	.LASF387:
 5906 2515 4359424C 		.ascii	"CYBLE_EVT_HIDSS_REPORT_MODE_ENTER\000"
 5906      455F4556 
 5906      545F4849 
 5906      4453535F 
 5906      5245504F 
 5907              	.LASF366:
 5908 2537 4359424C 		.ascii	"CYBLE_EVT_ESSC_NOTIFICATION\000"
 5908      455F4556 
 5908      545F4553 
 5908      53435F4E 
 5908      4F544946 
 5909              	.LASF110:
 5910 2553 4359424C 		.ascii	"CYBLE_ERROR_FLASH_WRITE_NOT_PERMITED\000"
 5910      455F4552 
 5910      524F525F 
 5910      464C4153 
 5910      485F5752 
 5911              	.LASF385:
 5912 2578 4359424C 		.ascii	"CYBLE_EVT_HIDSS_NOTIFICATION_DISABLED\000"
 5912      455F4556 
 5912      545F4849 
 5912      4453535F 
 5912      4E4F5449 
 5913              	.LASF71:
 5914 259e 4359424C 		.ascii	"CYBLE_EVT_GATTS_READ_CHAR_VAL_ACCESS_REQ\000"
 5914      455F4556 
 5914      545F4741 
 5914      5454535F 
 5914      52454144 
 5915              	.LASF273:
 5916 25c7 4359424C 		.ascii	"CYBLE_EVT_ANCSC_READ_DESCR_RESPONSE\000"
 5916      455F4556 
 5916      545F414E 
 5916      4353435F 
 5916      52454144 
 5917              	.LASF131:
 5918 25eb 4359424C 		.ascii	"CYBLE_GATT_ERR_INSUFFICIENT_AUTHORIZATION\000"
 5918      455F4741 
 5918      54545F45 
 5918      52525F49 
 5918      4E535546 
 5919              	.LASF543:
 5920 2615 64657363 		.ascii	"descrIndex\000"
 5920      72496E64 
 5920      657800
 5921              	.LASF170:
 5922 2620 61747472 		.ascii	"attrHandle\000"
 5922      48616E64 
 5922      6C6500
 5923              	.LASF502:
 5924 262b 4359424C 		.ascii	"CYBLE_EVT_UDSC_NOTIFICATION\000"
 5924      455F4556 
 5924      545F5544 
ARM GAS  C:\Users\puria\AppData\Local\Temp\cc07Gu7s.s 			page 141


 5924      53435F4E 
 5924      4F544946 
 5925              	.LASF516:
 5926 2647 4359424C 		.ascii	"CYBLE_EVT_WPTSC_WRITE_CHAR_RESPONSE\000"
 5926      455F4556 
 5926      545F5750 
 5926      5453435F 
 5926      57524954 
 5927              	.LASF175:
 5928 266b 4359424C 		.ascii	"CYBLE_GATTS_WRITE_REQ_PARAM_T\000"
 5928      455F4741 
 5928      5454535F 
 5928      57524954 
 5928      455F5245 
 5929              	.LASF8:
 5930 2689 756E7369 		.ascii	"unsigned int\000"
 5930      676E6564 
 5930      20696E74 
 5930      00
 5931              	.LASF63:
 5932 2696 4359424C 		.ascii	"CYBLE_EVT_GATTS_PREP_WRITE_REQ\000"
 5932      455F4556 
 5932      545F4741 
 5932      5454535F 
 5932      50524550 
 5933              	.LASF188:
 5934 26b5 61747445 		.ascii	"attEndHandle\000"
 5934      6E644861 
 5934      6E646C65 
 5934      00
 5935              	.LASF128:
 5936 26c2 4359424C 		.ascii	"CYBLE_GATT_ERR_INSUFFICIENT_AUTHENTICATION\000"
 5936      455F4741 
 5936      54545F45 
 5936      52525F49 
 5936      4E535546 
 5937              	.LASF309:
 5938 26ed 4359424C 		.ascii	"CYBLE_EVT_BMSC_WRITE_CHAR_RESPONSE\000"
 5938      455F4556 
 5938      545F424D 
 5938      53435F57 
 5938      52495445 
 5939              	.LASF351:
 5940 2710 4359424C 		.ascii	"CYBLE_EVT_CTSS_NOTIFICATION_DISABLED\000"
 5940      455F4556 
 5940      545F4354 
 5940      53535F4E 
 5940      4F544946 
 5941              	.LASF298:
 5942 2735 4359424C 		.ascii	"CYBLE_EVT_BLSS_INDICATION_DISABLED\000"
 5942      455F4556 
 5942      545F424C 
 5942      53535F49 
 5942      4E444943 
 5943              	.LASF199:
 5944 2758 4359424C 		.ascii	"CYBLE_DIS_REG_CERT_DATA\000"
 5944      455F4449 
ARM GAS  C:\Users\puria\AppData\Local\Temp\cc07Gu7s.s 			page 142


 5944      535F5245 
 5944      475F4345 
 5944      52545F44 
 5945              	.LASF230:
 5946 2770 696E666F 		.ascii	"informationHandle\000"
 5946      726D6174 
 5946      696F6E48 
 5946      616E646C 
 5946      6500
 5947              	.LASF570:
 5948 2782 433A5C55 		.ascii	"C:\\Users\\puria\\Documents\\GitHub\\able\\psoc\\mu"
 5948      73657273 
 5948      5C707572 
 5948      69615C44 
 5948      6F63756D 
 5949 27ae 6C746963 		.ascii	"lticon_ble.cydsn\000"
 5949      6F6E5F62 
 5949      6C652E63 
 5949      7964736E 
 5949      00
 5950              	.LASF483:
 5951 27bf 4359424C 		.ascii	"CYBLE_EVT_SCPSS_NOTIFICATION_DISABLED\000"
 5951      455F4556 
 5951      545F5343 
 5951      5053535F 
 5951      4E4F5449 
 5952              	.LASF363:
 5953 27e5 4359424C 		.ascii	"CYBLE_EVT_ESSS_INDICATION_CONFIRMATION\000"
 5953      455F4556 
 5953      545F4553 
 5953      53535F49 
 5953      4E444943 
 5954              	.LASF459:
 5955 280c 4359424C 		.ascii	"CYBLE_EVT_PLXSS_INDICATION_ENABLED\000"
 5955      455F4556 
 5955      545F504C 
 5955      5853535F 
 5955      494E4449 
 5956              	.LASF146:
 5957 282f 4359424C 		.ascii	"CYBLE_GATTS_ERR_PROCEDURE_ALREADY_IN_PROGRESS\000"
 5957      455F4741 
 5957      5454535F 
 5957      4552525F 
 5957      50524F43 
 5958              	.LASF266:
 5959 285d 4359424C 		.ascii	"CYBLE_EVT_AIOSC_WRITE_DESCR_RESPONSE\000"
 5959      455F4556 
 5959      545F4149 
 5959      4F53435F 
 5959      57524954 
 5960              	.LASF236:
 5961 2882 4359424C 		.ascii	"CYBLE_AUTHENTICATION_REQUEST_REPLY\000"
 5961      455F4155 
 5961      5448454E 
 5961      54494341 
 5961      54494F4E 
 5962              	.LASF102:
ARM GAS  C:\Users\puria\AppData\Local\Temp\cc07Gu7s.s 			page 143


 5963 28a5 4359424C 		.ascii	"CYBLE_ERROR_L2CAP_PSM_WRONG_ENCODING\000"
 5963      455F4552 
 5963      524F525F 
 5963      4C324341 
 5963      505F5053 
 5964              	.LASF301:
 5965 28ca 4359424C 		.ascii	"CYBLE_EVT_BLSS_NOTIFICATION_DISABLED\000"
 5965      455F4556 
 5965      545F424C 
 5965      53535F4E 
 5965      4F544946 
 5966              	.LASF133:
 5967 28ef 4359424C 		.ascii	"CYBLE_GATT_ERR_ATTRIBUTE_NOT_FOUND\000"
 5967      455F4741 
 5967      54545F45 
 5967      52525F41 
 5967      54545249 
 5968              	.LASF421:
 5969 2912 4359424C 		.ascii	"CYBLE_EVT_HTSC_WRITE_CHAR_RESPONSE\000"
 5969      455F4556 
 5969      545F4854 
 5969      53435F57 
 5969      52495445 
 5970              	.LASF521:
 5971 2935 4359424C 		.ascii	"CYBLE_EVT_WSSS_INDICATION_DISABLED\000"
 5971      455F4556 
 5971      545F5753 
 5971      53535F49 
 5971      4E444943 
 5972              	.LASF403:
 5973 2958 4359424C 		.ascii	"CYBLE_EVT_HPSC_WRITE_CHAR_RESPONSE\000"
 5973      455F4556 
 5973      545F4850 
 5973      53435F57 
 5973      52495445 
 5974              	.LASF221:
 5975 297b 72726448 		.ascii	"rrdHandle\000"
 5975      616E646C 
 5975      6500
 5976              	.LASF88:
 5977 2985 4359424C 		.ascii	"CYBLE_EVT_MAX\000"
 5977      455F4556 
 5977      545F4D41 
 5977      5800
 5978              	.LASF35:
 5979 2993 4359424C 		.ascii	"CYBLE_EVT_GAPC_SCAN_START_STOP\000"
 5979      455F4556 
 5979      545F4741 
 5979      50435F53 
 5979      43414E5F 
 5980              	.LASF276:
 5981 29b2 4359424C 		.ascii	"CYBLE_EVT_ANSS_NOTIFICATION_ENABLED\000"
 5981      455F4556 
 5981      545F414E 
 5981      53535F4E 
 5981      4F544946 
 5982              	.LASF561:
ARM GAS  C:\Users\puria\AppData\Local\Temp\cc07Gu7s.s 			page 144


 5983 29d6 6379426C 		.ascii	"cyBle_hids1ReportArray\000"
 5983      655F6869 
 5983      64733152 
 5983      65706F72 
 5983      74417272 
 5984              	.LASF60:
 5985 29ed 4359424C 		.ascii	"CYBLE_EVT_GATTS_WRITE_REQ\000"
 5985      455F4556 
 5985      545F4741 
 5985      5454535F 
 5985      57524954 
 5986              	.LASF504:
 5987 2a07 4359424C 		.ascii	"CYBLE_EVT_UDSC_WRITE_CHAR_RESPONSE\000"
 5987      455F4556 
 5987      545F5544 
 5987      53435F57 
 5987      52495445 
 5988              	.LASF515:
 5989 2a2a 4359424C 		.ascii	"CYBLE_EVT_WPTSC_INDICATION\000"
 5989      455F4556 
 5989      545F5750 
 5989      5453435F 
 5989      494E4449 
 5990              	.LASF27:
 5991 2a45 4359424C 		.ascii	"CYBLE_EVT_GAP_PASSKEY_DISPLAY_REQUEST\000"
 5991      455F4556 
 5991      545F4741 
 5991      505F5041 
 5991      53534B45 
 5992              	.LASF118:
 5993 2a6b 4359424C 		.ascii	"CYBLE_ERROR_IND_DISABLED\000"
 5993      455F4552 
 5993      524F525F 
 5993      494E445F 
 5993      44495341 
 5994              	.LASF117:
 5995 2a84 4359424C 		.ascii	"CYBLE_ERROR_NTF_DISABLED\000"
 5995      455F4552 
 5995      524F525F 
 5995      4E54465F 
 5995      44495341 
 5996              	.LASF219:
 5997 2a9d 7265706F 		.ascii	"reportHandle\000"
 5997      72744861 
 5997      6E646C65 
 5997      00
 5998              	.LASF57:
 5999 2aaa 4359424C 		.ascii	"CYBLE_EVT_GATTC_READ_RSP\000"
 5999      455F4556 
 5999      545F4741 
 5999      5454435F 
 5999      52454144 
 6000              	.LASF332:
 6001 2ac3 4359424C 		.ascii	"CYBLE_EVT_CPSC_INDICATION\000"
 6001      455F4556 
 6001      545F4350 
 6001      53435F49 
ARM GAS  C:\Users\puria\AppData\Local\Temp\cc07Gu7s.s 			page 145


 6001      4E444943 
 6002              	.LASF130:
 6003 2add 4359424C 		.ascii	"CYBLE_GATT_ERR_INVALID_OFFSET\000"
 6003      455F4741 
 6003      54545F45 
 6003      52525F49 
 6003      4E56414C 
 6004              	.LASF358:
 6005 2afb 4359424C 		.ascii	"CYBLE_EVT_DISC_READ_CHAR_RESPONSE\000"
 6005      455F4556 
 6005      545F4449 
 6005      53435F52 
 6005      4541445F 
 6006              	.LASF77:
 6007 2b1d 4359424C 		.ascii	"CYBLE_EVT_L2CAP_CBFC_CONN_CNF\000"
 6007      455F4556 
 6007      545F4C32 
 6007      4341505F 
 6007      43424643 
 6008              	.LASF235:
 6009 2b3b 4359424C 		.ascii	"CYBLE_HIDS_CHAR_VALUE_T\000"
 6009      455F4849 
 6009      44535F43 
 6009      4841525F 
 6009      56414C55 
 6010              	.LASF178:
 6011 2b53 4359424C 		.ascii	"CYBLE_GATTS_ATT_GEN_VAL_LEN_T\000"
 6011      455F4741 
 6011      5454535F 
 6011      4154545F 
 6011      47454E5F 
 6012              	.LASF422:
 6013 2b71 4359424C 		.ascii	"CYBLE_EVT_HTSC_READ_DESCR_RESPONSE\000"
 6013      455F4556 
 6013      545F4854 
 6013      53435F52 
 6013      4541445F 
 6014              	.LASF527:
 6015 2b94 4359424C 		.ascii	"CYBLE_DEBUG_EVT_BLESS_INT\000"
 6015      455F4445 
 6015      4255475F 
 6015      4556545F 
 6015      424C4553 
 6016              	.LASF161:
 6017 2bae 4359424C 		.ascii	"CYBLE_GATT_ERR_OUT_OF_RANGE\000"
 6017      455F4741 
 6017      54545F45 
 6017      52525F4F 
 6017      55545F4F 
 6018              	.LASF377:
 6019 2bca 4359424C 		.ascii	"CYBLE_EVT_GLSS_WRITE_CHAR\000"
 6019      455F4556 
 6019      545F474C 
 6019      53535F57 
 6019      52495445 
 6020              	.LASF87:
 6021 2be4 4359424C 		.ascii	"CYBLE_EVT_FLASH_CORRUPT\000"
ARM GAS  C:\Users\puria\AppData\Local\Temp\cc07Gu7s.s 			page 146


 6021      455F4556 
 6021      545F464C 
 6021      4153485F 
 6021      434F5252 
 6022              	.LASF15:
 6023 2bfc 6C6F6E67 		.ascii	"long double\000"
 6023      20646F75 
 6023      626C6500 
 6024              	.LASF314:
 6025 2c08 4359424C 		.ascii	"CYBLE_EVT_CGMSS_NOTIFICATION_ENABLED\000"
 6025      455F4556 
 6025      545F4347 
 6025      4D53535F 
 6025      4E4F5449 
 6026              	.LASF407:
 6027 2c2d 4359424C 		.ascii	"CYBLE_EVT_HRSC_NOTIFICATION\000"
 6027      455F4556 
 6027      545F4852 
 6027      53435F4E 
 6027      4F544946 
 6028              	.LASF23:
 6029 2c49 4359424C 		.ascii	"CYBLE_EVT_MEMORY_REQUEST\000"
 6029      455F4556 
 6029      545F4D45 
 6029      4D4F5259 
 6029      5F524551 
 6030              	.LASF263:
 6031 2c62 4359424C 		.ascii	"CYBLE_EVT_AIOSC_READ_CHAR_RESPONSE\000"
 6031      455F4556 
 6031      545F4149 
 6031      4F53435F 
 6031      52454144 
 6032              	.LASF554:
 6033 2c85 6C6F6352 		.ascii	"locReqHandle\000"
 6033      65714861 
 6033      6E646C65 
 6033      00
 6034              	.LASF472:
 6035 2c92 4359424C 		.ascii	"CYBLE_EVT_RSCSS_INDICATION_CONFIRMATION\000"
 6035      455F4556 
 6035      545F5253 
 6035      4353535F 
 6035      494E4449 
 6036              	.LASF394:
 6037 2cba 4359424C 		.ascii	"CYBLE_EVT_HIDSC_READ_DESCR_RESPONSE\000"
 6037      455F4556 
 6037      545F4849 
 6037      4453435F 
 6037      52454144 
 6038              	.LASF556:
 6039 2cde 6E746652 		.ascii	"ntfReqParam\000"
 6039      65715061 
 6039      72616D00 
 6040              	.LASF408:
 6041 2cea 4359424C 		.ascii	"CYBLE_EVT_HRSC_READ_CHAR_RESPONSE\000"
 6041      455F4556 
 6041      545F4852 
ARM GAS  C:\Users\puria\AppData\Local\Temp\cc07Gu7s.s 			page 147


 6041      53435F52 
 6041      4541445F 
 6042              	.LASF286:
 6043 2d0c 4359424C 		.ascii	"CYBLE_EVT_BASC_NOTIFICATION\000"
 6043      455F4556 
 6043      545F4241 
 6043      53435F4E 
 6043      4F544946 
 6044              	.LASF33:
 6045 2d28 4359424C 		.ascii	"CYBLE_EVT_GAP_ENCRYPT_CHANGE\000"
 6045      455F4556 
 6045      545F4741 
 6045      505F454E 
 6045      43525950 
 6046              	.LASF206:
 6047 2d45 4359424C 		.ascii	"CYBLE_HIDS_BOOT_KYBRD_IN_REP\000"
 6047      455F4849 
 6047      44535F42 
 6047      4F4F545F 
 6047      4B594252 
 6048              	.LASF448:
 6049 2d62 4359424C 		.ascii	"CYBLE_EVT_NDCSC_READ_CHAR_RESPONSE\000"
 6049      455F4556 
 6049      545F4E44 
 6049      4353435F 
 6049      52454144 
 6050              	.LASF249:
 6051 2d85 4359424C 		.ascii	"CYBLE_EVT_GATTC_DESCR_DUPLICATION\000"
 6051      455F4556 
 6051      545F4741 
 6051      5454435F 
 6051      44455343 
 6052              	.LASF51:
 6053 2da7 4359424C 		.ascii	"CYBLE_EVT_GATTS_XCNHG_MTU_REQ\000"
 6053      455F4556 
 6053      545F4741 
 6053      5454535F 
 6053      58434E48 
 6054              	.LASF397:
 6055 2dc5 4359424C 		.ascii	"CYBLE_EVT_HPSS_NOTIFICATION_DISABLED\000"
 6055      455F4556 
 6055      545F4850 
 6055      53535F4E 
 6055      4F544946 
 6056              	.LASF215:
 6057 2dea 4359424C 		.ascii	"CYBLE_HIDS_REPORT_RRD\000"
 6057      455F4849 
 6057      44535F52 
 6057      45504F52 
 6057      545F5252 
 6058              	.LASF497:
 6059 2e00 4359424C 		.ascii	"CYBLE_EVT_UDSS_NOTIFICATION_ENABLED\000"
 6059      455F4556 
 6059      545F5544 
 6059      53535F4E 
 6059      4F544946 
 6060              	.LASF258:
ARM GAS  C:\Users\puria\AppData\Local\Temp\cc07Gu7s.s 			page 148


 6061 2e24 4359424C 		.ascii	"CYBLE_EVT_AIOSS_INDICATION_CONFIRMED\000"
 6061      455F4556 
 6061      545F4149 
 6061      4F53535F 
 6061      494E4449 
 6062              	.LASF438:
 6063 2e49 4359424C 		.ascii	"CYBLE_EVT_LNSS_INDICATION_CONFIRMED\000"
 6063      455F4556 
 6063      545F4C4E 
 6063      53535F49 
 6063      4E444943 
 6064              	.LASF47:
 6065 2e6d 4359424C 		.ascii	"CYBLE_EVT_GAP_SMP_LOC_P256_KEYS_GEN_AND_SET_COMPLET"
 6065      455F4556 
 6065      545F4741 
 6065      505F534D 
 6065      505F4C4F 
 6066 2ea0 4500     		.ascii	"E\000"
 6067              	.LASF283:
 6068 2ea2 4359424C 		.ascii	"CYBLE_EVT_ANSC_WRITE_DESCR_RESPONSE\000"
 6068      455F4556 
 6068      545F414E 
 6068      53435F57 
 6068      52495445 
 6069              	.LASF444:
 6070 2ec6 4359424C 		.ascii	"CYBLE_EVT_LNSC_READ_CHAR_RESPONSE\000"
 6070      455F4556 
 6070      545F4C4E 
 6070      53435F52 
 6070      4541445F 
 6071              	.LASF192:
 6072 2ee8 4359424C 		.ascii	"CYBLE_DIS_MANUFACTURER_NAME\000"
 6072      455F4449 
 6072      535F4D41 
 6072      4E554641 
 6072      43545552 
 6073              	.LASF374:
 6074 2f04 4359424C 		.ascii	"CYBLE_EVT_GLSS_INDICATION_CONFIRMED\000"
 6074      455F4556 
 6074      545F474C 
 6074      53535F49 
 6074      4E444943 
 6075              	.LASF533:
 6076 2f28 4359424C 		.ascii	"CYBLE_STATE_T\000"
 6076      455F5354 
 6076      4154455F 
 6076      5400
 6077              	.LASF240:
 6078 2f36 4359424C 		.ascii	"CYBLE_EVT_GATTS_INDICATION_ENABLED\000"
 6078      455F4556 
 6078      545F4741 
 6078      5454535F 
 6078      494E4449 
 6079              	.LASF7:
 6080 2f59 6C6F6E67 		.ascii	"long long unsigned int\000"
 6080      206C6F6E 
 6080      6720756E 
ARM GAS  C:\Users\puria\AppData\Local\Temp\cc07Gu7s.s 			page 149


 6080      7369676E 
 6080      65642069 
 6081              	.LASF124:
 6082 2f70 4359424C 		.ascii	"CYBLE_GATT_ERR_INVALID_HANDLE\000"
 6082      455F4741 
 6082      54545F45 
 6082      52525F49 
 6082      4E56414C 
 6083              	.LASF19:
 6084 2f8e 4359424C 		.ascii	"CYBLE_EVT_TIMEOUT\000"
 6084      455F4556 
 6084      545F5449 
 6084      4D454F55 
 6084      5400
 6085              	.LASF355:
 6086 2fa0 4359424C 		.ascii	"CYBLE_EVT_CTSC_READ_DESCR_RESPONSE\000"
 6086      455F4556 
 6086      545F4354 
 6086      53435F52 
 6086      4541445F 
 6087              	.LASF551:
 6088 2fc3 7265706F 		.ascii	"reportIndex\000"
 6088      7274496E 
 6088      64657800 
 6089              	.LASF225:
 6090 2fcf 7265706F 		.ascii	"reportCount\000"
 6090      7274436F 
 6090      756E7400 
 6091              	.LASF148:
 6092 2fdb 4359424C 		.ascii	"CYBLE_GATT_ERR_MISSING_CRC\000"
 6092      455F4741 
 6092      54545F45 
 6092      52525F4D 
 6092      49535349 
 6093              	.LASF120:
 6094 2ff6 4359424C 		.ascii	"CYBLE_ERROR_INVALID_STATE\000"
 6094      455F4552 
 6094      524F525F 
 6094      494E5641 
 6094      4C49445F 
 6095              	.LASF163:
 6096 3010 4359424C 		.ascii	"CYBLE_GATT_DB_ATTR_HANDLE_T\000"
 6096      455F4741 
 6096      54545F44 
 6096      425F4154 
 6096      54525F48 
 6097              	.LASF256:
 6098 302c 4359424C 		.ascii	"CYBLE_EVT_AIOSS_INDICATION_ENABLED\000"
 6098      455F4556 
 6098      545F4149 
 6098      4F53535F 
 6098      494E4449 
 6099              	.LASF80:
 6100 304f 4359424C 		.ascii	"CYBLE_EVT_L2CAP_CBFC_DATA_READ\000"
 6100      455F4556 
 6100      545F4C32 
 6100      4341505F 
ARM GAS  C:\Users\puria\AppData\Local\Temp\cc07Gu7s.s 			page 150


 6100      43424643 
 6101              	.LASF123:
 6102 306e 4359424C 		.ascii	"CYBLE_GATT_ERR_NONE\000"
 6102      455F4741 
 6102      54545F45 
 6102      52525F4E 
 6102      4F4E4500 
 6103              	.LASF169:
 6104 3082 76616C75 		.ascii	"value\000"
 6104      6500
 6105              	.LASF331:
 6106 3088 4359424C 		.ascii	"CYBLE_EVT_CPSC_NOTIFICATION\000"
 6106      455F4556 
 6106      545F4350 
 6106      53435F4E 
 6106      4F544946 
 6107              	.LASF306:
 6108 30a4 4359424C 		.ascii	"CYBLE_EVT_BLSC_WRITE_DESCR_RESPONSE\000"
 6108      455F4556 
 6108      545F424C 
 6108      53435F57 
 6108      52495445 
 6109              	.LASF189:
 6110 30c8 61747456 		.ascii	"attValue\000"
 6110      616C7565 
 6110      00
 6111              	.LASF443:
 6112 30d1 4359424C 		.ascii	"CYBLE_EVT_LNSC_NOTIFICATION\000"
 6112      455F4556 
 6112      545F4C4E 
 6112      53435F4E 
 6112      4F544946 
 6113              	.LASF541:
 6114 30ed 4379426C 		.ascii	"CyBle_HidssGetCharacteristicValue\000"
 6114      655F4869 
 6114      64737347 
 6114      65744368 
 6114      61726163 
 6115              	.LASF227:
 6116 310f 626F6F74 		.ascii	"bootReportArray\000"
 6116      5265706F 
 6116      72744172 
 6116      72617900 
 6117              	.LASF114:
 6118 311f 4359424C 		.ascii	"CYBLE_ERROR_FLASH_WRITE\000"
 6118      455F4552 
 6118      524F525F 
 6118      464C4153 
 6118      485F5752 
 6119              	.LASF373:
 6120 3137 4359424C 		.ascii	"CYBLE_EVT_GLSS_INDICATION_DISABLED\000"
 6120      455F4556 
 6120      545F474C 
 6120      53535F49 
 6120      4E444943 
 6121              	.LASF145:
 6122 315a 4359424C 		.ascii	"CYBLE_GATT_ERR_HTS_OUT_OF_RANGE\000"
ARM GAS  C:\Users\puria\AppData\Local\Temp\cc07Gu7s.s 			page 151


 6122      455F4741 
 6122      54545F45 
 6122      52525F48 
 6122      54535F4F 
 6123              	.LASF259:
 6124 317a 4359424C 		.ascii	"CYBLE_EVT_AIOSS_CHAR_WRITE\000"
 6124      455F4556 
 6124      545F4149 
 6124      4F53535F 
 6124      43484152 
 6125              	.LASF247:
 6126 3195 4359424C 		.ascii	"CYBLE_EVT_GATTC_SRVC_DUPLICATION\000"
 6126      455F4556 
 6126      545F4741 
 6126      5454435F 
 6126      53525643 
 6127              	.LASF436:
 6128 31b6 4359424C 		.ascii	"CYBLE_EVT_LNSS_INDICATION_ENABLED\000"
 6128      455F4556 
 6128      545F4C4E 
 6128      53535F49 
 6128      4E444943 
 6129              	.LASF548:
 6130 31d8 4379426C 		.ascii	"CyBle_HidssWriteEventHandler\000"
 6130      655F4869 
 6130      64737357 
 6130      72697465 
 6130      4576656E 
 6131              	.LASF269:
 6132 31f5 4359424C 		.ascii	"CYBLE_EVT_ANCSS_NOTIFICATION_DISABLED\000"
 6132      455F4556 
 6132      545F414E 
 6132      4353535F 
 6132      4E4F5449 
 6133              	.LASF231:
 6134 321b 636F6E74 		.ascii	"controlPointHandle\000"
 6134      726F6C50 
 6134      6F696E74 
 6134      48616E64 
 6134      6C6500
 6135              	.LASF207:
 6136 322e 4359424C 		.ascii	"CYBLE_HIDS_BOOT_KYBRD_OUT_REP\000"
 6136      455F4849 
 6136      44535F42 
 6136      4F4F545F 
 6136      4B594252 
 6137              	.LASF173:
 6138 324c 636F6E6E 		.ascii	"connHandle\000"
 6138      48616E64 
 6138      6C6500
 6139              	.LASF176:
 6140 3257 61637475 		.ascii	"actualLength\000"
 6140      616C4C65 
 6140      6E677468 
 6140      00
 6141              	.LASF285:
 6142 3264 4359424C 		.ascii	"CYBLE_EVT_BASS_NOTIFICATION_DISABLED\000"
ARM GAS  C:\Users\puria\AppData\Local\Temp\cc07Gu7s.s 			page 152


 6142      455F4556 
 6142      545F4241 
 6142      53535F4E 
 6142      4F544946 
 6143              	.LASF456:
 6144 3289 4359424C 		.ascii	"CYBLE_EVT_PLXSS_WRITE_CHAR\000"
 6144      455F4556 
 6144      545F504C 
 6144      5853535F 
 6144      57524954 
 6145              	.LASF323:
 6146 32a4 4359424C 		.ascii	"CYBLE_EVT_CPSS_NOTIFICATION_ENABLED\000"
 6146      455F4556 
 6146      545F4350 
 6146      53535F4E 
 6146      4F544946 
 6147              	.LASF492:
 6148 32c8 4359424C 		.ascii	"CYBLE_EVT_TPSC_READ_DESCR_RESPONSE\000"
 6148      455F4556 
 6148      545F5450 
 6148      53435F52 
 6148      4541445F 
 6149              	.LASF544:
 6150 32eb 6C6F6344 		.ascii	"locDescrHandle\000"
 6150      65736372 
 6150      48616E64 
 6150      6C6500
 6151              	.LASF563:
 6152 32fa 6379426C 		.ascii	"cyBle_pendingFlashWrite\000"
 6152      655F7065 
 6152      6E64696E 
 6152      67466C61 
 6152      73685772 
 6153              	.LASF507:
 6154 3312 4359424C 		.ascii	"CYBLE_EVT_UDSC_ERROR_RESPONSE\000"
 6154      455F4556 
 6154      545F5544 
 6154      53435F45 
 6154      52524F52 
 6155              	.LASF55:
 6156 3330 4359424C 		.ascii	"CYBLE_EVT_GATTC_FIND_INFO_RSP\000"
 6156      455F4556 
 6156      545F4741 
 6156      5454435F 
 6156      46494E44 
 6157              	.LASF54:
 6158 334e 4359424C 		.ascii	"CYBLE_EVT_GATTC_READ_BY_TYPE_RSP\000"
 6158      455F4556 
 6158      545F4741 
 6158      5454435F 
 6158      52454144 
 6159              	.LASF450:
 6160 336f 4359424C 		.ascii	"CYBLE_EVT_PASSS_NOTIFICATION_DISABLED\000"
 6160      455F4556 
 6160      545F5041 
 6160      5353535F 
 6160      4E4F5449 
ARM GAS  C:\Users\puria\AppData\Local\Temp\cc07Gu7s.s 			page 153


 6161              	.LASF321:
 6162 3395 4359424C 		.ascii	"CYBLE_EVT_CGMSC_READ_DESCR_RESPONSE\000"
 6162      455F4556 
 6162      545F4347 
 6162      4D53435F 
 6162      52454144 
 6163              	.LASF392:
 6164 33b9 4359424C 		.ascii	"CYBLE_EVT_HIDSC_READ_CHAR_RESPONSE\000"
 6164      455F4556 
 6164      545F4849 
 6164      4453435F 
 6164      52454144 
 6165              	.LASF150:
 6166 33dc 4359424C 		.ascii	"CYBLE_GATTS_ERR_OPERATION_FAILED\000"
 6166      455F4741 
 6166      5454535F 
 6166      4552525F 
 6166      4F504552 
 6167              	.LASF537:
 6168 33fd 61706952 		.ascii	"apiResult\000"
 6168      6573756C 
 6168      7400
 6169              	.LASF557:
 6170 3407 4379426C 		.ascii	"CyBle_HidsRegisterAttrCallback\000"
 6170      655F4869 
 6170      64735265 
 6170      67697374 
 6170      65724174 
 6171              	.LASF567:
 6172 3426 6379426C 		.ascii	"cyBle_state\000"
 6172      655F7374 
 6172      61746500 
 6173              	.LASF552:
 6174 3432 6C6F6343 		.ascii	"locCharIndex\000"
 6174      68617249 
 6174      6E646578 
 6174      00
 6175              	.LASF489:
 6176 343f 4359424C 		.ascii	"CYBLE_EVT_TPSS_NOTIFICATION_DISABLED\000"
 6176      455F4556 
 6176      545F5450 
 6176      53535F4E 
 6176      4F544946 
 6177              	.LASF486:
 6178 3464 4359424C 		.ascii	"CYBLE_EVT_SCPSC_READ_DESCR_RESPONSE\000"
 6178      455F4556 
 6178      545F5343 
 6178      5053435F 
 6178      52454144 
 6179              	.LASF411:
 6180 3488 4359424C 		.ascii	"CYBLE_EVT_HRSC_WRITE_DESCR_RESPONSE\000"
 6180      455F4556 
 6180      545F4852 
 6180      53435F57 
 6180      52495445 
 6181              	.LASF441:
 6182 34ac 4359424C 		.ascii	"CYBLE_EVT_LNSS_WRITE_CHAR\000"
ARM GAS  C:\Users\puria\AppData\Local\Temp\cc07Gu7s.s 			page 154


 6182      455F4556 
 6182      545F4C4E 
 6182      53535F57 
 6182      52495445 
 6183              	.LASF364:
 6184 34c6 4359424C 		.ascii	"CYBLE_EVT_ESSS_CHAR_WRITE\000"
 6184      455F4556 
 6184      545F4553 
 6184      53535F43 
 6184      4841525F 
 6185              	.LASF61:
 6186 34e0 4359424C 		.ascii	"CYBLE_EVT_GATTC_WRITE_RSP\000"
 6186      455F4556 
 6186      545F4741 
 6186      5454435F 
 6186      57524954 
 6187              	.LASF359:
 6188 34fa 4359424C 		.ascii	"CYBLE_EVT_ESSS_NOTIFICATION_ENABLED\000"
 6188      455F4556 
 6188      545F4553 
 6188      53535F4E 
 6188      4F544946 
 6189              	.LASF555:
 6190 351e 4379426C 		.ascii	"CyBle_HidssSendNotification\000"
 6190      655F4869 
 6190      64737353 
 6190      656E644E 
 6190      6F746966 
 6191              	.LASF532:
 6192 353a 4359424C 		.ascii	"CYBLE_STATE_DISCONNECTED\000"
 6192      455F5354 
 6192      4154455F 
 6192      44495343 
 6192      4F4E4E45 
 6193              	.LASF184:
 6194 3553 4359424C 		.ascii	"CYBLE_GATTS_ATT_VALUE_T\000"
 6194      455F4741 
 6194      5454535F 
 6194      4154545F 
 6194      56414C55 
 6195              	.LASF208:
 6196 356b 4359424C 		.ascii	"CYBLE_HIDS_BOOT_MOUSE_IN_REP\000"
 6196      455F4849 
 6196      44535F42 
 6196      4F4F545F 
 6196      4D4F5553 
 6197              	.LASF474:
 6198 3588 4359424C 		.ascii	"CYBLE_EVT_RSCSC_NOTIFICATION\000"
 6198      455F4556 
 6198      545F5253 
 6198      4353435F 
 6198      4E4F5449 
 6199              	.LASF181:
 6200 35a5 4359424C 		.ascii	"CYBLE_GATTS_ATT_PACK_VAL_LEN_T\000"
 6200      455F4741 
 6200      5454535F 
 6200      4154545F 
ARM GAS  C:\Users\puria\AppData\Local\Temp\cc07Gu7s.s 			page 155


 6200      5041434B 
 6201              	.LASF30:
 6202 35c4 4359424C 		.ascii	"CYBLE_EVT_GAPP_ADVERTISEMENT_START_STOP\000"
 6202      455F4556 
 6202      545F4741 
 6202      50505F41 
 6202      44564552 
 6203              	.LASF299:
 6204 35ec 4359424C 		.ascii	"CYBLE_EVT_BLSS_INDICATION_CONFIRMED\000"
 6204      455F4556 
 6204      545F424C 
 6204      53535F49 
 6204      4E444943 
 6205              	.LASF518:
 6206 3610 4359424C 		.ascii	"CYBLE_EVT_WPTSC_READ_DESCR_RESPONSE\000"
 6206      455F4556 
 6206      545F5750 
 6206      5453435F 
 6206      52454144 
 6207              	.LASF271:
 6208 3634 4359424C 		.ascii	"CYBLE_EVT_ANCSC_NOTIFICATION\000"
 6208      455F4556 
 6208      545F414E 
 6208      4353435F 
 6208      4E4F5449 
 6209              	.LASF177:
 6210 3651 61747447 		.ascii	"attGenericVal\000"
 6210      656E6572 
 6210      69635661 
 6210      6C00
 6211              	.LASF320:
 6212 365f 4359424C 		.ascii	"CYBLE_EVT_CGMSC_WRITE_CHAR_RESPONSE\000"
 6212      455F4556 
 6212      545F4347 
 6212      4D53435F 
 6212      57524954 
 6213              	.LASF9:
 6214 3683 75696E74 		.ascii	"uint8\000"
 6214      3800
 6215              	.LASF420:
 6216 3689 4359424C 		.ascii	"CYBLE_EVT_HTSC_READ_CHAR_RESPONSE\000"
 6216      455F4556 
 6216      545F4854 
 6216      53435F52 
 6216      4541445F 
 6217              	.LASF38:
 6218 36ab 4359424C 		.ascii	"CYBLE_EVT_GAP_KEYPRESS_NOTIFICATION\000"
 6218      455F4556 
 6218      545F4741 
 6218      505F4B45 
 6218      59505245 
 6219              	.LASF455:
 6220 36cf 4359424C 		.ascii	"CYBLE_EVT_PASSC_WRITE_DESCR_RESPONSE\000"
 6220      455F4556 
 6220      545F5041 
 6220      5353435F 
 6220      57524954 
ARM GAS  C:\Users\puria\AppData\Local\Temp\cc07Gu7s.s 			page 156


 6221              	.LASF542:
 6222 36f4 4379426C 		.ascii	"CyBle_HidssGetCharacteristicDescriptor\000"
 6222      655F4869 
 6222      64737347 
 6222      65744368 
 6222      61726163 
 6223              	.LASF2:
 6224 371b 73686F72 		.ascii	"short int\000"
 6224      7420696E 
 6224      7400
 6225              	.LASF174:
 6226 3725 68616E64 		.ascii	"handleValPair\000"
 6226      6C655661 
 6226      6C506169 
 6226      7200
 6227              	.LASF307:
 6228 3733 4359424C 		.ascii	"CYBLE_EVT_BMSS_WRITE_CHAR\000"
 6228      455F4556 
 6228      545F424D 
 6228      53535F57 
 6228      52495445 
 6229              	.LASF180:
 6230 374d 61747447 		.ascii	"attGenericValLen\000"
 6230      656E6572 
 6230      69635661 
 6230      6C4C656E 
 6230      00
 6231              	.LASF182:
 6232 375e 61747446 		.ascii	"attFormatValue\000"
 6232      6F726D61 
 6232      7456616C 
 6232      756500
 6233              	.LASF264:
 6234 376d 4359424C 		.ascii	"CYBLE_EVT_AIOSC_WRITE_CHAR_RESPONSE\000"
 6234      455F4556 
 6234      545F4149 
 6234      4F53435F 
 6234      57524954 
 6235              	.LASF112:
 6236 3791 4359424C 		.ascii	"CYBLE_ERROR_HARDWARE_FAILURE\000"
 6236      455F4552 
 6236      524F525F 
 6236      48415244 
 6236      57415245 
 6237              	.LASF144:
 6238 37ae 4359424C 		.ascii	"CYBLE_GATT_ERR_CPS_INAPPROPRIATE_CONNECTION_PARAMET"
 6238      455F4741 
 6238      54545F45 
 6238      52525F43 
 6238      50535F49 
 6239 37e1 45525300 		.ascii	"ERS\000"
 6240              	.LASF318:
 6241 37e5 4359424C 		.ascii	"CYBLE_EVT_CGMSC_NOTIFICATION\000"
 6241      455F4556 
 6241      545F4347 
 6241      4D53435F 
 6241      4E4F5449 
ARM GAS  C:\Users\puria\AppData\Local\Temp\cc07Gu7s.s 			page 157


 6242              	.LASF129:
 6243 3802 4359424C 		.ascii	"CYBLE_GATT_ERR_REQUEST_NOT_SUPPORTED\000"
 6243      455F4741 
 6243      54545F45 
 6243      52525F52 
 6243      45515545 
 6244              	.LASF48:
 6245 3827 4359424C 		.ascii	"CYBLE_EVT_GATTC_ERROR_RSP\000"
 6245      455F4556 
 6245      545F4741 
 6245      5454435F 
 6245      4552524F 
 6246              	.LASF369:
 6247 3841 4359424C 		.ascii	"CYBLE_EVT_ESSC_WRITE_CHAR_RESPONSE\000"
 6247      455F4556 
 6247      545F4553 
 6247      53435F57 
 6247      52495445 
 6248              	.LASF275:
 6249 3864 4359424C 		.ascii	"CYBLE_EVT_ANCSC_ERROR_RESPONSE\000"
 6249      455F4556 
 6249      545F414E 
 6249      4353435F 
 6249      4552524F 
 6250              	.LASF289:
 6251 3883 4359424C 		.ascii	"CYBLE_EVT_BASC_WRITE_DESCR_RESPONSE\000"
 6251      455F4556 
 6251      545F4241 
 6251      53435F57 
 6251      52495445 
 6252              	.LASF243:
 6253 38a7 4359424C 		.ascii	"CYBLE_EVT_GATTC_SRVC_DISCOVERY_FAILED\000"
 6253      455F4556 
 6253      545F4741 
 6253      5454435F 
 6253      53525643 
 6254              	.LASF372:
 6255 38cd 4359424C 		.ascii	"CYBLE_EVT_GLSS_INDICATION_ENABLED\000"
 6255      455F4556 
 6255      545F474C 
 6255      53535F49 
 6255      4E444943 
 6256              	.LASF278:
 6257 38ef 4359424C 		.ascii	"CYBLE_EVT_ANSS_CHAR_WRITE\000"
 6257      455F4556 
 6257      545F414E 
 6257      53535F43 
 6257      4841525F 
 6258              	.LASF545:
 6259 3909 6C6F6352 		.ascii	"locReport\000"
 6259      65706F72 
 6259      7400
 6260              	.LASF76:
 6261 3913 4359424C 		.ascii	"CYBLE_EVT_L2CAP_CBFC_CONN_IND\000"
 6261      455F4556 
 6261      545F4C32 
 6261      4341505F 
ARM GAS  C:\Users\puria\AppData\Local\Temp\cc07Gu7s.s 			page 158


 6261      43424643 
 6262              	.LASF64:
 6263 3931 4359424C 		.ascii	"CYBLE_EVT_GATTS_EXEC_WRITE_REQ\000"
 6263      455F4556 
 6263      545F4741 
 6263      5454535F 
 6263      45584543 
 6264              	.LASF24:
 6265 3950 4359424C 		.ascii	"CYBLE_EVT_GAPC_SCAN_PROGRESS_RESULT\000"
 6265      455F4556 
 6265      545F4741 
 6265      50435F53 
 6265      43414E5F 
 6266              	.LASF401:
 6267 3974 4359424C 		.ascii	"CYBLE_EVT_HPSC_READ_DESCR_RESPONSE\000"
 6267      455F4556 
 6267      545F4850 
 6267      53435F52 
 6267      4541445F 
 6268              	.LASF352:
 6269 3997 4359424C 		.ascii	"CYBLE_EVT_CTSS_CHAR_WRITE\000"
 6269      455F4556 
 6269      545F4354 
 6269      53535F43 
 6269      4841525F 
 6270              	.LASF494:
 6271 39b1 4359424C 		.ascii	"CYBLE_EVT_UDSS_INDICATION_ENABLED\000"
 6271      455F4556 
 6271      545F5544 
 6271      53535F49 
 6271      4E444943 
 6272              	.LASF432:
 6273 39d3 4359424C 		.ascii	"CYBLE_EVT_IPSC_READ_BLOB_RSP\000"
 6273      455F4556 
 6273      545F4950 
 6273      53435F52 
 6273      4541445F 
 6274              	.LASF162:
 6275 39f0 4359424C 		.ascii	"CYBLE_GATT_ERR_CODE_T\000"
 6275      455F4741 
 6275      54545F45 
 6275      52525F43 
 6275      4F44455F 
 6276              	.LASF157:
 6277 3a06 4359424C 		.ascii	"CYBLE_GATT_ERR_ANCS_INVALID_PARAMETER\000"
 6277      455F4741 
 6277      54545F45 
 6277      52525F41 
 6277      4E43535F 
 6278              	.LASF98:
 6279 3a2c 4359424C 		.ascii	"CYBLE_ERROR_GAP_ROLE\000"
 6279      455F4552 
 6279      524F525F 
 6279      4741505F 
 6279      524F4C45 
 6280              	.LASF414:
 6281 3a41 4359424C 		.ascii	"CYBLE_EVT_HTSS_INDICATION_ENABLED\000"
ARM GAS  C:\Users\puria\AppData\Local\Temp\cc07Gu7s.s 			page 159


 6281      455F4556 
 6281      545F4854 
 6281      53535F49 
 6281      4E444943 
 6282              	.LASF505:
 6283 3a63 4359424C 		.ascii	"CYBLE_EVT_UDSC_READ_DESCR_RESPONSE\000"
 6283      455F4556 
 6283      545F5544 
 6283      53435F52 
 6283      4541445F 
 6284              	.LASF260:
 6285 3a86 4359424C 		.ascii	"CYBLE_EVT_AIOSS_DESCR_WRITE\000"
 6285      455F4556 
 6285      545F4149 
 6285      4F53535F 
 6285      44455343 
 6286              	.LASF45:
 6287 3aa2 4359424C 		.ascii	"CYBLE_EVT_GAP_SCAN_REQ_RECVD\000"
 6287      455F4556 
 6287      545F4741 
 6287      505F5343 
 6287      414E5F52 
 6288              	.LASF287:
 6289 3abf 4359424C 		.ascii	"CYBLE_EVT_BASC_READ_CHAR_RESPONSE\000"
 6289      455F4556 
 6289      545F4241 
 6289      53435F52 
 6289      4541445F 
 6290              	.LASF379:
 6291 3ae1 4359424C 		.ascii	"CYBLE_EVT_GLSC_NOTIFICATION\000"
 6291      455F4556 
 6291      545F474C 
 6291      53435F4E 
 6291      4F544946 
 6292              	.LASF154:
 6293 3afd 4359424C 		.ascii	"CYBLE_GATT_ERR_ANS_COMMAND_NOT_SUPPORTED\000"
 6293      455F4741 
 6293      54545F45 
 6293      52525F41 
 6293      4E535F43 
 6294              	.LASF484:
 6295 3b26 4359424C 		.ascii	"CYBLE_EVT_SCPSS_SCAN_INT_WIN_CHAR_WRITE\000"
 6295      455F4556 
 6295      545F5343 
 6295      5053535F 
 6295      5343414E 
 6296              	.LASF562:
 6297 3b4e 6379426C 		.ascii	"cyBle_eventHandlerFlag\000"
 6297      655F6576 
 6297      656E7448 
 6297      616E646C 
 6297      6572466C 
 6298              	.LASF241:
 6299 3b65 4359424C 		.ascii	"CYBLE_EVT_GATTS_INDICATION_DISABLED\000"
 6299      455F4556 
 6299      545F4741 
 6299      5454535F 
ARM GAS  C:\Users\puria\AppData\Local\Temp\cc07Gu7s.s 			page 160


 6299      494E4449 
 6300              	.LASF216:
 6301 3b89 4359424C 		.ascii	"CYBLE_HIDS_REPORT_MAP_ERRD\000"
 6301      455F4849 
 6301      44535F52 
 6301      45504F52 
 6301      545F4D41 
 6302              	.LASF95:
 6303 3ba4 4359424C 		.ascii	"CYBLE_ERROR_NO_CONNECTION\000"
 6303      455F4552 
 6303      524F525F 
 6303      4E4F5F43 
 6303      4F4E4E45 
 6304              	.LASF310:
 6305 3bbe 4359424C 		.ascii	"CYBLE_EVT_BMSC_READ_DESCR_RESPONSE\000"
 6305      455F4556 
 6305      545F424D 
 6305      53435F52 
 6305      4541445F 
 6306              	.LASF85:
 6307 3be1 4359424C 		.ascii	"CYBLE_EVT_LE_PING_AUTH_TIMEOUT\000"
 6307      455F4556 
 6307      545F4C45 
 6307      5F50494E 
 6307      475F4155 
 6308              	.LASF122:
 6309 3c00 4359424C 		.ascii	"CYBLE_API_RESULT_T\000"
 6309      455F4150 
 6309      495F5245 
 6309      53554C54 
 6309      5F5400
 6310              	.LASF209:
 6311 3c13 4359424C 		.ascii	"CYBLE_HIDS_REPORT\000"
 6311      455F4849 
 6311      44535F52 
 6311      45504F52 
 6311      5400
 6312              	.LASF312:
 6313 3c25 4359424C 		.ascii	"CYBLE_EVT_CGMSS_INDICATION_DISABLED\000"
 6313      455F4556 
 6313      545F4347 
 6313      4D53535F 
 6313      494E4449 
 6314              	.LASF540:
 6315 3c49 4379426C 		.ascii	"CyBle_HidssSetCharacteristicValue\000"
 6315      655F4869 
 6315      64737353 
 6315      65744368 
 6315      61726163 
 6316              	.LASF253:
 6317 3c6b 4359424C 		.ascii	"CYBLE_EVT_GATTC_DISCOVERY_COMPLETE\000"
 6317      455F4556 
 6317      545F4741 
 6317      5454435F 
 6317      44495343 
 6318              	.LASF316:
 6319 3c8e 4359424C 		.ascii	"CYBLE_EVT_CGMSS_WRITE_CHAR\000"
ARM GAS  C:\Users\puria\AppData\Local\Temp\cc07Gu7s.s 			page 161


 6319      455F4556 
 6319      545F4347 
 6319      4D53535F 
 6319      57524954 
 6320              	.LASF383:
 6321 3ca9 4359424C 		.ascii	"CYBLE_EVT_GLSC_WRITE_DESCR_RESPONSE\000"
 6321      455F4556 
 6321      545F474C 
 6321      53435F57 
 6321      52495445 
 6322              	.LASF67:
 6323 3ccd 4359424C 		.ascii	"CYBLE_EVT_GATTC_HANDLE_VALUE_IND\000"
 6323      455F4556 
 6323      545F4741 
 6323      5454435F 
 6323      48414E44 
 6324              	.LASF337:
 6325 3cee 4359424C 		.ascii	"CYBLE_EVT_CPSC_SCAN_PROGRESS_RESULT\000"
 6325      455F4556 
 6325      545F4350 
 6325      53435F53 
 6325      43414E5F 
 6326              	.LASF478:
 6327 3d12 4359424C 		.ascii	"CYBLE_EVT_RSCSC_READ_DESCR_RESPONSE\000"
 6327      455F4556 
 6327      545F5253 
 6327      4353435F 
 6327      52454144 
 6328              	.LASF547:
 6329 3d36 6576656E 		.ascii	"eventCode\000"
 6329      74436F64 
 6329      6500
 6330              	.LASF101:
 6331 3d40 4359424C 		.ascii	"CYBLE_ERROR_SEC_FAILED\000"
 6331      455F4552 
 6331      524F525F 
 6331      5345435F 
 6331      4641494C 
 6332              	.LASF202:
 6333 3d57 4359424C 		.ascii	"CYBLE_HIDS_PROTOCOL_MODE\000"
 6333      455F4849 
 6333      44535F50 
 6333      524F544F 
 6333      434F4C5F 
 6334              	.LASF22:
 6335 3d70 4359424C 		.ascii	"CYBLE_EVT_STACK_BUSY_STATUS\000"
 6335      455F4556 
 6335      545F5354 
 6335      41434B5F 
 6335      42555359 
 6336              	.LASF431:
 6337 3d8c 4359424C 		.ascii	"CYBLE_EVT_IPSC_ERROR_RESPONSE\000"
 6337      455F4556 
 6337      545F4950 
 6337      53435F45 
 6337      52524F52 
 6338              	.LASF423:
ARM GAS  C:\Users\puria\AppData\Local\Temp\cc07Gu7s.s 			page 162


 6339 3daa 4359424C 		.ascii	"CYBLE_EVT_HTSC_WRITE_DESCR_RESPONSE\000"
 6339      455F4556 
 6339      545F4854 
 6339      53435F57 
 6339      52495445 
 6340              	.LASF36:
 6341 3dce 4359424C 		.ascii	"CYBLE_EVT_GAP_KEYINFO_EXCHNGE_CMPLT\000"
 6341      455F4556 
 6341      545F4741 
 6341      505F4B45 
 6341      59494E46 
 6342              	.LASF519:
 6343 3df2 4359424C 		.ascii	"CYBLE_EVT_WPTSC_WRITE_DESCR_RESPONSE\000"
 6343      455F4556 
 6343      545F5750 
 6343      5453435F 
 6343      57524954 
 6344              	.LASF73:
 6345 3e17 4359424C 		.ascii	"CYBLE_EVT_L2CAP_CONN_PARAM_UPDATE_REQ\000"
 6345      455F4556 
 6345      545F4C32 
 6345      4341505F 
 6345      434F4E4E 
 6346              	.LASF315:
 6347 3e3d 4359424C 		.ascii	"CYBLE_EVT_CGMSS_NOTIFICATION_DISABLED\000"
 6347      455F4556 
 6347      545F4347 
 6347      4D53535F 
 6347      4E4F5449 
 6348              	.LASF211:
 6349 3e63 4359424C 		.ascii	"CYBLE_HIDS_REPORT_END\000"
 6349      455F4849 
 6349      44535F52 
 6349      45504F52 
 6349      545F454E 
 6350              	.LASF353:
 6351 3e79 4359424C 		.ascii	"CYBLE_EVT_CTSC_NOTIFICATION\000"
 6351      455F4556 
 6351      545F4354 
 6351      53435F4E 
 6351      4F544946 
 6352              	.LASF549:
 6353 3e95 67617474 		.ascii	"gattErr\000"
 6353      45727200 
 6354              	.LASF244:
 6355 3e9d 4359424C 		.ascii	"CYBLE_EVT_GATTC_INCL_DISCOVERY_FAILED\000"
 6355      455F4556 
 6355      545F4741 
 6355      5454435F 
 6355      494E434C 
 6356              	.LASF126:
 6357 3ec3 4359424C 		.ascii	"CYBLE_GATT_ERR_WRITE_NOT_PERMITTED\000"
 6357      455F4741 
 6357      54545F45 
 6357      52525F57 
 6357      52495445 
 6358              	.LASF3:
ARM GAS  C:\Users\puria\AppData\Local\Temp\cc07Gu7s.s 			page 163


 6359 3ee6 73686F72 		.ascii	"short unsigned int\000"
 6359      7420756E 
 6359      7369676E 
 6359      65642069 
 6359      6E7400
 6360              	.LASF138:
 6361 3ef9 4359424C 		.ascii	"CYBLE_GATT_ERR_INSUFFICIENT_ENCRYPTION\000"
 6361      455F4741 
 6361      54545F45 
 6361      52525F49 
 6361      4E535546 
 6362              	.LASF228:
 6363 3f20 7265706F 		.ascii	"reportMapHandle\000"
 6363      72744D61 
 6363      7048616E 
 6363      646C6500 
 6364              	.LASF446:
 6365 3f30 4359424C 		.ascii	"CYBLE_EVT_LNSC_READ_DESCR_RESPONSE\000"
 6365      455F4556 
 6365      545F4C4E 
 6365      53435F52 
 6365      4541445F 
 6366              	.LASF530:
 6367 3f53 4359424C 		.ascii	"CYBLE_STATE_CONNECTED\000"
 6367      455F5354 
 6367      4154455F 
 6367      434F4E4E 
 6367      45435445 
 6368              	.LASF167:
 6369 3f69 61637475 		.ascii	"actualLen\000"
 6369      616C4C65 
 6369      6E00
 6370              	.LASF220:
 6371 3f73 63636364 		.ascii	"cccdHandle\000"
 6371      48616E64 
 6371      6C6500
 6372              	.LASF270:
 6373 3f7e 4359424C 		.ascii	"CYBLE_EVT_ANCSS_WRITE_CHAR\000"
 6373      455F4556 
 6373      545F414E 
 6373      4353535F 
 6373      57524954 
 6374              	.LASF378:
 6375 3f99 4359424C 		.ascii	"CYBLE_EVT_GLSC_INDICATION\000"
 6375      455F4556 
 6375      545F474C 
 6375      53435F49 
 6375      4E444943 
 6376              	.LASF329:
 6377 3fb3 4359424C 		.ascii	"CYBLE_EVT_CPSS_BROADCAST_DISABLED\000"
 6377      455F4556 
 6377      545F4350 
 6377      53535F42 
 6377      524F4144 
 6378              	.LASF165:
 6379 3fd5 61747449 		.ascii	"attId\000"
 6379      6400
ARM GAS  C:\Users\puria\AppData\Local\Temp\cc07Gu7s.s 			page 164


 6380              	.LASF91:
 6381 3fdb 4359424C 		.ascii	"CYBLE_ERROR_INVALID_OPERATION\000"
 6381      455F4552 
 6381      524F525F 
 6381      494E5641 
 6381      4C49445F 
 6382              	.LASF21:
 6383 3ff9 4359424C 		.ascii	"CYBLE_EVT_HCI_STATUS\000"
 6383      455F4556 
 6383      545F4843 
 6383      495F5354 
 6383      41545553 
 6384              	.LASF50:
 6385 400e 4359424C 		.ascii	"CYBLE_EVT_GATT_DISCONNECT_IND\000"
 6385      455F4556 
 6385      545F4741 
 6385      54545F44 
 6385      4953434F 
 6386              	.LASF239:
 6387 402c 4359424C 		.ascii	"CYBLE_KEY_EXCHANGE_INFO_REQUEST_REPLY\000"
 6387      455F4B45 
 6387      595F4558 
 6387      4348414E 
 6387      47455F49 
 6388              	.LASF83:
 6389 4052 4359424C 		.ascii	"CYBLE_EVT_L2CAP_CBFC_DATA_WRITE_IND\000"
 6389      455F4556 
 6389      545F4C32 
 6389      4341505F 
 6389      43424643 
 6390              	.LASF237:
 6391 4076 4359424C 		.ascii	"CYBLE_PASSKEY_ENTRY_REQUEST_REPLY\000"
 6391      455F5041 
 6391      53534B45 
 6391      595F454E 
 6391      5452595F 
 6392              	.LASF296:
 6393 4098 4359424C 		.ascii	"CYBLE_EVT_BCSC_WRITE_DESCR_RESPONSE\000"
 6393      455F4556 
 6393      545F4243 
 6393      53435F57 
 6393      52495445 
 6394              	.LASF524:
 6395 40bc 4359424C 		.ascii	"CYBLE_EVT_WSSC_READ_CHAR_RESPONSE\000"
 6395      455F4556 
 6395      545F5753 
 6395      53435F52 
 6395      4541445F 
 6396              	.LASF212:
 6397 40de 4359424C 		.ascii	"CYBLE_HIDS_CHAR_COUNT\000"
 6397      455F4849 
 6397      44535F43 
 6397      4841525F 
 6397      434F554E 
 6398              	.LASF72:
 6399 40f4 4359424C 		.ascii	"CYBLE_EVT_GATTC_LONG_PROCEDURE_END\000"
 6399      455F4556 
ARM GAS  C:\Users\puria\AppData\Local\Temp\cc07Gu7s.s 			page 165


 6399      545F4741 
 6399      5454435F 
 6399      4C4F4E47 
 6400              	.LASF279:
 6401 4117 4359424C 		.ascii	"CYBLE_EVT_ANSC_NOTIFICATION\000"
 6401      455F4556 
 6401      545F414E 
 6401      53435F4E 
 6401      4F544946 
 6402              	.LASF32:
 6403 4133 4359424C 		.ascii	"CYBLE_EVT_GAP_DEVICE_DISCONNECTED\000"
 6403      455F4556 
 6403      545F4741 
 6403      505F4445 
 6403      56494345 
 6404              	.LASF386:
 6405 4155 4359424C 		.ascii	"CYBLE_EVT_HIDSS_BOOT_MODE_ENTER\000"
 6405      455F4556 
 6405      545F4849 
 6405      4453535F 
 6405      424F4F54 
 6406              	.LASF68:
 6407 4175 4359424C 		.ascii	"CYBLE_EVT_GATTS_HANDLE_VALUE_CNF\000"
 6407      455F4556 
 6407      545F4741 
 6407      5454535F 
 6407      48414E44 
 6408              	.LASF427:
 6409 4196 4359424C 		.ascii	"CYBLE_EVT_IPSC_READ_MULTIPLE_CHAR_RESPONSE\000"
 6409      455F4556 
 6409      545F4950 
 6409      53435F52 
 6409      4541445F 
 6410              	.LASF348:
 6411 41c1 4359424C 		.ascii	"CYBLE_EVT_CSCSC_READ_DESCR_RESPONSE\000"
 6411      455F4556 
 6411      545F4353 
 6411      4353435F 
 6411      52454144 
 6412              	.LASF10:
 6413 41e5 75696E74 		.ascii	"uint16\000"
 6413      313600
 6414              	.LASF272:
 6415 41ec 4359424C 		.ascii	"CYBLE_EVT_ANCSC_WRITE_CHAR_RESPONSE\000"
 6415      455F4556 
 6415      545F414E 
 6415      4353435F 
 6415      57524954 
 6416              	.LASF99:
 6417 4210 4359424C 		.ascii	"CYBLE_ERROR_TX_POWER_READ\000"
 6417      455F4552 
 6417      524F525F 
 6417      54585F50 
 6417      4F574552 
 6418              	.LASF468:
 6419 422a 4359424C 		.ascii	"CYBLE_EVT_RSCSS_NOTIFICATION_ENABLED\000"
 6419      455F4556 
ARM GAS  C:\Users\puria\AppData\Local\Temp\cc07Gu7s.s 			page 166


 6419      545F5253 
 6419      4353535F 
 6419      4E4F5449 
 6420              	.LASF277:
 6421 424f 4359424C 		.ascii	"CYBLE_EVT_ANSS_NOTIFICATION_DISABLED\000"
 6421      455F4556 
 6421      545F414E 
 6421      53535F4E 
 6421      4F544946 
 6422              	.LASF419:
 6423 4274 4359424C 		.ascii	"CYBLE_EVT_HTSC_INDICATION\000"
 6423      455F4556 
 6423      545F4854 
 6423      53435F49 
 6423      4E444943 
 6424              	.LASF384:
 6425 428e 4359424C 		.ascii	"CYBLE_EVT_HIDSS_NOTIFICATION_ENABLED\000"
 6425      455F4556 
 6425      545F4849 
 6425      4453535F 
 6425      4E4F5449 
 6426              	.LASF416:
 6427 42b3 4359424C 		.ascii	"CYBLE_EVT_HTSS_INDICATION_CONFIRMED\000"
 6427      455F4556 
 6427      545F4854 
 6427      53535F49 
 6427      4E444943 
 6428              	.LASF218:
 6429 42d7 4359424C 		.ascii	"CYBLE_HIDS_DESCR_T\000"
 6429      455F4849 
 6429      44535F44 
 6429      45534352 
 6429      5F5400
 6430              	.LASF255:
 6431 42ea 4359424C 		.ascii	"CYBLE_EVT_AIOSS_NOTIFICATION_DISABLED\000"
 6431      455F4556 
 6431      545F4149 
 6431      4F53535F 
 6431      4E4F5449 
 6432              	.LASF512:
 6433 4310 4359424C 		.ascii	"CYBLE_EVT_WPTSS_INDICATION_CONFIRMED\000"
 6433      455F4556 
 6433      545F5750 
 6433      5453535F 
 6433      494E4449 
 6434              	.LASF406:
 6435 4335 4359424C 		.ascii	"CYBLE_EVT_HRSS_NOTIFICATION_DISABLED\000"
 6435      455F4556 
 6435      545F4852 
 6435      53535F4E 
 6435      4F544946 
 6436              		.ident	"GCC: (GNU Tools for ARM Embedded Processors) 5.4.1 20160609 (release) [ARM/embedded-5-bran
