ARM GAS  C:\Users\puria\AppData\Local\Temp\ccTihJYx.s 			page 1


   1              		.syntax unified
   2              		.cpu cortex-m0
   3              		.fpu softvfp
   4              		.eabi_attribute 20, 1
   5              		.eabi_attribute 21, 1
   6              		.eabi_attribute 23, 3
   7              		.eabi_attribute 24, 1
   8              		.eabi_attribute 25, 1
   9              		.eabi_attribute 26, 1
  10              		.eabi_attribute 30, 6
  11              		.eabi_attribute 34, 0
  12              		.eabi_attribute 18, 4
  13              		.thumb
  14              		.syntax unified
  15              		.file	"main.c"
  16              		.text
  17              	.Ltext0:
  18              		.cfi_sections	.debug_frame
  19              		.section	.text.delay,"ax",%progbits
  20              		.align	2
  21              		.global	delay
  22              		.code	16
  23              		.thumb_func
  24              		.type	delay, %function
  25              	delay:
  26              	.LFB35:
  27              		.file 1 "main.c"
   1:main.c        **** /* ========================================
   2:main.c        ****  *
   3:main.c        ****  * Copyright YOUR COMPANY, THE YEAR
   4:main.c        ****  * All Rights Reserved
   5:main.c        ****  * UNPUBLISHED, LICENSED SOFTWARE.
   6:main.c        ****  *
   7:main.c        ****  * CONFIDENTIAL AND PROPRIETARY INFORMATION
   8:main.c        ****  * WHICH IS THE PROPERTY OF your company.
   9:main.c        ****  *
  10:main.c        ****  * ========================================
  11:main.c        **** */
  12:main.c        **** #include <project.h>
  13:main.c        **** 
  14:main.c        **** 
  15:main.c        **** void delay(){
  28              		.loc 1 15 0
  29              		.cfi_startproc
  30              		@ args = 0, pretend = 0, frame = 8
  31              		@ frame_needed = 1, uses_anonymous_args = 0
  32 0000 80B5     		push	{r7, lr}
  33              		.cfi_def_cfa_offset 8
  34              		.cfi_offset 7, -8
  35              		.cfi_offset 14, -4
  36 0002 82B0     		sub	sp, sp, #8
  37              		.cfi_def_cfa_offset 16
  38 0004 00AF     		add	r7, sp, #0
  39              		.cfi_def_cfa_register 7
  40              	.LBB2:
  16:main.c        ****  for(int i=0; i<1000000;i++){}  
  41              		.loc 1 16 0
ARM GAS  C:\Users\puria\AppData\Local\Temp\ccTihJYx.s 			page 2


  42 0006 0023     		movs	r3, #0
  43 0008 7B60     		str	r3, [r7, #4]
  44 000a 02E0     		b	.L2
  45              	.L3:
  46              		.loc 1 16 0 is_stmt 0 discriminator 3
  47 000c 7B68     		ldr	r3, [r7, #4]
  48 000e 0133     		adds	r3, r3, #1
  49 0010 7B60     		str	r3, [r7, #4]
  50              	.L2:
  51              		.loc 1 16 0 discriminator 1
  52 0012 7B68     		ldr	r3, [r7, #4]
  53 0014 034A     		ldr	r2, .L4
  54 0016 9342     		cmp	r3, r2
  55 0018 F8DD     		ble	.L3
  56              	.LBE2:
  17:main.c        **** }
  57              		.loc 1 17 0 is_stmt 1
  58 001a C046     		nop
  59 001c BD46     		mov	sp, r7
  60 001e 02B0     		add	sp, sp, #8
  61              		@ sp needed
  62 0020 80BD     		pop	{r7, pc}
  63              	.L5:
  64 0022 C046     		.align	2
  65              	.L4:
  66 0024 3F420F00 		.word	999999
  67              		.cfi_endproc
  68              	.LFE35:
  69              		.size	delay, .-delay
  70              		.section	.text.LED_ON,"ax",%progbits
  71              		.align	2
  72              		.global	LED_ON
  73              		.code	16
  74              		.thumb_func
  75              		.type	LED_ON, %function
  76              	LED_ON:
  77              	.LFB36:
  18:main.c        **** 
  19:main.c        **** void LED_ON(){
  78              		.loc 1 19 0
  79              		.cfi_startproc
  80              		@ args = 0, pretend = 0, frame = 0
  81              		@ frame_needed = 1, uses_anonymous_args = 0
  82 0000 80B5     		push	{r7, lr}
  83              		.cfi_def_cfa_offset 8
  84              		.cfi_offset 7, -8
  85              		.cfi_offset 14, -4
  86 0002 00AF     		add	r7, sp, #0
  87              		.cfi_def_cfa_register 7
  20:main.c        ****     LED_Write(0u);
  88              		.loc 1 20 0
  89 0004 0020     		movs	r0, #0
  90 0006 FFF7FEFF 		bl	LED_Write
  21:main.c        **** }
  91              		.loc 1 21 0
  92 000a C046     		nop
  93 000c BD46     		mov	sp, r7
ARM GAS  C:\Users\puria\AppData\Local\Temp\ccTihJYx.s 			page 3


  94              		@ sp needed
  95 000e 80BD     		pop	{r7, pc}
  96              		.cfi_endproc
  97              	.LFE36:
  98              		.size	LED_ON, .-LED_ON
  99              		.section	.text.LED_OFF,"ax",%progbits
 100              		.align	2
 101              		.global	LED_OFF
 102              		.code	16
 103              		.thumb_func
 104              		.type	LED_OFF, %function
 105              	LED_OFF:
 106              	.LFB37:
  22:main.c        **** 
  23:main.c        **** void LED_OFF(){
 107              		.loc 1 23 0
 108              		.cfi_startproc
 109              		@ args = 0, pretend = 0, frame = 0
 110              		@ frame_needed = 1, uses_anonymous_args = 0
 111 0000 80B5     		push	{r7, lr}
 112              		.cfi_def_cfa_offset 8
 113              		.cfi_offset 7, -8
 114              		.cfi_offset 14, -4
 115 0002 00AF     		add	r7, sp, #0
 116              		.cfi_def_cfa_register 7
  24:main.c        ****     LED_Write(1u);
 117              		.loc 1 24 0
 118 0004 0120     		movs	r0, #1
 119 0006 FFF7FEFF 		bl	LED_Write
  25:main.c        **** }
 120              		.loc 1 25 0
 121 000a C046     		nop
 122 000c BD46     		mov	sp, r7
 123              		@ sp needed
 124 000e 80BD     		pop	{r7, pc}
 125              		.cfi_endproc
 126              	.LFE37:
 127              		.size	LED_OFF, .-LED_OFF
 128              		.section	.text.sendStringViaUART,"ax",%progbits
 129              		.align	2
 130              		.global	sendStringViaUART
 131              		.code	16
 132              		.thumb_func
 133              		.type	sendStringViaUART, %function
 134              	sendStringViaUART:
 135              	.LFB38:
  26:main.c        **** void sendStringViaUART(char* text){
 136              		.loc 1 26 0
 137              		.cfi_startproc
 138              		@ args = 0, pretend = 0, frame = 8
 139              		@ frame_needed = 1, uses_anonymous_args = 0
 140 0000 80B5     		push	{r7, lr}
 141              		.cfi_def_cfa_offset 8
 142              		.cfi_offset 7, -8
 143              		.cfi_offset 14, -4
 144 0002 82B0     		sub	sp, sp, #8
 145              		.cfi_def_cfa_offset 16
ARM GAS  C:\Users\puria\AppData\Local\Temp\ccTihJYx.s 			page 4


 146 0004 00AF     		add	r7, sp, #0
 147              		.cfi_def_cfa_register 7
 148 0006 7860     		str	r0, [r7, #4]
  27:main.c        ****   while (*text != '\0')
 149              		.loc 1 27 0
 150 0008 06E0     		b	.L9
 151              	.L10:
  28:main.c        ****   { 
  29:main.c        ****     UART_UartPutChar((char) *text++);
 152              		.loc 1 29 0
 153 000a 7B68     		ldr	r3, [r7, #4]
 154 000c 5A1C     		adds	r2, r3, #1
 155 000e 7A60     		str	r2, [r7, #4]
 156 0010 1B78     		ldrb	r3, [r3]
 157 0012 1800     		movs	r0, r3
 158 0014 FFF7FEFF 		bl	UART_SpiUartWriteTxData
 159              	.L9:
  27:main.c        ****   while (*text != '\0')
 160              		.loc 1 27 0
 161 0018 7B68     		ldr	r3, [r7, #4]
 162 001a 1B78     		ldrb	r3, [r3]
 163 001c 002B     		cmp	r3, #0
 164 001e F4D1     		bne	.L10
  30:main.c        ****   }
  31:main.c        **** }
 165              		.loc 1 31 0
 166 0020 C046     		nop
 167 0022 BD46     		mov	sp, r7
 168 0024 02B0     		add	sp, sp, #8
 169              		@ sp needed
 170 0026 80BD     		pop	{r7, pc}
 171              		.cfi_endproc
 172              	.LFE38:
 173              		.size	sendStringViaUART, .-sendStringViaUART
 174              		.section	.rodata
 175              		.align	2
 176              	.LC0:
 177 0000 68656C6C 		.ascii	"hello world\000"
 177      6F20776F 
 177      726C6400 
 178              		.section	.text.flashLED,"ax",%progbits
 179              		.align	2
 180              		.global	flashLED
 181              		.code	16
 182              		.thumb_func
 183              		.type	flashLED, %function
 184              	flashLED:
 185              	.LFB39:
  32:main.c        **** void flashLED(){
 186              		.loc 1 32 0
 187              		.cfi_startproc
 188              		@ args = 0, pretend = 0, frame = 0
 189              		@ frame_needed = 1, uses_anonymous_args = 0
 190 0000 80B5     		push	{r7, lr}
 191              		.cfi_def_cfa_offset 8
 192              		.cfi_offset 7, -8
 193              		.cfi_offset 14, -4
ARM GAS  C:\Users\puria\AppData\Local\Temp\ccTihJYx.s 			page 5


 194 0002 00AF     		add	r7, sp, #0
 195              		.cfi_def_cfa_register 7
 196              	.L12:
  33:main.c        ****     while(1u){
  34:main.c        ****         LED_ON();
 197              		.loc 1 34 0 discriminator 1
 198 0004 FFF7FEFF 		bl	LED_ON
  35:main.c        ****         sendStringViaUART("hello world");
 199              		.loc 1 35 0 discriminator 1
 200 0008 054B     		ldr	r3, .L13
 201 000a 1800     		movs	r0, r3
 202 000c FFF7FEFF 		bl	sendStringViaUART
  36:main.c        ****         //UART_UartPutString("hello world");
  37:main.c        ****         //testPin_Write(0u);
  38:main.c        ****         delay();
 203              		.loc 1 38 0 discriminator 1
 204 0010 FFF7FEFF 		bl	delay
  39:main.c        ****         LED_OFF();
 205              		.loc 1 39 0 discriminator 1
 206 0014 FFF7FEFF 		bl	LED_OFF
  40:main.c        ****         //UART_UartPutString("world");
  41:main.c        ****         //testPin_Write(1u);
  42:main.c        ****         delay();
 207              		.loc 1 42 0 discriminator 1
 208 0018 FFF7FEFF 		bl	delay
  43:main.c        ****     }
 209              		.loc 1 43 0 discriminator 1
 210 001c F2E7     		b	.L12
 211              	.L14:
 212 001e C046     		.align	2
 213              	.L13:
 214 0020 00000000 		.word	.LC0
 215              		.cfi_endproc
 216              	.LFE39:
 217              		.size	flashLED, .-flashLED
 218              		.section	.text.BleCallBack,"ax",%progbits
 219              		.align	2
 220              		.global	BleCallBack
 221              		.code	16
 222              		.thumb_func
 223              		.type	BleCallBack, %function
 224              	BleCallBack:
 225              	.LFB40:
  44:main.c        **** }
  45:main.c        **** 
  46:main.c        **** void BleCallBack(uint32 event, void* eventParam){
 226              		.loc 1 46 0
 227              		.cfi_startproc
 228              		@ args = 0, pretend = 0, frame = 8
 229              		@ frame_needed = 1, uses_anonymous_args = 0
 230 0000 80B5     		push	{r7, lr}
 231              		.cfi_def_cfa_offset 8
 232              		.cfi_offset 7, -8
 233              		.cfi_offset 14, -4
 234 0002 82B0     		sub	sp, sp, #8
 235              		.cfi_def_cfa_offset 16
 236 0004 00AF     		add	r7, sp, #0
ARM GAS  C:\Users\puria\AppData\Local\Temp\ccTihJYx.s 			page 6


 237              		.cfi_def_cfa_register 7
 238 0006 7860     		str	r0, [r7, #4]
 239 0008 3960     		str	r1, [r7]
  47:main.c        ****     switch(event){
 240              		.loc 1 47 0
 241 000a 7B68     		ldr	r3, [r7, #4]
 242 000c 012B     		cmp	r3, #1
 243 000e 02D0     		beq	.L17
 244 0010 282B     		cmp	r3, #40
 245 0012 00D0     		beq	.L17
  48:main.c        ****         /* if there is a disconnect or the stack just turned on from a reset then start the adverti
  49:main.c        ****         case CYBLE_EVT_STACK_ON:
  50:main.c        ****         case CYBLE_EVT_GAP_DEVICE_DISCONNECTED://both cases get same handling
  51:main.c        ****             CyBle_GappStartAdvertisement(CYBLE_ADVERTISING_FAST);//start advertising the database a
  52:main.c        ****         break;
  53:main.c        ****     }
  54:main.c        **** }
 246              		.loc 1 54 0
 247 0014 03E0     		b	.L18
 248              	.L17:
  51:main.c        ****         break;
 249              		.loc 1 51 0
 250 0016 0020     		movs	r0, #0
 251 0018 FFF7FEFF 		bl	CyBle_GappStartAdvertisement
  52:main.c        ****     }
 252              		.loc 1 52 0
 253 001c C046     		nop
 254              	.L18:
 255              		.loc 1 54 0
 256 001e C046     		nop
 257 0020 BD46     		mov	sp, r7
 258 0022 02B0     		add	sp, sp, #8
 259              		@ sp needed
 260 0024 80BD     		pop	{r7, pc}
 261              		.cfi_endproc
 262              	.LFE40:
 263              		.size	BleCallBack, .-BleCallBack
 264 0026 C046     		.section	.text.main,"ax",%progbits
 265              		.align	2
 266              		.global	main
 267              		.code	16
 268              		.thumb_func
 269              		.type	main, %function
 270              	main:
 271              	.LFB41:
  55:main.c        **** 
  56:main.c        **** int main (void)
  57:main.c        **** {
 272              		.loc 1 57 0
 273              		.cfi_startproc
 274              		@ args = 0, pretend = 0, frame = 0
 275              		@ frame_needed = 1, uses_anonymous_args = 0
 276 0000 80B5     		push	{r7, lr}
 277              		.cfi_def_cfa_offset 8
 278              		.cfi_offset 7, -8
 279              		.cfi_offset 14, -4
 280 0002 00AF     		add	r7, sp, #0
ARM GAS  C:\Users\puria\AppData\Local\Temp\ccTihJYx.s 			page 7


 281              		.cfi_def_cfa_register 7
  58:main.c        ****     /* CyGlobalIntEnable; */ /* Uncomment this line to enable global interrupts. */
  59:main.c        ****     UART_Start();
 282              		.loc 1 59 0
 283 0004 FFF7FEFF 		bl	UART_Start
  60:main.c        ****     //flashLED();
  61:main.c        ****     CyBle_Start(BleCallBack);
 284              		.loc 1 61 0
 285 0008 034B     		ldr	r3, .L21
 286 000a 1800     		movs	r0, r3
 287 000c FFF7FEFF 		bl	CyBle_Start
 288              	.L20:
  62:main.c        ****     while(1u){
  63:main.c        ****       CyBle_ProcessEvents();
 289              		.loc 1 63 0 discriminator 1
 290 0010 FFF7FEFF 		bl	CyBle_ProcessEvents
  64:main.c        ****     }
 291              		.loc 1 64 0 discriminator 1
 292 0014 FCE7     		b	.L20
 293              	.L22:
 294 0016 C046     		.align	2
 295              	.L21:
 296 0018 00000000 		.word	BleCallBack
 297              		.cfi_endproc
 298              	.LFE41:
 299              		.size	main, .-main
 300              		.text
 301              	.Letext0:
 302              		.file 2 "Generated_Source\\PSoC4/cytypes.h"
 303              		.file 3 "Generated_Source\\PSoC4/BLE_Stack.h"