ARM GAS  C:\Users\puria\AppData\Local\Temp\ccNbP4Om.s 			page 1


   1              		.syntax unified
   2              		.cpu cortex-m0
   3              		.fpu softvfp
   4              		.eabi_attribute 20, 1
   5              		.eabi_attribute 21, 1
   6              		.eabi_attribute 23, 3
   7              		.eabi_attribute 24, 1
   8              		.eabi_attribute 25, 1
   9              		.eabi_attribute 26, 1
  10              		.eabi_attribute 30, 6
  11              		.eabi_attribute 34, 0
  12              		.eabi_attribute 18, 4
  13              		.thumb
  14              		.syntax unified
  15              		.file	"SCB_2_I2C.c"
  16              		.text
  17              	.Ltext0:
  18              		.cfi_sections	.debug_frame
  19              		.comm	SCB_2_state,1,1
  20              		.section	.text.SCB_2_I2CInit,"ax",%progbits
  21              		.align	2
  22              		.global	SCB_2_I2CInit
  23              		.code	16
  24              		.thumb_func
  25              		.type	SCB_2_I2CInit, %function
  26              	SCB_2_I2CInit:
  27              	.LFB2:
  28              		.file 1 "Generated_Source\\PSoC4\\SCB_2_I2C.c"
   1:Generated_Source\PSoC4/SCB_2_I2C.c **** /***************************************************************************//**
   2:Generated_Source\PSoC4/SCB_2_I2C.c **** * \file SCB_2_I2C.c
   3:Generated_Source\PSoC4/SCB_2_I2C.c **** * \version 3.20
   4:Generated_Source\PSoC4/SCB_2_I2C.c **** *
   5:Generated_Source\PSoC4/SCB_2_I2C.c **** * \brief
   6:Generated_Source\PSoC4/SCB_2_I2C.c **** *  This file provides the source code to the API for the SCB Component in
   7:Generated_Source\PSoC4/SCB_2_I2C.c **** *  I2C mode.
   8:Generated_Source\PSoC4/SCB_2_I2C.c **** *
   9:Generated_Source\PSoC4/SCB_2_I2C.c **** * Note:
  10:Generated_Source\PSoC4/SCB_2_I2C.c **** *
  11:Generated_Source\PSoC4/SCB_2_I2C.c **** *******************************************************************************
  12:Generated_Source\PSoC4/SCB_2_I2C.c **** * \copyright
  13:Generated_Source\PSoC4/SCB_2_I2C.c **** * Copyright 2013-2016, Cypress Semiconductor Corporation.  All rights reserved.
  14:Generated_Source\PSoC4/SCB_2_I2C.c **** * You may use this file only in accordance with the license, terms, conditions,
  15:Generated_Source\PSoC4/SCB_2_I2C.c **** * disclaimers, and limitations in the end user license agreement accompanying
  16:Generated_Source\PSoC4/SCB_2_I2C.c **** * the software package with which this file was provided.
  17:Generated_Source\PSoC4/SCB_2_I2C.c **** *******************************************************************************/
  18:Generated_Source\PSoC4/SCB_2_I2C.c **** 
  19:Generated_Source\PSoC4/SCB_2_I2C.c **** #include "SCB_2_PVT.h"
  20:Generated_Source\PSoC4/SCB_2_I2C.c **** #include "SCB_2_I2C_PVT.h"
  21:Generated_Source\PSoC4/SCB_2_I2C.c **** 
  22:Generated_Source\PSoC4/SCB_2_I2C.c **** 
  23:Generated_Source\PSoC4/SCB_2_I2C.c **** /***************************************
  24:Generated_Source\PSoC4/SCB_2_I2C.c **** *      I2C Private Vars
  25:Generated_Source\PSoC4/SCB_2_I2C.c **** ***************************************/
  26:Generated_Source\PSoC4/SCB_2_I2C.c **** 
  27:Generated_Source\PSoC4/SCB_2_I2C.c **** volatile uint8 SCB_2_state;  /* Current state of I2C FSM */
  28:Generated_Source\PSoC4/SCB_2_I2C.c **** 
  29:Generated_Source\PSoC4/SCB_2_I2C.c **** #if(SCB_2_SCB_MODE_UNCONFIG_CONST_CFG)
ARM GAS  C:\Users\puria\AppData\Local\Temp\ccNbP4Om.s 			page 2


  30:Generated_Source\PSoC4/SCB_2_I2C.c **** 
  31:Generated_Source\PSoC4/SCB_2_I2C.c ****     /***************************************
  32:Generated_Source\PSoC4/SCB_2_I2C.c ****     *  Configuration Structure Initialization
  33:Generated_Source\PSoC4/SCB_2_I2C.c ****     ***************************************/
  34:Generated_Source\PSoC4/SCB_2_I2C.c **** 
  35:Generated_Source\PSoC4/SCB_2_I2C.c ****     /* Constant configuration of I2C */
  36:Generated_Source\PSoC4/SCB_2_I2C.c ****     const SCB_2_I2C_INIT_STRUCT SCB_2_configI2C =
  37:Generated_Source\PSoC4/SCB_2_I2C.c ****     {
  38:Generated_Source\PSoC4/SCB_2_I2C.c ****         SCB_2_I2C_MODE,
  39:Generated_Source\PSoC4/SCB_2_I2C.c ****         SCB_2_I2C_OVS_FACTOR_LOW,
  40:Generated_Source\PSoC4/SCB_2_I2C.c ****         SCB_2_I2C_OVS_FACTOR_HIGH,
  41:Generated_Source\PSoC4/SCB_2_I2C.c ****         SCB_2_I2C_MEDIAN_FILTER_ENABLE,
  42:Generated_Source\PSoC4/SCB_2_I2C.c ****         SCB_2_I2C_SLAVE_ADDRESS,
  43:Generated_Source\PSoC4/SCB_2_I2C.c ****         SCB_2_I2C_SLAVE_ADDRESS_MASK,
  44:Generated_Source\PSoC4/SCB_2_I2C.c ****         SCB_2_I2C_ACCEPT_ADDRESS,
  45:Generated_Source\PSoC4/SCB_2_I2C.c ****         SCB_2_I2C_WAKE_ENABLE,
  46:Generated_Source\PSoC4/SCB_2_I2C.c ****         SCB_2_I2C_BYTE_MODE_ENABLE,
  47:Generated_Source\PSoC4/SCB_2_I2C.c ****         SCB_2_I2C_DATA_RATE,
  48:Generated_Source\PSoC4/SCB_2_I2C.c ****         SCB_2_I2C_ACCEPT_GENERAL_CALL,
  49:Generated_Source\PSoC4/SCB_2_I2C.c ****     };
  50:Generated_Source\PSoC4/SCB_2_I2C.c **** 
  51:Generated_Source\PSoC4/SCB_2_I2C.c ****     /*******************************************************************************
  52:Generated_Source\PSoC4/SCB_2_I2C.c ****     * Function Name: SCB_2_I2CInit
  53:Generated_Source\PSoC4/SCB_2_I2C.c ****     ****************************************************************************//**
  54:Generated_Source\PSoC4/SCB_2_I2C.c ****     *
  55:Generated_Source\PSoC4/SCB_2_I2C.c ****     *
  56:Generated_Source\PSoC4/SCB_2_I2C.c ****     *  Configures the SCB_2 for I2C operation.
  57:Generated_Source\PSoC4/SCB_2_I2C.c ****     *
  58:Generated_Source\PSoC4/SCB_2_I2C.c ****     *  This function is intended specifically to be used when the SCB_2 
  59:Generated_Source\PSoC4/SCB_2_I2C.c ****     *  configuration is set to “Unconfigured SCB_2” in the customizer. 
  60:Generated_Source\PSoC4/SCB_2_I2C.c ****     *  After initializing the SCB_2 in I2C mode using this function, 
  61:Generated_Source\PSoC4/SCB_2_I2C.c ****     *  the component can be enabled using the SCB_2_Start() or 
  62:Generated_Source\PSoC4/SCB_2_I2C.c ****     * SCB_2_Enable() function.
  63:Generated_Source\PSoC4/SCB_2_I2C.c ****     *  This function uses a pointer to a structure that provides the configuration 
  64:Generated_Source\PSoC4/SCB_2_I2C.c ****     *  settings. This structure contains the same information that would otherwise 
  65:Generated_Source\PSoC4/SCB_2_I2C.c ****     *  be provided by the customizer settings.
  66:Generated_Source\PSoC4/SCB_2_I2C.c ****     *
  67:Generated_Source\PSoC4/SCB_2_I2C.c ****     *  \param config: pointer to a structure that contains the following list of 
  68:Generated_Source\PSoC4/SCB_2_I2C.c ****     *   fields. These fields match the selections available in the customizer. 
  69:Generated_Source\PSoC4/SCB_2_I2C.c ****     *   Refer to the customizer for further description of the settings.
  70:Generated_Source\PSoC4/SCB_2_I2C.c ****     *
  71:Generated_Source\PSoC4/SCB_2_I2C.c ****     *******************************************************************************/
  72:Generated_Source\PSoC4/SCB_2_I2C.c ****     void SCB_2_I2CInit(const SCB_2_I2C_INIT_STRUCT *config)
  73:Generated_Source\PSoC4/SCB_2_I2C.c ****     {
  74:Generated_Source\PSoC4/SCB_2_I2C.c ****         uint32 medianFilter;
  75:Generated_Source\PSoC4/SCB_2_I2C.c ****         uint32 locEnableWake;
  76:Generated_Source\PSoC4/SCB_2_I2C.c **** 
  77:Generated_Source\PSoC4/SCB_2_I2C.c ****         if(NULL == config)
  78:Generated_Source\PSoC4/SCB_2_I2C.c ****         {
  79:Generated_Source\PSoC4/SCB_2_I2C.c ****             CYASSERT(0u != 0u); /* Halt execution due to bad function parameter */
  80:Generated_Source\PSoC4/SCB_2_I2C.c ****         }
  81:Generated_Source\PSoC4/SCB_2_I2C.c ****         else
  82:Generated_Source\PSoC4/SCB_2_I2C.c ****         {
  83:Generated_Source\PSoC4/SCB_2_I2C.c ****             /* Configure pins */
  84:Generated_Source\PSoC4/SCB_2_I2C.c ****             SCB_2_SetPins(SCB_2_SCB_MODE_I2C, SCB_2_DUMMY_PARAM,
  85:Generated_Source\PSoC4/SCB_2_I2C.c ****                                      SCB_2_DUMMY_PARAM);
  86:Generated_Source\PSoC4/SCB_2_I2C.c **** 
ARM GAS  C:\Users\puria\AppData\Local\Temp\ccNbP4Om.s 			page 3


  87:Generated_Source\PSoC4/SCB_2_I2C.c ****             /* Store internal configuration */
  88:Generated_Source\PSoC4/SCB_2_I2C.c ****             SCB_2_scbMode       = (uint8) SCB_2_SCB_MODE_I2C;
  89:Generated_Source\PSoC4/SCB_2_I2C.c ****             SCB_2_scbEnableWake = (uint8) config->enableWake;
  90:Generated_Source\PSoC4/SCB_2_I2C.c ****             SCB_2_scbEnableIntr = (uint8) SCB_2_SCB_IRQ_INTERNAL;
  91:Generated_Source\PSoC4/SCB_2_I2C.c **** 
  92:Generated_Source\PSoC4/SCB_2_I2C.c ****             SCB_2_mode          = (uint8) config->mode;
  93:Generated_Source\PSoC4/SCB_2_I2C.c ****             SCB_2_acceptAddr    = (uint8) config->acceptAddr;
  94:Generated_Source\PSoC4/SCB_2_I2C.c **** 
  95:Generated_Source\PSoC4/SCB_2_I2C.c ****         #if (SCB_2_CY_SCBIP_V0)
  96:Generated_Source\PSoC4/SCB_2_I2C.c ****             /* Adjust SDA filter settings. Ticket ID#150521 */
  97:Generated_Source\PSoC4/SCB_2_I2C.c ****             SCB_2_SET_I2C_CFG_SDA_FILT_TRIM(SCB_2_EC_AM_I2C_CFG_SDA_FILT_TRIM);
  98:Generated_Source\PSoC4/SCB_2_I2C.c ****         #endif /* (SCB_2_CY_SCBIP_V0) */
  99:Generated_Source\PSoC4/SCB_2_I2C.c **** 
 100:Generated_Source\PSoC4/SCB_2_I2C.c ****             /* Adjust AF and DF filter settings. Ticket ID#176179 */
 101:Generated_Source\PSoC4/SCB_2_I2C.c ****             if (((SCB_2_I2C_MODE_SLAVE != config->mode) &&
 102:Generated_Source\PSoC4/SCB_2_I2C.c ****                  (config->dataRate <= SCB_2_I2C_DATA_RATE_FS_MODE_MAX)) ||
 103:Generated_Source\PSoC4/SCB_2_I2C.c ****                  (SCB_2_I2C_MODE_SLAVE == config->mode))
 104:Generated_Source\PSoC4/SCB_2_I2C.c ****             {
 105:Generated_Source\PSoC4/SCB_2_I2C.c ****                 /* AF = 1, DF = 0 */
 106:Generated_Source\PSoC4/SCB_2_I2C.c ****                 SCB_2_I2C_CFG_ANALOG_FITER_ENABLE;
 107:Generated_Source\PSoC4/SCB_2_I2C.c ****                 medianFilter = SCB_2_DIGITAL_FILTER_DISABLE;
 108:Generated_Source\PSoC4/SCB_2_I2C.c ****             }
 109:Generated_Source\PSoC4/SCB_2_I2C.c ****             else
 110:Generated_Source\PSoC4/SCB_2_I2C.c ****             {
 111:Generated_Source\PSoC4/SCB_2_I2C.c ****                 /* AF = 0, DF = 1 */
 112:Generated_Source\PSoC4/SCB_2_I2C.c ****                 SCB_2_I2C_CFG_ANALOG_FITER_DISABLE;
 113:Generated_Source\PSoC4/SCB_2_I2C.c ****                 medianFilter = SCB_2_DIGITAL_FILTER_ENABLE;
 114:Generated_Source\PSoC4/SCB_2_I2C.c ****             }
 115:Generated_Source\PSoC4/SCB_2_I2C.c **** 
 116:Generated_Source\PSoC4/SCB_2_I2C.c ****         #if (!SCB_2_CY_SCBIP_V0)
 117:Generated_Source\PSoC4/SCB_2_I2C.c ****             locEnableWake = (SCB_2_I2C_MULTI_MASTER_SLAVE) ? (0u) : (config->enableWake);
 118:Generated_Source\PSoC4/SCB_2_I2C.c ****         #else
 119:Generated_Source\PSoC4/SCB_2_I2C.c ****             locEnableWake = config->enableWake;
 120:Generated_Source\PSoC4/SCB_2_I2C.c ****         #endif /* (!SCB_2_CY_SCBIP_V0) */
 121:Generated_Source\PSoC4/SCB_2_I2C.c **** 
 122:Generated_Source\PSoC4/SCB_2_I2C.c ****             /* Configure I2C interface */
 123:Generated_Source\PSoC4/SCB_2_I2C.c ****             SCB_2_CTRL_REG     = SCB_2_GET_CTRL_BYTE_MODE  (config->enableByteMode) |
 124:Generated_Source\PSoC4/SCB_2_I2C.c ****                                             SCB_2_GET_CTRL_ADDR_ACCEPT(config->acceptAddr)     |
 125:Generated_Source\PSoC4/SCB_2_I2C.c ****                                             SCB_2_GET_CTRL_EC_AM_MODE (locEnableWake);
 126:Generated_Source\PSoC4/SCB_2_I2C.c **** 
 127:Generated_Source\PSoC4/SCB_2_I2C.c ****             SCB_2_I2C_CTRL_REG = SCB_2_GET_I2C_CTRL_HIGH_PHASE_OVS(config->oversampleHigh) |
 128:Generated_Source\PSoC4/SCB_2_I2C.c ****                     SCB_2_GET_I2C_CTRL_LOW_PHASE_OVS (config->oversampleLow)                       
 129:Generated_Source\PSoC4/SCB_2_I2C.c ****                     SCB_2_GET_I2C_CTRL_S_GENERAL_IGNORE((uint32)(0u == config->acceptGeneralAddr)) 
 130:Generated_Source\PSoC4/SCB_2_I2C.c ****                     SCB_2_GET_I2C_CTRL_SL_MSTR_MODE  (config->mode);
 131:Generated_Source\PSoC4/SCB_2_I2C.c **** 
 132:Generated_Source\PSoC4/SCB_2_I2C.c ****             /* Configure RX direction */
 133:Generated_Source\PSoC4/SCB_2_I2C.c ****             SCB_2_RX_CTRL_REG      = SCB_2_GET_RX_CTRL_MEDIAN(medianFilter) |
 134:Generated_Source\PSoC4/SCB_2_I2C.c ****                                                 SCB_2_I2C_RX_CTRL;
 135:Generated_Source\PSoC4/SCB_2_I2C.c ****             SCB_2_RX_FIFO_CTRL_REG = SCB_2_CLEAR_REG;
 136:Generated_Source\PSoC4/SCB_2_I2C.c **** 
 137:Generated_Source\PSoC4/SCB_2_I2C.c ****             /* Set default address and mask */
 138:Generated_Source\PSoC4/SCB_2_I2C.c ****             SCB_2_RX_MATCH_REG    = ((SCB_2_I2C_SLAVE) ?
 139:Generated_Source\PSoC4/SCB_2_I2C.c ****                                                 (SCB_2_GET_I2C_8BIT_ADDRESS(config->slaveAddr) |
 140:Generated_Source\PSoC4/SCB_2_I2C.c ****                                                  SCB_2_GET_RX_MATCH_MASK(config->slaveAddrMask)) :
 141:Generated_Source\PSoC4/SCB_2_I2C.c ****                                                 (SCB_2_CLEAR_REG));
 142:Generated_Source\PSoC4/SCB_2_I2C.c **** 
 143:Generated_Source\PSoC4/SCB_2_I2C.c **** 
ARM GAS  C:\Users\puria\AppData\Local\Temp\ccNbP4Om.s 			page 4


 144:Generated_Source\PSoC4/SCB_2_I2C.c ****             /* Configure TX direction */
 145:Generated_Source\PSoC4/SCB_2_I2C.c ****             SCB_2_TX_CTRL_REG      = SCB_2_I2C_TX_CTRL;
 146:Generated_Source\PSoC4/SCB_2_I2C.c ****             SCB_2_TX_FIFO_CTRL_REG = SCB_2_CLEAR_REG;
 147:Generated_Source\PSoC4/SCB_2_I2C.c **** 
 148:Generated_Source\PSoC4/SCB_2_I2C.c ****             /* Configure interrupt with I2C handler but do not enable it */
 149:Generated_Source\PSoC4/SCB_2_I2C.c ****             CyIntDisable    (SCB_2_ISR_NUMBER);
 150:Generated_Source\PSoC4/SCB_2_I2C.c ****             CyIntSetPriority(SCB_2_ISR_NUMBER, SCB_2_ISR_PRIORITY);
 151:Generated_Source\PSoC4/SCB_2_I2C.c ****             (void) CyIntSetVector(SCB_2_ISR_NUMBER, &SCB_2_I2C_ISR);
 152:Generated_Source\PSoC4/SCB_2_I2C.c **** 
 153:Generated_Source\PSoC4/SCB_2_I2C.c ****             /* Configure interrupt sources */
 154:Generated_Source\PSoC4/SCB_2_I2C.c ****         #if(!SCB_2_CY_SCBIP_V1)
 155:Generated_Source\PSoC4/SCB_2_I2C.c ****             SCB_2_INTR_SPI_EC_MASK_REG = SCB_2_NO_INTR_SOURCES;
 156:Generated_Source\PSoC4/SCB_2_I2C.c ****         #endif /* (!SCB_2_CY_SCBIP_V1) */
 157:Generated_Source\PSoC4/SCB_2_I2C.c **** 
 158:Generated_Source\PSoC4/SCB_2_I2C.c ****             SCB_2_INTR_I2C_EC_MASK_REG = SCB_2_NO_INTR_SOURCES;
 159:Generated_Source\PSoC4/SCB_2_I2C.c ****             SCB_2_INTR_RX_MASK_REG     = SCB_2_NO_INTR_SOURCES;
 160:Generated_Source\PSoC4/SCB_2_I2C.c ****             SCB_2_INTR_TX_MASK_REG     = SCB_2_NO_INTR_SOURCES;
 161:Generated_Source\PSoC4/SCB_2_I2C.c **** 
 162:Generated_Source\PSoC4/SCB_2_I2C.c ****             SCB_2_INTR_SLAVE_MASK_REG  = ((SCB_2_I2C_SLAVE) ?
 163:Generated_Source\PSoC4/SCB_2_I2C.c ****                             (SCB_2_GET_INTR_SLAVE_I2C_GENERAL(config->acceptGeneralAddr) |
 164:Generated_Source\PSoC4/SCB_2_I2C.c ****                              SCB_2_I2C_INTR_SLAVE_MASK) : (SCB_2_CLEAR_REG));
 165:Generated_Source\PSoC4/SCB_2_I2C.c **** 
 166:Generated_Source\PSoC4/SCB_2_I2C.c ****             SCB_2_INTR_MASTER_MASK_REG = ((SCB_2_I2C_MASTER) ?
 167:Generated_Source\PSoC4/SCB_2_I2C.c ****                                                      (SCB_2_I2C_INTR_MASTER_MASK) :
 168:Generated_Source\PSoC4/SCB_2_I2C.c ****                                                      (SCB_2_CLEAR_REG));
 169:Generated_Source\PSoC4/SCB_2_I2C.c **** 
 170:Generated_Source\PSoC4/SCB_2_I2C.c ****             /* Configure global variables */
 171:Generated_Source\PSoC4/SCB_2_I2C.c ****             SCB_2_state = SCB_2_I2C_FSM_IDLE;
 172:Generated_Source\PSoC4/SCB_2_I2C.c **** 
 173:Generated_Source\PSoC4/SCB_2_I2C.c ****             /* Internal slave variables */
 174:Generated_Source\PSoC4/SCB_2_I2C.c ****             SCB_2_slStatus        = 0u;
 175:Generated_Source\PSoC4/SCB_2_I2C.c ****             SCB_2_slRdBufIndex    = 0u;
 176:Generated_Source\PSoC4/SCB_2_I2C.c ****             SCB_2_slWrBufIndex    = 0u;
 177:Generated_Source\PSoC4/SCB_2_I2C.c ****             SCB_2_slOverFlowCount = 0u;
 178:Generated_Source\PSoC4/SCB_2_I2C.c **** 
 179:Generated_Source\PSoC4/SCB_2_I2C.c ****             /* Internal master variables */
 180:Generated_Source\PSoC4/SCB_2_I2C.c ****             SCB_2_mstrStatus     = 0u;
 181:Generated_Source\PSoC4/SCB_2_I2C.c ****             SCB_2_mstrRdBufIndex = 0u;
 182:Generated_Source\PSoC4/SCB_2_I2C.c ****             SCB_2_mstrWrBufIndex = 0u;
 183:Generated_Source\PSoC4/SCB_2_I2C.c ****         }
 184:Generated_Source\PSoC4/SCB_2_I2C.c ****     }
 185:Generated_Source\PSoC4/SCB_2_I2C.c **** 
 186:Generated_Source\PSoC4/SCB_2_I2C.c **** #else
 187:Generated_Source\PSoC4/SCB_2_I2C.c **** 
 188:Generated_Source\PSoC4/SCB_2_I2C.c ****     /*******************************************************************************
 189:Generated_Source\PSoC4/SCB_2_I2C.c ****     * Function Name: SCB_2_I2CInit
 190:Generated_Source\PSoC4/SCB_2_I2C.c ****     ****************************************************************************//**
 191:Generated_Source\PSoC4/SCB_2_I2C.c ****     *
 192:Generated_Source\PSoC4/SCB_2_I2C.c ****     *  Configures the SCB for the I2C operation.
 193:Generated_Source\PSoC4/SCB_2_I2C.c ****     *
 194:Generated_Source\PSoC4/SCB_2_I2C.c ****     *******************************************************************************/
 195:Generated_Source\PSoC4/SCB_2_I2C.c ****     void SCB_2_I2CInit(void)
 196:Generated_Source\PSoC4/SCB_2_I2C.c ****     {
  29              		.loc 1 196 0
  30              		.cfi_startproc
  31              		@ args = 0, pretend = 0, frame = 0
  32              		@ frame_needed = 1, uses_anonymous_args = 0
ARM GAS  C:\Users\puria\AppData\Local\Temp\ccNbP4Om.s 			page 5


  33 0000 80B5     		push	{r7, lr}
  34              		.cfi_def_cfa_offset 8
  35              		.cfi_offset 7, -8
  36              		.cfi_offset 14, -4
  37 0002 00AF     		add	r7, sp, #0
  38              		.cfi_def_cfa_register 7
 197:Generated_Source\PSoC4/SCB_2_I2C.c ****     #if(SCB_2_CY_SCBIP_V0)
 198:Generated_Source\PSoC4/SCB_2_I2C.c ****         /* Adjust SDA filter settings. Ticket ID#150521 */
 199:Generated_Source\PSoC4/SCB_2_I2C.c ****         SCB_2_SET_I2C_CFG_SDA_FILT_TRIM(SCB_2_EC_AM_I2C_CFG_SDA_FILT_TRIM);
 200:Generated_Source\PSoC4/SCB_2_I2C.c ****     #endif /* (SCB_2_CY_SCBIP_V0) */
 201:Generated_Source\PSoC4/SCB_2_I2C.c **** 
 202:Generated_Source\PSoC4/SCB_2_I2C.c ****         /* Adjust AF and DF filter settings. Ticket ID#176179 */
 203:Generated_Source\PSoC4/SCB_2_I2C.c ****         SCB_2_I2C_CFG_ANALOG_FITER_ENABLE_ADJ;
 204:Generated_Source\PSoC4/SCB_2_I2C.c **** 
 205:Generated_Source\PSoC4/SCB_2_I2C.c ****         /* Configure I2C interface */
 206:Generated_Source\PSoC4/SCB_2_I2C.c ****         SCB_2_CTRL_REG     = SCB_2_I2C_DEFAULT_CTRL;
  39              		.loc 1 206 0
  40 0004 224B     		ldr	r3, .L2
  41 0006 0022     		movs	r2, #0
  42 0008 1A60     		str	r2, [r3]
 207:Generated_Source\PSoC4/SCB_2_I2C.c ****         SCB_2_I2C_CTRL_REG = SCB_2_I2C_DEFAULT_I2C_CTRL;
  43              		.loc 1 207 0
  44 000a 224B     		ldr	r3, .L2+4
  45 000c 224A     		ldr	r2, .L2+8
  46 000e 1A60     		str	r2, [r3]
 208:Generated_Source\PSoC4/SCB_2_I2C.c **** 
 209:Generated_Source\PSoC4/SCB_2_I2C.c ****         /* Configure RX direction */
 210:Generated_Source\PSoC4/SCB_2_I2C.c ****         SCB_2_RX_CTRL_REG      = SCB_2_I2C_DEFAULT_RX_CTRL;
  47              		.loc 1 210 0
  48 0010 224B     		ldr	r3, .L2+12
  49 0012 234A     		ldr	r2, .L2+16
  50 0014 1A60     		str	r2, [r3]
 211:Generated_Source\PSoC4/SCB_2_I2C.c ****         SCB_2_RX_FIFO_CTRL_REG = SCB_2_I2C_DEFAULT_RX_FIFO_CTRL;
  51              		.loc 1 211 0
  52 0016 234B     		ldr	r3, .L2+20
  53 0018 0022     		movs	r2, #0
  54 001a 1A60     		str	r2, [r3]
 212:Generated_Source\PSoC4/SCB_2_I2C.c **** 
 213:Generated_Source\PSoC4/SCB_2_I2C.c ****         /* Set default address and mask */
 214:Generated_Source\PSoC4/SCB_2_I2C.c ****         SCB_2_RX_MATCH_REG     = SCB_2_I2C_DEFAULT_RX_MATCH;
  55              		.loc 1 214 0
  56 001c 224B     		ldr	r3, .L2+24
  57 001e 234A     		ldr	r2, .L2+28
  58 0020 1A60     		str	r2, [r3]
 215:Generated_Source\PSoC4/SCB_2_I2C.c **** 
 216:Generated_Source\PSoC4/SCB_2_I2C.c ****         /* Configure TX direction */
 217:Generated_Source\PSoC4/SCB_2_I2C.c ****         SCB_2_TX_CTRL_REG      = SCB_2_I2C_DEFAULT_TX_CTRL;
  59              		.loc 1 217 0
  60 0022 234B     		ldr	r3, .L2+32
  61 0024 1E4A     		ldr	r2, .L2+16
  62 0026 1A60     		str	r2, [r3]
 218:Generated_Source\PSoC4/SCB_2_I2C.c ****         SCB_2_TX_FIFO_CTRL_REG = SCB_2_I2C_DEFAULT_TX_FIFO_CTRL;
  63              		.loc 1 218 0
  64 0028 224B     		ldr	r3, .L2+36
  65 002a 0022     		movs	r2, #0
  66 002c 1A60     		str	r2, [r3]
 219:Generated_Source\PSoC4/SCB_2_I2C.c **** 
ARM GAS  C:\Users\puria\AppData\Local\Temp\ccNbP4Om.s 			page 6


 220:Generated_Source\PSoC4/SCB_2_I2C.c ****         /* Configure interrupt with I2C handler but do not enable it */
 221:Generated_Source\PSoC4/SCB_2_I2C.c ****         CyIntDisable    (SCB_2_ISR_NUMBER);
  67              		.loc 1 221 0
  68 002e 0920     		movs	r0, #9
  69 0030 FFF7FEFF 		bl	CyIntDisable
 222:Generated_Source\PSoC4/SCB_2_I2C.c ****         CyIntSetPriority(SCB_2_ISR_NUMBER, SCB_2_ISR_PRIORITY);
  70              		.loc 1 222 0
  71 0034 0321     		movs	r1, #3
  72 0036 0920     		movs	r0, #9
  73 0038 FFF7FEFF 		bl	CyIntSetPriority
 223:Generated_Source\PSoC4/SCB_2_I2C.c ****     #if(!SCB_2_I2C_EXTERN_INTR_HANDLER)
 224:Generated_Source\PSoC4/SCB_2_I2C.c ****         (void) CyIntSetVector(SCB_2_ISR_NUMBER, &SCB_2_I2C_ISR);
  74              		.loc 1 224 0
  75 003c 1E4B     		ldr	r3, .L2+40
  76 003e 1900     		movs	r1, r3
  77 0040 0920     		movs	r0, #9
  78 0042 FFF7FEFF 		bl	CyIntSetVector
 225:Generated_Source\PSoC4/SCB_2_I2C.c ****     #endif /* (SCB_2_I2C_EXTERN_INTR_HANDLER) */
 226:Generated_Source\PSoC4/SCB_2_I2C.c **** 
 227:Generated_Source\PSoC4/SCB_2_I2C.c ****         /* Configure interrupt sources */
 228:Generated_Source\PSoC4/SCB_2_I2C.c ****     #if(!SCB_2_CY_SCBIP_V1)
 229:Generated_Source\PSoC4/SCB_2_I2C.c ****         SCB_2_INTR_SPI_EC_MASK_REG = SCB_2_I2C_DEFAULT_INTR_SPI_EC_MASK;
  79              		.loc 1 229 0
  80 0046 1D4B     		ldr	r3, .L2+44
  81 0048 0022     		movs	r2, #0
  82 004a 1A60     		str	r2, [r3]
 230:Generated_Source\PSoC4/SCB_2_I2C.c ****     #endif /* (!SCB_2_CY_SCBIP_V1) */
 231:Generated_Source\PSoC4/SCB_2_I2C.c **** 
 232:Generated_Source\PSoC4/SCB_2_I2C.c ****         SCB_2_INTR_I2C_EC_MASK_REG = SCB_2_I2C_DEFAULT_INTR_I2C_EC_MASK;
  83              		.loc 1 232 0
  84 004c 1C4B     		ldr	r3, .L2+48
  85 004e 0022     		movs	r2, #0
  86 0050 1A60     		str	r2, [r3]
 233:Generated_Source\PSoC4/SCB_2_I2C.c ****         SCB_2_INTR_SLAVE_MASK_REG  = SCB_2_I2C_DEFAULT_INTR_SLAVE_MASK;
  87              		.loc 1 233 0
  88 0052 1C4B     		ldr	r3, .L2+52
  89 0054 4C22     		movs	r2, #76
  90 0056 FF32     		adds	r2, r2, #255
  91 0058 1A60     		str	r2, [r3]
 234:Generated_Source\PSoC4/SCB_2_I2C.c ****         SCB_2_INTR_MASTER_MASK_REG = SCB_2_I2C_DEFAULT_INTR_MASTER_MASK;
  92              		.loc 1 234 0
  93 005a 1B4B     		ldr	r3, .L2+56
  94 005c 0022     		movs	r2, #0
  95 005e 1A60     		str	r2, [r3]
 235:Generated_Source\PSoC4/SCB_2_I2C.c ****         SCB_2_INTR_RX_MASK_REG     = SCB_2_I2C_DEFAULT_INTR_RX_MASK;
  96              		.loc 1 235 0
  97 0060 1A4B     		ldr	r3, .L2+60
  98 0062 0022     		movs	r2, #0
  99 0064 1A60     		str	r2, [r3]
 236:Generated_Source\PSoC4/SCB_2_I2C.c ****         SCB_2_INTR_TX_MASK_REG     = SCB_2_I2C_DEFAULT_INTR_TX_MASK;
 100              		.loc 1 236 0
 101 0066 1A4B     		ldr	r3, .L2+64
 102 0068 0022     		movs	r2, #0
 103 006a 1A60     		str	r2, [r3]
 237:Generated_Source\PSoC4/SCB_2_I2C.c **** 
 238:Generated_Source\PSoC4/SCB_2_I2C.c ****         /* Configure global variables */
 239:Generated_Source\PSoC4/SCB_2_I2C.c ****         SCB_2_state = SCB_2_I2C_FSM_IDLE;
ARM GAS  C:\Users\puria\AppData\Local\Temp\ccNbP4Om.s 			page 7


 104              		.loc 1 239 0
 105 006c 194B     		ldr	r3, .L2+68
 106 006e 1022     		movs	r2, #16
 107 0070 1A70     		strb	r2, [r3]
 240:Generated_Source\PSoC4/SCB_2_I2C.c **** 
 241:Generated_Source\PSoC4/SCB_2_I2C.c ****     #if(SCB_2_I2C_SLAVE)
 242:Generated_Source\PSoC4/SCB_2_I2C.c ****         /* Internal slave variable */
 243:Generated_Source\PSoC4/SCB_2_I2C.c ****         SCB_2_slStatus        = 0u;
 108              		.loc 1 243 0
 109 0072 194B     		ldr	r3, .L2+72
 110 0074 0022     		movs	r2, #0
 111 0076 1A70     		strb	r2, [r3]
 244:Generated_Source\PSoC4/SCB_2_I2C.c ****         SCB_2_slRdBufIndex    = 0u;
 112              		.loc 1 244 0
 113 0078 184B     		ldr	r3, .L2+76
 114 007a 0022     		movs	r2, #0
 115 007c 1A60     		str	r2, [r3]
 245:Generated_Source\PSoC4/SCB_2_I2C.c ****         SCB_2_slWrBufIndex    = 0u;
 116              		.loc 1 245 0
 117 007e 184B     		ldr	r3, .L2+80
 118 0080 0022     		movs	r2, #0
 119 0082 1A60     		str	r2, [r3]
 246:Generated_Source\PSoC4/SCB_2_I2C.c ****         SCB_2_slOverFlowCount = 0u;
 120              		.loc 1 246 0
 121 0084 174B     		ldr	r3, .L2+84
 122 0086 0022     		movs	r2, #0
 123 0088 1A70     		strb	r2, [r3]
 247:Generated_Source\PSoC4/SCB_2_I2C.c ****     #endif /* (SCB_2_I2C_SLAVE) */
 248:Generated_Source\PSoC4/SCB_2_I2C.c **** 
 249:Generated_Source\PSoC4/SCB_2_I2C.c ****     #if(SCB_2_I2C_MASTER)
 250:Generated_Source\PSoC4/SCB_2_I2C.c ****     /* Internal master variable */
 251:Generated_Source\PSoC4/SCB_2_I2C.c ****         SCB_2_mstrStatus     = 0u;
 252:Generated_Source\PSoC4/SCB_2_I2C.c ****         SCB_2_mstrRdBufIndex = 0u;
 253:Generated_Source\PSoC4/SCB_2_I2C.c ****         SCB_2_mstrWrBufIndex = 0u;
 254:Generated_Source\PSoC4/SCB_2_I2C.c ****     #endif /* (SCB_2_I2C_MASTER) */
 255:Generated_Source\PSoC4/SCB_2_I2C.c ****     }
 124              		.loc 1 255 0
 125 008a C046     		nop
 126 008c BD46     		mov	sp, r7
 127              		@ sp needed
 128 008e 80BD     		pop	{r7, pc}
 129              	.L3:
 130              		.align	2
 131              	.L2:
 132 0090 00002440 		.word	1076101120
 133 0094 60002440 		.word	1076101216
 134 0098 77080040 		.word	1073743991
 135 009c 00032440 		.word	1076101888
 136 00a0 07010080 		.word	-2147483385
 137 00a4 04032440 		.word	1076101892
 138 00a8 10032440 		.word	1076101904
 139 00ac 1000FE00 		.word	16646160
 140 00b0 00022440 		.word	1076101632
 141 00b4 04022440 		.word	1076101636
 142 00b8 00000000 		.word	SCB_2_I2C_ISR
 143 00bc C80E2440 		.word	1076104904
 144 00c0 880E2440 		.word	1076104840
ARM GAS  C:\Users\puria\AppData\Local\Temp\ccNbP4Om.s 			page 8


 145 00c4 480F2440 		.word	1076105032
 146 00c8 080F2440 		.word	1076104968
 147 00cc C80F2440 		.word	1076105160
 148 00d0 880F2440 		.word	1076105096
 149 00d4 00000000 		.word	SCB_2_state
 150 00d8 00000000 		.word	SCB_2_slStatus
 151 00dc 00000000 		.word	SCB_2_slRdBufIndex
 152 00e0 00000000 		.word	SCB_2_slWrBufIndex
 153 00e4 00000000 		.word	SCB_2_slOverFlowCount
 154              		.cfi_endproc
 155              	.LFE2:
 156              		.size	SCB_2_I2CInit, .-SCB_2_I2CInit
 157              		.section	.text.SCB_2_I2CStop,"ax",%progbits
 158              		.align	2
 159              		.global	SCB_2_I2CStop
 160              		.code	16
 161              		.thumb_func
 162              		.type	SCB_2_I2CStop, %function
 163              	SCB_2_I2CStop:
 164              	.LFB3:
 256:Generated_Source\PSoC4/SCB_2_I2C.c **** #endif /* (SCB_2_SCB_MODE_UNCONFIG_CONST_CFG) */
 257:Generated_Source\PSoC4/SCB_2_I2C.c **** 
 258:Generated_Source\PSoC4/SCB_2_I2C.c **** 
 259:Generated_Source\PSoC4/SCB_2_I2C.c **** /*******************************************************************************
 260:Generated_Source\PSoC4/SCB_2_I2C.c **** * Function Name: SCB_2_I2CStop
 261:Generated_Source\PSoC4/SCB_2_I2C.c **** ****************************************************************************//**
 262:Generated_Source\PSoC4/SCB_2_I2C.c **** *
 263:Generated_Source\PSoC4/SCB_2_I2C.c **** *  Resets the I2C FSM into the default state.
 264:Generated_Source\PSoC4/SCB_2_I2C.c **** *
 265:Generated_Source\PSoC4/SCB_2_I2C.c **** *******************************************************************************/
 266:Generated_Source\PSoC4/SCB_2_I2C.c **** void SCB_2_I2CStop(void)
 267:Generated_Source\PSoC4/SCB_2_I2C.c **** {
 165              		.loc 1 267 0
 166              		.cfi_startproc
 167              		@ args = 0, pretend = 0, frame = 0
 168              		@ frame_needed = 1, uses_anonymous_args = 0
 169 0000 80B5     		push	{r7, lr}
 170              		.cfi_def_cfa_offset 8
 171              		.cfi_offset 7, -8
 172              		.cfi_offset 14, -4
 173 0002 00AF     		add	r7, sp, #0
 174              		.cfi_def_cfa_register 7
 268:Generated_Source\PSoC4/SCB_2_I2C.c ****     SCB_2_state = SCB_2_I2C_FSM_IDLE;
 175              		.loc 1 268 0
 176 0004 024B     		ldr	r3, .L5
 177 0006 1022     		movs	r2, #16
 178 0008 1A70     		strb	r2, [r3]
 269:Generated_Source\PSoC4/SCB_2_I2C.c **** }
 179              		.loc 1 269 0
 180 000a C046     		nop
 181 000c BD46     		mov	sp, r7
 182              		@ sp needed
 183 000e 80BD     		pop	{r7, pc}
 184              	.L6:
 185              		.align	2
 186              	.L5:
 187 0010 00000000 		.word	SCB_2_state
ARM GAS  C:\Users\puria\AppData\Local\Temp\ccNbP4Om.s 			page 9


 188              		.cfi_endproc
 189              	.LFE3:
 190              		.size	SCB_2_I2CStop, .-SCB_2_I2CStop
 191              		.text
 192              	.Letext0:
 193              		.file 2 "Generated_Source\\PSoC4/cytypes.h"
 194              		.file 3 "Generated_Source\\PSoC4\\SCB_2_I2C_PVT.h"