ARM GAS  C:\Users\puria\AppData\Local\Temp\ccjEpCeA.s 			page 1


   1              		.syntax unified
   2              		.cpu cortex-m0
   3              		.fpu softvfp
   4              		.eabi_attribute 20, 1
   5              		.eabi_attribute 21, 1
   6              		.eabi_attribute 23, 3
   7              		.eabi_attribute 24, 1
   8              		.eabi_attribute 25, 1
   9              		.eabi_attribute 26, 1
  10              		.eabi_attribute 30, 6
  11              		.eabi_attribute 34, 0
  12              		.eabi_attribute 18, 4
  13              		.thumb
  14              		.syntax unified
  15              		.file	"SCB_2_I2C_SLAVE.c"
  16              		.text
  17              	.Ltext0:
  18              		.cfi_sections	.debug_frame
  19              		.comm	SCB_2_slStatus,1,1
  20              		.comm	SCB_2_slWrBufPtr,4,4
  21              		.comm	SCB_2_slWrBufSize,4,4
  22              		.comm	SCB_2_slWrBufIndex,4,4
  23              		.comm	SCB_2_slRdBufPtr,4,4
  24              		.comm	SCB_2_slRdBufSize,4,4
  25              		.comm	SCB_2_slRdBufIndex,4,4
  26              		.comm	SCB_2_slRdBufIndexTmp,4,4
  27              		.comm	SCB_2_slOverFlowCount,1,1
  28              		.section	.text.SCB_2_I2CSlaveStatus,"ax",%progbits
  29              		.align	2
  30              		.global	SCB_2_I2CSlaveStatus
  31              		.code	16
  32              		.thumb_func
  33              		.type	SCB_2_I2CSlaveStatus, %function
  34              	SCB_2_I2CSlaveStatus:
  35              	.LFB2:
  36              		.file 1 "Generated_Source\\PSoC4\\SCB_2_I2C_SLAVE.c"
   1:Generated_Source\PSoC4/SCB_2_I2C_SLAVE.c **** /***************************************************************************//**
   2:Generated_Source\PSoC4/SCB_2_I2C_SLAVE.c **** * \file SCB_2_I2C_SLAVE.c
   3:Generated_Source\PSoC4/SCB_2_I2C_SLAVE.c **** * \version 3.20
   4:Generated_Source\PSoC4/SCB_2_I2C_SLAVE.c **** *
   5:Generated_Source\PSoC4/SCB_2_I2C_SLAVE.c **** * \brief
   6:Generated_Source\PSoC4/SCB_2_I2C_SLAVE.c **** *  This file provides the source code to the API for the SCB Component in
   7:Generated_Source\PSoC4/SCB_2_I2C_SLAVE.c **** *  I2C Slave mode.
   8:Generated_Source\PSoC4/SCB_2_I2C_SLAVE.c **** *
   9:Generated_Source\PSoC4/SCB_2_I2C_SLAVE.c **** * Note:
  10:Generated_Source\PSoC4/SCB_2_I2C_SLAVE.c **** *
  11:Generated_Source\PSoC4/SCB_2_I2C_SLAVE.c **** *******************************************************************************
  12:Generated_Source\PSoC4/SCB_2_I2C_SLAVE.c **** * \copyright
  13:Generated_Source\PSoC4/SCB_2_I2C_SLAVE.c **** * Copyright 2013-2016, Cypress Semiconductor Corporation.  All rights reserved.
  14:Generated_Source\PSoC4/SCB_2_I2C_SLAVE.c **** * You may use this file only in accordance with the license, terms, conditions,
  15:Generated_Source\PSoC4/SCB_2_I2C_SLAVE.c **** * disclaimers, and limitations in the end user license agreement accompanying
  16:Generated_Source\PSoC4/SCB_2_I2C_SLAVE.c **** * the software package with which this file was provided.
  17:Generated_Source\PSoC4/SCB_2_I2C_SLAVE.c **** *******************************************************************************/
  18:Generated_Source\PSoC4/SCB_2_I2C_SLAVE.c **** 
  19:Generated_Source\PSoC4/SCB_2_I2C_SLAVE.c **** #include "SCB_2_I2C_PVT.h"
  20:Generated_Source\PSoC4/SCB_2_I2C_SLAVE.c **** 
  21:Generated_Source\PSoC4/SCB_2_I2C_SLAVE.c **** #if(SCB_2_I2C_SLAVE_CONST)
ARM GAS  C:\Users\puria\AppData\Local\Temp\ccjEpCeA.s 			page 2


  22:Generated_Source\PSoC4/SCB_2_I2C_SLAVE.c **** 
  23:Generated_Source\PSoC4/SCB_2_I2C_SLAVE.c **** /***************************************
  24:Generated_Source\PSoC4/SCB_2_I2C_SLAVE.c **** *      I2C Slave Private Vars
  25:Generated_Source\PSoC4/SCB_2_I2C_SLAVE.c **** ***************************************/
  26:Generated_Source\PSoC4/SCB_2_I2C_SLAVE.c **** 
  27:Generated_Source\PSoC4/SCB_2_I2C_SLAVE.c **** volatile uint8 SCB_2_slStatus;          /* Slave Status */
  28:Generated_Source\PSoC4/SCB_2_I2C_SLAVE.c **** 
  29:Generated_Source\PSoC4/SCB_2_I2C_SLAVE.c **** /* Receive buffer variables */
  30:Generated_Source\PSoC4/SCB_2_I2C_SLAVE.c **** volatile uint8 * SCB_2_slWrBufPtr;      /* Pointer to Receive buffer  */
  31:Generated_Source\PSoC4/SCB_2_I2C_SLAVE.c **** volatile uint32  SCB_2_slWrBufSize;     /* Slave Receive buffer size  */
  32:Generated_Source\PSoC4/SCB_2_I2C_SLAVE.c **** volatile uint32  SCB_2_slWrBufIndex;    /* Slave Receive buffer Index */
  33:Generated_Source\PSoC4/SCB_2_I2C_SLAVE.c **** 
  34:Generated_Source\PSoC4/SCB_2_I2C_SLAVE.c **** /* Transmit buffer variables */
  35:Generated_Source\PSoC4/SCB_2_I2C_SLAVE.c **** volatile uint8 * SCB_2_slRdBufPtr;      /* Pointer to Transmit buffer  */
  36:Generated_Source\PSoC4/SCB_2_I2C_SLAVE.c **** volatile uint32  SCB_2_slRdBufSize;     /* Slave Transmit buffer size  */
  37:Generated_Source\PSoC4/SCB_2_I2C_SLAVE.c **** volatile uint32  SCB_2_slRdBufIndex;    /* Slave Transmit buffer Index */
  38:Generated_Source\PSoC4/SCB_2_I2C_SLAVE.c **** volatile uint32  SCB_2_slRdBufIndexTmp; /* Slave Transmit buffer Index Tmp */
  39:Generated_Source\PSoC4/SCB_2_I2C_SLAVE.c **** volatile uint8   SCB_2_slOverFlowCount; /* Slave Transmit Overflow counter */
  40:Generated_Source\PSoC4/SCB_2_I2C_SLAVE.c **** 
  41:Generated_Source\PSoC4/SCB_2_I2C_SLAVE.c **** #if (SCB_2_I2C_CUSTOM_ADDRESS_HANDLER_CONST)
  42:Generated_Source\PSoC4/SCB_2_I2C_SLAVE.c **** 
  43:Generated_Source\PSoC4/SCB_2_I2C_SLAVE.c ****     uint32 (*SCB_2_customAddressHandler)(void) = NULL;
  44:Generated_Source\PSoC4/SCB_2_I2C_SLAVE.c **** 
  45:Generated_Source\PSoC4/SCB_2_I2C_SLAVE.c ****     /*******************************************************************************
  46:Generated_Source\PSoC4/SCB_2_I2C_SLAVE.c ****     * Function Name: SCB_2_SetI2cAddressCustomInterruptHandler
  47:Generated_Source\PSoC4/SCB_2_I2C_SLAVE.c ****     ****************************************************************************//**
  48:Generated_Source\PSoC4/SCB_2_I2C_SLAVE.c ****     *
  49:Generated_Source\PSoC4/SCB_2_I2C_SLAVE.c ****     *  Registers a function to be called by the I2C slave interrupt handler during
  50:Generated_Source\PSoC4/SCB_2_I2C_SLAVE.c ****     *  the I2C interrupt address processing. This function should be used when
  51:Generated_Source\PSoC4/SCB_2_I2C_SLAVE.c ****     *  multiple I2C addresses need to be decoded or general call address supported.
  52:Generated_Source\PSoC4/SCB_2_I2C_SLAVE.c ****     *  The registered function must return decision whether to ACK or NACK address.
  53:Generated_Source\PSoC4/SCB_2_I2C_SLAVE.c ****     *  Only one I2C address handler is supported, which is the function provided
  54:Generated_Source\PSoC4/SCB_2_I2C_SLAVE.c ****     *  by the most recent call.
  55:Generated_Source\PSoC4/SCB_2_I2C_SLAVE.c ****     *  At initialization time no I2C address handler is registered.
  56:Generated_Source\PSoC4/SCB_2_I2C_SLAVE.c ****     *
  57:Generated_Source\PSoC4/SCB_2_I2C_SLAVE.c ****     *  \param func: Pointer to the function to register.
  58:Generated_Source\PSoC4/SCB_2_I2C_SLAVE.c ****     *   The value NULL indicates to remove the current custom interrupt
  59:Generated_Source\PSoC4/SCB_2_I2C_SLAVE.c ****     *   handler.
  60:Generated_Source\PSoC4/SCB_2_I2C_SLAVE.c ****     *   The registered function must return decision whether to ACK or NACK 
  61:Generated_Source\PSoC4/SCB_2_I2C_SLAVE.c ****     *   accepted address: 0 – ACK, other values – NACK. The registered 
  62:Generated_Source\PSoC4/SCB_2_I2C_SLAVE.c ****     *   callback function does not perform the ACK/NACK, this operation is 
  63:Generated_Source\PSoC4/SCB_2_I2C_SLAVE.c ****     *   performed in the I2C ISR.
  64:Generated_Source\PSoC4/SCB_2_I2C_SLAVE.c ****     *
  65:Generated_Source\PSoC4/SCB_2_I2C_SLAVE.c ****     *******************************************************************************/
  66:Generated_Source\PSoC4/SCB_2_I2C_SLAVE.c ****     void SCB_2_SetI2cAddressCustomInterruptHandler(uint32 (*func) (void))
  67:Generated_Source\PSoC4/SCB_2_I2C_SLAVE.c ****     {
  68:Generated_Source\PSoC4/SCB_2_I2C_SLAVE.c ****         /* Register custom address handler */
  69:Generated_Source\PSoC4/SCB_2_I2C_SLAVE.c ****         SCB_2_customAddressHandler = func;
  70:Generated_Source\PSoC4/SCB_2_I2C_SLAVE.c ****     }
  71:Generated_Source\PSoC4/SCB_2_I2C_SLAVE.c **** #endif /* (SCB_2_I2C_CUSTOM_ADDRESS_HANDLER_CONST) */
  72:Generated_Source\PSoC4/SCB_2_I2C_SLAVE.c **** 
  73:Generated_Source\PSoC4/SCB_2_I2C_SLAVE.c **** 
  74:Generated_Source\PSoC4/SCB_2_I2C_SLAVE.c **** /*******************************************************************************
  75:Generated_Source\PSoC4/SCB_2_I2C_SLAVE.c **** * Function Name: SCB_2_I2CSlaveStatus
  76:Generated_Source\PSoC4/SCB_2_I2C_SLAVE.c **** ****************************************************************************//**
  77:Generated_Source\PSoC4/SCB_2_I2C_SLAVE.c **** *
  78:Generated_Source\PSoC4/SCB_2_I2C_SLAVE.c **** *  Returns the I2C slave's communication status.
ARM GAS  C:\Users\puria\AppData\Local\Temp\ccjEpCeA.s 			page 3


  79:Generated_Source\PSoC4/SCB_2_I2C_SLAVE.c **** *
  80:Generated_Source\PSoC4/SCB_2_I2C_SLAVE.c **** * \return
  81:Generated_Source\PSoC4/SCB_2_I2C_SLAVE.c **** *  Current status of I2C slave.
  82:Generated_Source\PSoC4/SCB_2_I2C_SLAVE.c **** *  This status incorporates read and write status constants. 
  83:Generated_Source\PSoC4/SCB_2_I2C_SLAVE.c **** *  Each constant is a bit field value. The value returned may have multiple 
  84:Generated_Source\PSoC4/SCB_2_I2C_SLAVE.c **** *  bits set to indicate the status of the read or write transfer.
  85:Generated_Source\PSoC4/SCB_2_I2C_SLAVE.c **** *   - SCB_2_I2C_SSTAT_RD_CMPLT - Slave read transfer complete. 
  86:Generated_Source\PSoC4/SCB_2_I2C_SLAVE.c **** *     Set when master indicates it is done reading by sending a NAK.
  87:Generated_Source\PSoC4/SCB_2_I2C_SLAVE.c **** *     The read error condition status bit must be checked to ensure that 
  88:Generated_Source\PSoC4/SCB_2_I2C_SLAVE.c **** *     the read transfer was completed successfully.
  89:Generated_Source\PSoC4/SCB_2_I2C_SLAVE.c **** *   - SCB_2_I2C_SSTAT_RD_BUSY - Slave read transfer is in progress. 
  90:Generated_Source\PSoC4/SCB_2_I2C_SLAVE.c **** *     Set when master addresses slave with a read, cleared when 
  91:Generated_Source\PSoC4/SCB_2_I2C_SLAVE.c **** *    SCB_2_I2C_SSTAT_RD_CMPLT is set.
  92:Generated_Source\PSoC4/SCB_2_I2C_SLAVE.c **** *   - SCB_2_I2C_SSTAT_RD_OVFL - Master attempted to read more bytes
  93:Generated_Source\PSoC4/SCB_2_I2C_SLAVE.c **** *     than are in buffer. Slave continually returns 0xFF byte in this case.
  94:Generated_Source\PSoC4/SCB_2_I2C_SLAVE.c **** *   - SCB_2_I2C_SSTAT_RD_ERR - Slave captured error on the bus during 
  95:Generated_Source\PSoC4/SCB_2_I2C_SLAVE.c **** *     a read transfer. The sources of error are: misplaced Start or Stop 
  96:Generated_Source\PSoC4/SCB_2_I2C_SLAVE.c **** *     condition or lost arbitration while slave drives SDA.
  97:Generated_Source\PSoC4/SCB_2_I2C_SLAVE.c **** *   - SCB_2_I2C_SSTAT_WR_CMPLT - Slave write transfer complete. 
  98:Generated_Source\PSoC4/SCB_2_I2C_SLAVE.c **** *     Set at reception of a Stop or ReStart condition. The write error condition
  99:Generated_Source\PSoC4/SCB_2_I2C_SLAVE.c **** *     status bit must be checked to ensure that write transfer was completed
 100:Generated_Source\PSoC4/SCB_2_I2C_SLAVE.c **** *     successfully.
 101:Generated_Source\PSoC4/SCB_2_I2C_SLAVE.c **** *   - SCB_2_I2C_SSTAT_WR_BUSY - Slave write transfer is in progress. 
 102:Generated_Source\PSoC4/SCB_2_I2C_SLAVE.c **** *     Set when the master addresses the slave with a write, cleared when 
 103:Generated_Source\PSoC4/SCB_2_I2C_SLAVE.c **** *    SCB_2_I2C_SSTAT_WR_CMPLT is set.
 104:Generated_Source\PSoC4/SCB_2_I2C_SLAVE.c **** *   - SCB_2_I2C_SSTAT_WR_OVFL - Master attempted to write past end of 
 105:Generated_Source\PSoC4/SCB_2_I2C_SLAVE.c **** *     buffer. Further bytes are ignored.
 106:Generated_Source\PSoC4/SCB_2_I2C_SLAVE.c **** *   - SCB_2_I2C_SSTAT_WR_ERR - Slave captured error on the bus during
 107:Generated_Source\PSoC4/SCB_2_I2C_SLAVE.c **** *     write transfer. The sources of error are: misplaced Start or Stop condition
 108:Generated_Source\PSoC4/SCB_2_I2C_SLAVE.c **** *     or lost arbitration while slave drives SDA.
 109:Generated_Source\PSoC4/SCB_2_I2C_SLAVE.c **** *     The write buffer may contain invalid bytes or part of the data transfer when 
 110:Generated_Source\PSoC4/SCB_2_I2C_SLAVE.c **** *     SCB_2_I2C_SSTAT_WR_ERR is set. It is recommended to discard write 
 111:Generated_Source\PSoC4/SCB_2_I2C_SLAVE.c **** *     buffer content in this case.
 112:Generated_Source\PSoC4/SCB_2_I2C_SLAVE.c **** *
 113:Generated_Source\PSoC4/SCB_2_I2C_SLAVE.c **** * \globalvars
 114:Generated_Source\PSoC4/SCB_2_I2C_SLAVE.c **** *  SCB_2_slStatus  - used to store current status of I2C slave.
 115:Generated_Source\PSoC4/SCB_2_I2C_SLAVE.c **** *
 116:Generated_Source\PSoC4/SCB_2_I2C_SLAVE.c **** *******************************************************************************/
 117:Generated_Source\PSoC4/SCB_2_I2C_SLAVE.c **** uint32 SCB_2_I2CSlaveStatus(void)
 118:Generated_Source\PSoC4/SCB_2_I2C_SLAVE.c **** {
  37              		.loc 1 118 0
  38              		.cfi_startproc
  39              		@ args = 0, pretend = 0, frame = 0
  40              		@ frame_needed = 1, uses_anonymous_args = 0
  41 0000 80B5     		push	{r7, lr}
  42              		.cfi_def_cfa_offset 8
  43              		.cfi_offset 7, -8
  44              		.cfi_offset 14, -4
  45 0002 00AF     		add	r7, sp, #0
  46              		.cfi_def_cfa_register 7
 119:Generated_Source\PSoC4/SCB_2_I2C_SLAVE.c ****     return((uint32) SCB_2_slStatus);
  47              		.loc 1 119 0
  48 0004 024B     		ldr	r3, .L3
  49 0006 1B78     		ldrb	r3, [r3]
  50 0008 DBB2     		uxtb	r3, r3
 120:Generated_Source\PSoC4/SCB_2_I2C_SLAVE.c **** }
  51              		.loc 1 120 0
ARM GAS  C:\Users\puria\AppData\Local\Temp\ccjEpCeA.s 			page 4


  52 000a 1800     		movs	r0, r3
  53 000c BD46     		mov	sp, r7
  54              		@ sp needed
  55 000e 80BD     		pop	{r7, pc}
  56              	.L4:
  57              		.align	2
  58              	.L3:
  59 0010 00000000 		.word	SCB_2_slStatus
  60              		.cfi_endproc
  61              	.LFE2:
  62              		.size	SCB_2_I2CSlaveStatus, .-SCB_2_I2CSlaveStatus
  63              		.section	.text.SCB_2_I2CSlaveClearReadStatus,"ax",%progbits
  64              		.align	2
  65              		.global	SCB_2_I2CSlaveClearReadStatus
  66              		.code	16
  67              		.thumb_func
  68              		.type	SCB_2_I2CSlaveClearReadStatus, %function
  69              	SCB_2_I2CSlaveClearReadStatus:
  70              	.LFB3:
 121:Generated_Source\PSoC4/SCB_2_I2C_SLAVE.c **** 
 122:Generated_Source\PSoC4/SCB_2_I2C_SLAVE.c **** 
 123:Generated_Source\PSoC4/SCB_2_I2C_SLAVE.c **** /*******************************************************************************
 124:Generated_Source\PSoC4/SCB_2_I2C_SLAVE.c **** * Function Name: SCB_2_I2CSlaveClearReadStatus
 125:Generated_Source\PSoC4/SCB_2_I2C_SLAVE.c **** ****************************************************************************//**
 126:Generated_Source\PSoC4/SCB_2_I2C_SLAVE.c **** *
 127:Generated_Source\PSoC4/SCB_2_I2C_SLAVE.c **** *  Clears the read status flags and returns their values. No other status flags
 128:Generated_Source\PSoC4/SCB_2_I2C_SLAVE.c **** *  are affected.
 129:Generated_Source\PSoC4/SCB_2_I2C_SLAVE.c **** *
 130:Generated_Source\PSoC4/SCB_2_I2C_SLAVE.c **** * \return
 131:Generated_Source\PSoC4/SCB_2_I2C_SLAVE.c **** *  Current read status of slave. See the SCB_I2CSlaveStatus() function for 
 132:Generated_Source\PSoC4/SCB_2_I2C_SLAVE.c **** *  constants.
 133:Generated_Source\PSoC4/SCB_2_I2C_SLAVE.c **** *
 134:Generated_Source\PSoC4/SCB_2_I2C_SLAVE.c **** * \sideeffect
 135:Generated_Source\PSoC4/SCB_2_I2C_SLAVE.c **** *  This function does not clear SCB_2_I2C_SSTAT_RD_BUSY.
 136:Generated_Source\PSoC4/SCB_2_I2C_SLAVE.c **** *
 137:Generated_Source\PSoC4/SCB_2_I2C_SLAVE.c **** * \globalvars
 138:Generated_Source\PSoC4/SCB_2_I2C_SLAVE.c **** *  SCB_2_slStatus  - used to store current status of I2C slave.
 139:Generated_Source\PSoC4/SCB_2_I2C_SLAVE.c **** *
 140:Generated_Source\PSoC4/SCB_2_I2C_SLAVE.c **** *******************************************************************************/
 141:Generated_Source\PSoC4/SCB_2_I2C_SLAVE.c **** uint32 SCB_2_I2CSlaveClearReadStatus(void)
 142:Generated_Source\PSoC4/SCB_2_I2C_SLAVE.c **** {
  71              		.loc 1 142 0
  72              		.cfi_startproc
  73              		@ args = 0, pretend = 0, frame = 8
  74              		@ frame_needed = 1, uses_anonymous_args = 0
  75 0000 80B5     		push	{r7, lr}
  76              		.cfi_def_cfa_offset 8
  77              		.cfi_offset 7, -8
  78              		.cfi_offset 14, -4
  79 0002 82B0     		sub	sp, sp, #8
  80              		.cfi_def_cfa_offset 16
  81 0004 00AF     		add	r7, sp, #0
  82              		.cfi_def_cfa_register 7
 143:Generated_Source\PSoC4/SCB_2_I2C_SLAVE.c ****     uint32 status;
 144:Generated_Source\PSoC4/SCB_2_I2C_SLAVE.c **** 
 145:Generated_Source\PSoC4/SCB_2_I2C_SLAVE.c ****     SCB_2_DisableInt();  /* Lock from interruption */
  83              		.loc 1 145 0
ARM GAS  C:\Users\puria\AppData\Local\Temp\ccjEpCeA.s 			page 5


  84 0006 0920     		movs	r0, #9
  85 0008 FFF7FEFF 		bl	CyIntDisable
 146:Generated_Source\PSoC4/SCB_2_I2C_SLAVE.c **** 
 147:Generated_Source\PSoC4/SCB_2_I2C_SLAVE.c ****     /* Mask of transfer complete flag and error status */
 148:Generated_Source\PSoC4/SCB_2_I2C_SLAVE.c ****     status = ((uint32) SCB_2_slStatus & SCB_2_I2C_SSTAT_RD_MASK);
  86              		.loc 1 148 0
  87 000c 0B4B     		ldr	r3, .L7
  88 000e 1B78     		ldrb	r3, [r3]
  89 0010 DBB2     		uxtb	r3, r3
  90 0012 1A00     		movs	r2, r3
  91 0014 0F23     		movs	r3, #15
  92 0016 1340     		ands	r3, r2
  93 0018 7B60     		str	r3, [r7, #4]
 149:Generated_Source\PSoC4/SCB_2_I2C_SLAVE.c ****     SCB_2_slStatus &= (uint8) ~SCB_2_I2C_SSTAT_RD_CLEAR;
  94              		.loc 1 149 0
  95 001a 084B     		ldr	r3, .L7
  96 001c 1B78     		ldrb	r3, [r3]
  97 001e DBB2     		uxtb	r3, r3
  98 0020 0D22     		movs	r2, #13
  99 0022 9343     		bics	r3, r2
 100 0024 DAB2     		uxtb	r2, r3
 101 0026 054B     		ldr	r3, .L7
 102 0028 1A70     		strb	r2, [r3]
 150:Generated_Source\PSoC4/SCB_2_I2C_SLAVE.c **** 
 151:Generated_Source\PSoC4/SCB_2_I2C_SLAVE.c ****     SCB_2_EnableInt();   /* Release lock */
 103              		.loc 1 151 0
 104 002a 0920     		movs	r0, #9
 105 002c FFF7FEFF 		bl	CyIntEnable
 152:Generated_Source\PSoC4/SCB_2_I2C_SLAVE.c **** 
 153:Generated_Source\PSoC4/SCB_2_I2C_SLAVE.c ****     return(status);
 106              		.loc 1 153 0
 107 0030 7B68     		ldr	r3, [r7, #4]
 154:Generated_Source\PSoC4/SCB_2_I2C_SLAVE.c **** }
 108              		.loc 1 154 0
 109 0032 1800     		movs	r0, r3
 110 0034 BD46     		mov	sp, r7
 111 0036 02B0     		add	sp, sp, #8
 112              		@ sp needed
 113 0038 80BD     		pop	{r7, pc}
 114              	.L8:
 115 003a C046     		.align	2
 116              	.L7:
 117 003c 00000000 		.word	SCB_2_slStatus
 118              		.cfi_endproc
 119              	.LFE3:
 120              		.size	SCB_2_I2CSlaveClearReadStatus, .-SCB_2_I2CSlaveClearReadStatus
 121              		.section	.text.SCB_2_I2CSlaveClearWriteStatus,"ax",%progbits
 122              		.align	2
 123              		.global	SCB_2_I2CSlaveClearWriteStatus
 124              		.code	16
 125              		.thumb_func
 126              		.type	SCB_2_I2CSlaveClearWriteStatus, %function
 127              	SCB_2_I2CSlaveClearWriteStatus:
 128              	.LFB4:
 155:Generated_Source\PSoC4/SCB_2_I2C_SLAVE.c **** 
 156:Generated_Source\PSoC4/SCB_2_I2C_SLAVE.c **** 
 157:Generated_Source\PSoC4/SCB_2_I2C_SLAVE.c **** /*******************************************************************************
ARM GAS  C:\Users\puria\AppData\Local\Temp\ccjEpCeA.s 			page 6


 158:Generated_Source\PSoC4/SCB_2_I2C_SLAVE.c **** * Function Name: SCB_2_I2CSlaveClearWriteStatus
 159:Generated_Source\PSoC4/SCB_2_I2C_SLAVE.c **** ****************************************************************************//**
 160:Generated_Source\PSoC4/SCB_2_I2C_SLAVE.c **** *
 161:Generated_Source\PSoC4/SCB_2_I2C_SLAVE.c **** *  Clears the write status flags and returns their values. No other status flags
 162:Generated_Source\PSoC4/SCB_2_I2C_SLAVE.c **** *  are affected.
 163:Generated_Source\PSoC4/SCB_2_I2C_SLAVE.c **** *
 164:Generated_Source\PSoC4/SCB_2_I2C_SLAVE.c **** * \return
 165:Generated_Source\PSoC4/SCB_2_I2C_SLAVE.c **** *  Current write status of slave. See the SCB_I2CSlaveStatus() function 
 166:Generated_Source\PSoC4/SCB_2_I2C_SLAVE.c **** *  for constants.
 167:Generated_Source\PSoC4/SCB_2_I2C_SLAVE.c **** *
 168:Generated_Source\PSoC4/SCB_2_I2C_SLAVE.c **** * \sideeffect
 169:Generated_Source\PSoC4/SCB_2_I2C_SLAVE.c **** *  This function does not clear SCB_2_I2C_SSTAT_WR_BUSY.*
 170:Generated_Source\PSoC4/SCB_2_I2C_SLAVE.c **** *
 171:Generated_Source\PSoC4/SCB_2_I2C_SLAVE.c **** * \globalvars
 172:Generated_Source\PSoC4/SCB_2_I2C_SLAVE.c **** *  SCB_2_slStatus  - used to store current status of I2C slave.
 173:Generated_Source\PSoC4/SCB_2_I2C_SLAVE.c **** *
 174:Generated_Source\PSoC4/SCB_2_I2C_SLAVE.c **** *******************************************************************************/
 175:Generated_Source\PSoC4/SCB_2_I2C_SLAVE.c **** uint32 SCB_2_I2CSlaveClearWriteStatus(void)
 176:Generated_Source\PSoC4/SCB_2_I2C_SLAVE.c **** {
 129              		.loc 1 176 0
 130              		.cfi_startproc
 131              		@ args = 0, pretend = 0, frame = 8
 132              		@ frame_needed = 1, uses_anonymous_args = 0
 133 0000 80B5     		push	{r7, lr}
 134              		.cfi_def_cfa_offset 8
 135              		.cfi_offset 7, -8
 136              		.cfi_offset 14, -4
 137 0002 82B0     		sub	sp, sp, #8
 138              		.cfi_def_cfa_offset 16
 139 0004 00AF     		add	r7, sp, #0
 140              		.cfi_def_cfa_register 7
 177:Generated_Source\PSoC4/SCB_2_I2C_SLAVE.c ****     uint32 status;
 178:Generated_Source\PSoC4/SCB_2_I2C_SLAVE.c **** 
 179:Generated_Source\PSoC4/SCB_2_I2C_SLAVE.c ****     SCB_2_DisableInt();  /* Lock from interruption */
 141              		.loc 1 179 0
 142 0006 0920     		movs	r0, #9
 143 0008 FFF7FEFF 		bl	CyIntDisable
 180:Generated_Source\PSoC4/SCB_2_I2C_SLAVE.c **** 
 181:Generated_Source\PSoC4/SCB_2_I2C_SLAVE.c ****     /* Mask of transfer complete flag and Error status */
 182:Generated_Source\PSoC4/SCB_2_I2C_SLAVE.c ****     status = ((uint32) SCB_2_slStatus & SCB_2_I2C_SSTAT_WR_MASK);
 144              		.loc 1 182 0
 145 000c 0B4B     		ldr	r3, .L11
 146 000e 1B78     		ldrb	r3, [r3]
 147 0010 DBB2     		uxtb	r3, r3
 148 0012 1A00     		movs	r2, r3
 149 0014 F023     		movs	r3, #240
 150 0016 1340     		ands	r3, r2
 151 0018 7B60     		str	r3, [r7, #4]
 183:Generated_Source\PSoC4/SCB_2_I2C_SLAVE.c ****     SCB_2_slStatus &= (uint8) ~SCB_2_I2C_SSTAT_WR_CLEAR;
 152              		.loc 1 183 0
 153 001a 084B     		ldr	r3, .L11
 154 001c 1B78     		ldrb	r3, [r3]
 155 001e DBB2     		uxtb	r3, r3
 156 0020 2F22     		movs	r2, #47
 157 0022 1340     		ands	r3, r2
 158 0024 DAB2     		uxtb	r2, r3
 159 0026 054B     		ldr	r3, .L11
ARM GAS  C:\Users\puria\AppData\Local\Temp\ccjEpCeA.s 			page 7


 160 0028 1A70     		strb	r2, [r3]
 184:Generated_Source\PSoC4/SCB_2_I2C_SLAVE.c **** 
 185:Generated_Source\PSoC4/SCB_2_I2C_SLAVE.c ****     SCB_2_EnableInt();   /* Release lock */
 161              		.loc 1 185 0
 162 002a 0920     		movs	r0, #9
 163 002c FFF7FEFF 		bl	CyIntEnable
 186:Generated_Source\PSoC4/SCB_2_I2C_SLAVE.c **** 
 187:Generated_Source\PSoC4/SCB_2_I2C_SLAVE.c ****     return(status);
 164              		.loc 1 187 0
 165 0030 7B68     		ldr	r3, [r7, #4]
 188:Generated_Source\PSoC4/SCB_2_I2C_SLAVE.c **** }
 166              		.loc 1 188 0
 167 0032 1800     		movs	r0, r3
 168 0034 BD46     		mov	sp, r7
 169 0036 02B0     		add	sp, sp, #8
 170              		@ sp needed
 171 0038 80BD     		pop	{r7, pc}
 172              	.L12:
 173 003a C046     		.align	2
 174              	.L11:
 175 003c 00000000 		.word	SCB_2_slStatus
 176              		.cfi_endproc
 177              	.LFE4:
 178              		.size	SCB_2_I2CSlaveClearWriteStatus, .-SCB_2_I2CSlaveClearWriteStatus
 179              		.section	.text.SCB_2_I2CSlaveSetAddress,"ax",%progbits
 180              		.align	2
 181              		.global	SCB_2_I2CSlaveSetAddress
 182              		.code	16
 183              		.thumb_func
 184              		.type	SCB_2_I2CSlaveSetAddress, %function
 185              	SCB_2_I2CSlaveSetAddress:
 186              	.LFB5:
 189:Generated_Source\PSoC4/SCB_2_I2C_SLAVE.c **** 
 190:Generated_Source\PSoC4/SCB_2_I2C_SLAVE.c **** 
 191:Generated_Source\PSoC4/SCB_2_I2C_SLAVE.c **** /*******************************************************************************
 192:Generated_Source\PSoC4/SCB_2_I2C_SLAVE.c **** * Function Name: SCB_2_I2CSlaveSetAddress
 193:Generated_Source\PSoC4/SCB_2_I2C_SLAVE.c **** ****************************************************************************//**
 194:Generated_Source\PSoC4/SCB_2_I2C_SLAVE.c **** *
 195:Generated_Source\PSoC4/SCB_2_I2C_SLAVE.c **** * Sets the I2C slave address.
 196:Generated_Source\PSoC4/SCB_2_I2C_SLAVE.c **** *
 197:Generated_Source\PSoC4/SCB_2_I2C_SLAVE.c **** * \param address: I2C slave address for the primary device.
 198:Generated_Source\PSoC4/SCB_2_I2C_SLAVE.c **** *  This address is the 7-bit right-justified slave address and does not 
 199:Generated_Source\PSoC4/SCB_2_I2C_SLAVE.c **** *  include the R/W bit.
 200:Generated_Source\PSoC4/SCB_2_I2C_SLAVE.c **** *  The address value is not checked to see if it violates the I2C spec. 
 201:Generated_Source\PSoC4/SCB_2_I2C_SLAVE.c **** *  The preferred addresses are between 8 and 120 (0x08 to 0x78).
 202:Generated_Source\PSoC4/SCB_2_I2C_SLAVE.c **** *
 203:Generated_Source\PSoC4/SCB_2_I2C_SLAVE.c **** *******************************************************************************/
 204:Generated_Source\PSoC4/SCB_2_I2C_SLAVE.c **** void SCB_2_I2CSlaveSetAddress(uint32 address)
 205:Generated_Source\PSoC4/SCB_2_I2C_SLAVE.c **** {
 187              		.loc 1 205 0
 188              		.cfi_startproc
 189              		@ args = 0, pretend = 0, frame = 16
 190              		@ frame_needed = 1, uses_anonymous_args = 0
 191 0000 80B5     		push	{r7, lr}
 192              		.cfi_def_cfa_offset 8
 193              		.cfi_offset 7, -8
 194              		.cfi_offset 14, -4
ARM GAS  C:\Users\puria\AppData\Local\Temp\ccjEpCeA.s 			page 8


 195 0002 84B0     		sub	sp, sp, #16
 196              		.cfi_def_cfa_offset 24
 197 0004 00AF     		add	r7, sp, #0
 198              		.cfi_def_cfa_register 7
 199 0006 7860     		str	r0, [r7, #4]
 206:Generated_Source\PSoC4/SCB_2_I2C_SLAVE.c ****     uint32 matchReg;
 207:Generated_Source\PSoC4/SCB_2_I2C_SLAVE.c **** 
 208:Generated_Source\PSoC4/SCB_2_I2C_SLAVE.c ****     matchReg = SCB_2_RX_MATCH_REG;
 200              		.loc 1 208 0
 201 0008 0A4B     		ldr	r3, .L14
 202 000a 1B68     		ldr	r3, [r3]
 203 000c FB60     		str	r3, [r7, #12]
 209:Generated_Source\PSoC4/SCB_2_I2C_SLAVE.c **** 
 210:Generated_Source\PSoC4/SCB_2_I2C_SLAVE.c ****     matchReg &= ((uint32) ~SCB_2_RX_MATCH_ADDR_MASK); /* Clear address bits */
 204              		.loc 1 210 0
 205 000e FB68     		ldr	r3, [r7, #12]
 206 0010 FF22     		movs	r2, #255
 207 0012 9343     		bics	r3, r2
 208 0014 FB60     		str	r3, [r7, #12]
 211:Generated_Source\PSoC4/SCB_2_I2C_SLAVE.c ****     matchReg |= ((uint32)  SCB_2_GET_I2C_8BIT_ADDRESS(address));
 209              		.loc 1 211 0
 210 0016 7B68     		ldr	r3, [r7, #4]
 211 0018 5B00     		lsls	r3, r3, #1
 212 001a FF22     		movs	r2, #255
 213 001c 1340     		ands	r3, r2
 214 001e FA68     		ldr	r2, [r7, #12]
 215 0020 1343     		orrs	r3, r2
 216 0022 FB60     		str	r3, [r7, #12]
 212:Generated_Source\PSoC4/SCB_2_I2C_SLAVE.c **** 
 213:Generated_Source\PSoC4/SCB_2_I2C_SLAVE.c ****     SCB_2_RX_MATCH_REG = matchReg;
 217              		.loc 1 213 0
 218 0024 034B     		ldr	r3, .L14
 219 0026 FA68     		ldr	r2, [r7, #12]
 220 0028 1A60     		str	r2, [r3]
 214:Generated_Source\PSoC4/SCB_2_I2C_SLAVE.c **** }
 221              		.loc 1 214 0
 222 002a C046     		nop
 223 002c BD46     		mov	sp, r7
 224 002e 04B0     		add	sp, sp, #16
 225              		@ sp needed
 226 0030 80BD     		pop	{r7, pc}
 227              	.L15:
 228 0032 C046     		.align	2
 229              	.L14:
 230 0034 10032440 		.word	1076101904
 231              		.cfi_endproc
 232              	.LFE5:
 233              		.size	SCB_2_I2CSlaveSetAddress, .-SCB_2_I2CSlaveSetAddress
 234              		.section	.text.SCB_2_I2CSlaveSetAddressMask,"ax",%progbits
 235              		.align	2
 236              		.global	SCB_2_I2CSlaveSetAddressMask
 237              		.code	16
 238              		.thumb_func
 239              		.type	SCB_2_I2CSlaveSetAddressMask, %function
 240              	SCB_2_I2CSlaveSetAddressMask:
 241              	.LFB6:
 215:Generated_Source\PSoC4/SCB_2_I2C_SLAVE.c **** 
ARM GAS  C:\Users\puria\AppData\Local\Temp\ccjEpCeA.s 			page 9


 216:Generated_Source\PSoC4/SCB_2_I2C_SLAVE.c **** 
 217:Generated_Source\PSoC4/SCB_2_I2C_SLAVE.c **** /*******************************************************************************
 218:Generated_Source\PSoC4/SCB_2_I2C_SLAVE.c **** * Function Name: SCB_2_I2CSlaveSetAddressMask
 219:Generated_Source\PSoC4/SCB_2_I2C_SLAVE.c **** ****************************************************************************//**
 220:Generated_Source\PSoC4/SCB_2_I2C_SLAVE.c **** *
 221:Generated_Source\PSoC4/SCB_2_I2C_SLAVE.c **** *  Sets the I2C slave address mask.
 222:Generated_Source\PSoC4/SCB_2_I2C_SLAVE.c **** *
 223:Generated_Source\PSoC4/SCB_2_I2C_SLAVE.c **** * \param addressMask: I2C slave address mask.
 224:Generated_Source\PSoC4/SCB_2_I2C_SLAVE.c **** *  - Bit value 0 – excludes bit from address comparison.
 225:Generated_Source\PSoC4/SCB_2_I2C_SLAVE.c **** *  - Bit value 1 – the bit needs to match with the corresponding bit of the 
 226:Generated_Source\PSoC4/SCB_2_I2C_SLAVE.c **** *  I2C slave address.
 227:Generated_Source\PSoC4/SCB_2_I2C_SLAVE.c **** *
 228:Generated_Source\PSoC4/SCB_2_I2C_SLAVE.c **** *  The range of valid values is between 0 and 254 (0x00 to 0xFE). 
 229:Generated_Source\PSoC4/SCB_2_I2C_SLAVE.c **** *  The LSB of the address mask must be 0 because it corresponds to R/W bit 
 230:Generated_Source\PSoC4/SCB_2_I2C_SLAVE.c **** *  within I2C slave address byte.
 231:Generated_Source\PSoC4/SCB_2_I2C_SLAVE.c **** *
 232:Generated_Source\PSoC4/SCB_2_I2C_SLAVE.c **** *******************************************************************************/
 233:Generated_Source\PSoC4/SCB_2_I2C_SLAVE.c **** void SCB_2_I2CSlaveSetAddressMask(uint32 addressMask)
 234:Generated_Source\PSoC4/SCB_2_I2C_SLAVE.c **** {
 242              		.loc 1 234 0
 243              		.cfi_startproc
 244              		@ args = 0, pretend = 0, frame = 16
 245              		@ frame_needed = 1, uses_anonymous_args = 0
 246 0000 80B5     		push	{r7, lr}
 247              		.cfi_def_cfa_offset 8
 248              		.cfi_offset 7, -8
 249              		.cfi_offset 14, -4
 250 0002 84B0     		sub	sp, sp, #16
 251              		.cfi_def_cfa_offset 24
 252 0004 00AF     		add	r7, sp, #0
 253              		.cfi_def_cfa_register 7
 254 0006 7860     		str	r0, [r7, #4]
 235:Generated_Source\PSoC4/SCB_2_I2C_SLAVE.c ****     uint32 matchReg;
 236:Generated_Source\PSoC4/SCB_2_I2C_SLAVE.c **** 
 237:Generated_Source\PSoC4/SCB_2_I2C_SLAVE.c ****     matchReg = SCB_2_RX_MATCH_REG;
 255              		.loc 1 237 0
 256 0008 094B     		ldr	r3, .L17
 257 000a 1B68     		ldr	r3, [r3]
 258 000c FB60     		str	r3, [r7, #12]
 238:Generated_Source\PSoC4/SCB_2_I2C_SLAVE.c **** 
 239:Generated_Source\PSoC4/SCB_2_I2C_SLAVE.c ****     matchReg &= ((uint32) ~SCB_2_RX_MATCH_MASK_MASK);
 259              		.loc 1 239 0
 260 000e FB68     		ldr	r3, [r7, #12]
 261 0010 084A     		ldr	r2, .L17+4
 262 0012 1340     		ands	r3, r2
 263 0014 FB60     		str	r3, [r7, #12]
 240:Generated_Source\PSoC4/SCB_2_I2C_SLAVE.c ****     matchReg |= ((uint32) (addressMask << SCB_2_RX_MATCH_MASK_POS));
 264              		.loc 1 240 0
 265 0016 7B68     		ldr	r3, [r7, #4]
 266 0018 1B04     		lsls	r3, r3, #16
 267 001a FA68     		ldr	r2, [r7, #12]
 268 001c 1343     		orrs	r3, r2
 269 001e FB60     		str	r3, [r7, #12]
 241:Generated_Source\PSoC4/SCB_2_I2C_SLAVE.c **** 
 242:Generated_Source\PSoC4/SCB_2_I2C_SLAVE.c ****     SCB_2_RX_MATCH_REG = matchReg;
 270              		.loc 1 242 0
 271 0020 034B     		ldr	r3, .L17
ARM GAS  C:\Users\puria\AppData\Local\Temp\ccjEpCeA.s 			page 10


 272 0022 FA68     		ldr	r2, [r7, #12]
 273 0024 1A60     		str	r2, [r3]
 243:Generated_Source\PSoC4/SCB_2_I2C_SLAVE.c **** }
 274              		.loc 1 243 0
 275 0026 C046     		nop
 276 0028 BD46     		mov	sp, r7
 277 002a 04B0     		add	sp, sp, #16
 278              		@ sp needed
 279 002c 80BD     		pop	{r7, pc}
 280              	.L18:
 281 002e C046     		.align	2
 282              	.L17:
 283 0030 10032440 		.word	1076101904
 284 0034 FFFF00FF 		.word	-16711681
 285              		.cfi_endproc
 286              	.LFE6:
 287              		.size	SCB_2_I2CSlaveSetAddressMask, .-SCB_2_I2CSlaveSetAddressMask
 288              		.section	.text.SCB_2_I2CSlaveInitReadBuf,"ax",%progbits
 289              		.align	2
 290              		.global	SCB_2_I2CSlaveInitReadBuf
 291              		.code	16
 292              		.thumb_func
 293              		.type	SCB_2_I2CSlaveInitReadBuf, %function
 294              	SCB_2_I2CSlaveInitReadBuf:
 295              	.LFB7:
 244:Generated_Source\PSoC4/SCB_2_I2C_SLAVE.c **** 
 245:Generated_Source\PSoC4/SCB_2_I2C_SLAVE.c **** 
 246:Generated_Source\PSoC4/SCB_2_I2C_SLAVE.c **** /*******************************************************************************
 247:Generated_Source\PSoC4/SCB_2_I2C_SLAVE.c **** * Function Name: SCB_2_I2CSlaveInitReadBuf
 248:Generated_Source\PSoC4/SCB_2_I2C_SLAVE.c **** ****************************************************************************//**
 249:Generated_Source\PSoC4/SCB_2_I2C_SLAVE.c **** *
 250:Generated_Source\PSoC4/SCB_2_I2C_SLAVE.c **** *  Sets the buffer pointer and size of the read buffer. This function also
 251:Generated_Source\PSoC4/SCB_2_I2C_SLAVE.c **** *  resets the transfer count returned with the 
 252:Generated_Source\PSoC4/SCB_2_I2C_SLAVE.c **** *  SCB_2_SlaveGetReadBufSize() function.
 253:Generated_Source\PSoC4/SCB_2_I2C_SLAVE.c **** *
 254:Generated_Source\PSoC4/SCB_2_I2C_SLAVE.c **** * \param readBuf: Pointer to the data buffer to be read by the master.
 255:Generated_Source\PSoC4/SCB_2_I2C_SLAVE.c **** * \param bufSize: Size of the read buffer exposed to the I2C master.
 256:Generated_Source\PSoC4/SCB_2_I2C_SLAVE.c **** *
 257:Generated_Source\PSoC4/SCB_2_I2C_SLAVE.c **** * \sideeffect
 258:Generated_Source\PSoC4/SCB_2_I2C_SLAVE.c **** *  If this function is called during a bus transaction, data from the previous
 259:Generated_Source\PSoC4/SCB_2_I2C_SLAVE.c **** *  buffer location and the beginning of current buffer may be transmitted.
 260:Generated_Source\PSoC4/SCB_2_I2C_SLAVE.c **** *
 261:Generated_Source\PSoC4/SCB_2_I2C_SLAVE.c **** * \globalvars
 262:Generated_Source\PSoC4/SCB_2_I2C_SLAVE.c **** *  SCB_2_slRdBufPtr   - used to store pointer to slave read buffer.
 263:Generated_Source\PSoC4/SCB_2_I2C_SLAVE.c **** *  SCB_2_slRdBufSize  - used to store salve read buffer size.
 264:Generated_Source\PSoC4/SCB_2_I2C_SLAVE.c **** *  SCB_2_slRdBufIndex - used to store current index within slave
 265:Generated_Source\PSoC4/SCB_2_I2C_SLAVE.c **** *  read buffer.
 266:Generated_Source\PSoC4/SCB_2_I2C_SLAVE.c **** *
 267:Generated_Source\PSoC4/SCB_2_I2C_SLAVE.c **** *******************************************************************************/
 268:Generated_Source\PSoC4/SCB_2_I2C_SLAVE.c **** void SCB_2_I2CSlaveInitReadBuf(uint8 * rdBuf, uint32 bufSize)
 269:Generated_Source\PSoC4/SCB_2_I2C_SLAVE.c **** {
 296              		.loc 1 269 0
 297              		.cfi_startproc
 298              		@ args = 0, pretend = 0, frame = 8
 299              		@ frame_needed = 1, uses_anonymous_args = 0
 300 0000 80B5     		push	{r7, lr}
 301              		.cfi_def_cfa_offset 8
ARM GAS  C:\Users\puria\AppData\Local\Temp\ccjEpCeA.s 			page 11


 302              		.cfi_offset 7, -8
 303              		.cfi_offset 14, -4
 304 0002 82B0     		sub	sp, sp, #8
 305              		.cfi_def_cfa_offset 16
 306 0004 00AF     		add	r7, sp, #0
 307              		.cfi_def_cfa_register 7
 308 0006 7860     		str	r0, [r7, #4]
 309 0008 3960     		str	r1, [r7]
 270:Generated_Source\PSoC4/SCB_2_I2C_SLAVE.c ****     /* Check for proper buffer */
 271:Generated_Source\PSoC4/SCB_2_I2C_SLAVE.c ****     if(NULL != rdBuf)
 310              		.loc 1 271 0
 311 000a 7B68     		ldr	r3, [r7, #4]
 312 000c 002B     		cmp	r3, #0
 313 000e 11D0     		beq	.L21
 272:Generated_Source\PSoC4/SCB_2_I2C_SLAVE.c ****     {
 273:Generated_Source\PSoC4/SCB_2_I2C_SLAVE.c ****         SCB_2_DisableInt();  /* Lock from interruption */
 314              		.loc 1 273 0
 315 0010 0920     		movs	r0, #9
 316 0012 FFF7FEFF 		bl	CyIntDisable
 274:Generated_Source\PSoC4/SCB_2_I2C_SLAVE.c **** 
 275:Generated_Source\PSoC4/SCB_2_I2C_SLAVE.c ****         SCB_2_slRdBufPtr      = (volatile uint8 *) rdBuf; /* Set buffer pointer  */
 317              		.loc 1 275 0
 318 0016 094B     		ldr	r3, .L22
 319 0018 7A68     		ldr	r2, [r7, #4]
 320 001a 1A60     		str	r2, [r3]
 276:Generated_Source\PSoC4/SCB_2_I2C_SLAVE.c ****         SCB_2_slRdBufSize     = bufSize;                  /* Set buffer size     */
 321              		.loc 1 276 0
 322 001c 084B     		ldr	r3, .L22+4
 323 001e 3A68     		ldr	r2, [r7]
 324 0020 1A60     		str	r2, [r3]
 277:Generated_Source\PSoC4/SCB_2_I2C_SLAVE.c ****         SCB_2_slRdBufIndex    = 0u;                       /* Clear buffer index  */
 325              		.loc 1 277 0
 326 0022 084B     		ldr	r3, .L22+8
 327 0024 0022     		movs	r2, #0
 328 0026 1A60     		str	r2, [r3]
 278:Generated_Source\PSoC4/SCB_2_I2C_SLAVE.c ****         SCB_2_slRdBufIndexTmp = 0u;                       /* Clear buffer index  */
 329              		.loc 1 278 0
 330 0028 074B     		ldr	r3, .L22+12
 331 002a 0022     		movs	r2, #0
 332 002c 1A60     		str	r2, [r3]
 279:Generated_Source\PSoC4/SCB_2_I2C_SLAVE.c **** 
 280:Generated_Source\PSoC4/SCB_2_I2C_SLAVE.c ****         SCB_2_EnableInt();   /* Release lock */
 333              		.loc 1 280 0
 334 002e 0920     		movs	r0, #9
 335 0030 FFF7FEFF 		bl	CyIntEnable
 336              	.L21:
 281:Generated_Source\PSoC4/SCB_2_I2C_SLAVE.c ****     }
 282:Generated_Source\PSoC4/SCB_2_I2C_SLAVE.c **** }
 337              		.loc 1 282 0
 338 0034 C046     		nop
 339 0036 BD46     		mov	sp, r7
 340 0038 02B0     		add	sp, sp, #8
 341              		@ sp needed
 342 003a 80BD     		pop	{r7, pc}
 343              	.L23:
 344              		.align	2
 345              	.L22:
ARM GAS  C:\Users\puria\AppData\Local\Temp\ccjEpCeA.s 			page 12


 346 003c 00000000 		.word	SCB_2_slRdBufPtr
 347 0040 00000000 		.word	SCB_2_slRdBufSize
 348 0044 00000000 		.word	SCB_2_slRdBufIndex
 349 0048 00000000 		.word	SCB_2_slRdBufIndexTmp
 350              		.cfi_endproc
 351              	.LFE7:
 352              		.size	SCB_2_I2CSlaveInitReadBuf, .-SCB_2_I2CSlaveInitReadBuf
 353              		.section	.text.SCB_2_I2CSlaveInitWriteBuf,"ax",%progbits
 354              		.align	2
 355              		.global	SCB_2_I2CSlaveInitWriteBuf
 356              		.code	16
 357              		.thumb_func
 358              		.type	SCB_2_I2CSlaveInitWriteBuf, %function
 359              	SCB_2_I2CSlaveInitWriteBuf:
 360              	.LFB8:
 283:Generated_Source\PSoC4/SCB_2_I2C_SLAVE.c **** 
 284:Generated_Source\PSoC4/SCB_2_I2C_SLAVE.c **** 
 285:Generated_Source\PSoC4/SCB_2_I2C_SLAVE.c **** /*******************************************************************************
 286:Generated_Source\PSoC4/SCB_2_I2C_SLAVE.c **** * Function Name: SCB_2_I2CSlaveInitWriteBuf
 287:Generated_Source\PSoC4/SCB_2_I2C_SLAVE.c **** ****************************************************************************//**
 288:Generated_Source\PSoC4/SCB_2_I2C_SLAVE.c **** *
 289:Generated_Source\PSoC4/SCB_2_I2C_SLAVE.c **** *  Sets the buffer pointer and size of the write buffer. This function also 
 290:Generated_Source\PSoC4/SCB_2_I2C_SLAVE.c **** *  resets the transfer count returned with the 
 291:Generated_Source\PSoC4/SCB_2_I2C_SLAVE.c **** *  SCB_2_I2CSlaveGetWriteBufSize() function.
 292:Generated_Source\PSoC4/SCB_2_I2C_SLAVE.c **** *
 293:Generated_Source\PSoC4/SCB_2_I2C_SLAVE.c **** * \param writeBuf: Pointer to the data buffer to be written by the master.
 294:Generated_Source\PSoC4/SCB_2_I2C_SLAVE.c **** * \param bufSize:  Size of the write buffer exposed to the I2C master.
 295:Generated_Source\PSoC4/SCB_2_I2C_SLAVE.c **** *
 296:Generated_Source\PSoC4/SCB_2_I2C_SLAVE.c **** * \sideeffect
 297:Generated_Source\PSoC4/SCB_2_I2C_SLAVE.c **** *  If this function is called during a bus transaction, data may be received in 
 298:Generated_Source\PSoC4/SCB_2_I2C_SLAVE.c **** *  the previous buffer and the current buffer location.
 299:Generated_Source\PSoC4/SCB_2_I2C_SLAVE.c **** *
 300:Generated_Source\PSoC4/SCB_2_I2C_SLAVE.c **** * \globalvars
 301:Generated_Source\PSoC4/SCB_2_I2C_SLAVE.c **** *  SCB_2_slWrBufPtr   - used to store pointer to slave write buffer.
 302:Generated_Source\PSoC4/SCB_2_I2C_SLAVE.c **** *  SCB_2_slWrBufSize  - used to store salve write buffer size.
 303:Generated_Source\PSoC4/SCB_2_I2C_SLAVE.c **** *  SCB_2_slWrBufIndex - used to store current index within slave
 304:Generated_Source\PSoC4/SCB_2_I2C_SLAVE.c **** *   write buffer.
 305:Generated_Source\PSoC4/SCB_2_I2C_SLAVE.c **** *
 306:Generated_Source\PSoC4/SCB_2_I2C_SLAVE.c **** *******************************************************************************/
 307:Generated_Source\PSoC4/SCB_2_I2C_SLAVE.c **** void SCB_2_I2CSlaveInitWriteBuf(uint8 * wrBuf, uint32 bufSize)
 308:Generated_Source\PSoC4/SCB_2_I2C_SLAVE.c **** {
 361              		.loc 1 308 0
 362              		.cfi_startproc
 363              		@ args = 0, pretend = 0, frame = 8
 364              		@ frame_needed = 1, uses_anonymous_args = 0
 365 0000 80B5     		push	{r7, lr}
 366              		.cfi_def_cfa_offset 8
 367              		.cfi_offset 7, -8
 368              		.cfi_offset 14, -4
 369 0002 82B0     		sub	sp, sp, #8
 370              		.cfi_def_cfa_offset 16
 371 0004 00AF     		add	r7, sp, #0
 372              		.cfi_def_cfa_register 7
 373 0006 7860     		str	r0, [r7, #4]
 374 0008 3960     		str	r1, [r7]
 309:Generated_Source\PSoC4/SCB_2_I2C_SLAVE.c ****     /* Check buffer pointer */
 310:Generated_Source\PSoC4/SCB_2_I2C_SLAVE.c ****     if(NULL != wrBuf)
ARM GAS  C:\Users\puria\AppData\Local\Temp\ccjEpCeA.s 			page 13


 375              		.loc 1 310 0
 376 000a 7B68     		ldr	r3, [r7, #4]
 377 000c 002B     		cmp	r3, #0
 378 000e 0ED0     		beq	.L26
 311:Generated_Source\PSoC4/SCB_2_I2C_SLAVE.c ****     {
 312:Generated_Source\PSoC4/SCB_2_I2C_SLAVE.c ****         SCB_2_DisableInt();  /* Lock from interruption */
 379              		.loc 1 312 0
 380 0010 0920     		movs	r0, #9
 381 0012 FFF7FEFF 		bl	CyIntDisable
 313:Generated_Source\PSoC4/SCB_2_I2C_SLAVE.c **** 
 314:Generated_Source\PSoC4/SCB_2_I2C_SLAVE.c ****         SCB_2_slWrBufPtr   = (volatile uint8 *) wrBuf; /* Set buffer pointer  */
 382              		.loc 1 314 0
 383 0016 084B     		ldr	r3, .L27
 384 0018 7A68     		ldr	r2, [r7, #4]
 385 001a 1A60     		str	r2, [r3]
 315:Generated_Source\PSoC4/SCB_2_I2C_SLAVE.c ****         SCB_2_slWrBufSize  = bufSize;                  /* Set buffer size     */
 386              		.loc 1 315 0
 387 001c 074B     		ldr	r3, .L27+4
 388 001e 3A68     		ldr	r2, [r7]
 389 0020 1A60     		str	r2, [r3]
 316:Generated_Source\PSoC4/SCB_2_I2C_SLAVE.c ****         SCB_2_slWrBufIndex = 0u;                       /* Clear buffer index  */
 390              		.loc 1 316 0
 391 0022 074B     		ldr	r3, .L27+8
 392 0024 0022     		movs	r2, #0
 393 0026 1A60     		str	r2, [r3]
 317:Generated_Source\PSoC4/SCB_2_I2C_SLAVE.c **** 
 318:Generated_Source\PSoC4/SCB_2_I2C_SLAVE.c ****         SCB_2_EnableInt();   /* Release lock */
 394              		.loc 1 318 0
 395 0028 0920     		movs	r0, #9
 396 002a FFF7FEFF 		bl	CyIntEnable
 397              	.L26:
 319:Generated_Source\PSoC4/SCB_2_I2C_SLAVE.c ****     }
 320:Generated_Source\PSoC4/SCB_2_I2C_SLAVE.c **** }
 398              		.loc 1 320 0
 399 002e C046     		nop
 400 0030 BD46     		mov	sp, r7
 401 0032 02B0     		add	sp, sp, #8
 402              		@ sp needed
 403 0034 80BD     		pop	{r7, pc}
 404              	.L28:
 405 0036 C046     		.align	2
 406              	.L27:
 407 0038 00000000 		.word	SCB_2_slWrBufPtr
 408 003c 00000000 		.word	SCB_2_slWrBufSize
 409 0040 00000000 		.word	SCB_2_slWrBufIndex
 410              		.cfi_endproc
 411              	.LFE8:
 412              		.size	SCB_2_I2CSlaveInitWriteBuf, .-SCB_2_I2CSlaveInitWriteBuf
 413              		.section	.text.SCB_2_I2CSlaveGetReadBufSize,"ax",%progbits
 414              		.align	2
 415              		.global	SCB_2_I2CSlaveGetReadBufSize
 416              		.code	16
 417              		.thumb_func
 418              		.type	SCB_2_I2CSlaveGetReadBufSize, %function
 419              	SCB_2_I2CSlaveGetReadBufSize:
 420              	.LFB9:
 321:Generated_Source\PSoC4/SCB_2_I2C_SLAVE.c **** 
ARM GAS  C:\Users\puria\AppData\Local\Temp\ccjEpCeA.s 			page 14


 322:Generated_Source\PSoC4/SCB_2_I2C_SLAVE.c **** 
 323:Generated_Source\PSoC4/SCB_2_I2C_SLAVE.c **** /*******************************************************************************
 324:Generated_Source\PSoC4/SCB_2_I2C_SLAVE.c **** * Function Name: SCB_2_I2CSlaveGetReadBufSize
 325:Generated_Source\PSoC4/SCB_2_I2C_SLAVE.c **** ****************************************************************************//**
 326:Generated_Source\PSoC4/SCB_2_I2C_SLAVE.c **** *
 327:Generated_Source\PSoC4/SCB_2_I2C_SLAVE.c **** *  Returns the number of bytes read by the I2C master since an
 328:Generated_Source\PSoC4/SCB_2_I2C_SLAVE.c **** *  SCB_2_I2CSlaveInitReadBuf() or 
 329:Generated_Source\PSoC4/SCB_2_I2C_SLAVE.c **** *  SCB_2_I2CSlaveClearReadBuf() function was executed.
 330:Generated_Source\PSoC4/SCB_2_I2C_SLAVE.c **** *  The maximum return value is the size of the read buffer.
 331:Generated_Source\PSoC4/SCB_2_I2C_SLAVE.c **** *
 332:Generated_Source\PSoC4/SCB_2_I2C_SLAVE.c **** * \return
 333:Generated_Source\PSoC4/SCB_2_I2C_SLAVE.c **** *  Bytes read by master. If the transfer is not yet complete, it returns 
 334:Generated_Source\PSoC4/SCB_2_I2C_SLAVE.c **** *  zero until transfer completion.
 335:Generated_Source\PSoC4/SCB_2_I2C_SLAVE.c **** *
 336:Generated_Source\PSoC4/SCB_2_I2C_SLAVE.c **** * \sideeffect
 337:Generated_Source\PSoC4/SCB_2_I2C_SLAVE.c **** *  The returned value is not valid if SCB_2_I2C_SSTAT_RD_ERR was 
 338:Generated_Source\PSoC4/SCB_2_I2C_SLAVE.c **** *  captured by the slave.
 339:Generated_Source\PSoC4/SCB_2_I2C_SLAVE.c **** *
 340:Generated_Source\PSoC4/SCB_2_I2C_SLAVE.c **** * \globalvars
 341:Generated_Source\PSoC4/SCB_2_I2C_SLAVE.c **** *  SCB_2_slRdBufIndex - used to store current index within slave
 342:Generated_Source\PSoC4/SCB_2_I2C_SLAVE.c **** *  read buffer.
 343:Generated_Source\PSoC4/SCB_2_I2C_SLAVE.c **** *
 344:Generated_Source\PSoC4/SCB_2_I2C_SLAVE.c **** *******************************************************************************/
 345:Generated_Source\PSoC4/SCB_2_I2C_SLAVE.c **** uint32 SCB_2_I2CSlaveGetReadBufSize(void)
 346:Generated_Source\PSoC4/SCB_2_I2C_SLAVE.c **** {
 421              		.loc 1 346 0
 422              		.cfi_startproc
 423              		@ args = 0, pretend = 0, frame = 0
 424              		@ frame_needed = 1, uses_anonymous_args = 0
 425 0000 80B5     		push	{r7, lr}
 426              		.cfi_def_cfa_offset 8
 427              		.cfi_offset 7, -8
 428              		.cfi_offset 14, -4
 429 0002 00AF     		add	r7, sp, #0
 430              		.cfi_def_cfa_register 7
 347:Generated_Source\PSoC4/SCB_2_I2C_SLAVE.c ****     return(SCB_2_slRdBufIndex);
 431              		.loc 1 347 0
 432 0004 024B     		ldr	r3, .L31
 433 0006 1B68     		ldr	r3, [r3]
 348:Generated_Source\PSoC4/SCB_2_I2C_SLAVE.c **** }
 434              		.loc 1 348 0
 435 0008 1800     		movs	r0, r3
 436 000a BD46     		mov	sp, r7
 437              		@ sp needed
 438 000c 80BD     		pop	{r7, pc}
 439              	.L32:
 440 000e C046     		.align	2
 441              	.L31:
 442 0010 00000000 		.word	SCB_2_slRdBufIndex
 443              		.cfi_endproc
 444              	.LFE9:
 445              		.size	SCB_2_I2CSlaveGetReadBufSize, .-SCB_2_I2CSlaveGetReadBufSize
 446              		.section	.text.SCB_2_I2CSlaveGetWriteBufSize,"ax",%progbits
 447              		.align	2
 448              		.global	SCB_2_I2CSlaveGetWriteBufSize
 449              		.code	16
 450              		.thumb_func
ARM GAS  C:\Users\puria\AppData\Local\Temp\ccjEpCeA.s 			page 15


 451              		.type	SCB_2_I2CSlaveGetWriteBufSize, %function
 452              	SCB_2_I2CSlaveGetWriteBufSize:
 453              	.LFB10:
 349:Generated_Source\PSoC4/SCB_2_I2C_SLAVE.c **** 
 350:Generated_Source\PSoC4/SCB_2_I2C_SLAVE.c **** 
 351:Generated_Source\PSoC4/SCB_2_I2C_SLAVE.c **** /*******************************************************************************
 352:Generated_Source\PSoC4/SCB_2_I2C_SLAVE.c **** * Function Name: SCB_2_I2CSlaveGetWriteBufSize
 353:Generated_Source\PSoC4/SCB_2_I2C_SLAVE.c **** ****************************************************************************//**
 354:Generated_Source\PSoC4/SCB_2_I2C_SLAVE.c **** *
 355:Generated_Source\PSoC4/SCB_2_I2C_SLAVE.c **** *  Returns the number of bytes written by the I2C master since an
 356:Generated_Source\PSoC4/SCB_2_I2C_SLAVE.c **** *  SCB_2_I2CSlaveInitWriteBuf() or 
 357:Generated_Source\PSoC4/SCB_2_I2C_SLAVE.c **** *  SCB_2_I2CSlaveClearWriteBuf() function was executed.
 358:Generated_Source\PSoC4/SCB_2_I2C_SLAVE.c **** *  The maximum return value is the size of the write buffer.
 359:Generated_Source\PSoC4/SCB_2_I2C_SLAVE.c **** *
 360:Generated_Source\PSoC4/SCB_2_I2C_SLAVE.c **** * \return
 361:Generated_Source\PSoC4/SCB_2_I2C_SLAVE.c **** *  Bytes written by master.
 362:Generated_Source\PSoC4/SCB_2_I2C_SLAVE.c **** *
 363:Generated_Source\PSoC4/SCB_2_I2C_SLAVE.c **** * \sideeffect
 364:Generated_Source\PSoC4/SCB_2_I2C_SLAVE.c **** *  The returned value is not valid if SCB_2_I2C_SSTAT_WR_ERR was 
 365:Generated_Source\PSoC4/SCB_2_I2C_SLAVE.c **** *  captured by the slave.
 366:Generated_Source\PSoC4/SCB_2_I2C_SLAVE.c **** *
 367:Generated_Source\PSoC4/SCB_2_I2C_SLAVE.c **** * \globalvars
 368:Generated_Source\PSoC4/SCB_2_I2C_SLAVE.c **** *  SCB_2_slWrBufIndex - used to store current index within slave
 369:Generated_Source\PSoC4/SCB_2_I2C_SLAVE.c **** *   write buffer.
 370:Generated_Source\PSoC4/SCB_2_I2C_SLAVE.c **** *
 371:Generated_Source\PSoC4/SCB_2_I2C_SLAVE.c **** *******************************************************************************/
 372:Generated_Source\PSoC4/SCB_2_I2C_SLAVE.c **** uint32 SCB_2_I2CSlaveGetWriteBufSize(void)
 373:Generated_Source\PSoC4/SCB_2_I2C_SLAVE.c **** {
 454              		.loc 1 373 0
 455              		.cfi_startproc
 456              		@ args = 0, pretend = 0, frame = 0
 457              		@ frame_needed = 1, uses_anonymous_args = 0
 458 0000 80B5     		push	{r7, lr}
 459              		.cfi_def_cfa_offset 8
 460              		.cfi_offset 7, -8
 461              		.cfi_offset 14, -4
 462 0002 00AF     		add	r7, sp, #0
 463              		.cfi_def_cfa_register 7
 374:Generated_Source\PSoC4/SCB_2_I2C_SLAVE.c ****     return(SCB_2_slWrBufIndex);
 464              		.loc 1 374 0
 465 0004 024B     		ldr	r3, .L35
 466 0006 1B68     		ldr	r3, [r3]
 375:Generated_Source\PSoC4/SCB_2_I2C_SLAVE.c **** }
 467              		.loc 1 375 0
 468 0008 1800     		movs	r0, r3
 469 000a BD46     		mov	sp, r7
 470              		@ sp needed
 471 000c 80BD     		pop	{r7, pc}
 472              	.L36:
 473 000e C046     		.align	2
 474              	.L35:
 475 0010 00000000 		.word	SCB_2_slWrBufIndex
 476              		.cfi_endproc
 477              	.LFE10:
 478              		.size	SCB_2_I2CSlaveGetWriteBufSize, .-SCB_2_I2CSlaveGetWriteBufSize
 479              		.section	.text.SCB_2_I2CSlaveClearReadBuf,"ax",%progbits
 480              		.align	2
ARM GAS  C:\Users\puria\AppData\Local\Temp\ccjEpCeA.s 			page 16


 481              		.global	SCB_2_I2CSlaveClearReadBuf
 482              		.code	16
 483              		.thumb_func
 484              		.type	SCB_2_I2CSlaveClearReadBuf, %function
 485              	SCB_2_I2CSlaveClearReadBuf:
 486              	.LFB11:
 376:Generated_Source\PSoC4/SCB_2_I2C_SLAVE.c **** 
 377:Generated_Source\PSoC4/SCB_2_I2C_SLAVE.c **** 
 378:Generated_Source\PSoC4/SCB_2_I2C_SLAVE.c **** /*******************************************************************************
 379:Generated_Source\PSoC4/SCB_2_I2C_SLAVE.c **** * Function Name: SCB_2_I2CSlaveClearReadBuf
 380:Generated_Source\PSoC4/SCB_2_I2C_SLAVE.c **** ****************************************************************************//**
 381:Generated_Source\PSoC4/SCB_2_I2C_SLAVE.c **** *
 382:Generated_Source\PSoC4/SCB_2_I2C_SLAVE.c **** *  Resets the read pointer to the first byte in the read buffer. The next byte
 383:Generated_Source\PSoC4/SCB_2_I2C_SLAVE.c **** *  read by the master will be the first byte in the read buffer.
 384:Generated_Source\PSoC4/SCB_2_I2C_SLAVE.c **** *
 385:Generated_Source\PSoC4/SCB_2_I2C_SLAVE.c **** * \globalvars
 386:Generated_Source\PSoC4/SCB_2_I2C_SLAVE.c **** *  SCB_2_slRdBufIndex - used to store current index within slave
 387:Generated_Source\PSoC4/SCB_2_I2C_SLAVE.c **** *  read buffer.
 388:Generated_Source\PSoC4/SCB_2_I2C_SLAVE.c **** *
 389:Generated_Source\PSoC4/SCB_2_I2C_SLAVE.c **** *******************************************************************************/
 390:Generated_Source\PSoC4/SCB_2_I2C_SLAVE.c **** void SCB_2_I2CSlaveClearReadBuf(void)
 391:Generated_Source\PSoC4/SCB_2_I2C_SLAVE.c **** {
 487              		.loc 1 391 0
 488              		.cfi_startproc
 489              		@ args = 0, pretend = 0, frame = 0
 490              		@ frame_needed = 1, uses_anonymous_args = 0
 491 0000 80B5     		push	{r7, lr}
 492              		.cfi_def_cfa_offset 8
 493              		.cfi_offset 7, -8
 494              		.cfi_offset 14, -4
 495 0002 00AF     		add	r7, sp, #0
 496              		.cfi_def_cfa_register 7
 392:Generated_Source\PSoC4/SCB_2_I2C_SLAVE.c ****     SCB_2_slRdBufIndex = 0u;
 497              		.loc 1 392 0
 498 0004 024B     		ldr	r3, .L38
 499 0006 0022     		movs	r2, #0
 500 0008 1A60     		str	r2, [r3]
 393:Generated_Source\PSoC4/SCB_2_I2C_SLAVE.c **** }
 501              		.loc 1 393 0
 502 000a C046     		nop
 503 000c BD46     		mov	sp, r7
 504              		@ sp needed
 505 000e 80BD     		pop	{r7, pc}
 506              	.L39:
 507              		.align	2
 508              	.L38:
 509 0010 00000000 		.word	SCB_2_slRdBufIndex
 510              		.cfi_endproc
 511              	.LFE11:
 512              		.size	SCB_2_I2CSlaveClearReadBuf, .-SCB_2_I2CSlaveClearReadBuf
 513              		.section	.text.SCB_2_I2CSlaveClearWriteBuf,"ax",%progbits
 514              		.align	2
 515              		.global	SCB_2_I2CSlaveClearWriteBuf
 516              		.code	16
 517              		.thumb_func
 518              		.type	SCB_2_I2CSlaveClearWriteBuf, %function
 519              	SCB_2_I2CSlaveClearWriteBuf:
ARM GAS  C:\Users\puria\AppData\Local\Temp\ccjEpCeA.s 			page 17


 520              	.LFB12:
 394:Generated_Source\PSoC4/SCB_2_I2C_SLAVE.c **** 
 395:Generated_Source\PSoC4/SCB_2_I2C_SLAVE.c **** 
 396:Generated_Source\PSoC4/SCB_2_I2C_SLAVE.c **** /*******************************************************************************
 397:Generated_Source\PSoC4/SCB_2_I2C_SLAVE.c **** * Function Name: SCB_2_I2CSlaveClearWriteBuf
 398:Generated_Source\PSoC4/SCB_2_I2C_SLAVE.c **** ****************************************************************************//**
 399:Generated_Source\PSoC4/SCB_2_I2C_SLAVE.c **** *
 400:Generated_Source\PSoC4/SCB_2_I2C_SLAVE.c **** *  Resets the write pointer to the first byte in the write buffer. The next byte
 401:Generated_Source\PSoC4/SCB_2_I2C_SLAVE.c **** *  written by the master will be the first byte in the write buffer.
 402:Generated_Source\PSoC4/SCB_2_I2C_SLAVE.c **** *
 403:Generated_Source\PSoC4/SCB_2_I2C_SLAVE.c **** * \globalvars
 404:Generated_Source\PSoC4/SCB_2_I2C_SLAVE.c **** *  SCB_2_slWrBufIndex - used to store current index within slave
 405:Generated_Source\PSoC4/SCB_2_I2C_SLAVE.c **** *  write buffer.
 406:Generated_Source\PSoC4/SCB_2_I2C_SLAVE.c **** *
 407:Generated_Source\PSoC4/SCB_2_I2C_SLAVE.c **** *******************************************************************************/
 408:Generated_Source\PSoC4/SCB_2_I2C_SLAVE.c **** void SCB_2_I2CSlaveClearWriteBuf(void)
 409:Generated_Source\PSoC4/SCB_2_I2C_SLAVE.c **** {
 521              		.loc 1 409 0
 522              		.cfi_startproc
 523              		@ args = 0, pretend = 0, frame = 0
 524              		@ frame_needed = 1, uses_anonymous_args = 0
 525 0000 80B5     		push	{r7, lr}
 526              		.cfi_def_cfa_offset 8
 527              		.cfi_offset 7, -8
 528              		.cfi_offset 14, -4
 529 0002 00AF     		add	r7, sp, #0
 530              		.cfi_def_cfa_register 7
 410:Generated_Source\PSoC4/SCB_2_I2C_SLAVE.c ****     SCB_2_slWrBufIndex = 0u;
 531              		.loc 1 410 0
 532 0004 024B     		ldr	r3, .L41
 533 0006 0022     		movs	r2, #0
 534 0008 1A60     		str	r2, [r3]
 411:Generated_Source\PSoC4/SCB_2_I2C_SLAVE.c **** }
 535              		.loc 1 411 0
 536 000a C046     		nop
 537 000c BD46     		mov	sp, r7
 538              		@ sp needed
 539 000e 80BD     		pop	{r7, pc}
 540              	.L42:
 541              		.align	2
 542              	.L41:
 543 0010 00000000 		.word	SCB_2_slWrBufIndex
 544              		.cfi_endproc
 545              	.LFE12:
 546              		.size	SCB_2_I2CSlaveClearWriteBuf, .-SCB_2_I2CSlaveClearWriteBuf
 547              		.text
 548              	.Letext0:
 549              		.file 2 "Generated_Source\\PSoC4/cytypes.h"