ARM GAS  C:\Users\puria\AppData\Local\Temp\ccpsVPDq.s 			page 1


   1              		.syntax unified
   2              		.cpu cortex-m0
   3              		.fpu softvfp
   4              		.eabi_attribute 20, 1
   5              		.eabi_attribute 21, 1
   6              		.eabi_attribute 23, 3
   7              		.eabi_attribute 24, 1
   8              		.eabi_attribute 25, 1
   9              		.eabi_attribute 26, 1
  10              		.eabi_attribute 30, 6
  11              		.eabi_attribute 34, 0
  12              		.eabi_attribute 18, 4
  13              		.thumb
  14              		.syntax unified
  15              		.file	"TCPWM_1.c"
  16              		.text
  17              	.Ltext0:
  18              		.cfi_sections	.debug_frame
  19              		.global	TCPWM_1_initVar
  20              		.bss
  21              		.type	TCPWM_1_initVar, %object
  22              		.size	TCPWM_1_initVar, 1
  23              	TCPWM_1_initVar:
  24 0000 00       		.space	1
  25              		.section	.text.TCPWM_1_Init,"ax",%progbits
  26              		.align	2
  27              		.global	TCPWM_1_Init
  28              		.code	16
  29              		.thumb_func
  30              		.type	TCPWM_1_Init, %function
  31              	TCPWM_1_Init:
  32              	.LFB2:
  33              		.file 1 "Generated_Source\\PSoC4\\TCPWM_1.c"
   1:Generated_Source\PSoC4/TCPWM_1.c **** /*******************************************************************************
   2:Generated_Source\PSoC4/TCPWM_1.c **** * File Name: TCPWM_1.c
   3:Generated_Source\PSoC4/TCPWM_1.c **** * Version 2.10
   4:Generated_Source\PSoC4/TCPWM_1.c **** *
   5:Generated_Source\PSoC4/TCPWM_1.c **** * Description:
   6:Generated_Source\PSoC4/TCPWM_1.c **** *  This file provides the source code to the API for the TCPWM_1
   7:Generated_Source\PSoC4/TCPWM_1.c **** *  component
   8:Generated_Source\PSoC4/TCPWM_1.c **** *
   9:Generated_Source\PSoC4/TCPWM_1.c **** * Note:
  10:Generated_Source\PSoC4/TCPWM_1.c **** *  None
  11:Generated_Source\PSoC4/TCPWM_1.c **** *
  12:Generated_Source\PSoC4/TCPWM_1.c **** ********************************************************************************
  13:Generated_Source\PSoC4/TCPWM_1.c **** * Copyright 2013-2015, Cypress Semiconductor Corporation.  All rights reserved.
  14:Generated_Source\PSoC4/TCPWM_1.c **** * You may use this file only in accordance with the license, terms, conditions,
  15:Generated_Source\PSoC4/TCPWM_1.c **** * disclaimers, and limitations in the end user license agreement accompanying
  16:Generated_Source\PSoC4/TCPWM_1.c **** * the software package with which this file was provided.
  17:Generated_Source\PSoC4/TCPWM_1.c **** *******************************************************************************/
  18:Generated_Source\PSoC4/TCPWM_1.c **** 
  19:Generated_Source\PSoC4/TCPWM_1.c **** #include "TCPWM_1.h"
  20:Generated_Source\PSoC4/TCPWM_1.c **** 
  21:Generated_Source\PSoC4/TCPWM_1.c **** uint8 TCPWM_1_initVar = 0u;
  22:Generated_Source\PSoC4/TCPWM_1.c **** 
  23:Generated_Source\PSoC4/TCPWM_1.c **** 
  24:Generated_Source\PSoC4/TCPWM_1.c **** /*******************************************************************************
ARM GAS  C:\Users\puria\AppData\Local\Temp\ccpsVPDq.s 			page 2


  25:Generated_Source\PSoC4/TCPWM_1.c **** * Function Name: TCPWM_1_Init
  26:Generated_Source\PSoC4/TCPWM_1.c **** ********************************************************************************
  27:Generated_Source\PSoC4/TCPWM_1.c **** *
  28:Generated_Source\PSoC4/TCPWM_1.c **** * Summary:
  29:Generated_Source\PSoC4/TCPWM_1.c **** *  Initialize/Restore default TCPWM_1 configuration.
  30:Generated_Source\PSoC4/TCPWM_1.c **** *
  31:Generated_Source\PSoC4/TCPWM_1.c **** * Parameters:
  32:Generated_Source\PSoC4/TCPWM_1.c **** *  None
  33:Generated_Source\PSoC4/TCPWM_1.c **** *
  34:Generated_Source\PSoC4/TCPWM_1.c **** * Return:
  35:Generated_Source\PSoC4/TCPWM_1.c **** *  None
  36:Generated_Source\PSoC4/TCPWM_1.c **** *
  37:Generated_Source\PSoC4/TCPWM_1.c **** *******************************************************************************/
  38:Generated_Source\PSoC4/TCPWM_1.c **** void TCPWM_1_Init(void)
  39:Generated_Source\PSoC4/TCPWM_1.c **** {
  34              		.loc 1 39 0
  35              		.cfi_startproc
  36              		@ args = 0, pretend = 0, frame = 0
  37              		@ frame_needed = 1, uses_anonymous_args = 0
  38 0000 80B5     		push	{r7, lr}
  39              		.cfi_def_cfa_offset 8
  40              		.cfi_offset 7, -8
  41              		.cfi_offset 14, -4
  42 0002 00AF     		add	r7, sp, #0
  43              		.cfi_def_cfa_register 7
  40:Generated_Source\PSoC4/TCPWM_1.c **** 
  41:Generated_Source\PSoC4/TCPWM_1.c ****     /* Set values from customizer to CTRL */
  42:Generated_Source\PSoC4/TCPWM_1.c ****     #if (TCPWM_1__QUAD == TCPWM_1_CONFIG)
  43:Generated_Source\PSoC4/TCPWM_1.c ****         TCPWM_1_CONTROL_REG = TCPWM_1_CTRL_QUAD_BASE_CONFIG;
  44:Generated_Source\PSoC4/TCPWM_1.c ****         
  45:Generated_Source\PSoC4/TCPWM_1.c ****         /* Set values from customizer to CTRL1 */
  46:Generated_Source\PSoC4/TCPWM_1.c ****         TCPWM_1_TRIG_CONTROL1_REG  = TCPWM_1_QUAD_SIGNALS_MODES;
  47:Generated_Source\PSoC4/TCPWM_1.c **** 
  48:Generated_Source\PSoC4/TCPWM_1.c ****         /* Set values from customizer to INTR */
  49:Generated_Source\PSoC4/TCPWM_1.c ****         TCPWM_1_SetInterruptMode(TCPWM_1_QUAD_INTERRUPT_MASK);
  50:Generated_Source\PSoC4/TCPWM_1.c ****         
  51:Generated_Source\PSoC4/TCPWM_1.c ****          /* Set other values */
  52:Generated_Source\PSoC4/TCPWM_1.c ****         TCPWM_1_SetCounterMode(TCPWM_1_COUNT_DOWN);
  53:Generated_Source\PSoC4/TCPWM_1.c ****         TCPWM_1_WritePeriod(TCPWM_1_QUAD_PERIOD_INIT_VALUE);
  54:Generated_Source\PSoC4/TCPWM_1.c ****         TCPWM_1_WriteCounter(TCPWM_1_QUAD_PERIOD_INIT_VALUE);
  55:Generated_Source\PSoC4/TCPWM_1.c ****     #endif  /* (TCPWM_1__QUAD == TCPWM_1_CONFIG) */
  56:Generated_Source\PSoC4/TCPWM_1.c **** 
  57:Generated_Source\PSoC4/TCPWM_1.c ****     #if (TCPWM_1__TIMER == TCPWM_1_CONFIG)
  58:Generated_Source\PSoC4/TCPWM_1.c ****         TCPWM_1_CONTROL_REG = TCPWM_1_CTRL_TIMER_BASE_CONFIG;
  44              		.loc 1 58 0
  45 0004 094B     		ldr	r3, .L2
  46 0006 8022     		movs	r2, #128
  47 0008 9204     		lsls	r2, r2, #18
  48 000a 1A60     		str	r2, [r3]
  59:Generated_Source\PSoC4/TCPWM_1.c ****         
  60:Generated_Source\PSoC4/TCPWM_1.c ****         /* Set values from customizer to CTRL1 */
  61:Generated_Source\PSoC4/TCPWM_1.c ****         TCPWM_1_TRIG_CONTROL1_REG  = TCPWM_1_TIMER_SIGNALS_MODES;
  49              		.loc 1 61 0
  50 000c 084B     		ldr	r3, .L2+4
  51 000e 0C22     		movs	r2, #12
  52 0010 1A60     		str	r2, [r3]
  62:Generated_Source\PSoC4/TCPWM_1.c ****     
ARM GAS  C:\Users\puria\AppData\Local\Temp\ccpsVPDq.s 			page 3


  63:Generated_Source\PSoC4/TCPWM_1.c ****         /* Set values from customizer to INTR */
  64:Generated_Source\PSoC4/TCPWM_1.c ****         TCPWM_1_SetInterruptMode(TCPWM_1_TC_INTERRUPT_MASK);
  53              		.loc 1 64 0
  54 0012 0120     		movs	r0, #1
  55 0014 FFF7FEFF 		bl	TCPWM_1_SetInterruptMode
  65:Generated_Source\PSoC4/TCPWM_1.c ****         
  66:Generated_Source\PSoC4/TCPWM_1.c ****         /* Set other values from customizer */
  67:Generated_Source\PSoC4/TCPWM_1.c ****         TCPWM_1_WritePeriod(TCPWM_1_TC_PERIOD_VALUE );
  56              		.loc 1 67 0
  57 0018 2020     		movs	r0, #32
  58 001a FFF7FEFF 		bl	TCPWM_1_WritePeriod
  68:Generated_Source\PSoC4/TCPWM_1.c **** 
  69:Generated_Source\PSoC4/TCPWM_1.c ****         #if (TCPWM_1__COMPARE == TCPWM_1_TC_COMP_CAP_MODE)
  70:Generated_Source\PSoC4/TCPWM_1.c ****             TCPWM_1_WriteCompare(TCPWM_1_TC_COMPARE_VALUE);
  71:Generated_Source\PSoC4/TCPWM_1.c **** 
  72:Generated_Source\PSoC4/TCPWM_1.c ****             #if (1u == TCPWM_1_TC_COMPARE_SWAP)
  73:Generated_Source\PSoC4/TCPWM_1.c ****                 TCPWM_1_SetCompareSwap(1u);
  74:Generated_Source\PSoC4/TCPWM_1.c ****                 TCPWM_1_WriteCompareBuf(TCPWM_1_TC_COMPARE_BUF_VALUE);
  75:Generated_Source\PSoC4/TCPWM_1.c ****             #endif  /* (1u == TCPWM_1_TC_COMPARE_SWAP) */
  76:Generated_Source\PSoC4/TCPWM_1.c ****         #endif  /* (TCPWM_1__COMPARE == TCPWM_1_TC_COMP_CAP_MODE) */
  77:Generated_Source\PSoC4/TCPWM_1.c **** 
  78:Generated_Source\PSoC4/TCPWM_1.c ****         /* Initialize counter value */
  79:Generated_Source\PSoC4/TCPWM_1.c ****         #if (TCPWM_1_CY_TCPWM_V2 && TCPWM_1_TIMER_UPDOWN_CNT_USED && !TCPWM_1_CY_TCPWM_4000)
  80:Generated_Source\PSoC4/TCPWM_1.c ****             TCPWM_1_WriteCounter(1u);
  81:Generated_Source\PSoC4/TCPWM_1.c ****         #elif(TCPWM_1__COUNT_DOWN == TCPWM_1_TC_COUNTER_MODE)
  82:Generated_Source\PSoC4/TCPWM_1.c ****             TCPWM_1_WriteCounter(TCPWM_1_TC_PERIOD_VALUE);
  83:Generated_Source\PSoC4/TCPWM_1.c ****         #else
  84:Generated_Source\PSoC4/TCPWM_1.c ****             TCPWM_1_WriteCounter(0u);
  59              		.loc 1 84 0
  60 001e 0020     		movs	r0, #0
  61 0020 FFF7FEFF 		bl	TCPWM_1_WriteCounter
  85:Generated_Source\PSoC4/TCPWM_1.c ****         #endif /* (TCPWM_1_CY_TCPWM_V2 && TCPWM_1_TIMER_UPDOWN_CNT_USED && !TCPWM_1_CY_TCPWM_4000) 
  86:Generated_Source\PSoC4/TCPWM_1.c ****     #endif  /* (TCPWM_1__TIMER == TCPWM_1_CONFIG) */
  87:Generated_Source\PSoC4/TCPWM_1.c **** 
  88:Generated_Source\PSoC4/TCPWM_1.c ****     #if (TCPWM_1__PWM_SEL == TCPWM_1_CONFIG)
  89:Generated_Source\PSoC4/TCPWM_1.c ****         TCPWM_1_CONTROL_REG = TCPWM_1_CTRL_PWM_BASE_CONFIG;
  90:Generated_Source\PSoC4/TCPWM_1.c **** 
  91:Generated_Source\PSoC4/TCPWM_1.c ****         #if (TCPWM_1__PWM_PR == TCPWM_1_PWM_MODE)
  92:Generated_Source\PSoC4/TCPWM_1.c ****             TCPWM_1_CONTROL_REG |= TCPWM_1_CTRL_PWM_RUN_MODE;
  93:Generated_Source\PSoC4/TCPWM_1.c ****             TCPWM_1_WriteCounter(TCPWM_1_PWM_PR_INIT_VALUE);
  94:Generated_Source\PSoC4/TCPWM_1.c ****         #else
  95:Generated_Source\PSoC4/TCPWM_1.c ****             TCPWM_1_CONTROL_REG |= TCPWM_1_CTRL_PWM_ALIGN | TCPWM_1_CTRL_PWM_KILL_EVENT;
  96:Generated_Source\PSoC4/TCPWM_1.c ****             
  97:Generated_Source\PSoC4/TCPWM_1.c ****             /* Initialize counter value */
  98:Generated_Source\PSoC4/TCPWM_1.c ****             #if (TCPWM_1_CY_TCPWM_V2 && TCPWM_1_PWM_UPDOWN_CNT_USED && !TCPWM_1_CY_TCPWM_4000)
  99:Generated_Source\PSoC4/TCPWM_1.c ****                 TCPWM_1_WriteCounter(1u);
 100:Generated_Source\PSoC4/TCPWM_1.c ****             #elif (TCPWM_1__RIGHT == TCPWM_1_PWM_ALIGN)
 101:Generated_Source\PSoC4/TCPWM_1.c ****                 TCPWM_1_WriteCounter(TCPWM_1_PWM_PERIOD_VALUE);
 102:Generated_Source\PSoC4/TCPWM_1.c ****             #else 
 103:Generated_Source\PSoC4/TCPWM_1.c ****                 TCPWM_1_WriteCounter(0u);
 104:Generated_Source\PSoC4/TCPWM_1.c ****             #endif  /* (TCPWM_1_CY_TCPWM_V2 && TCPWM_1_PWM_UPDOWN_CNT_USED && !TCPWM_1_CY_TCPWM_400
 105:Generated_Source\PSoC4/TCPWM_1.c ****         #endif  /* (TCPWM_1__PWM_PR == TCPWM_1_PWM_MODE) */
 106:Generated_Source\PSoC4/TCPWM_1.c **** 
 107:Generated_Source\PSoC4/TCPWM_1.c ****         #if (TCPWM_1__PWM_DT == TCPWM_1_PWM_MODE)
 108:Generated_Source\PSoC4/TCPWM_1.c ****             TCPWM_1_CONTROL_REG |= TCPWM_1_CTRL_PWM_DEAD_TIME_CYCLE;
 109:Generated_Source\PSoC4/TCPWM_1.c ****         #endif  /* (TCPWM_1__PWM_DT == TCPWM_1_PWM_MODE) */
 110:Generated_Source\PSoC4/TCPWM_1.c **** 
ARM GAS  C:\Users\puria\AppData\Local\Temp\ccpsVPDq.s 			page 4


 111:Generated_Source\PSoC4/TCPWM_1.c ****         #if (TCPWM_1__PWM == TCPWM_1_PWM_MODE)
 112:Generated_Source\PSoC4/TCPWM_1.c ****             TCPWM_1_CONTROL_REG |= TCPWM_1_CTRL_PWM_PRESCALER;
 113:Generated_Source\PSoC4/TCPWM_1.c ****         #endif  /* (TCPWM_1__PWM == TCPWM_1_PWM_MODE) */
 114:Generated_Source\PSoC4/TCPWM_1.c **** 
 115:Generated_Source\PSoC4/TCPWM_1.c ****         /* Set values from customizer to CTRL1 */
 116:Generated_Source\PSoC4/TCPWM_1.c ****         TCPWM_1_TRIG_CONTROL1_REG  = TCPWM_1_PWM_SIGNALS_MODES;
 117:Generated_Source\PSoC4/TCPWM_1.c ****     
 118:Generated_Source\PSoC4/TCPWM_1.c ****         /* Set values from customizer to INTR */
 119:Generated_Source\PSoC4/TCPWM_1.c ****         TCPWM_1_SetInterruptMode(TCPWM_1_PWM_INTERRUPT_MASK);
 120:Generated_Source\PSoC4/TCPWM_1.c **** 
 121:Generated_Source\PSoC4/TCPWM_1.c ****         /* Set values from customizer to CTRL2 */
 122:Generated_Source\PSoC4/TCPWM_1.c ****         #if (TCPWM_1__PWM_PR == TCPWM_1_PWM_MODE)
 123:Generated_Source\PSoC4/TCPWM_1.c ****             TCPWM_1_TRIG_CONTROL2_REG =
 124:Generated_Source\PSoC4/TCPWM_1.c ****                     (TCPWM_1_CC_MATCH_NO_CHANGE    |
 125:Generated_Source\PSoC4/TCPWM_1.c ****                     TCPWM_1_OVERLOW_NO_CHANGE      |
 126:Generated_Source\PSoC4/TCPWM_1.c ****                     TCPWM_1_UNDERFLOW_NO_CHANGE);
 127:Generated_Source\PSoC4/TCPWM_1.c ****         #else
 128:Generated_Source\PSoC4/TCPWM_1.c ****             #if (TCPWM_1__LEFT == TCPWM_1_PWM_ALIGN)
 129:Generated_Source\PSoC4/TCPWM_1.c ****                 TCPWM_1_TRIG_CONTROL2_REG = TCPWM_1_PWM_MODE_LEFT;
 130:Generated_Source\PSoC4/TCPWM_1.c ****             #endif  /* ( TCPWM_1_PWM_LEFT == TCPWM_1_PWM_ALIGN) */
 131:Generated_Source\PSoC4/TCPWM_1.c **** 
 132:Generated_Source\PSoC4/TCPWM_1.c ****             #if (TCPWM_1__RIGHT == TCPWM_1_PWM_ALIGN)
 133:Generated_Source\PSoC4/TCPWM_1.c ****                 TCPWM_1_TRIG_CONTROL2_REG = TCPWM_1_PWM_MODE_RIGHT;
 134:Generated_Source\PSoC4/TCPWM_1.c ****             #endif  /* ( TCPWM_1_PWM_RIGHT == TCPWM_1_PWM_ALIGN) */
 135:Generated_Source\PSoC4/TCPWM_1.c **** 
 136:Generated_Source\PSoC4/TCPWM_1.c ****             #if (TCPWM_1__CENTER == TCPWM_1_PWM_ALIGN)
 137:Generated_Source\PSoC4/TCPWM_1.c ****                 TCPWM_1_TRIG_CONTROL2_REG = TCPWM_1_PWM_MODE_CENTER;
 138:Generated_Source\PSoC4/TCPWM_1.c ****             #endif  /* ( TCPWM_1_PWM_CENTER == TCPWM_1_PWM_ALIGN) */
 139:Generated_Source\PSoC4/TCPWM_1.c **** 
 140:Generated_Source\PSoC4/TCPWM_1.c ****             #if (TCPWM_1__ASYMMETRIC == TCPWM_1_PWM_ALIGN)
 141:Generated_Source\PSoC4/TCPWM_1.c ****                 TCPWM_1_TRIG_CONTROL2_REG = TCPWM_1_PWM_MODE_ASYM;
 142:Generated_Source\PSoC4/TCPWM_1.c ****             #endif  /* (TCPWM_1__ASYMMETRIC == TCPWM_1_PWM_ALIGN) */
 143:Generated_Source\PSoC4/TCPWM_1.c ****         #endif  /* (TCPWM_1__PWM_PR == TCPWM_1_PWM_MODE) */
 144:Generated_Source\PSoC4/TCPWM_1.c **** 
 145:Generated_Source\PSoC4/TCPWM_1.c ****         /* Set other values from customizer */
 146:Generated_Source\PSoC4/TCPWM_1.c ****         TCPWM_1_WritePeriod(TCPWM_1_PWM_PERIOD_VALUE );
 147:Generated_Source\PSoC4/TCPWM_1.c ****         TCPWM_1_WriteCompare(TCPWM_1_PWM_COMPARE_VALUE);
 148:Generated_Source\PSoC4/TCPWM_1.c **** 
 149:Generated_Source\PSoC4/TCPWM_1.c ****         #if (1u == TCPWM_1_PWM_COMPARE_SWAP)
 150:Generated_Source\PSoC4/TCPWM_1.c ****             TCPWM_1_SetCompareSwap(1u);
 151:Generated_Source\PSoC4/TCPWM_1.c ****             TCPWM_1_WriteCompareBuf(TCPWM_1_PWM_COMPARE_BUF_VALUE);
 152:Generated_Source\PSoC4/TCPWM_1.c ****         #endif  /* (1u == TCPWM_1_PWM_COMPARE_SWAP) */
 153:Generated_Source\PSoC4/TCPWM_1.c **** 
 154:Generated_Source\PSoC4/TCPWM_1.c ****         #if (1u == TCPWM_1_PWM_PERIOD_SWAP)
 155:Generated_Source\PSoC4/TCPWM_1.c ****             TCPWM_1_SetPeriodSwap(1u);
 156:Generated_Source\PSoC4/TCPWM_1.c ****             TCPWM_1_WritePeriodBuf(TCPWM_1_PWM_PERIOD_BUF_VALUE);
 157:Generated_Source\PSoC4/TCPWM_1.c ****         #endif  /* (1u == TCPWM_1_PWM_PERIOD_SWAP) */
 158:Generated_Source\PSoC4/TCPWM_1.c ****     #endif  /* (TCPWM_1__PWM_SEL == TCPWM_1_CONFIG) */
 159:Generated_Source\PSoC4/TCPWM_1.c ****     
 160:Generated_Source\PSoC4/TCPWM_1.c **** }
  62              		.loc 1 160 0
  63 0024 C046     		nop
  64 0026 BD46     		mov	sp, r7
  65              		@ sp needed
  66 0028 80BD     		pop	{r7, pc}
  67              	.L3:
  68 002a C046     		.align	2
ARM GAS  C:\Users\puria\AppData\Local\Temp\ccpsVPDq.s 			page 5


  69              	.L2:
  70 002c 00012040 		.word	1075839232
  71 0030 24012040 		.word	1075839268
  72              		.cfi_endproc
  73              	.LFE2:
  74              		.size	TCPWM_1_Init, .-TCPWM_1_Init
  75              		.section	.text.TCPWM_1_Enable,"ax",%progbits
  76              		.align	2
  77              		.global	TCPWM_1_Enable
  78              		.code	16
  79              		.thumb_func
  80              		.type	TCPWM_1_Enable, %function
  81              	TCPWM_1_Enable:
  82              	.LFB3:
 161:Generated_Source\PSoC4/TCPWM_1.c **** 
 162:Generated_Source\PSoC4/TCPWM_1.c **** 
 163:Generated_Source\PSoC4/TCPWM_1.c **** /*******************************************************************************
 164:Generated_Source\PSoC4/TCPWM_1.c **** * Function Name: TCPWM_1_Enable
 165:Generated_Source\PSoC4/TCPWM_1.c **** ********************************************************************************
 166:Generated_Source\PSoC4/TCPWM_1.c **** *
 167:Generated_Source\PSoC4/TCPWM_1.c **** * Summary:
 168:Generated_Source\PSoC4/TCPWM_1.c **** *  Enables the TCPWM_1.
 169:Generated_Source\PSoC4/TCPWM_1.c **** *
 170:Generated_Source\PSoC4/TCPWM_1.c **** * Parameters:
 171:Generated_Source\PSoC4/TCPWM_1.c **** *  None
 172:Generated_Source\PSoC4/TCPWM_1.c **** *
 173:Generated_Source\PSoC4/TCPWM_1.c **** * Return:
 174:Generated_Source\PSoC4/TCPWM_1.c **** *  None
 175:Generated_Source\PSoC4/TCPWM_1.c **** *
 176:Generated_Source\PSoC4/TCPWM_1.c **** *******************************************************************************/
 177:Generated_Source\PSoC4/TCPWM_1.c **** void TCPWM_1_Enable(void)
 178:Generated_Source\PSoC4/TCPWM_1.c **** {
  83              		.loc 1 178 0
  84              		.cfi_startproc
  85              		@ args = 0, pretend = 0, frame = 8
  86              		@ frame_needed = 1, uses_anonymous_args = 0
  87 0000 90B5     		push	{r4, r7, lr}
  88              		.cfi_def_cfa_offset 12
  89              		.cfi_offset 4, -12
  90              		.cfi_offset 7, -8
  91              		.cfi_offset 14, -4
  92 0002 83B0     		sub	sp, sp, #12
  93              		.cfi_def_cfa_offset 24
  94 0004 00AF     		add	r7, sp, #0
  95              		.cfi_def_cfa_register 7
 179:Generated_Source\PSoC4/TCPWM_1.c ****     uint8 enableInterrupts;
 180:Generated_Source\PSoC4/TCPWM_1.c **** 
 181:Generated_Source\PSoC4/TCPWM_1.c ****     enableInterrupts = CyEnterCriticalSection();
  96              		.loc 1 181 0
  97 0006 FC1D     		adds	r4, r7, #7
  98 0008 FFF7FEFF 		bl	CyEnterCriticalSection
  99 000c 0300     		movs	r3, r0
 100 000e 2370     		strb	r3, [r4]
 182:Generated_Source\PSoC4/TCPWM_1.c ****     TCPWM_1_BLOCK_CONTROL_REG |= TCPWM_1_MASK;
 101              		.loc 1 182 0
 102 0010 094B     		ldr	r3, .L5
 103 0012 094A     		ldr	r2, .L5
ARM GAS  C:\Users\puria\AppData\Local\Temp\ccpsVPDq.s 			page 6


 104 0014 1268     		ldr	r2, [r2]
 105 0016 0121     		movs	r1, #1
 106 0018 0A43     		orrs	r2, r1
 107 001a 1A60     		str	r2, [r3]
 183:Generated_Source\PSoC4/TCPWM_1.c ****     CyExitCriticalSection(enableInterrupts);
 108              		.loc 1 183 0
 109 001c FB1D     		adds	r3, r7, #7
 110 001e 1B78     		ldrb	r3, [r3]
 111 0020 1800     		movs	r0, r3
 112 0022 FFF7FEFF 		bl	CyExitCriticalSection
 184:Generated_Source\PSoC4/TCPWM_1.c **** 
 185:Generated_Source\PSoC4/TCPWM_1.c ****     /* Start Timer or PWM if start input is absent */
 186:Generated_Source\PSoC4/TCPWM_1.c ****     #if (TCPWM_1__PWM_SEL == TCPWM_1_CONFIG)
 187:Generated_Source\PSoC4/TCPWM_1.c ****         #if (0u == TCPWM_1_PWM_START_SIGNAL_PRESENT)
 188:Generated_Source\PSoC4/TCPWM_1.c ****             TCPWM_1_TriggerCommand(TCPWM_1_MASK, TCPWM_1_CMD_START);
 189:Generated_Source\PSoC4/TCPWM_1.c ****         #endif /* (0u == TCPWM_1_PWM_START_SIGNAL_PRESENT) */
 190:Generated_Source\PSoC4/TCPWM_1.c ****     #endif /* (TCPWM_1__PWM_SEL == TCPWM_1_CONFIG) */
 191:Generated_Source\PSoC4/TCPWM_1.c **** 
 192:Generated_Source\PSoC4/TCPWM_1.c ****     #if (TCPWM_1__TIMER == TCPWM_1_CONFIG)
 193:Generated_Source\PSoC4/TCPWM_1.c ****         #if (0u == TCPWM_1_TC_START_SIGNAL_PRESENT)
 194:Generated_Source\PSoC4/TCPWM_1.c ****             TCPWM_1_TriggerCommand(TCPWM_1_MASK, TCPWM_1_CMD_START);
 113              		.loc 1 194 0
 114 0026 1821     		movs	r1, #24
 115 0028 0120     		movs	r0, #1
 116 002a FFF7FEFF 		bl	TCPWM_1_TriggerCommand
 195:Generated_Source\PSoC4/TCPWM_1.c ****         #endif /* (0u == TCPWM_1_TC_START_SIGNAL_PRESENT) */
 196:Generated_Source\PSoC4/TCPWM_1.c ****     #endif /* (TCPWM_1__TIMER == TCPWM_1_CONFIG) */
 197:Generated_Source\PSoC4/TCPWM_1.c ****     
 198:Generated_Source\PSoC4/TCPWM_1.c ****     #if (TCPWM_1__QUAD == TCPWM_1_CONFIG)
 199:Generated_Source\PSoC4/TCPWM_1.c ****         #if (0u != TCPWM_1_QUAD_AUTO_START)
 200:Generated_Source\PSoC4/TCPWM_1.c ****             TCPWM_1_TriggerCommand(TCPWM_1_MASK, TCPWM_1_CMD_RELOAD);
 201:Generated_Source\PSoC4/TCPWM_1.c ****         #endif /* (0u != TCPWM_1_QUAD_AUTO_START) */
 202:Generated_Source\PSoC4/TCPWM_1.c ****     #endif  /* (TCPWM_1__QUAD == TCPWM_1_CONFIG) */
 203:Generated_Source\PSoC4/TCPWM_1.c **** }
 117              		.loc 1 203 0
 118 002e C046     		nop
 119 0030 BD46     		mov	sp, r7
 120 0032 03B0     		add	sp, sp, #12
 121              		@ sp needed
 122 0034 90BD     		pop	{r4, r7, pc}
 123              	.L6:
 124 0036 C046     		.align	2
 125              	.L5:
 126 0038 00002040 		.word	1075838976
 127              		.cfi_endproc
 128              	.LFE3:
 129              		.size	TCPWM_1_Enable, .-TCPWM_1_Enable
 130              		.section	.text.TCPWM_1_Start,"ax",%progbits
 131              		.align	2
 132              		.global	TCPWM_1_Start
 133              		.code	16
 134              		.thumb_func
 135              		.type	TCPWM_1_Start, %function
 136              	TCPWM_1_Start:
 137              	.LFB4:
 204:Generated_Source\PSoC4/TCPWM_1.c **** 
 205:Generated_Source\PSoC4/TCPWM_1.c **** 
ARM GAS  C:\Users\puria\AppData\Local\Temp\ccpsVPDq.s 			page 7


 206:Generated_Source\PSoC4/TCPWM_1.c **** /*******************************************************************************
 207:Generated_Source\PSoC4/TCPWM_1.c **** * Function Name: TCPWM_1_Start
 208:Generated_Source\PSoC4/TCPWM_1.c **** ********************************************************************************
 209:Generated_Source\PSoC4/TCPWM_1.c **** *
 210:Generated_Source\PSoC4/TCPWM_1.c **** * Summary:
 211:Generated_Source\PSoC4/TCPWM_1.c **** *  Initializes the TCPWM_1 with default customizer
 212:Generated_Source\PSoC4/TCPWM_1.c **** *  values when called the first time and enables the TCPWM_1.
 213:Generated_Source\PSoC4/TCPWM_1.c **** *  For subsequent calls the configuration is left unchanged and the component is
 214:Generated_Source\PSoC4/TCPWM_1.c **** *  just enabled.
 215:Generated_Source\PSoC4/TCPWM_1.c **** *
 216:Generated_Source\PSoC4/TCPWM_1.c **** * Parameters:
 217:Generated_Source\PSoC4/TCPWM_1.c **** *  None
 218:Generated_Source\PSoC4/TCPWM_1.c **** *
 219:Generated_Source\PSoC4/TCPWM_1.c **** * Return:
 220:Generated_Source\PSoC4/TCPWM_1.c **** *  None
 221:Generated_Source\PSoC4/TCPWM_1.c **** *
 222:Generated_Source\PSoC4/TCPWM_1.c **** * Global variables:
 223:Generated_Source\PSoC4/TCPWM_1.c **** *  TCPWM_1_initVar: global variable is used to indicate initial
 224:Generated_Source\PSoC4/TCPWM_1.c **** *  configuration of this component.  The variable is initialized to zero and set
 225:Generated_Source\PSoC4/TCPWM_1.c **** *  to 1 the first time TCPWM_1_Start() is called. This allows
 226:Generated_Source\PSoC4/TCPWM_1.c **** *  enabling/disabling a component without re-initialization in all subsequent
 227:Generated_Source\PSoC4/TCPWM_1.c **** *  calls to the TCPWM_1_Start() routine.
 228:Generated_Source\PSoC4/TCPWM_1.c **** *
 229:Generated_Source\PSoC4/TCPWM_1.c **** *******************************************************************************/
 230:Generated_Source\PSoC4/TCPWM_1.c **** void TCPWM_1_Start(void)
 231:Generated_Source\PSoC4/TCPWM_1.c **** {
 138              		.loc 1 231 0
 139              		.cfi_startproc
 140              		@ args = 0, pretend = 0, frame = 0
 141              		@ frame_needed = 1, uses_anonymous_args = 0
 142 0000 80B5     		push	{r7, lr}
 143              		.cfi_def_cfa_offset 8
 144              		.cfi_offset 7, -8
 145              		.cfi_offset 14, -4
 146 0002 00AF     		add	r7, sp, #0
 147              		.cfi_def_cfa_register 7
 232:Generated_Source\PSoC4/TCPWM_1.c ****     if (0u == TCPWM_1_initVar)
 148              		.loc 1 232 0
 149 0004 064B     		ldr	r3, .L9
 150 0006 1B78     		ldrb	r3, [r3]
 151 0008 002B     		cmp	r3, #0
 152 000a 04D1     		bne	.L8
 233:Generated_Source\PSoC4/TCPWM_1.c ****     {
 234:Generated_Source\PSoC4/TCPWM_1.c ****         TCPWM_1_Init();
 153              		.loc 1 234 0
 154 000c FFF7FEFF 		bl	TCPWM_1_Init
 235:Generated_Source\PSoC4/TCPWM_1.c ****         TCPWM_1_initVar = 1u;
 155              		.loc 1 235 0
 156 0010 034B     		ldr	r3, .L9
 157 0012 0122     		movs	r2, #1
 158 0014 1A70     		strb	r2, [r3]
 159              	.L8:
 236:Generated_Source\PSoC4/TCPWM_1.c ****     }
 237:Generated_Source\PSoC4/TCPWM_1.c **** 
 238:Generated_Source\PSoC4/TCPWM_1.c ****     TCPWM_1_Enable();
 160              		.loc 1 238 0
 161 0016 FFF7FEFF 		bl	TCPWM_1_Enable
ARM GAS  C:\Users\puria\AppData\Local\Temp\ccpsVPDq.s 			page 8


 239:Generated_Source\PSoC4/TCPWM_1.c **** }
 162              		.loc 1 239 0
 163 001a C046     		nop
 164 001c BD46     		mov	sp, r7
 165              		@ sp needed
 166 001e 80BD     		pop	{r7, pc}
 167              	.L10:
 168              		.align	2
 169              	.L9:
 170 0020 00000000 		.word	TCPWM_1_initVar
 171              		.cfi_endproc
 172              	.LFE4:
 173              		.size	TCPWM_1_Start, .-TCPWM_1_Start
 174              		.section	.text.TCPWM_1_Stop,"ax",%progbits
 175              		.align	2
 176              		.global	TCPWM_1_Stop
 177              		.code	16
 178              		.thumb_func
 179              		.type	TCPWM_1_Stop, %function
 180              	TCPWM_1_Stop:
 181              	.LFB5:
 240:Generated_Source\PSoC4/TCPWM_1.c **** 
 241:Generated_Source\PSoC4/TCPWM_1.c **** 
 242:Generated_Source\PSoC4/TCPWM_1.c **** /*******************************************************************************
 243:Generated_Source\PSoC4/TCPWM_1.c **** * Function Name: TCPWM_1_Stop
 244:Generated_Source\PSoC4/TCPWM_1.c **** ********************************************************************************
 245:Generated_Source\PSoC4/TCPWM_1.c **** *
 246:Generated_Source\PSoC4/TCPWM_1.c **** * Summary:
 247:Generated_Source\PSoC4/TCPWM_1.c **** *  Disables the TCPWM_1.
 248:Generated_Source\PSoC4/TCPWM_1.c **** *
 249:Generated_Source\PSoC4/TCPWM_1.c **** * Parameters:
 250:Generated_Source\PSoC4/TCPWM_1.c **** *  None
 251:Generated_Source\PSoC4/TCPWM_1.c **** *
 252:Generated_Source\PSoC4/TCPWM_1.c **** * Return:
 253:Generated_Source\PSoC4/TCPWM_1.c **** *  None
 254:Generated_Source\PSoC4/TCPWM_1.c **** *
 255:Generated_Source\PSoC4/TCPWM_1.c **** *******************************************************************************/
 256:Generated_Source\PSoC4/TCPWM_1.c **** void TCPWM_1_Stop(void)
 257:Generated_Source\PSoC4/TCPWM_1.c **** {
 182              		.loc 1 257 0
 183              		.cfi_startproc
 184              		@ args = 0, pretend = 0, frame = 8
 185              		@ frame_needed = 1, uses_anonymous_args = 0
 186 0000 90B5     		push	{r4, r7, lr}
 187              		.cfi_def_cfa_offset 12
 188              		.cfi_offset 4, -12
 189              		.cfi_offset 7, -8
 190              		.cfi_offset 14, -4
 191 0002 83B0     		sub	sp, sp, #12
 192              		.cfi_def_cfa_offset 24
 193 0004 00AF     		add	r7, sp, #0
 194              		.cfi_def_cfa_register 7
 258:Generated_Source\PSoC4/TCPWM_1.c ****     uint8 enableInterrupts;
 259:Generated_Source\PSoC4/TCPWM_1.c **** 
 260:Generated_Source\PSoC4/TCPWM_1.c ****     enableInterrupts = CyEnterCriticalSection();
 195              		.loc 1 260 0
 196 0006 FC1D     		adds	r4, r7, #7
ARM GAS  C:\Users\puria\AppData\Local\Temp\ccpsVPDq.s 			page 9


 197 0008 FFF7FEFF 		bl	CyEnterCriticalSection
 198 000c 0300     		movs	r3, r0
 199 000e 2370     		strb	r3, [r4]
 261:Generated_Source\PSoC4/TCPWM_1.c **** 
 262:Generated_Source\PSoC4/TCPWM_1.c ****     TCPWM_1_BLOCK_CONTROL_REG &= (uint32)~TCPWM_1_MASK;
 200              		.loc 1 262 0
 201 0010 074B     		ldr	r3, .L12
 202 0012 074A     		ldr	r2, .L12
 203 0014 1268     		ldr	r2, [r2]
 204 0016 0121     		movs	r1, #1
 205 0018 8A43     		bics	r2, r1
 206 001a 1A60     		str	r2, [r3]
 263:Generated_Source\PSoC4/TCPWM_1.c **** 
 264:Generated_Source\PSoC4/TCPWM_1.c ****     CyExitCriticalSection(enableInterrupts);
 207              		.loc 1 264 0
 208 001c FB1D     		adds	r3, r7, #7
 209 001e 1B78     		ldrb	r3, [r3]
 210 0020 1800     		movs	r0, r3
 211 0022 FFF7FEFF 		bl	CyExitCriticalSection
 265:Generated_Source\PSoC4/TCPWM_1.c **** }
 212              		.loc 1 265 0
 213 0026 C046     		nop
 214 0028 BD46     		mov	sp, r7
 215 002a 03B0     		add	sp, sp, #12
 216              		@ sp needed
 217 002c 90BD     		pop	{r4, r7, pc}
 218              	.L13:
 219 002e C046     		.align	2
 220              	.L12:
 221 0030 00002040 		.word	1075838976
 222              		.cfi_endproc
 223              	.LFE5:
 224              		.size	TCPWM_1_Stop, .-TCPWM_1_Stop
 225              		.section	.text.TCPWM_1_SetMode,"ax",%progbits
 226              		.align	2
 227              		.global	TCPWM_1_SetMode
 228              		.code	16
 229              		.thumb_func
 230              		.type	TCPWM_1_SetMode, %function
 231              	TCPWM_1_SetMode:
 232              	.LFB6:
 266:Generated_Source\PSoC4/TCPWM_1.c **** 
 267:Generated_Source\PSoC4/TCPWM_1.c **** 
 268:Generated_Source\PSoC4/TCPWM_1.c **** /*******************************************************************************
 269:Generated_Source\PSoC4/TCPWM_1.c **** * Function Name: TCPWM_1_SetMode
 270:Generated_Source\PSoC4/TCPWM_1.c **** ********************************************************************************
 271:Generated_Source\PSoC4/TCPWM_1.c **** *
 272:Generated_Source\PSoC4/TCPWM_1.c **** * Summary:
 273:Generated_Source\PSoC4/TCPWM_1.c **** *  Sets the operation mode of the TCPWM_1. This function is used when
 274:Generated_Source\PSoC4/TCPWM_1.c **** *  configured as a generic TCPWM_1 and the actual mode of operation is
 275:Generated_Source\PSoC4/TCPWM_1.c **** *  set at runtime. The mode must be set while the component is disabled.
 276:Generated_Source\PSoC4/TCPWM_1.c **** *
 277:Generated_Source\PSoC4/TCPWM_1.c **** * Parameters:
 278:Generated_Source\PSoC4/TCPWM_1.c **** *  mode: Mode for the TCPWM_1 to operate in
 279:Generated_Source\PSoC4/TCPWM_1.c **** *   Values:
 280:Generated_Source\PSoC4/TCPWM_1.c **** *   - TCPWM_1_MODE_TIMER_COMPARE - Timer / Counter with
 281:Generated_Source\PSoC4/TCPWM_1.c **** *                                                 compare capability
ARM GAS  C:\Users\puria\AppData\Local\Temp\ccpsVPDq.s 			page 10


 282:Generated_Source\PSoC4/TCPWM_1.c **** *         - TCPWM_1_MODE_TIMER_CAPTURE - Timer / Counter with
 283:Generated_Source\PSoC4/TCPWM_1.c **** *                                                 capture capability
 284:Generated_Source\PSoC4/TCPWM_1.c **** *         - TCPWM_1_MODE_QUAD - Quadrature decoder
 285:Generated_Source\PSoC4/TCPWM_1.c **** *         - TCPWM_1_MODE_PWM - PWM
 286:Generated_Source\PSoC4/TCPWM_1.c **** *         - TCPWM_1_MODE_PWM_DT - PWM with dead time
 287:Generated_Source\PSoC4/TCPWM_1.c **** *         - TCPWM_1_MODE_PWM_PR - PWM with pseudo random capability
 288:Generated_Source\PSoC4/TCPWM_1.c **** *
 289:Generated_Source\PSoC4/TCPWM_1.c **** * Return:
 290:Generated_Source\PSoC4/TCPWM_1.c **** *  None
 291:Generated_Source\PSoC4/TCPWM_1.c **** *
 292:Generated_Source\PSoC4/TCPWM_1.c **** *******************************************************************************/
 293:Generated_Source\PSoC4/TCPWM_1.c **** void TCPWM_1_SetMode(uint32 mode)
 294:Generated_Source\PSoC4/TCPWM_1.c **** {
 233              		.loc 1 294 0
 234              		.cfi_startproc
 235              		@ args = 0, pretend = 0, frame = 16
 236              		@ frame_needed = 1, uses_anonymous_args = 0
 237 0000 90B5     		push	{r4, r7, lr}
 238              		.cfi_def_cfa_offset 12
 239              		.cfi_offset 4, -12
 240              		.cfi_offset 7, -8
 241              		.cfi_offset 14, -4
 242 0002 85B0     		sub	sp, sp, #20
 243              		.cfi_def_cfa_offset 32
 244 0004 00AF     		add	r7, sp, #0
 245              		.cfi_def_cfa_register 7
 246 0006 7860     		str	r0, [r7, #4]
 295:Generated_Source\PSoC4/TCPWM_1.c ****     uint8 enableInterrupts;
 296:Generated_Source\PSoC4/TCPWM_1.c **** 
 297:Generated_Source\PSoC4/TCPWM_1.c ****     enableInterrupts = CyEnterCriticalSection();
 247              		.loc 1 297 0
 248 0008 0F23     		movs	r3, #15
 249 000a FC18     		adds	r4, r7, r3
 250 000c FFF7FEFF 		bl	CyEnterCriticalSection
 251 0010 0300     		movs	r3, r0
 252 0012 2370     		strb	r3, [r4]
 298:Generated_Source\PSoC4/TCPWM_1.c **** 
 299:Generated_Source\PSoC4/TCPWM_1.c ****     TCPWM_1_CONTROL_REG &= (uint32)~TCPWM_1_MODE_MASK;
 253              		.loc 1 299 0
 254 0014 0A4B     		ldr	r3, .L15
 255 0016 0A4A     		ldr	r2, .L15
 256 0018 1268     		ldr	r2, [r2]
 257 001a 0A49     		ldr	r1, .L15+4
 258 001c 0A40     		ands	r2, r1
 259 001e 1A60     		str	r2, [r3]
 300:Generated_Source\PSoC4/TCPWM_1.c ****     TCPWM_1_CONTROL_REG |= mode;
 260              		.loc 1 300 0
 261 0020 074B     		ldr	r3, .L15
 262 0022 074A     		ldr	r2, .L15
 263 0024 1168     		ldr	r1, [r2]
 264 0026 7A68     		ldr	r2, [r7, #4]
 265 0028 0A43     		orrs	r2, r1
 266 002a 1A60     		str	r2, [r3]
 301:Generated_Source\PSoC4/TCPWM_1.c **** 
 302:Generated_Source\PSoC4/TCPWM_1.c ****     CyExitCriticalSection(enableInterrupts);
 267              		.loc 1 302 0
 268 002c 0F23     		movs	r3, #15
ARM GAS  C:\Users\puria\AppData\Local\Temp\ccpsVPDq.s 			page 11


 269 002e FB18     		adds	r3, r7, r3
 270 0030 1B78     		ldrb	r3, [r3]
 271 0032 1800     		movs	r0, r3
 272 0034 FFF7FEFF 		bl	CyExitCriticalSection
 303:Generated_Source\PSoC4/TCPWM_1.c **** }
 273              		.loc 1 303 0
 274 0038 C046     		nop
 275 003a BD46     		mov	sp, r7
 276 003c 05B0     		add	sp, sp, #20
 277              		@ sp needed
 278 003e 90BD     		pop	{r4, r7, pc}
 279              	.L16:
 280              		.align	2
 281              	.L15:
 282 0040 00012040 		.word	1075839232
 283 0044 FFFFFFF8 		.word	-117440513
 284              		.cfi_endproc
 285              	.LFE6:
 286              		.size	TCPWM_1_SetMode, .-TCPWM_1_SetMode
 287              		.section	.text.TCPWM_1_SetQDMode,"ax",%progbits
 288              		.align	2
 289              		.global	TCPWM_1_SetQDMode
 290              		.code	16
 291              		.thumb_func
 292              		.type	TCPWM_1_SetQDMode, %function
 293              	TCPWM_1_SetQDMode:
 294              	.LFB7:
 304:Generated_Source\PSoC4/TCPWM_1.c **** 
 305:Generated_Source\PSoC4/TCPWM_1.c **** 
 306:Generated_Source\PSoC4/TCPWM_1.c **** /*******************************************************************************
 307:Generated_Source\PSoC4/TCPWM_1.c **** * Function Name: TCPWM_1_SetQDMode
 308:Generated_Source\PSoC4/TCPWM_1.c **** ********************************************************************************
 309:Generated_Source\PSoC4/TCPWM_1.c **** *
 310:Generated_Source\PSoC4/TCPWM_1.c **** * Summary:
 311:Generated_Source\PSoC4/TCPWM_1.c **** *  Sets the the Quadrature Decoder to one of the 3 supported modes.
 312:Generated_Source\PSoC4/TCPWM_1.c **** *  Its functionality is only applicable to Quadrature Decoder operation.
 313:Generated_Source\PSoC4/TCPWM_1.c **** *
 314:Generated_Source\PSoC4/TCPWM_1.c **** * Parameters:
 315:Generated_Source\PSoC4/TCPWM_1.c **** *  qdMode: Quadrature Decoder mode
 316:Generated_Source\PSoC4/TCPWM_1.c **** *   Values:
 317:Generated_Source\PSoC4/TCPWM_1.c **** *         - TCPWM_1_MODE_X1 - Counts on phi 1 rising
 318:Generated_Source\PSoC4/TCPWM_1.c **** *         - TCPWM_1_MODE_X2 - Counts on both edges of phi1 (2x faster)
 319:Generated_Source\PSoC4/TCPWM_1.c **** *         - TCPWM_1_MODE_X4 - Counts on both edges of phi1 and phi2
 320:Generated_Source\PSoC4/TCPWM_1.c **** *                                        (4x faster)
 321:Generated_Source\PSoC4/TCPWM_1.c **** *
 322:Generated_Source\PSoC4/TCPWM_1.c **** * Return:
 323:Generated_Source\PSoC4/TCPWM_1.c **** *  None
 324:Generated_Source\PSoC4/TCPWM_1.c **** *
 325:Generated_Source\PSoC4/TCPWM_1.c **** *******************************************************************************/
 326:Generated_Source\PSoC4/TCPWM_1.c **** void TCPWM_1_SetQDMode(uint32 qdMode)
 327:Generated_Source\PSoC4/TCPWM_1.c **** {
 295              		.loc 1 327 0
 296              		.cfi_startproc
 297              		@ args = 0, pretend = 0, frame = 16
 298              		@ frame_needed = 1, uses_anonymous_args = 0
 299 0000 90B5     		push	{r4, r7, lr}
 300              		.cfi_def_cfa_offset 12
ARM GAS  C:\Users\puria\AppData\Local\Temp\ccpsVPDq.s 			page 12


 301              		.cfi_offset 4, -12
 302              		.cfi_offset 7, -8
 303              		.cfi_offset 14, -4
 304 0002 85B0     		sub	sp, sp, #20
 305              		.cfi_def_cfa_offset 32
 306 0004 00AF     		add	r7, sp, #0
 307              		.cfi_def_cfa_register 7
 308 0006 7860     		str	r0, [r7, #4]
 328:Generated_Source\PSoC4/TCPWM_1.c ****     uint8 enableInterrupts;
 329:Generated_Source\PSoC4/TCPWM_1.c **** 
 330:Generated_Source\PSoC4/TCPWM_1.c ****     enableInterrupts = CyEnterCriticalSection();
 309              		.loc 1 330 0
 310 0008 0F23     		movs	r3, #15
 311 000a FC18     		adds	r4, r7, r3
 312 000c FFF7FEFF 		bl	CyEnterCriticalSection
 313 0010 0300     		movs	r3, r0
 314 0012 2370     		strb	r3, [r4]
 331:Generated_Source\PSoC4/TCPWM_1.c **** 
 332:Generated_Source\PSoC4/TCPWM_1.c ****     TCPWM_1_CONTROL_REG &= (uint32)~TCPWM_1_QUAD_MODE_MASK;
 315              		.loc 1 332 0
 316 0014 0A4B     		ldr	r3, .L18
 317 0016 0A4A     		ldr	r2, .L18
 318 0018 1268     		ldr	r2, [r2]
 319 001a 0A49     		ldr	r1, .L18+4
 320 001c 0A40     		ands	r2, r1
 321 001e 1A60     		str	r2, [r3]
 333:Generated_Source\PSoC4/TCPWM_1.c ****     TCPWM_1_CONTROL_REG |= qdMode;
 322              		.loc 1 333 0
 323 0020 074B     		ldr	r3, .L18
 324 0022 074A     		ldr	r2, .L18
 325 0024 1168     		ldr	r1, [r2]
 326 0026 7A68     		ldr	r2, [r7, #4]
 327 0028 0A43     		orrs	r2, r1
 328 002a 1A60     		str	r2, [r3]
 334:Generated_Source\PSoC4/TCPWM_1.c **** 
 335:Generated_Source\PSoC4/TCPWM_1.c ****     CyExitCriticalSection(enableInterrupts);
 329              		.loc 1 335 0
 330 002c 0F23     		movs	r3, #15
 331 002e FB18     		adds	r3, r7, r3
 332 0030 1B78     		ldrb	r3, [r3]
 333 0032 1800     		movs	r0, r3
 334 0034 FFF7FEFF 		bl	CyExitCriticalSection
 336:Generated_Source\PSoC4/TCPWM_1.c **** }
 335              		.loc 1 336 0
 336 0038 C046     		nop
 337 003a BD46     		mov	sp, r7
 338 003c 05B0     		add	sp, sp, #20
 339              		@ sp needed
 340 003e 90BD     		pop	{r4, r7, pc}
 341              	.L19:
 342              		.align	2
 343              	.L18:
 344 0040 00012040 		.word	1075839232
 345 0044 FFFF8FFF 		.word	-7340033
 346              		.cfi_endproc
 347              	.LFE7:
 348              		.size	TCPWM_1_SetQDMode, .-TCPWM_1_SetQDMode
ARM GAS  C:\Users\puria\AppData\Local\Temp\ccpsVPDq.s 			page 13


 349              		.section	.text.TCPWM_1_SetPrescaler,"ax",%progbits
 350              		.align	2
 351              		.global	TCPWM_1_SetPrescaler
 352              		.code	16
 353              		.thumb_func
 354              		.type	TCPWM_1_SetPrescaler, %function
 355              	TCPWM_1_SetPrescaler:
 356              	.LFB8:
 337:Generated_Source\PSoC4/TCPWM_1.c **** 
 338:Generated_Source\PSoC4/TCPWM_1.c **** 
 339:Generated_Source\PSoC4/TCPWM_1.c **** /*******************************************************************************
 340:Generated_Source\PSoC4/TCPWM_1.c **** * Function Name: TCPWM_1_SetPrescaler
 341:Generated_Source\PSoC4/TCPWM_1.c **** ********************************************************************************
 342:Generated_Source\PSoC4/TCPWM_1.c **** *
 343:Generated_Source\PSoC4/TCPWM_1.c **** * Summary:
 344:Generated_Source\PSoC4/TCPWM_1.c **** *  Sets the prescaler value that is applied to the clock input.  Not applicable
 345:Generated_Source\PSoC4/TCPWM_1.c **** *  to a PWM with the dead time mode or Quadrature Decoder mode.
 346:Generated_Source\PSoC4/TCPWM_1.c **** *
 347:Generated_Source\PSoC4/TCPWM_1.c **** * Parameters:
 348:Generated_Source\PSoC4/TCPWM_1.c **** *  prescaler: Prescaler divider value
 349:Generated_Source\PSoC4/TCPWM_1.c **** *   Values:
 350:Generated_Source\PSoC4/TCPWM_1.c **** *         - TCPWM_1_PRESCALE_DIVBY1    - Divide by 1 (no prescaling)
 351:Generated_Source\PSoC4/TCPWM_1.c **** *         - TCPWM_1_PRESCALE_DIVBY2    - Divide by 2
 352:Generated_Source\PSoC4/TCPWM_1.c **** *         - TCPWM_1_PRESCALE_DIVBY4    - Divide by 4
 353:Generated_Source\PSoC4/TCPWM_1.c **** *         - TCPWM_1_PRESCALE_DIVBY8    - Divide by 8
 354:Generated_Source\PSoC4/TCPWM_1.c **** *         - TCPWM_1_PRESCALE_DIVBY16   - Divide by 16
 355:Generated_Source\PSoC4/TCPWM_1.c **** *         - TCPWM_1_PRESCALE_DIVBY32   - Divide by 32
 356:Generated_Source\PSoC4/TCPWM_1.c **** *         - TCPWM_1_PRESCALE_DIVBY64   - Divide by 64
 357:Generated_Source\PSoC4/TCPWM_1.c **** *         - TCPWM_1_PRESCALE_DIVBY128  - Divide by 128
 358:Generated_Source\PSoC4/TCPWM_1.c **** *
 359:Generated_Source\PSoC4/TCPWM_1.c **** * Return:
 360:Generated_Source\PSoC4/TCPWM_1.c **** *  None
 361:Generated_Source\PSoC4/TCPWM_1.c **** *
 362:Generated_Source\PSoC4/TCPWM_1.c **** *******************************************************************************/
 363:Generated_Source\PSoC4/TCPWM_1.c **** void TCPWM_1_SetPrescaler(uint32 prescaler)
 364:Generated_Source\PSoC4/TCPWM_1.c **** {
 357              		.loc 1 364 0
 358              		.cfi_startproc
 359              		@ args = 0, pretend = 0, frame = 16
 360              		@ frame_needed = 1, uses_anonymous_args = 0
 361 0000 90B5     		push	{r4, r7, lr}
 362              		.cfi_def_cfa_offset 12
 363              		.cfi_offset 4, -12
 364              		.cfi_offset 7, -8
 365              		.cfi_offset 14, -4
 366 0002 85B0     		sub	sp, sp, #20
 367              		.cfi_def_cfa_offset 32
 368 0004 00AF     		add	r7, sp, #0
 369              		.cfi_def_cfa_register 7
 370 0006 7860     		str	r0, [r7, #4]
 365:Generated_Source\PSoC4/TCPWM_1.c ****     uint8 enableInterrupts;
 366:Generated_Source\PSoC4/TCPWM_1.c **** 
 367:Generated_Source\PSoC4/TCPWM_1.c ****     enableInterrupts = CyEnterCriticalSection();
 371              		.loc 1 367 0
 372 0008 0F23     		movs	r3, #15
 373 000a FC18     		adds	r4, r7, r3
 374 000c FFF7FEFF 		bl	CyEnterCriticalSection
ARM GAS  C:\Users\puria\AppData\Local\Temp\ccpsVPDq.s 			page 14


 375 0010 0300     		movs	r3, r0
 376 0012 2370     		strb	r3, [r4]
 368:Generated_Source\PSoC4/TCPWM_1.c **** 
 369:Generated_Source\PSoC4/TCPWM_1.c ****     TCPWM_1_CONTROL_REG &= (uint32)~TCPWM_1_PRESCALER_MASK;
 377              		.loc 1 369 0
 378 0014 0A4B     		ldr	r3, .L21
 379 0016 0A4A     		ldr	r2, .L21
 380 0018 1268     		ldr	r2, [r2]
 381 001a 0A49     		ldr	r1, .L21+4
 382 001c 0A40     		ands	r2, r1
 383 001e 1A60     		str	r2, [r3]
 370:Generated_Source\PSoC4/TCPWM_1.c ****     TCPWM_1_CONTROL_REG |= prescaler;
 384              		.loc 1 370 0
 385 0020 074B     		ldr	r3, .L21
 386 0022 074A     		ldr	r2, .L21
 387 0024 1168     		ldr	r1, [r2]
 388 0026 7A68     		ldr	r2, [r7, #4]
 389 0028 0A43     		orrs	r2, r1
 390 002a 1A60     		str	r2, [r3]
 371:Generated_Source\PSoC4/TCPWM_1.c **** 
 372:Generated_Source\PSoC4/TCPWM_1.c ****     CyExitCriticalSection(enableInterrupts);
 391              		.loc 1 372 0
 392 002c 0F23     		movs	r3, #15
 393 002e FB18     		adds	r3, r7, r3
 394 0030 1B78     		ldrb	r3, [r3]
 395 0032 1800     		movs	r0, r3
 396 0034 FFF7FEFF 		bl	CyExitCriticalSection
 373:Generated_Source\PSoC4/TCPWM_1.c **** }
 397              		.loc 1 373 0
 398 0038 C046     		nop
 399 003a BD46     		mov	sp, r7
 400 003c 05B0     		add	sp, sp, #20
 401              		@ sp needed
 402 003e 90BD     		pop	{r4, r7, pc}
 403              	.L22:
 404              		.align	2
 405              	.L21:
 406 0040 00012040 		.word	1075839232
 407 0044 FF00FFFF 		.word	-65281
 408              		.cfi_endproc
 409              	.LFE8:
 410              		.size	TCPWM_1_SetPrescaler, .-TCPWM_1_SetPrescaler
 411              		.section	.text.TCPWM_1_SetOneShot,"ax",%progbits
 412              		.align	2
 413              		.global	TCPWM_1_SetOneShot
 414              		.code	16
 415              		.thumb_func
 416              		.type	TCPWM_1_SetOneShot, %function
 417              	TCPWM_1_SetOneShot:
 418              	.LFB9:
 374:Generated_Source\PSoC4/TCPWM_1.c **** 
 375:Generated_Source\PSoC4/TCPWM_1.c **** 
 376:Generated_Source\PSoC4/TCPWM_1.c **** /*******************************************************************************
 377:Generated_Source\PSoC4/TCPWM_1.c **** * Function Name: TCPWM_1_SetOneShot
 378:Generated_Source\PSoC4/TCPWM_1.c **** ********************************************************************************
 379:Generated_Source\PSoC4/TCPWM_1.c **** *
 380:Generated_Source\PSoC4/TCPWM_1.c **** * Summary:
ARM GAS  C:\Users\puria\AppData\Local\Temp\ccpsVPDq.s 			page 15


 381:Generated_Source\PSoC4/TCPWM_1.c **** *  Writes the register that controls whether the TCPWM_1 runs
 382:Generated_Source\PSoC4/TCPWM_1.c **** *  continuously or stops when terminal count is reached.  By default the
 383:Generated_Source\PSoC4/TCPWM_1.c **** *  TCPWM_1 operates in the continuous mode.
 384:Generated_Source\PSoC4/TCPWM_1.c **** *
 385:Generated_Source\PSoC4/TCPWM_1.c **** * Parameters:
 386:Generated_Source\PSoC4/TCPWM_1.c **** *  oneShotEnable
 387:Generated_Source\PSoC4/TCPWM_1.c **** *   Values:
 388:Generated_Source\PSoC4/TCPWM_1.c **** *     - 0 - Continuous
 389:Generated_Source\PSoC4/TCPWM_1.c **** *     - 1 - Enable One Shot
 390:Generated_Source\PSoC4/TCPWM_1.c **** *
 391:Generated_Source\PSoC4/TCPWM_1.c **** * Return:
 392:Generated_Source\PSoC4/TCPWM_1.c **** *  None
 393:Generated_Source\PSoC4/TCPWM_1.c **** *
 394:Generated_Source\PSoC4/TCPWM_1.c **** *******************************************************************************/
 395:Generated_Source\PSoC4/TCPWM_1.c **** void TCPWM_1_SetOneShot(uint32 oneShotEnable)
 396:Generated_Source\PSoC4/TCPWM_1.c **** {
 419              		.loc 1 396 0
 420              		.cfi_startproc
 421              		@ args = 0, pretend = 0, frame = 16
 422              		@ frame_needed = 1, uses_anonymous_args = 0
 423 0000 90B5     		push	{r4, r7, lr}
 424              		.cfi_def_cfa_offset 12
 425              		.cfi_offset 4, -12
 426              		.cfi_offset 7, -8
 427              		.cfi_offset 14, -4
 428 0002 85B0     		sub	sp, sp, #20
 429              		.cfi_def_cfa_offset 32
 430 0004 00AF     		add	r7, sp, #0
 431              		.cfi_def_cfa_register 7
 432 0006 7860     		str	r0, [r7, #4]
 397:Generated_Source\PSoC4/TCPWM_1.c ****     uint8 enableInterrupts;
 398:Generated_Source\PSoC4/TCPWM_1.c **** 
 399:Generated_Source\PSoC4/TCPWM_1.c ****     enableInterrupts = CyEnterCriticalSection();
 433              		.loc 1 399 0
 434 0008 0F23     		movs	r3, #15
 435 000a FC18     		adds	r4, r7, r3
 436 000c FFF7FEFF 		bl	CyEnterCriticalSection
 437 0010 0300     		movs	r3, r0
 438 0012 2370     		strb	r3, [r4]
 400:Generated_Source\PSoC4/TCPWM_1.c **** 
 401:Generated_Source\PSoC4/TCPWM_1.c ****     TCPWM_1_CONTROL_REG &= (uint32)~TCPWM_1_ONESHOT_MASK;
 439              		.loc 1 401 0
 440 0014 0C4B     		ldr	r3, .L24
 441 0016 0C4A     		ldr	r2, .L24
 442 0018 1268     		ldr	r2, [r2]
 443 001a 0C49     		ldr	r1, .L24+4
 444 001c 0A40     		ands	r2, r1
 445 001e 1A60     		str	r2, [r3]
 402:Generated_Source\PSoC4/TCPWM_1.c ****     TCPWM_1_CONTROL_REG |= ((uint32)((oneShotEnable & TCPWM_1_1BIT_MASK) <<
 446              		.loc 1 402 0
 447 0020 094B     		ldr	r3, .L24
 448 0022 094A     		ldr	r2, .L24
 449 0024 1168     		ldr	r1, [r2]
 450 0026 7A68     		ldr	r2, [r7, #4]
 451 0028 9004     		lsls	r0, r2, #18
 452 002a 8022     		movs	r2, #128
 453 002c D202     		lsls	r2, r2, #11
ARM GAS  C:\Users\puria\AppData\Local\Temp\ccpsVPDq.s 			page 16


 454 002e 0240     		ands	r2, r0
 455 0030 0A43     		orrs	r2, r1
 456 0032 1A60     		str	r2, [r3]
 403:Generated_Source\PSoC4/TCPWM_1.c ****                                                                TCPWM_1_ONESHOT_SHIFT));
 404:Generated_Source\PSoC4/TCPWM_1.c **** 
 405:Generated_Source\PSoC4/TCPWM_1.c ****     CyExitCriticalSection(enableInterrupts);
 457              		.loc 1 405 0
 458 0034 0F23     		movs	r3, #15
 459 0036 FB18     		adds	r3, r7, r3
 460 0038 1B78     		ldrb	r3, [r3]
 461 003a 1800     		movs	r0, r3
 462 003c FFF7FEFF 		bl	CyExitCriticalSection
 406:Generated_Source\PSoC4/TCPWM_1.c **** }
 463              		.loc 1 406 0
 464 0040 C046     		nop
 465 0042 BD46     		mov	sp, r7
 466 0044 05B0     		add	sp, sp, #20
 467              		@ sp needed
 468 0046 90BD     		pop	{r4, r7, pc}
 469              	.L25:
 470              		.align	2
 471              	.L24:
 472 0048 00012040 		.word	1075839232
 473 004c FFFFFBFF 		.word	-262145
 474              		.cfi_endproc
 475              	.LFE9:
 476              		.size	TCPWM_1_SetOneShot, .-TCPWM_1_SetOneShot
 477              		.section	.text.TCPWM_1_SetPWMMode,"ax",%progbits
 478              		.align	2
 479              		.global	TCPWM_1_SetPWMMode
 480              		.code	16
 481              		.thumb_func
 482              		.type	TCPWM_1_SetPWMMode, %function
 483              	TCPWM_1_SetPWMMode:
 484              	.LFB10:
 407:Generated_Source\PSoC4/TCPWM_1.c **** 
 408:Generated_Source\PSoC4/TCPWM_1.c **** 
 409:Generated_Source\PSoC4/TCPWM_1.c **** /*******************************************************************************
 410:Generated_Source\PSoC4/TCPWM_1.c **** * Function Name: TCPWM_1_SetPWMMode
 411:Generated_Source\PSoC4/TCPWM_1.c **** ********************************************************************************
 412:Generated_Source\PSoC4/TCPWM_1.c **** *
 413:Generated_Source\PSoC4/TCPWM_1.c **** * Summary:
 414:Generated_Source\PSoC4/TCPWM_1.c **** *  Writes the control register that determines what mode of operation the PWM
 415:Generated_Source\PSoC4/TCPWM_1.c **** *  output lines are driven in.  There is a setting for what to do on a
 416:Generated_Source\PSoC4/TCPWM_1.c **** *  comparison match (CC_MATCH), on an overflow (OVERFLOW) and on an underflow
 417:Generated_Source\PSoC4/TCPWM_1.c **** *  (UNDERFLOW).  The value for each of the three must be ORed together to form
 418:Generated_Source\PSoC4/TCPWM_1.c **** *  the mode.
 419:Generated_Source\PSoC4/TCPWM_1.c **** *
 420:Generated_Source\PSoC4/TCPWM_1.c **** * Parameters:
 421:Generated_Source\PSoC4/TCPWM_1.c **** *  modeMask: A combination of three mode settings.  Mask must include a value
 422:Generated_Source\PSoC4/TCPWM_1.c **** *  for each of the three or use one of the preconfigured PWM settings.
 423:Generated_Source\PSoC4/TCPWM_1.c **** *   Values:
 424:Generated_Source\PSoC4/TCPWM_1.c **** *     - CC_MATCH_SET        - Set on comparison match
 425:Generated_Source\PSoC4/TCPWM_1.c **** *     - CC_MATCH_CLEAR      - Clear on comparison match
 426:Generated_Source\PSoC4/TCPWM_1.c **** *     - CC_MATCH_INVERT     - Invert on comparison match
 427:Generated_Source\PSoC4/TCPWM_1.c **** *     - CC_MATCH_NO_CHANGE  - No change on comparison match
 428:Generated_Source\PSoC4/TCPWM_1.c **** *     - OVERLOW_SET         - Set on overflow
ARM GAS  C:\Users\puria\AppData\Local\Temp\ccpsVPDq.s 			page 17


 429:Generated_Source\PSoC4/TCPWM_1.c **** *     - OVERLOW_CLEAR       - Clear on  overflow
 430:Generated_Source\PSoC4/TCPWM_1.c **** *     - OVERLOW_INVERT      - Invert on overflow
 431:Generated_Source\PSoC4/TCPWM_1.c **** *     - OVERLOW_NO_CHANGE   - No change on overflow
 432:Generated_Source\PSoC4/TCPWM_1.c **** *     - UNDERFLOW_SET       - Set on underflow
 433:Generated_Source\PSoC4/TCPWM_1.c **** *     - UNDERFLOW_CLEAR     - Clear on underflow
 434:Generated_Source\PSoC4/TCPWM_1.c **** *     - UNDERFLOW_INVERT    - Invert on underflow
 435:Generated_Source\PSoC4/TCPWM_1.c **** *     - UNDERFLOW_NO_CHANGE - No change on underflow
 436:Generated_Source\PSoC4/TCPWM_1.c **** *     - PWM_MODE_LEFT       - Setting for left aligned PWM.  Should be combined
 437:Generated_Source\PSoC4/TCPWM_1.c **** *                             with up counting mode
 438:Generated_Source\PSoC4/TCPWM_1.c **** *     - PWM_MODE_RIGHT      - Setting for right aligned PWM.  Should be combined
 439:Generated_Source\PSoC4/TCPWM_1.c **** *                             with down counting mode
 440:Generated_Source\PSoC4/TCPWM_1.c **** *     - PWM_MODE_CENTER     - Setting for center aligned PWM.  Should be
 441:Generated_Source\PSoC4/TCPWM_1.c **** *                             combined with up/down 0 mode
 442:Generated_Source\PSoC4/TCPWM_1.c **** *     - PWM_MODE_ASYM       - Setting for asymmetric PWM.  Should be combined
 443:Generated_Source\PSoC4/TCPWM_1.c **** *                             with up/down 1 mode
 444:Generated_Source\PSoC4/TCPWM_1.c **** *
 445:Generated_Source\PSoC4/TCPWM_1.c **** * Return:
 446:Generated_Source\PSoC4/TCPWM_1.c **** *  None
 447:Generated_Source\PSoC4/TCPWM_1.c **** *
 448:Generated_Source\PSoC4/TCPWM_1.c **** *******************************************************************************/
 449:Generated_Source\PSoC4/TCPWM_1.c **** void TCPWM_1_SetPWMMode(uint32 modeMask)
 450:Generated_Source\PSoC4/TCPWM_1.c **** {
 485              		.loc 1 450 0
 486              		.cfi_startproc
 487              		@ args = 0, pretend = 0, frame = 8
 488              		@ frame_needed = 1, uses_anonymous_args = 0
 489 0000 80B5     		push	{r7, lr}
 490              		.cfi_def_cfa_offset 8
 491              		.cfi_offset 7, -8
 492              		.cfi_offset 14, -4
 493 0002 82B0     		sub	sp, sp, #8
 494              		.cfi_def_cfa_offset 16
 495 0004 00AF     		add	r7, sp, #0
 496              		.cfi_def_cfa_register 7
 497 0006 7860     		str	r0, [r7, #4]
 451:Generated_Source\PSoC4/TCPWM_1.c ****     TCPWM_1_TRIG_CONTROL2_REG = (modeMask & TCPWM_1_6BIT_MASK);
 498              		.loc 1 451 0
 499 0008 044B     		ldr	r3, .L27
 500 000a 7A68     		ldr	r2, [r7, #4]
 501 000c 3F21     		movs	r1, #63
 502 000e 0A40     		ands	r2, r1
 503 0010 1A60     		str	r2, [r3]
 452:Generated_Source\PSoC4/TCPWM_1.c **** }
 504              		.loc 1 452 0
 505 0012 C046     		nop
 506 0014 BD46     		mov	sp, r7
 507 0016 02B0     		add	sp, sp, #8
 508              		@ sp needed
 509 0018 80BD     		pop	{r7, pc}
 510              	.L28:
 511 001a C046     		.align	2
 512              	.L27:
 513 001c 28012040 		.word	1075839272
 514              		.cfi_endproc
 515              	.LFE10:
 516              		.size	TCPWM_1_SetPWMMode, .-TCPWM_1_SetPWMMode
 517              		.section	.text.TCPWM_1_SetPWMSyncKill,"ax",%progbits
ARM GAS  C:\Users\puria\AppData\Local\Temp\ccpsVPDq.s 			page 18


 518              		.align	2
 519              		.global	TCPWM_1_SetPWMSyncKill
 520              		.code	16
 521              		.thumb_func
 522              		.type	TCPWM_1_SetPWMSyncKill, %function
 523              	TCPWM_1_SetPWMSyncKill:
 524              	.LFB11:
 453:Generated_Source\PSoC4/TCPWM_1.c **** 
 454:Generated_Source\PSoC4/TCPWM_1.c **** 
 455:Generated_Source\PSoC4/TCPWM_1.c **** 
 456:Generated_Source\PSoC4/TCPWM_1.c **** /*******************************************************************************
 457:Generated_Source\PSoC4/TCPWM_1.c **** * Function Name: TCPWM_1_SetPWMSyncKill
 458:Generated_Source\PSoC4/TCPWM_1.c **** ********************************************************************************
 459:Generated_Source\PSoC4/TCPWM_1.c **** *
 460:Generated_Source\PSoC4/TCPWM_1.c **** * Summary:
 461:Generated_Source\PSoC4/TCPWM_1.c **** *  Writes the register that controls whether the PWM kill signal (stop input)
 462:Generated_Source\PSoC4/TCPWM_1.c **** *  causes asynchronous or synchronous kill operation.  By default the kill
 463:Generated_Source\PSoC4/TCPWM_1.c **** *  operation is asynchronous.  This functionality is only applicable to the PWM
 464:Generated_Source\PSoC4/TCPWM_1.c **** *  and PWM with dead time modes.
 465:Generated_Source\PSoC4/TCPWM_1.c **** *
 466:Generated_Source\PSoC4/TCPWM_1.c **** *  For Synchronous mode the kill signal disables both the line and line_n
 467:Generated_Source\PSoC4/TCPWM_1.c **** *  signals until the next terminal count.
 468:Generated_Source\PSoC4/TCPWM_1.c **** *
 469:Generated_Source\PSoC4/TCPWM_1.c **** *  For Asynchronous mode the kill signal disables both the line and line_n
 470:Generated_Source\PSoC4/TCPWM_1.c **** *  signals when the kill signal is present.  This mode should only be used
 471:Generated_Source\PSoC4/TCPWM_1.c **** *  when the kill signal (stop input) is configured in the pass through mode
 472:Generated_Source\PSoC4/TCPWM_1.c **** *  (Level sensitive signal).
 473:Generated_Source\PSoC4/TCPWM_1.c **** 
 474:Generated_Source\PSoC4/TCPWM_1.c **** *
 475:Generated_Source\PSoC4/TCPWM_1.c **** * Parameters:
 476:Generated_Source\PSoC4/TCPWM_1.c **** *  syncKillEnable
 477:Generated_Source\PSoC4/TCPWM_1.c **** *   Values:
 478:Generated_Source\PSoC4/TCPWM_1.c **** *     - 0 - Asynchronous
 479:Generated_Source\PSoC4/TCPWM_1.c **** *     - 1 - Synchronous
 480:Generated_Source\PSoC4/TCPWM_1.c **** *
 481:Generated_Source\PSoC4/TCPWM_1.c **** * Return:
 482:Generated_Source\PSoC4/TCPWM_1.c **** *  None
 483:Generated_Source\PSoC4/TCPWM_1.c **** *
 484:Generated_Source\PSoC4/TCPWM_1.c **** *******************************************************************************/
 485:Generated_Source\PSoC4/TCPWM_1.c **** void TCPWM_1_SetPWMSyncKill(uint32 syncKillEnable)
 486:Generated_Source\PSoC4/TCPWM_1.c **** {
 525              		.loc 1 486 0
 526              		.cfi_startproc
 527              		@ args = 0, pretend = 0, frame = 16
 528              		@ frame_needed = 1, uses_anonymous_args = 0
 529 0000 90B5     		push	{r4, r7, lr}
 530              		.cfi_def_cfa_offset 12
 531              		.cfi_offset 4, -12
 532              		.cfi_offset 7, -8
 533              		.cfi_offset 14, -4
 534 0002 85B0     		sub	sp, sp, #20
 535              		.cfi_def_cfa_offset 32
 536 0004 00AF     		add	r7, sp, #0
 537              		.cfi_def_cfa_register 7
 538 0006 7860     		str	r0, [r7, #4]
 487:Generated_Source\PSoC4/TCPWM_1.c ****     uint8 enableInterrupts;
 488:Generated_Source\PSoC4/TCPWM_1.c **** 
ARM GAS  C:\Users\puria\AppData\Local\Temp\ccpsVPDq.s 			page 19


 489:Generated_Source\PSoC4/TCPWM_1.c ****     enableInterrupts = CyEnterCriticalSection();
 539              		.loc 1 489 0
 540 0008 0F23     		movs	r3, #15
 541 000a FC18     		adds	r4, r7, r3
 542 000c FFF7FEFF 		bl	CyEnterCriticalSection
 543 0010 0300     		movs	r3, r0
 544 0012 2370     		strb	r3, [r4]
 490:Generated_Source\PSoC4/TCPWM_1.c **** 
 491:Generated_Source\PSoC4/TCPWM_1.c ****     TCPWM_1_CONTROL_REG &= (uint32)~TCPWM_1_PWM_SYNC_KILL_MASK;
 545              		.loc 1 491 0
 546 0014 0C4B     		ldr	r3, .L30
 547 0016 0C4A     		ldr	r2, .L30
 548 0018 1268     		ldr	r2, [r2]
 549 001a 0421     		movs	r1, #4
 550 001c 8A43     		bics	r2, r1
 551 001e 1A60     		str	r2, [r3]
 492:Generated_Source\PSoC4/TCPWM_1.c ****     TCPWM_1_CONTROL_REG |= ((uint32)((syncKillEnable & TCPWM_1_1BIT_MASK)  <<
 552              		.loc 1 492 0
 553 0020 094B     		ldr	r3, .L30
 554 0022 094A     		ldr	r2, .L30
 555 0024 1168     		ldr	r1, [r2]
 556 0026 7A68     		ldr	r2, [r7, #4]
 557 0028 9200     		lsls	r2, r2, #2
 558 002a 0420     		movs	r0, #4
 559 002c 0240     		ands	r2, r0
 560 002e 0A43     		orrs	r2, r1
 561 0030 1A60     		str	r2, [r3]
 493:Generated_Source\PSoC4/TCPWM_1.c ****                                                TCPWM_1_PWM_SYNC_KILL_SHIFT));
 494:Generated_Source\PSoC4/TCPWM_1.c **** 
 495:Generated_Source\PSoC4/TCPWM_1.c ****     CyExitCriticalSection(enableInterrupts);
 562              		.loc 1 495 0
 563 0032 0F23     		movs	r3, #15
 564 0034 FB18     		adds	r3, r7, r3
 565 0036 1B78     		ldrb	r3, [r3]
 566 0038 1800     		movs	r0, r3
 567 003a FFF7FEFF 		bl	CyExitCriticalSection
 496:Generated_Source\PSoC4/TCPWM_1.c **** }
 568              		.loc 1 496 0
 569 003e C046     		nop
 570 0040 BD46     		mov	sp, r7
 571 0042 05B0     		add	sp, sp, #20
 572              		@ sp needed
 573 0044 90BD     		pop	{r4, r7, pc}
 574              	.L31:
 575 0046 C046     		.align	2
 576              	.L30:
 577 0048 00012040 		.word	1075839232
 578              		.cfi_endproc
 579              	.LFE11:
 580              		.size	TCPWM_1_SetPWMSyncKill, .-TCPWM_1_SetPWMSyncKill
 581              		.section	.text.TCPWM_1_SetPWMStopOnKill,"ax",%progbits
 582              		.align	2
 583              		.global	TCPWM_1_SetPWMStopOnKill
 584              		.code	16
 585              		.thumb_func
 586              		.type	TCPWM_1_SetPWMStopOnKill, %function
 587              	TCPWM_1_SetPWMStopOnKill:
ARM GAS  C:\Users\puria\AppData\Local\Temp\ccpsVPDq.s 			page 20


 588              	.LFB12:
 497:Generated_Source\PSoC4/TCPWM_1.c **** 
 498:Generated_Source\PSoC4/TCPWM_1.c **** 
 499:Generated_Source\PSoC4/TCPWM_1.c **** /*******************************************************************************
 500:Generated_Source\PSoC4/TCPWM_1.c **** * Function Name: TCPWM_1_SetPWMStopOnKill
 501:Generated_Source\PSoC4/TCPWM_1.c **** ********************************************************************************
 502:Generated_Source\PSoC4/TCPWM_1.c **** *
 503:Generated_Source\PSoC4/TCPWM_1.c **** * Summary:
 504:Generated_Source\PSoC4/TCPWM_1.c **** *  Writes the register that controls whether the PWM kill signal (stop input)
 505:Generated_Source\PSoC4/TCPWM_1.c **** *  causes the PWM counter to stop.  By default the kill operation does not stop
 506:Generated_Source\PSoC4/TCPWM_1.c **** *  the counter.  This functionality is only applicable to the three PWM modes.
 507:Generated_Source\PSoC4/TCPWM_1.c **** *
 508:Generated_Source\PSoC4/TCPWM_1.c **** *
 509:Generated_Source\PSoC4/TCPWM_1.c **** * Parameters:
 510:Generated_Source\PSoC4/TCPWM_1.c **** *  stopOnKillEnable
 511:Generated_Source\PSoC4/TCPWM_1.c **** *   Values:
 512:Generated_Source\PSoC4/TCPWM_1.c **** *     - 0 - Don't stop
 513:Generated_Source\PSoC4/TCPWM_1.c **** *     - 1 - Stop
 514:Generated_Source\PSoC4/TCPWM_1.c **** *
 515:Generated_Source\PSoC4/TCPWM_1.c **** * Return:
 516:Generated_Source\PSoC4/TCPWM_1.c **** *  None
 517:Generated_Source\PSoC4/TCPWM_1.c **** *
 518:Generated_Source\PSoC4/TCPWM_1.c **** *******************************************************************************/
 519:Generated_Source\PSoC4/TCPWM_1.c **** void TCPWM_1_SetPWMStopOnKill(uint32 stopOnKillEnable)
 520:Generated_Source\PSoC4/TCPWM_1.c **** {
 589              		.loc 1 520 0
 590              		.cfi_startproc
 591              		@ args = 0, pretend = 0, frame = 16
 592              		@ frame_needed = 1, uses_anonymous_args = 0
 593 0000 90B5     		push	{r4, r7, lr}
 594              		.cfi_def_cfa_offset 12
 595              		.cfi_offset 4, -12
 596              		.cfi_offset 7, -8
 597              		.cfi_offset 14, -4
 598 0002 85B0     		sub	sp, sp, #20
 599              		.cfi_def_cfa_offset 32
 600 0004 00AF     		add	r7, sp, #0
 601              		.cfi_def_cfa_register 7
 602 0006 7860     		str	r0, [r7, #4]
 521:Generated_Source\PSoC4/TCPWM_1.c ****     uint8 enableInterrupts;
 522:Generated_Source\PSoC4/TCPWM_1.c **** 
 523:Generated_Source\PSoC4/TCPWM_1.c ****     enableInterrupts = CyEnterCriticalSection();
 603              		.loc 1 523 0
 604 0008 0F23     		movs	r3, #15
 605 000a FC18     		adds	r4, r7, r3
 606 000c FFF7FEFF 		bl	CyEnterCriticalSection
 607 0010 0300     		movs	r3, r0
 608 0012 2370     		strb	r3, [r4]
 524:Generated_Source\PSoC4/TCPWM_1.c **** 
 525:Generated_Source\PSoC4/TCPWM_1.c ****     TCPWM_1_CONTROL_REG &= (uint32)~TCPWM_1_PWM_STOP_KILL_MASK;
 609              		.loc 1 525 0
 610 0014 0C4B     		ldr	r3, .L33
 611 0016 0C4A     		ldr	r2, .L33
 612 0018 1268     		ldr	r2, [r2]
 613 001a 0821     		movs	r1, #8
 614 001c 8A43     		bics	r2, r1
 615 001e 1A60     		str	r2, [r3]
ARM GAS  C:\Users\puria\AppData\Local\Temp\ccpsVPDq.s 			page 21


 526:Generated_Source\PSoC4/TCPWM_1.c ****     TCPWM_1_CONTROL_REG |= ((uint32)((stopOnKillEnable & TCPWM_1_1BIT_MASK)  <<
 616              		.loc 1 526 0
 617 0020 094B     		ldr	r3, .L33
 618 0022 094A     		ldr	r2, .L33
 619 0024 1168     		ldr	r1, [r2]
 620 0026 7A68     		ldr	r2, [r7, #4]
 621 0028 D200     		lsls	r2, r2, #3
 622 002a 0820     		movs	r0, #8
 623 002c 0240     		ands	r2, r0
 624 002e 0A43     		orrs	r2, r1
 625 0030 1A60     		str	r2, [r3]
 527:Generated_Source\PSoC4/TCPWM_1.c ****                                                          TCPWM_1_PWM_STOP_KILL_SHIFT));
 528:Generated_Source\PSoC4/TCPWM_1.c **** 
 529:Generated_Source\PSoC4/TCPWM_1.c ****     CyExitCriticalSection(enableInterrupts);
 626              		.loc 1 529 0
 627 0032 0F23     		movs	r3, #15
 628 0034 FB18     		adds	r3, r7, r3
 629 0036 1B78     		ldrb	r3, [r3]
 630 0038 1800     		movs	r0, r3
 631 003a FFF7FEFF 		bl	CyExitCriticalSection
 530:Generated_Source\PSoC4/TCPWM_1.c **** }
 632              		.loc 1 530 0
 633 003e C046     		nop
 634 0040 BD46     		mov	sp, r7
 635 0042 05B0     		add	sp, sp, #20
 636              		@ sp needed
 637 0044 90BD     		pop	{r4, r7, pc}
 638              	.L34:
 639 0046 C046     		.align	2
 640              	.L33:
 641 0048 00012040 		.word	1075839232
 642              		.cfi_endproc
 643              	.LFE12:
 644              		.size	TCPWM_1_SetPWMStopOnKill, .-TCPWM_1_SetPWMStopOnKill
 645              		.section	.text.TCPWM_1_SetPWMDeadTime,"ax",%progbits
 646              		.align	2
 647              		.global	TCPWM_1_SetPWMDeadTime
 648              		.code	16
 649              		.thumb_func
 650              		.type	TCPWM_1_SetPWMDeadTime, %function
 651              	TCPWM_1_SetPWMDeadTime:
 652              	.LFB13:
 531:Generated_Source\PSoC4/TCPWM_1.c **** 
 532:Generated_Source\PSoC4/TCPWM_1.c **** 
 533:Generated_Source\PSoC4/TCPWM_1.c **** /*******************************************************************************
 534:Generated_Source\PSoC4/TCPWM_1.c **** * Function Name: TCPWM_1_SetPWMDeadTime
 535:Generated_Source\PSoC4/TCPWM_1.c **** ********************************************************************************
 536:Generated_Source\PSoC4/TCPWM_1.c **** *
 537:Generated_Source\PSoC4/TCPWM_1.c **** * Summary:
 538:Generated_Source\PSoC4/TCPWM_1.c **** *  Writes the dead time control value.  This value delays the rising edge of
 539:Generated_Source\PSoC4/TCPWM_1.c **** *  both the line and line_n signals the designated number of cycles resulting
 540:Generated_Source\PSoC4/TCPWM_1.c **** *  in both signals being inactive for that many cycles.  This functionality is
 541:Generated_Source\PSoC4/TCPWM_1.c **** *  only applicable to the PWM in the dead time mode.
 542:Generated_Source\PSoC4/TCPWM_1.c **** 
 543:Generated_Source\PSoC4/TCPWM_1.c **** *
 544:Generated_Source\PSoC4/TCPWM_1.c **** * Parameters:
 545:Generated_Source\PSoC4/TCPWM_1.c **** *  Dead time to insert
ARM GAS  C:\Users\puria\AppData\Local\Temp\ccpsVPDq.s 			page 22


 546:Generated_Source\PSoC4/TCPWM_1.c **** *   Values: 0 to 255
 547:Generated_Source\PSoC4/TCPWM_1.c **** *
 548:Generated_Source\PSoC4/TCPWM_1.c **** * Return:
 549:Generated_Source\PSoC4/TCPWM_1.c **** *  None
 550:Generated_Source\PSoC4/TCPWM_1.c **** *
 551:Generated_Source\PSoC4/TCPWM_1.c **** *******************************************************************************/
 552:Generated_Source\PSoC4/TCPWM_1.c **** void TCPWM_1_SetPWMDeadTime(uint32 deadTime)
 553:Generated_Source\PSoC4/TCPWM_1.c **** {
 653              		.loc 1 553 0
 654              		.cfi_startproc
 655              		@ args = 0, pretend = 0, frame = 16
 656              		@ frame_needed = 1, uses_anonymous_args = 0
 657 0000 90B5     		push	{r4, r7, lr}
 658              		.cfi_def_cfa_offset 12
 659              		.cfi_offset 4, -12
 660              		.cfi_offset 7, -8
 661              		.cfi_offset 14, -4
 662 0002 85B0     		sub	sp, sp, #20
 663              		.cfi_def_cfa_offset 32
 664 0004 00AF     		add	r7, sp, #0
 665              		.cfi_def_cfa_register 7
 666 0006 7860     		str	r0, [r7, #4]
 554:Generated_Source\PSoC4/TCPWM_1.c ****     uint8 enableInterrupts;
 555:Generated_Source\PSoC4/TCPWM_1.c **** 
 556:Generated_Source\PSoC4/TCPWM_1.c ****     enableInterrupts = CyEnterCriticalSection();
 667              		.loc 1 556 0
 668 0008 0F23     		movs	r3, #15
 669 000a FC18     		adds	r4, r7, r3
 670 000c FFF7FEFF 		bl	CyEnterCriticalSection
 671 0010 0300     		movs	r3, r0
 672 0012 2370     		strb	r3, [r4]
 557:Generated_Source\PSoC4/TCPWM_1.c **** 
 558:Generated_Source\PSoC4/TCPWM_1.c ****     TCPWM_1_CONTROL_REG &= (uint32)~TCPWM_1_PRESCALER_MASK;
 673              		.loc 1 558 0
 674 0014 0C4B     		ldr	r3, .L36
 675 0016 0C4A     		ldr	r2, .L36
 676 0018 1268     		ldr	r2, [r2]
 677 001a 0C49     		ldr	r1, .L36+4
 678 001c 0A40     		ands	r2, r1
 679 001e 1A60     		str	r2, [r3]
 559:Generated_Source\PSoC4/TCPWM_1.c ****     TCPWM_1_CONTROL_REG |= ((uint32)((deadTime & TCPWM_1_8BIT_MASK) <<
 680              		.loc 1 559 0
 681 0020 094B     		ldr	r3, .L36
 682 0022 094A     		ldr	r2, .L36
 683 0024 1168     		ldr	r1, [r2]
 684 0026 7A68     		ldr	r2, [r7, #4]
 685 0028 1202     		lsls	r2, r2, #8
 686 002a 1204     		lsls	r2, r2, #16
 687 002c 120C     		lsrs	r2, r2, #16
 688 002e 0A43     		orrs	r2, r1
 689 0030 1A60     		str	r2, [r3]
 560:Generated_Source\PSoC4/TCPWM_1.c ****                                                           TCPWM_1_PRESCALER_SHIFT));
 561:Generated_Source\PSoC4/TCPWM_1.c **** 
 562:Generated_Source\PSoC4/TCPWM_1.c ****     CyExitCriticalSection(enableInterrupts);
 690              		.loc 1 562 0
 691 0032 0F23     		movs	r3, #15
 692 0034 FB18     		adds	r3, r7, r3
ARM GAS  C:\Users\puria\AppData\Local\Temp\ccpsVPDq.s 			page 23


 693 0036 1B78     		ldrb	r3, [r3]
 694 0038 1800     		movs	r0, r3
 695 003a FFF7FEFF 		bl	CyExitCriticalSection
 563:Generated_Source\PSoC4/TCPWM_1.c **** }
 696              		.loc 1 563 0
 697 003e C046     		nop
 698 0040 BD46     		mov	sp, r7
 699 0042 05B0     		add	sp, sp, #20
 700              		@ sp needed
 701 0044 90BD     		pop	{r4, r7, pc}
 702              	.L37:
 703 0046 C046     		.align	2
 704              	.L36:
 705 0048 00012040 		.word	1075839232
 706 004c FF00FFFF 		.word	-65281
 707              		.cfi_endproc
 708              	.LFE13:
 709              		.size	TCPWM_1_SetPWMDeadTime, .-TCPWM_1_SetPWMDeadTime
 710              		.section	.text.TCPWM_1_SetPWMInvert,"ax",%progbits
 711              		.align	2
 712              		.global	TCPWM_1_SetPWMInvert
 713              		.code	16
 714              		.thumb_func
 715              		.type	TCPWM_1_SetPWMInvert, %function
 716              	TCPWM_1_SetPWMInvert:
 717              	.LFB14:
 564:Generated_Source\PSoC4/TCPWM_1.c **** 
 565:Generated_Source\PSoC4/TCPWM_1.c **** 
 566:Generated_Source\PSoC4/TCPWM_1.c **** /*******************************************************************************
 567:Generated_Source\PSoC4/TCPWM_1.c **** * Function Name: TCPWM_1_SetPWMInvert
 568:Generated_Source\PSoC4/TCPWM_1.c **** ********************************************************************************
 569:Generated_Source\PSoC4/TCPWM_1.c **** *
 570:Generated_Source\PSoC4/TCPWM_1.c **** * Summary:
 571:Generated_Source\PSoC4/TCPWM_1.c **** *  Writes the bits that control whether the line and line_n outputs are
 572:Generated_Source\PSoC4/TCPWM_1.c **** *  inverted from their normal output values.  This functionality is only
 573:Generated_Source\PSoC4/TCPWM_1.c **** *  applicable to the three PWM modes.
 574:Generated_Source\PSoC4/TCPWM_1.c **** *
 575:Generated_Source\PSoC4/TCPWM_1.c **** * Parameters:
 576:Generated_Source\PSoC4/TCPWM_1.c **** *  mask: Mask of outputs to invert.
 577:Generated_Source\PSoC4/TCPWM_1.c **** *   Values:
 578:Generated_Source\PSoC4/TCPWM_1.c **** *         - TCPWM_1_INVERT_LINE   - Inverts the line output
 579:Generated_Source\PSoC4/TCPWM_1.c **** *         - TCPWM_1_INVERT_LINE_N - Inverts the line_n output
 580:Generated_Source\PSoC4/TCPWM_1.c **** *
 581:Generated_Source\PSoC4/TCPWM_1.c **** * Return:
 582:Generated_Source\PSoC4/TCPWM_1.c **** *  None
 583:Generated_Source\PSoC4/TCPWM_1.c **** *
 584:Generated_Source\PSoC4/TCPWM_1.c **** *******************************************************************************/
 585:Generated_Source\PSoC4/TCPWM_1.c **** void TCPWM_1_SetPWMInvert(uint32 mask)
 586:Generated_Source\PSoC4/TCPWM_1.c **** {
 718              		.loc 1 586 0
 719              		.cfi_startproc
 720              		@ args = 0, pretend = 0, frame = 16
 721              		@ frame_needed = 1, uses_anonymous_args = 0
 722 0000 90B5     		push	{r4, r7, lr}
 723              		.cfi_def_cfa_offset 12
 724              		.cfi_offset 4, -12
 725              		.cfi_offset 7, -8
ARM GAS  C:\Users\puria\AppData\Local\Temp\ccpsVPDq.s 			page 24


 726              		.cfi_offset 14, -4
 727 0002 85B0     		sub	sp, sp, #20
 728              		.cfi_def_cfa_offset 32
 729 0004 00AF     		add	r7, sp, #0
 730              		.cfi_def_cfa_register 7
 731 0006 7860     		str	r0, [r7, #4]
 587:Generated_Source\PSoC4/TCPWM_1.c ****     uint8 enableInterrupts;
 588:Generated_Source\PSoC4/TCPWM_1.c **** 
 589:Generated_Source\PSoC4/TCPWM_1.c ****     enableInterrupts = CyEnterCriticalSection();
 732              		.loc 1 589 0
 733 0008 0F23     		movs	r3, #15
 734 000a FC18     		adds	r4, r7, r3
 735 000c FFF7FEFF 		bl	CyEnterCriticalSection
 736 0010 0300     		movs	r3, r0
 737 0012 2370     		strb	r3, [r4]
 590:Generated_Source\PSoC4/TCPWM_1.c **** 
 591:Generated_Source\PSoC4/TCPWM_1.c ****     TCPWM_1_CONTROL_REG &= (uint32)~TCPWM_1_INV_OUT_MASK;
 738              		.loc 1 591 0
 739 0014 0A4B     		ldr	r3, .L39
 740 0016 0A4A     		ldr	r2, .L39
 741 0018 1268     		ldr	r2, [r2]
 742 001a 0A49     		ldr	r1, .L39+4
 743 001c 0A40     		ands	r2, r1
 744 001e 1A60     		str	r2, [r3]
 592:Generated_Source\PSoC4/TCPWM_1.c ****     TCPWM_1_CONTROL_REG |= mask;
 745              		.loc 1 592 0
 746 0020 074B     		ldr	r3, .L39
 747 0022 074A     		ldr	r2, .L39
 748 0024 1168     		ldr	r1, [r2]
 749 0026 7A68     		ldr	r2, [r7, #4]
 750 0028 0A43     		orrs	r2, r1
 751 002a 1A60     		str	r2, [r3]
 593:Generated_Source\PSoC4/TCPWM_1.c **** 
 594:Generated_Source\PSoC4/TCPWM_1.c ****     CyExitCriticalSection(enableInterrupts);
 752              		.loc 1 594 0
 753 002c 0F23     		movs	r3, #15
 754 002e FB18     		adds	r3, r7, r3
 755 0030 1B78     		ldrb	r3, [r3]
 756 0032 1800     		movs	r0, r3
 757 0034 FFF7FEFF 		bl	CyExitCriticalSection
 595:Generated_Source\PSoC4/TCPWM_1.c **** }
 758              		.loc 1 595 0
 759 0038 C046     		nop
 760 003a BD46     		mov	sp, r7
 761 003c 05B0     		add	sp, sp, #20
 762              		@ sp needed
 763 003e 90BD     		pop	{r4, r7, pc}
 764              	.L40:
 765              		.align	2
 766              	.L39:
 767 0040 00012040 		.word	1075839232
 768 0044 FFFFCFFF 		.word	-3145729
 769              		.cfi_endproc
 770              	.LFE14:
 771              		.size	TCPWM_1_SetPWMInvert, .-TCPWM_1_SetPWMInvert
 772              		.section	.text.TCPWM_1_WriteCounter,"ax",%progbits
 773              		.align	2
ARM GAS  C:\Users\puria\AppData\Local\Temp\ccpsVPDq.s 			page 25


 774              		.global	TCPWM_1_WriteCounter
 775              		.code	16
 776              		.thumb_func
 777              		.type	TCPWM_1_WriteCounter, %function
 778              	TCPWM_1_WriteCounter:
 779              	.LFB15:
 596:Generated_Source\PSoC4/TCPWM_1.c **** 
 597:Generated_Source\PSoC4/TCPWM_1.c **** 
 598:Generated_Source\PSoC4/TCPWM_1.c **** 
 599:Generated_Source\PSoC4/TCPWM_1.c **** /*******************************************************************************
 600:Generated_Source\PSoC4/TCPWM_1.c **** * Function Name: TCPWM_1_WriteCounter
 601:Generated_Source\PSoC4/TCPWM_1.c **** ********************************************************************************
 602:Generated_Source\PSoC4/TCPWM_1.c **** *
 603:Generated_Source\PSoC4/TCPWM_1.c **** * Summary:
 604:Generated_Source\PSoC4/TCPWM_1.c **** *  Writes a new 16bit counter value directly into the counter register, thus
 605:Generated_Source\PSoC4/TCPWM_1.c **** *  setting the counter (not the period) to the value written. It is not
 606:Generated_Source\PSoC4/TCPWM_1.c **** *  advised to write to this field when the counter is running.
 607:Generated_Source\PSoC4/TCPWM_1.c **** *
 608:Generated_Source\PSoC4/TCPWM_1.c **** * Parameters:
 609:Generated_Source\PSoC4/TCPWM_1.c **** *  count: value to write
 610:Generated_Source\PSoC4/TCPWM_1.c **** *
 611:Generated_Source\PSoC4/TCPWM_1.c **** * Return:
 612:Generated_Source\PSoC4/TCPWM_1.c **** *  None
 613:Generated_Source\PSoC4/TCPWM_1.c **** *
 614:Generated_Source\PSoC4/TCPWM_1.c **** *******************************************************************************/
 615:Generated_Source\PSoC4/TCPWM_1.c **** void TCPWM_1_WriteCounter(uint32 count)
 616:Generated_Source\PSoC4/TCPWM_1.c **** {
 780              		.loc 1 616 0
 781              		.cfi_startproc
 782              		@ args = 0, pretend = 0, frame = 8
 783              		@ frame_needed = 1, uses_anonymous_args = 0
 784 0000 80B5     		push	{r7, lr}
 785              		.cfi_def_cfa_offset 8
 786              		.cfi_offset 7, -8
 787              		.cfi_offset 14, -4
 788 0002 82B0     		sub	sp, sp, #8
 789              		.cfi_def_cfa_offset 16
 790 0004 00AF     		add	r7, sp, #0
 791              		.cfi_def_cfa_register 7
 792 0006 7860     		str	r0, [r7, #4]
 617:Generated_Source\PSoC4/TCPWM_1.c ****     TCPWM_1_COUNTER_REG = (count & TCPWM_1_16BIT_MASK);
 793              		.loc 1 617 0
 794 0008 044B     		ldr	r3, .L42
 795 000a 7A68     		ldr	r2, [r7, #4]
 796 000c 1204     		lsls	r2, r2, #16
 797 000e 120C     		lsrs	r2, r2, #16
 798 0010 1A60     		str	r2, [r3]
 618:Generated_Source\PSoC4/TCPWM_1.c **** }
 799              		.loc 1 618 0
 800 0012 C046     		nop
 801 0014 BD46     		mov	sp, r7
 802 0016 02B0     		add	sp, sp, #8
 803              		@ sp needed
 804 0018 80BD     		pop	{r7, pc}
 805              	.L43:
 806 001a C046     		.align	2
 807              	.L42:
ARM GAS  C:\Users\puria\AppData\Local\Temp\ccpsVPDq.s 			page 26


 808 001c 08012040 		.word	1075839240
 809              		.cfi_endproc
 810              	.LFE15:
 811              		.size	TCPWM_1_WriteCounter, .-TCPWM_1_WriteCounter
 812              		.section	.text.TCPWM_1_ReadCounter,"ax",%progbits
 813              		.align	2
 814              		.global	TCPWM_1_ReadCounter
 815              		.code	16
 816              		.thumb_func
 817              		.type	TCPWM_1_ReadCounter, %function
 818              	TCPWM_1_ReadCounter:
 819              	.LFB16:
 619:Generated_Source\PSoC4/TCPWM_1.c **** 
 620:Generated_Source\PSoC4/TCPWM_1.c **** 
 621:Generated_Source\PSoC4/TCPWM_1.c **** /*******************************************************************************
 622:Generated_Source\PSoC4/TCPWM_1.c **** * Function Name: TCPWM_1_ReadCounter
 623:Generated_Source\PSoC4/TCPWM_1.c **** ********************************************************************************
 624:Generated_Source\PSoC4/TCPWM_1.c **** *
 625:Generated_Source\PSoC4/TCPWM_1.c **** * Summary:
 626:Generated_Source\PSoC4/TCPWM_1.c **** *  Reads the current counter value.
 627:Generated_Source\PSoC4/TCPWM_1.c **** *
 628:Generated_Source\PSoC4/TCPWM_1.c **** * Parameters:
 629:Generated_Source\PSoC4/TCPWM_1.c **** *  None
 630:Generated_Source\PSoC4/TCPWM_1.c **** *
 631:Generated_Source\PSoC4/TCPWM_1.c **** * Return:
 632:Generated_Source\PSoC4/TCPWM_1.c **** *  Current counter value
 633:Generated_Source\PSoC4/TCPWM_1.c **** *
 634:Generated_Source\PSoC4/TCPWM_1.c **** *******************************************************************************/
 635:Generated_Source\PSoC4/TCPWM_1.c **** uint32 TCPWM_1_ReadCounter(void)
 636:Generated_Source\PSoC4/TCPWM_1.c **** {
 820              		.loc 1 636 0
 821              		.cfi_startproc
 822              		@ args = 0, pretend = 0, frame = 0
 823              		@ frame_needed = 1, uses_anonymous_args = 0
 824 0000 80B5     		push	{r7, lr}
 825              		.cfi_def_cfa_offset 8
 826              		.cfi_offset 7, -8
 827              		.cfi_offset 14, -4
 828 0002 00AF     		add	r7, sp, #0
 829              		.cfi_def_cfa_register 7
 637:Generated_Source\PSoC4/TCPWM_1.c ****     return (TCPWM_1_COUNTER_REG & TCPWM_1_16BIT_MASK);
 830              		.loc 1 637 0
 831 0004 034B     		ldr	r3, .L46
 832 0006 1B68     		ldr	r3, [r3]
 833 0008 1B04     		lsls	r3, r3, #16
 834 000a 1B0C     		lsrs	r3, r3, #16
 638:Generated_Source\PSoC4/TCPWM_1.c **** }
 835              		.loc 1 638 0
 836 000c 1800     		movs	r0, r3
 837 000e BD46     		mov	sp, r7
 838              		@ sp needed
 839 0010 80BD     		pop	{r7, pc}
 840              	.L47:
 841 0012 C046     		.align	2
 842              	.L46:
 843 0014 08012040 		.word	1075839240
 844              		.cfi_endproc
ARM GAS  C:\Users\puria\AppData\Local\Temp\ccpsVPDq.s 			page 27


 845              	.LFE16:
 846              		.size	TCPWM_1_ReadCounter, .-TCPWM_1_ReadCounter
 847              		.section	.text.TCPWM_1_SetCounterMode,"ax",%progbits
 848              		.align	2
 849              		.global	TCPWM_1_SetCounterMode
 850              		.code	16
 851              		.thumb_func
 852              		.type	TCPWM_1_SetCounterMode, %function
 853              	TCPWM_1_SetCounterMode:
 854              	.LFB17:
 639:Generated_Source\PSoC4/TCPWM_1.c **** 
 640:Generated_Source\PSoC4/TCPWM_1.c **** 
 641:Generated_Source\PSoC4/TCPWM_1.c **** /*******************************************************************************
 642:Generated_Source\PSoC4/TCPWM_1.c **** * Function Name: TCPWM_1_SetCounterMode
 643:Generated_Source\PSoC4/TCPWM_1.c **** ********************************************************************************
 644:Generated_Source\PSoC4/TCPWM_1.c **** *
 645:Generated_Source\PSoC4/TCPWM_1.c **** * Summary:
 646:Generated_Source\PSoC4/TCPWM_1.c **** *  Sets the counter mode.  Applicable to all modes except Quadrature Decoder
 647:Generated_Source\PSoC4/TCPWM_1.c **** *  and the PWM with a pseudo random output.
 648:Generated_Source\PSoC4/TCPWM_1.c **** *
 649:Generated_Source\PSoC4/TCPWM_1.c **** * Parameters:
 650:Generated_Source\PSoC4/TCPWM_1.c **** *  counterMode: Enumerated counter type values
 651:Generated_Source\PSoC4/TCPWM_1.c **** *   Values:
 652:Generated_Source\PSoC4/TCPWM_1.c **** *     - TCPWM_1_COUNT_UP       - Counts up
 653:Generated_Source\PSoC4/TCPWM_1.c **** *     - TCPWM_1_COUNT_DOWN     - Counts down
 654:Generated_Source\PSoC4/TCPWM_1.c **** *     - TCPWM_1_COUNT_UPDOWN0  - Counts up and down. Terminal count
 655:Generated_Source\PSoC4/TCPWM_1.c **** *                                         generated when counter reaches 0
 656:Generated_Source\PSoC4/TCPWM_1.c **** *     - TCPWM_1_COUNT_UPDOWN1  - Counts up and down. Terminal count
 657:Generated_Source\PSoC4/TCPWM_1.c **** *                                         generated both when counter reaches 0
 658:Generated_Source\PSoC4/TCPWM_1.c **** *                                         and period
 659:Generated_Source\PSoC4/TCPWM_1.c **** *
 660:Generated_Source\PSoC4/TCPWM_1.c **** * Return:
 661:Generated_Source\PSoC4/TCPWM_1.c **** *  None
 662:Generated_Source\PSoC4/TCPWM_1.c **** *
 663:Generated_Source\PSoC4/TCPWM_1.c **** *******************************************************************************/
 664:Generated_Source\PSoC4/TCPWM_1.c **** void TCPWM_1_SetCounterMode(uint32 counterMode)
 665:Generated_Source\PSoC4/TCPWM_1.c **** {
 855              		.loc 1 665 0
 856              		.cfi_startproc
 857              		@ args = 0, pretend = 0, frame = 16
 858              		@ frame_needed = 1, uses_anonymous_args = 0
 859 0000 90B5     		push	{r4, r7, lr}
 860              		.cfi_def_cfa_offset 12
 861              		.cfi_offset 4, -12
 862              		.cfi_offset 7, -8
 863              		.cfi_offset 14, -4
 864 0002 85B0     		sub	sp, sp, #20
 865              		.cfi_def_cfa_offset 32
 866 0004 00AF     		add	r7, sp, #0
 867              		.cfi_def_cfa_register 7
 868 0006 7860     		str	r0, [r7, #4]
 666:Generated_Source\PSoC4/TCPWM_1.c ****     uint8 enableInterrupts;
 667:Generated_Source\PSoC4/TCPWM_1.c **** 
 668:Generated_Source\PSoC4/TCPWM_1.c ****     enableInterrupts = CyEnterCriticalSection();
 869              		.loc 1 668 0
 870 0008 0F23     		movs	r3, #15
 871 000a FC18     		adds	r4, r7, r3
ARM GAS  C:\Users\puria\AppData\Local\Temp\ccpsVPDq.s 			page 28


 872 000c FFF7FEFF 		bl	CyEnterCriticalSection
 873 0010 0300     		movs	r3, r0
 874 0012 2370     		strb	r3, [r4]
 669:Generated_Source\PSoC4/TCPWM_1.c **** 
 670:Generated_Source\PSoC4/TCPWM_1.c ****     TCPWM_1_CONTROL_REG &= (uint32)~TCPWM_1_UPDOWN_MASK;
 875              		.loc 1 670 0
 876 0014 0A4B     		ldr	r3, .L49
 877 0016 0A4A     		ldr	r2, .L49
 878 0018 1268     		ldr	r2, [r2]
 879 001a 0A49     		ldr	r1, .L49+4
 880 001c 0A40     		ands	r2, r1
 881 001e 1A60     		str	r2, [r3]
 671:Generated_Source\PSoC4/TCPWM_1.c ****     TCPWM_1_CONTROL_REG |= counterMode;
 882              		.loc 1 671 0
 883 0020 074B     		ldr	r3, .L49
 884 0022 074A     		ldr	r2, .L49
 885 0024 1168     		ldr	r1, [r2]
 886 0026 7A68     		ldr	r2, [r7, #4]
 887 0028 0A43     		orrs	r2, r1
 888 002a 1A60     		str	r2, [r3]
 672:Generated_Source\PSoC4/TCPWM_1.c **** 
 673:Generated_Source\PSoC4/TCPWM_1.c ****     CyExitCriticalSection(enableInterrupts);
 889              		.loc 1 673 0
 890 002c 0F23     		movs	r3, #15
 891 002e FB18     		adds	r3, r7, r3
 892 0030 1B78     		ldrb	r3, [r3]
 893 0032 1800     		movs	r0, r3
 894 0034 FFF7FEFF 		bl	CyExitCriticalSection
 674:Generated_Source\PSoC4/TCPWM_1.c **** }
 895              		.loc 1 674 0
 896 0038 C046     		nop
 897 003a BD46     		mov	sp, r7
 898 003c 05B0     		add	sp, sp, #20
 899              		@ sp needed
 900 003e 90BD     		pop	{r4, r7, pc}
 901              	.L50:
 902              		.align	2
 903              	.L49:
 904 0040 00012040 		.word	1075839232
 905 0044 FFFFFCFF 		.word	-196609
 906              		.cfi_endproc
 907              	.LFE17:
 908              		.size	TCPWM_1_SetCounterMode, .-TCPWM_1_SetCounterMode
 909              		.section	.text.TCPWM_1_WritePeriod,"ax",%progbits
 910              		.align	2
 911              		.global	TCPWM_1_WritePeriod
 912              		.code	16
 913              		.thumb_func
 914              		.type	TCPWM_1_WritePeriod, %function
 915              	TCPWM_1_WritePeriod:
 916              	.LFB18:
 675:Generated_Source\PSoC4/TCPWM_1.c **** 
 676:Generated_Source\PSoC4/TCPWM_1.c **** 
 677:Generated_Source\PSoC4/TCPWM_1.c **** /*******************************************************************************
 678:Generated_Source\PSoC4/TCPWM_1.c **** * Function Name: TCPWM_1_WritePeriod
 679:Generated_Source\PSoC4/TCPWM_1.c **** ********************************************************************************
 680:Generated_Source\PSoC4/TCPWM_1.c **** *
ARM GAS  C:\Users\puria\AppData\Local\Temp\ccpsVPDq.s 			page 29


 681:Generated_Source\PSoC4/TCPWM_1.c **** * Summary:
 682:Generated_Source\PSoC4/TCPWM_1.c **** *  Writes the 16 bit period register with the new period value.
 683:Generated_Source\PSoC4/TCPWM_1.c **** *  To cause the counter to count for N cycles this register should be written
 684:Generated_Source\PSoC4/TCPWM_1.c **** *  with N-1 (counts from 0 to period inclusive).
 685:Generated_Source\PSoC4/TCPWM_1.c **** *
 686:Generated_Source\PSoC4/TCPWM_1.c **** * Parameters:
 687:Generated_Source\PSoC4/TCPWM_1.c **** *  period: Period value
 688:Generated_Source\PSoC4/TCPWM_1.c **** *
 689:Generated_Source\PSoC4/TCPWM_1.c **** * Return:
 690:Generated_Source\PSoC4/TCPWM_1.c **** *  None
 691:Generated_Source\PSoC4/TCPWM_1.c **** *
 692:Generated_Source\PSoC4/TCPWM_1.c **** *******************************************************************************/
 693:Generated_Source\PSoC4/TCPWM_1.c **** void TCPWM_1_WritePeriod(uint32 period)
 694:Generated_Source\PSoC4/TCPWM_1.c **** {
 917              		.loc 1 694 0
 918              		.cfi_startproc
 919              		@ args = 0, pretend = 0, frame = 8
 920              		@ frame_needed = 1, uses_anonymous_args = 0
 921 0000 80B5     		push	{r7, lr}
 922              		.cfi_def_cfa_offset 8
 923              		.cfi_offset 7, -8
 924              		.cfi_offset 14, -4
 925 0002 82B0     		sub	sp, sp, #8
 926              		.cfi_def_cfa_offset 16
 927 0004 00AF     		add	r7, sp, #0
 928              		.cfi_def_cfa_register 7
 929 0006 7860     		str	r0, [r7, #4]
 695:Generated_Source\PSoC4/TCPWM_1.c ****     TCPWM_1_PERIOD_REG = (period & TCPWM_1_16BIT_MASK);
 930              		.loc 1 695 0
 931 0008 044B     		ldr	r3, .L52
 932 000a 7A68     		ldr	r2, [r7, #4]
 933 000c 1204     		lsls	r2, r2, #16
 934 000e 120C     		lsrs	r2, r2, #16
 935 0010 1A60     		str	r2, [r3]
 696:Generated_Source\PSoC4/TCPWM_1.c **** }
 936              		.loc 1 696 0
 937 0012 C046     		nop
 938 0014 BD46     		mov	sp, r7
 939 0016 02B0     		add	sp, sp, #8
 940              		@ sp needed
 941 0018 80BD     		pop	{r7, pc}
 942              	.L53:
 943 001a C046     		.align	2
 944              	.L52:
 945 001c 14012040 		.word	1075839252
 946              		.cfi_endproc
 947              	.LFE18:
 948              		.size	TCPWM_1_WritePeriod, .-TCPWM_1_WritePeriod
 949              		.section	.text.TCPWM_1_ReadPeriod,"ax",%progbits
 950              		.align	2
 951              		.global	TCPWM_1_ReadPeriod
 952              		.code	16
 953              		.thumb_func
 954              		.type	TCPWM_1_ReadPeriod, %function
 955              	TCPWM_1_ReadPeriod:
 956              	.LFB19:
 697:Generated_Source\PSoC4/TCPWM_1.c **** 
ARM GAS  C:\Users\puria\AppData\Local\Temp\ccpsVPDq.s 			page 30


 698:Generated_Source\PSoC4/TCPWM_1.c **** 
 699:Generated_Source\PSoC4/TCPWM_1.c **** /*******************************************************************************
 700:Generated_Source\PSoC4/TCPWM_1.c **** * Function Name: TCPWM_1_ReadPeriod
 701:Generated_Source\PSoC4/TCPWM_1.c **** ********************************************************************************
 702:Generated_Source\PSoC4/TCPWM_1.c **** *
 703:Generated_Source\PSoC4/TCPWM_1.c **** * Summary:
 704:Generated_Source\PSoC4/TCPWM_1.c **** *  Reads the 16 bit period register.
 705:Generated_Source\PSoC4/TCPWM_1.c **** *
 706:Generated_Source\PSoC4/TCPWM_1.c **** * Parameters:
 707:Generated_Source\PSoC4/TCPWM_1.c **** *  None
 708:Generated_Source\PSoC4/TCPWM_1.c **** *
 709:Generated_Source\PSoC4/TCPWM_1.c **** * Return:
 710:Generated_Source\PSoC4/TCPWM_1.c **** *  Period value
 711:Generated_Source\PSoC4/TCPWM_1.c **** *
 712:Generated_Source\PSoC4/TCPWM_1.c **** *******************************************************************************/
 713:Generated_Source\PSoC4/TCPWM_1.c **** uint32 TCPWM_1_ReadPeriod(void)
 714:Generated_Source\PSoC4/TCPWM_1.c **** {
 957              		.loc 1 714 0
 958              		.cfi_startproc
 959              		@ args = 0, pretend = 0, frame = 0
 960              		@ frame_needed = 1, uses_anonymous_args = 0
 961 0000 80B5     		push	{r7, lr}
 962              		.cfi_def_cfa_offset 8
 963              		.cfi_offset 7, -8
 964              		.cfi_offset 14, -4
 965 0002 00AF     		add	r7, sp, #0
 966              		.cfi_def_cfa_register 7
 715:Generated_Source\PSoC4/TCPWM_1.c ****     return (TCPWM_1_PERIOD_REG & TCPWM_1_16BIT_MASK);
 967              		.loc 1 715 0
 968 0004 034B     		ldr	r3, .L56
 969 0006 1B68     		ldr	r3, [r3]
 970 0008 1B04     		lsls	r3, r3, #16
 971 000a 1B0C     		lsrs	r3, r3, #16
 716:Generated_Source\PSoC4/TCPWM_1.c **** }
 972              		.loc 1 716 0
 973 000c 1800     		movs	r0, r3
 974 000e BD46     		mov	sp, r7
 975              		@ sp needed
 976 0010 80BD     		pop	{r7, pc}
 977              	.L57:
 978 0012 C046     		.align	2
 979              	.L56:
 980 0014 14012040 		.word	1075839252
 981              		.cfi_endproc
 982              	.LFE19:
 983              		.size	TCPWM_1_ReadPeriod, .-TCPWM_1_ReadPeriod
 984              		.section	.text.TCPWM_1_SetCompareSwap,"ax",%progbits
 985              		.align	2
 986              		.global	TCPWM_1_SetCompareSwap
 987              		.code	16
 988              		.thumb_func
 989              		.type	TCPWM_1_SetCompareSwap, %function
 990              	TCPWM_1_SetCompareSwap:
 991              	.LFB20:
 717:Generated_Source\PSoC4/TCPWM_1.c **** 
 718:Generated_Source\PSoC4/TCPWM_1.c **** 
 719:Generated_Source\PSoC4/TCPWM_1.c **** /*******************************************************************************
ARM GAS  C:\Users\puria\AppData\Local\Temp\ccpsVPDq.s 			page 31


 720:Generated_Source\PSoC4/TCPWM_1.c **** * Function Name: TCPWM_1_SetCompareSwap
 721:Generated_Source\PSoC4/TCPWM_1.c **** ********************************************************************************
 722:Generated_Source\PSoC4/TCPWM_1.c **** *
 723:Generated_Source\PSoC4/TCPWM_1.c **** * Summary:
 724:Generated_Source\PSoC4/TCPWM_1.c **** *  Writes the register that controls whether the compare registers are
 725:Generated_Source\PSoC4/TCPWM_1.c **** *  swapped. When enabled in the Timer/Counter mode(without capture) the swap
 726:Generated_Source\PSoC4/TCPWM_1.c **** *  occurs at a TC event. In the PWM mode the swap occurs at the next TC event
 727:Generated_Source\PSoC4/TCPWM_1.c **** *  following a hardware switch event.
 728:Generated_Source\PSoC4/TCPWM_1.c **** *
 729:Generated_Source\PSoC4/TCPWM_1.c **** * Parameters:
 730:Generated_Source\PSoC4/TCPWM_1.c **** *  swapEnable
 731:Generated_Source\PSoC4/TCPWM_1.c **** *   Values:
 732:Generated_Source\PSoC4/TCPWM_1.c **** *     - 0 - Disable swap
 733:Generated_Source\PSoC4/TCPWM_1.c **** *     - 1 - Enable swap
 734:Generated_Source\PSoC4/TCPWM_1.c **** *
 735:Generated_Source\PSoC4/TCPWM_1.c **** * Return:
 736:Generated_Source\PSoC4/TCPWM_1.c **** *  None
 737:Generated_Source\PSoC4/TCPWM_1.c **** *
 738:Generated_Source\PSoC4/TCPWM_1.c **** *******************************************************************************/
 739:Generated_Source\PSoC4/TCPWM_1.c **** void TCPWM_1_SetCompareSwap(uint32 swapEnable)
 740:Generated_Source\PSoC4/TCPWM_1.c **** {
 992              		.loc 1 740 0
 993              		.cfi_startproc
 994              		@ args = 0, pretend = 0, frame = 16
 995              		@ frame_needed = 1, uses_anonymous_args = 0
 996 0000 90B5     		push	{r4, r7, lr}
 997              		.cfi_def_cfa_offset 12
 998              		.cfi_offset 4, -12
 999              		.cfi_offset 7, -8
 1000              		.cfi_offset 14, -4
 1001 0002 85B0     		sub	sp, sp, #20
 1002              		.cfi_def_cfa_offset 32
 1003 0004 00AF     		add	r7, sp, #0
 1004              		.cfi_def_cfa_register 7
 1005 0006 7860     		str	r0, [r7, #4]
 741:Generated_Source\PSoC4/TCPWM_1.c ****     uint8 enableInterrupts;
 742:Generated_Source\PSoC4/TCPWM_1.c **** 
 743:Generated_Source\PSoC4/TCPWM_1.c ****     enableInterrupts = CyEnterCriticalSection();
 1006              		.loc 1 743 0
 1007 0008 0F23     		movs	r3, #15
 1008 000a FC18     		adds	r4, r7, r3
 1009 000c FFF7FEFF 		bl	CyEnterCriticalSection
 1010 0010 0300     		movs	r3, r0
 1011 0012 2370     		strb	r3, [r4]
 744:Generated_Source\PSoC4/TCPWM_1.c **** 
 745:Generated_Source\PSoC4/TCPWM_1.c ****     TCPWM_1_CONTROL_REG &= (uint32)~TCPWM_1_RELOAD_CC_MASK;
 1012              		.loc 1 745 0
 1013 0014 0B4B     		ldr	r3, .L59
 1014 0016 0B4A     		ldr	r2, .L59
 1015 0018 1268     		ldr	r2, [r2]
 1016 001a 0121     		movs	r1, #1
 1017 001c 8A43     		bics	r2, r1
 1018 001e 1A60     		str	r2, [r3]
 746:Generated_Source\PSoC4/TCPWM_1.c ****     TCPWM_1_CONTROL_REG |= (swapEnable & TCPWM_1_1BIT_MASK);
 1019              		.loc 1 746 0
 1020 0020 084B     		ldr	r3, .L59
 1021 0022 084A     		ldr	r2, .L59
ARM GAS  C:\Users\puria\AppData\Local\Temp\ccpsVPDq.s 			page 32


 1022 0024 1168     		ldr	r1, [r2]
 1023 0026 7A68     		ldr	r2, [r7, #4]
 1024 0028 0120     		movs	r0, #1
 1025 002a 0240     		ands	r2, r0
 1026 002c 0A43     		orrs	r2, r1
 1027 002e 1A60     		str	r2, [r3]
 747:Generated_Source\PSoC4/TCPWM_1.c **** 
 748:Generated_Source\PSoC4/TCPWM_1.c ****     CyExitCriticalSection(enableInterrupts);
 1028              		.loc 1 748 0
 1029 0030 0F23     		movs	r3, #15
 1030 0032 FB18     		adds	r3, r7, r3
 1031 0034 1B78     		ldrb	r3, [r3]
 1032 0036 1800     		movs	r0, r3
 1033 0038 FFF7FEFF 		bl	CyExitCriticalSection
 749:Generated_Source\PSoC4/TCPWM_1.c **** }
 1034              		.loc 1 749 0
 1035 003c C046     		nop
 1036 003e BD46     		mov	sp, r7
 1037 0040 05B0     		add	sp, sp, #20
 1038              		@ sp needed
 1039 0042 90BD     		pop	{r4, r7, pc}
 1040              	.L60:
 1041              		.align	2
 1042              	.L59:
 1043 0044 00012040 		.word	1075839232
 1044              		.cfi_endproc
 1045              	.LFE20:
 1046              		.size	TCPWM_1_SetCompareSwap, .-TCPWM_1_SetCompareSwap
 1047              		.section	.text.TCPWM_1_WritePeriodBuf,"ax",%progbits
 1048              		.align	2
 1049              		.global	TCPWM_1_WritePeriodBuf
 1050              		.code	16
 1051              		.thumb_func
 1052              		.type	TCPWM_1_WritePeriodBuf, %function
 1053              	TCPWM_1_WritePeriodBuf:
 1054              	.LFB21:
 750:Generated_Source\PSoC4/TCPWM_1.c **** 
 751:Generated_Source\PSoC4/TCPWM_1.c **** 
 752:Generated_Source\PSoC4/TCPWM_1.c **** /*******************************************************************************
 753:Generated_Source\PSoC4/TCPWM_1.c **** * Function Name: TCPWM_1_WritePeriodBuf
 754:Generated_Source\PSoC4/TCPWM_1.c **** ********************************************************************************
 755:Generated_Source\PSoC4/TCPWM_1.c **** *
 756:Generated_Source\PSoC4/TCPWM_1.c **** * Summary:
 757:Generated_Source\PSoC4/TCPWM_1.c **** *  Writes the 16 bit period buf register with the new period value.
 758:Generated_Source\PSoC4/TCPWM_1.c **** *
 759:Generated_Source\PSoC4/TCPWM_1.c **** * Parameters:
 760:Generated_Source\PSoC4/TCPWM_1.c **** *  periodBuf: Period value
 761:Generated_Source\PSoC4/TCPWM_1.c **** *
 762:Generated_Source\PSoC4/TCPWM_1.c **** * Return:
 763:Generated_Source\PSoC4/TCPWM_1.c **** *  None
 764:Generated_Source\PSoC4/TCPWM_1.c **** *
 765:Generated_Source\PSoC4/TCPWM_1.c **** *******************************************************************************/
 766:Generated_Source\PSoC4/TCPWM_1.c **** void TCPWM_1_WritePeriodBuf(uint32 periodBuf)
 767:Generated_Source\PSoC4/TCPWM_1.c **** {
 1055              		.loc 1 767 0
 1056              		.cfi_startproc
 1057              		@ args = 0, pretend = 0, frame = 8
ARM GAS  C:\Users\puria\AppData\Local\Temp\ccpsVPDq.s 			page 33


 1058              		@ frame_needed = 1, uses_anonymous_args = 0
 1059 0000 80B5     		push	{r7, lr}
 1060              		.cfi_def_cfa_offset 8
 1061              		.cfi_offset 7, -8
 1062              		.cfi_offset 14, -4
 1063 0002 82B0     		sub	sp, sp, #8
 1064              		.cfi_def_cfa_offset 16
 1065 0004 00AF     		add	r7, sp, #0
 1066              		.cfi_def_cfa_register 7
 1067 0006 7860     		str	r0, [r7, #4]
 768:Generated_Source\PSoC4/TCPWM_1.c ****     TCPWM_1_PERIOD_BUF_REG = (periodBuf & TCPWM_1_16BIT_MASK);
 1068              		.loc 1 768 0
 1069 0008 044B     		ldr	r3, .L62
 1070 000a 7A68     		ldr	r2, [r7, #4]
 1071 000c 1204     		lsls	r2, r2, #16
 1072 000e 120C     		lsrs	r2, r2, #16
 1073 0010 1A60     		str	r2, [r3]
 769:Generated_Source\PSoC4/TCPWM_1.c **** }
 1074              		.loc 1 769 0
 1075 0012 C046     		nop
 1076 0014 BD46     		mov	sp, r7
 1077 0016 02B0     		add	sp, sp, #8
 1078              		@ sp needed
 1079 0018 80BD     		pop	{r7, pc}
 1080              	.L63:
 1081 001a C046     		.align	2
 1082              	.L62:
 1083 001c 18012040 		.word	1075839256
 1084              		.cfi_endproc
 1085              	.LFE21:
 1086              		.size	TCPWM_1_WritePeriodBuf, .-TCPWM_1_WritePeriodBuf
 1087              		.section	.text.TCPWM_1_ReadPeriodBuf,"ax",%progbits
 1088              		.align	2
 1089              		.global	TCPWM_1_ReadPeriodBuf
 1090              		.code	16
 1091              		.thumb_func
 1092              		.type	TCPWM_1_ReadPeriodBuf, %function
 1093              	TCPWM_1_ReadPeriodBuf:
 1094              	.LFB22:
 770:Generated_Source\PSoC4/TCPWM_1.c **** 
 771:Generated_Source\PSoC4/TCPWM_1.c **** 
 772:Generated_Source\PSoC4/TCPWM_1.c **** /*******************************************************************************
 773:Generated_Source\PSoC4/TCPWM_1.c **** * Function Name: TCPWM_1_ReadPeriodBuf
 774:Generated_Source\PSoC4/TCPWM_1.c **** ********************************************************************************
 775:Generated_Source\PSoC4/TCPWM_1.c **** *
 776:Generated_Source\PSoC4/TCPWM_1.c **** * Summary:
 777:Generated_Source\PSoC4/TCPWM_1.c **** *  Reads the 16 bit period buf register.
 778:Generated_Source\PSoC4/TCPWM_1.c **** *
 779:Generated_Source\PSoC4/TCPWM_1.c **** * Parameters:
 780:Generated_Source\PSoC4/TCPWM_1.c **** *  None
 781:Generated_Source\PSoC4/TCPWM_1.c **** *
 782:Generated_Source\PSoC4/TCPWM_1.c **** * Return:
 783:Generated_Source\PSoC4/TCPWM_1.c **** *  Period value
 784:Generated_Source\PSoC4/TCPWM_1.c **** *
 785:Generated_Source\PSoC4/TCPWM_1.c **** *******************************************************************************/
 786:Generated_Source\PSoC4/TCPWM_1.c **** uint32 TCPWM_1_ReadPeriodBuf(void)
 787:Generated_Source\PSoC4/TCPWM_1.c **** {
ARM GAS  C:\Users\puria\AppData\Local\Temp\ccpsVPDq.s 			page 34


 1095              		.loc 1 787 0
 1096              		.cfi_startproc
 1097              		@ args = 0, pretend = 0, frame = 0
 1098              		@ frame_needed = 1, uses_anonymous_args = 0
 1099 0000 80B5     		push	{r7, lr}
 1100              		.cfi_def_cfa_offset 8
 1101              		.cfi_offset 7, -8
 1102              		.cfi_offset 14, -4
 1103 0002 00AF     		add	r7, sp, #0
 1104              		.cfi_def_cfa_register 7
 788:Generated_Source\PSoC4/TCPWM_1.c ****     return (TCPWM_1_PERIOD_BUF_REG & TCPWM_1_16BIT_MASK);
 1105              		.loc 1 788 0
 1106 0004 034B     		ldr	r3, .L66
 1107 0006 1B68     		ldr	r3, [r3]
 1108 0008 1B04     		lsls	r3, r3, #16
 1109 000a 1B0C     		lsrs	r3, r3, #16
 789:Generated_Source\PSoC4/TCPWM_1.c **** }
 1110              		.loc 1 789 0
 1111 000c 1800     		movs	r0, r3
 1112 000e BD46     		mov	sp, r7
 1113              		@ sp needed
 1114 0010 80BD     		pop	{r7, pc}
 1115              	.L67:
 1116 0012 C046     		.align	2
 1117              	.L66:
 1118 0014 18012040 		.word	1075839256
 1119              		.cfi_endproc
 1120              	.LFE22:
 1121              		.size	TCPWM_1_ReadPeriodBuf, .-TCPWM_1_ReadPeriodBuf
 1122              		.section	.text.TCPWM_1_SetPeriodSwap,"ax",%progbits
 1123              		.align	2
 1124              		.global	TCPWM_1_SetPeriodSwap
 1125              		.code	16
 1126              		.thumb_func
 1127              		.type	TCPWM_1_SetPeriodSwap, %function
 1128              	TCPWM_1_SetPeriodSwap:
 1129              	.LFB23:
 790:Generated_Source\PSoC4/TCPWM_1.c **** 
 791:Generated_Source\PSoC4/TCPWM_1.c **** 
 792:Generated_Source\PSoC4/TCPWM_1.c **** /*******************************************************************************
 793:Generated_Source\PSoC4/TCPWM_1.c **** * Function Name: TCPWM_1_SetPeriodSwap
 794:Generated_Source\PSoC4/TCPWM_1.c **** ********************************************************************************
 795:Generated_Source\PSoC4/TCPWM_1.c **** *
 796:Generated_Source\PSoC4/TCPWM_1.c **** * Summary:
 797:Generated_Source\PSoC4/TCPWM_1.c **** *  Writes the register that controls whether the period registers are
 798:Generated_Source\PSoC4/TCPWM_1.c **** *  swapped. When enabled in Timer/Counter mode the swap occurs at a TC event.
 799:Generated_Source\PSoC4/TCPWM_1.c **** *  In the PWM mode the swap occurs at the next TC event following a hardware
 800:Generated_Source\PSoC4/TCPWM_1.c **** *  switch event.
 801:Generated_Source\PSoC4/TCPWM_1.c **** *
 802:Generated_Source\PSoC4/TCPWM_1.c **** * Parameters:
 803:Generated_Source\PSoC4/TCPWM_1.c **** *  swapEnable
 804:Generated_Source\PSoC4/TCPWM_1.c **** *   Values:
 805:Generated_Source\PSoC4/TCPWM_1.c **** *     - 0 - Disable swap
 806:Generated_Source\PSoC4/TCPWM_1.c **** *     - 1 - Enable swap
 807:Generated_Source\PSoC4/TCPWM_1.c **** *
 808:Generated_Source\PSoC4/TCPWM_1.c **** * Return:
 809:Generated_Source\PSoC4/TCPWM_1.c **** *  None
ARM GAS  C:\Users\puria\AppData\Local\Temp\ccpsVPDq.s 			page 35


 810:Generated_Source\PSoC4/TCPWM_1.c **** *
 811:Generated_Source\PSoC4/TCPWM_1.c **** *******************************************************************************/
 812:Generated_Source\PSoC4/TCPWM_1.c **** void TCPWM_1_SetPeriodSwap(uint32 swapEnable)
 813:Generated_Source\PSoC4/TCPWM_1.c **** {
 1130              		.loc 1 813 0
 1131              		.cfi_startproc
 1132              		@ args = 0, pretend = 0, frame = 16
 1133              		@ frame_needed = 1, uses_anonymous_args = 0
 1134 0000 90B5     		push	{r4, r7, lr}
 1135              		.cfi_def_cfa_offset 12
 1136              		.cfi_offset 4, -12
 1137              		.cfi_offset 7, -8
 1138              		.cfi_offset 14, -4
 1139 0002 85B0     		sub	sp, sp, #20
 1140              		.cfi_def_cfa_offset 32
 1141 0004 00AF     		add	r7, sp, #0
 1142              		.cfi_def_cfa_register 7
 1143 0006 7860     		str	r0, [r7, #4]
 814:Generated_Source\PSoC4/TCPWM_1.c ****     uint8 enableInterrupts;
 815:Generated_Source\PSoC4/TCPWM_1.c **** 
 816:Generated_Source\PSoC4/TCPWM_1.c ****     enableInterrupts = CyEnterCriticalSection();
 1144              		.loc 1 816 0
 1145 0008 0F23     		movs	r3, #15
 1146 000a FC18     		adds	r4, r7, r3
 1147 000c FFF7FEFF 		bl	CyEnterCriticalSection
 1148 0010 0300     		movs	r3, r0
 1149 0012 2370     		strb	r3, [r4]
 817:Generated_Source\PSoC4/TCPWM_1.c **** 
 818:Generated_Source\PSoC4/TCPWM_1.c ****     TCPWM_1_CONTROL_REG &= (uint32)~TCPWM_1_RELOAD_PERIOD_MASK;
 1150              		.loc 1 818 0
 1151 0014 0C4B     		ldr	r3, .L69
 1152 0016 0C4A     		ldr	r2, .L69
 1153 0018 1268     		ldr	r2, [r2]
 1154 001a 0221     		movs	r1, #2
 1155 001c 8A43     		bics	r2, r1
 1156 001e 1A60     		str	r2, [r3]
 819:Generated_Source\PSoC4/TCPWM_1.c ****     TCPWM_1_CONTROL_REG |= ((uint32)((swapEnable & TCPWM_1_1BIT_MASK) <<
 1157              		.loc 1 819 0
 1158 0020 094B     		ldr	r3, .L69
 1159 0022 094A     		ldr	r2, .L69
 1160 0024 1168     		ldr	r1, [r2]
 1161 0026 7A68     		ldr	r2, [r7, #4]
 1162 0028 5200     		lsls	r2, r2, #1
 1163 002a 0220     		movs	r0, #2
 1164 002c 0240     		ands	r2, r0
 1165 002e 0A43     		orrs	r2, r1
 1166 0030 1A60     		str	r2, [r3]
 820:Generated_Source\PSoC4/TCPWM_1.c ****                                                             TCPWM_1_RELOAD_PERIOD_SHIFT));
 821:Generated_Source\PSoC4/TCPWM_1.c **** 
 822:Generated_Source\PSoC4/TCPWM_1.c ****     CyExitCriticalSection(enableInterrupts);
 1167              		.loc 1 822 0
 1168 0032 0F23     		movs	r3, #15
 1169 0034 FB18     		adds	r3, r7, r3
 1170 0036 1B78     		ldrb	r3, [r3]
 1171 0038 1800     		movs	r0, r3
 1172 003a FFF7FEFF 		bl	CyExitCriticalSection
 823:Generated_Source\PSoC4/TCPWM_1.c **** }
ARM GAS  C:\Users\puria\AppData\Local\Temp\ccpsVPDq.s 			page 36


 1173              		.loc 1 823 0
 1174 003e C046     		nop
 1175 0040 BD46     		mov	sp, r7
 1176 0042 05B0     		add	sp, sp, #20
 1177              		@ sp needed
 1178 0044 90BD     		pop	{r4, r7, pc}
 1179              	.L70:
 1180 0046 C046     		.align	2
 1181              	.L69:
 1182 0048 00012040 		.word	1075839232
 1183              		.cfi_endproc
 1184              	.LFE23:
 1185              		.size	TCPWM_1_SetPeriodSwap, .-TCPWM_1_SetPeriodSwap
 1186              		.section	.text.TCPWM_1_WriteCompare,"ax",%progbits
 1187              		.align	2
 1188              		.global	TCPWM_1_WriteCompare
 1189              		.code	16
 1190              		.thumb_func
 1191              		.type	TCPWM_1_WriteCompare, %function
 1192              	TCPWM_1_WriteCompare:
 1193              	.LFB24:
 824:Generated_Source\PSoC4/TCPWM_1.c **** 
 825:Generated_Source\PSoC4/TCPWM_1.c **** 
 826:Generated_Source\PSoC4/TCPWM_1.c **** /*******************************************************************************
 827:Generated_Source\PSoC4/TCPWM_1.c **** * Function Name: TCPWM_1_WriteCompare
 828:Generated_Source\PSoC4/TCPWM_1.c **** ********************************************************************************
 829:Generated_Source\PSoC4/TCPWM_1.c **** *
 830:Generated_Source\PSoC4/TCPWM_1.c **** * Summary:
 831:Generated_Source\PSoC4/TCPWM_1.c **** *  Writes the 16 bit compare register with the new compare value. Not
 832:Generated_Source\PSoC4/TCPWM_1.c **** *  applicable for Timer/Counter with Capture or in Quadrature Decoder modes.
 833:Generated_Source\PSoC4/TCPWM_1.c **** *
 834:Generated_Source\PSoC4/TCPWM_1.c **** * Parameters:
 835:Generated_Source\PSoC4/TCPWM_1.c **** *  compare: Compare value
 836:Generated_Source\PSoC4/TCPWM_1.c **** *
 837:Generated_Source\PSoC4/TCPWM_1.c **** * Return:
 838:Generated_Source\PSoC4/TCPWM_1.c **** *  None
 839:Generated_Source\PSoC4/TCPWM_1.c **** *
 840:Generated_Source\PSoC4/TCPWM_1.c **** * Note:
 841:Generated_Source\PSoC4/TCPWM_1.c **** *  It is not recommended to use the value equal to "0" or equal to 
 842:Generated_Source\PSoC4/TCPWM_1.c **** *  "period value" in Center or Asymmetric align PWM modes on the 
 843:Generated_Source\PSoC4/TCPWM_1.c **** *  PSoC 4100/PSoC 4200 devices.
 844:Generated_Source\PSoC4/TCPWM_1.c **** *  PSoC 4000 devices write the 16 bit compare register with the decremented 
 845:Generated_Source\PSoC4/TCPWM_1.c **** *  compare value in the Up counting mode (except 0x0u), and the incremented 
 846:Generated_Source\PSoC4/TCPWM_1.c **** *  compare value in the Down counting mode (except 0xFFFFu).
 847:Generated_Source\PSoC4/TCPWM_1.c **** *
 848:Generated_Source\PSoC4/TCPWM_1.c **** *******************************************************************************/
 849:Generated_Source\PSoC4/TCPWM_1.c **** void TCPWM_1_WriteCompare(uint32 compare)
 850:Generated_Source\PSoC4/TCPWM_1.c **** {
 1194              		.loc 1 850 0
 1195              		.cfi_startproc
 1196              		@ args = 0, pretend = 0, frame = 8
 1197              		@ frame_needed = 1, uses_anonymous_args = 0
 1198 0000 80B5     		push	{r7, lr}
 1199              		.cfi_def_cfa_offset 8
 1200              		.cfi_offset 7, -8
 1201              		.cfi_offset 14, -4
 1202 0002 82B0     		sub	sp, sp, #8
ARM GAS  C:\Users\puria\AppData\Local\Temp\ccpsVPDq.s 			page 37


 1203              		.cfi_def_cfa_offset 16
 1204 0004 00AF     		add	r7, sp, #0
 1205              		.cfi_def_cfa_register 7
 1206 0006 7860     		str	r0, [r7, #4]
 851:Generated_Source\PSoC4/TCPWM_1.c ****     #if (TCPWM_1_CY_TCPWM_4000)
 852:Generated_Source\PSoC4/TCPWM_1.c ****         uint32 currentMode;
 853:Generated_Source\PSoC4/TCPWM_1.c ****     #endif /* (TCPWM_1_CY_TCPWM_4000) */
 854:Generated_Source\PSoC4/TCPWM_1.c **** 
 855:Generated_Source\PSoC4/TCPWM_1.c ****     #if (TCPWM_1_CY_TCPWM_4000)
 856:Generated_Source\PSoC4/TCPWM_1.c ****         currentMode = ((TCPWM_1_CONTROL_REG & TCPWM_1_UPDOWN_MASK) >> TCPWM_1_UPDOWN_SHIFT);
 857:Generated_Source\PSoC4/TCPWM_1.c **** 
 858:Generated_Source\PSoC4/TCPWM_1.c ****         if (((uint32)TCPWM_1__COUNT_DOWN == currentMode) && (0xFFFFu != compare))
 859:Generated_Source\PSoC4/TCPWM_1.c ****         {
 860:Generated_Source\PSoC4/TCPWM_1.c ****             compare++;
 861:Generated_Source\PSoC4/TCPWM_1.c ****         }
 862:Generated_Source\PSoC4/TCPWM_1.c ****         else if (((uint32)TCPWM_1__COUNT_UP == currentMode) && (0u != compare))
 863:Generated_Source\PSoC4/TCPWM_1.c ****         {
 864:Generated_Source\PSoC4/TCPWM_1.c ****             compare--;
 865:Generated_Source\PSoC4/TCPWM_1.c ****         }
 866:Generated_Source\PSoC4/TCPWM_1.c ****         else
 867:Generated_Source\PSoC4/TCPWM_1.c ****         {
 868:Generated_Source\PSoC4/TCPWM_1.c ****         }
 869:Generated_Source\PSoC4/TCPWM_1.c ****         
 870:Generated_Source\PSoC4/TCPWM_1.c ****     
 871:Generated_Source\PSoC4/TCPWM_1.c ****     #endif /* (TCPWM_1_CY_TCPWM_4000) */
 872:Generated_Source\PSoC4/TCPWM_1.c ****     
 873:Generated_Source\PSoC4/TCPWM_1.c ****     TCPWM_1_COMP_CAP_REG = (compare & TCPWM_1_16BIT_MASK);
 1207              		.loc 1 873 0
 1208 0008 044B     		ldr	r3, .L72
 1209 000a 7A68     		ldr	r2, [r7, #4]
 1210 000c 1204     		lsls	r2, r2, #16
 1211 000e 120C     		lsrs	r2, r2, #16
 1212 0010 1A60     		str	r2, [r3]
 874:Generated_Source\PSoC4/TCPWM_1.c **** }
 1213              		.loc 1 874 0
 1214 0012 C046     		nop
 1215 0014 BD46     		mov	sp, r7
 1216 0016 02B0     		add	sp, sp, #8
 1217              		@ sp needed
 1218 0018 80BD     		pop	{r7, pc}
 1219              	.L73:
 1220 001a C046     		.align	2
 1221              	.L72:
 1222 001c 0C012040 		.word	1075839244
 1223              		.cfi_endproc
 1224              	.LFE24:
 1225              		.size	TCPWM_1_WriteCompare, .-TCPWM_1_WriteCompare
 1226              		.section	.text.TCPWM_1_ReadCompare,"ax",%progbits
 1227              		.align	2
 1228              		.global	TCPWM_1_ReadCompare
 1229              		.code	16
 1230              		.thumb_func
 1231              		.type	TCPWM_1_ReadCompare, %function
 1232              	TCPWM_1_ReadCompare:
 1233              	.LFB25:
 875:Generated_Source\PSoC4/TCPWM_1.c **** 
 876:Generated_Source\PSoC4/TCPWM_1.c **** 
ARM GAS  C:\Users\puria\AppData\Local\Temp\ccpsVPDq.s 			page 38


 877:Generated_Source\PSoC4/TCPWM_1.c **** /*******************************************************************************
 878:Generated_Source\PSoC4/TCPWM_1.c **** * Function Name: TCPWM_1_ReadCompare
 879:Generated_Source\PSoC4/TCPWM_1.c **** ********************************************************************************
 880:Generated_Source\PSoC4/TCPWM_1.c **** *
 881:Generated_Source\PSoC4/TCPWM_1.c **** * Summary:
 882:Generated_Source\PSoC4/TCPWM_1.c **** *  Reads the compare register. Not applicable for Timer/Counter with Capture
 883:Generated_Source\PSoC4/TCPWM_1.c **** *  or in Quadrature Decoder modes.
 884:Generated_Source\PSoC4/TCPWM_1.c **** *  PSoC 4000 devices read the incremented compare register value in the 
 885:Generated_Source\PSoC4/TCPWM_1.c **** *  Up counting mode (except 0xFFFFu), and the decremented value in the 
 886:Generated_Source\PSoC4/TCPWM_1.c **** *  Down counting mode (except 0x0u).
 887:Generated_Source\PSoC4/TCPWM_1.c **** *
 888:Generated_Source\PSoC4/TCPWM_1.c **** * Parameters:
 889:Generated_Source\PSoC4/TCPWM_1.c **** *  None
 890:Generated_Source\PSoC4/TCPWM_1.c **** *
 891:Generated_Source\PSoC4/TCPWM_1.c **** * Return:
 892:Generated_Source\PSoC4/TCPWM_1.c **** *  Compare value
 893:Generated_Source\PSoC4/TCPWM_1.c **** *
 894:Generated_Source\PSoC4/TCPWM_1.c **** * Note:
 895:Generated_Source\PSoC4/TCPWM_1.c **** *  PSoC 4000 devices read the incremented compare register value in the 
 896:Generated_Source\PSoC4/TCPWM_1.c **** *  Up counting mode (except 0xFFFFu), and the decremented value in the 
 897:Generated_Source\PSoC4/TCPWM_1.c **** *  Down counting mode (except 0x0u).
 898:Generated_Source\PSoC4/TCPWM_1.c **** *
 899:Generated_Source\PSoC4/TCPWM_1.c **** *******************************************************************************/
 900:Generated_Source\PSoC4/TCPWM_1.c **** uint32 TCPWM_1_ReadCompare(void)
 901:Generated_Source\PSoC4/TCPWM_1.c **** {
 1234              		.loc 1 901 0
 1235              		.cfi_startproc
 1236              		@ args = 0, pretend = 0, frame = 0
 1237              		@ frame_needed = 1, uses_anonymous_args = 0
 1238 0000 80B5     		push	{r7, lr}
 1239              		.cfi_def_cfa_offset 8
 1240              		.cfi_offset 7, -8
 1241              		.cfi_offset 14, -4
 1242 0002 00AF     		add	r7, sp, #0
 1243              		.cfi_def_cfa_register 7
 902:Generated_Source\PSoC4/TCPWM_1.c ****     #if (TCPWM_1_CY_TCPWM_4000)
 903:Generated_Source\PSoC4/TCPWM_1.c ****         uint32 currentMode;
 904:Generated_Source\PSoC4/TCPWM_1.c ****         uint32 regVal;
 905:Generated_Source\PSoC4/TCPWM_1.c ****     #endif /* (TCPWM_1_CY_TCPWM_4000) */
 906:Generated_Source\PSoC4/TCPWM_1.c **** 
 907:Generated_Source\PSoC4/TCPWM_1.c ****     #if (TCPWM_1_CY_TCPWM_4000)
 908:Generated_Source\PSoC4/TCPWM_1.c ****         currentMode = ((TCPWM_1_CONTROL_REG & TCPWM_1_UPDOWN_MASK) >> TCPWM_1_UPDOWN_SHIFT);
 909:Generated_Source\PSoC4/TCPWM_1.c ****         
 910:Generated_Source\PSoC4/TCPWM_1.c ****         regVal = TCPWM_1_COMP_CAP_REG;
 911:Generated_Source\PSoC4/TCPWM_1.c ****         
 912:Generated_Source\PSoC4/TCPWM_1.c ****         if (((uint32)TCPWM_1__COUNT_DOWN == currentMode) && (0u != regVal))
 913:Generated_Source\PSoC4/TCPWM_1.c ****         {
 914:Generated_Source\PSoC4/TCPWM_1.c ****             regVal--;
 915:Generated_Source\PSoC4/TCPWM_1.c ****         }
 916:Generated_Source\PSoC4/TCPWM_1.c ****         else if (((uint32)TCPWM_1__COUNT_UP == currentMode) && (0xFFFFu != regVal))
 917:Generated_Source\PSoC4/TCPWM_1.c ****         {
 918:Generated_Source\PSoC4/TCPWM_1.c ****             regVal++;
 919:Generated_Source\PSoC4/TCPWM_1.c ****         }
 920:Generated_Source\PSoC4/TCPWM_1.c ****         else
 921:Generated_Source\PSoC4/TCPWM_1.c ****         {
 922:Generated_Source\PSoC4/TCPWM_1.c ****         }
 923:Generated_Source\PSoC4/TCPWM_1.c **** 
ARM GAS  C:\Users\puria\AppData\Local\Temp\ccpsVPDq.s 			page 39


 924:Generated_Source\PSoC4/TCPWM_1.c ****         return (regVal & TCPWM_1_16BIT_MASK);
 925:Generated_Source\PSoC4/TCPWM_1.c ****     #else
 926:Generated_Source\PSoC4/TCPWM_1.c ****         return (TCPWM_1_COMP_CAP_REG & TCPWM_1_16BIT_MASK);
 1244              		.loc 1 926 0
 1245 0004 034B     		ldr	r3, .L76
 1246 0006 1B68     		ldr	r3, [r3]
 1247 0008 1B04     		lsls	r3, r3, #16
 1248 000a 1B0C     		lsrs	r3, r3, #16
 927:Generated_Source\PSoC4/TCPWM_1.c ****     #endif /* (TCPWM_1_CY_TCPWM_4000) */
 928:Generated_Source\PSoC4/TCPWM_1.c **** }
 1249              		.loc 1 928 0
 1250 000c 1800     		movs	r0, r3
 1251 000e BD46     		mov	sp, r7
 1252              		@ sp needed
 1253 0010 80BD     		pop	{r7, pc}
 1254              	.L77:
 1255 0012 C046     		.align	2
 1256              	.L76:
 1257 0014 0C012040 		.word	1075839244
 1258              		.cfi_endproc
 1259              	.LFE25:
 1260              		.size	TCPWM_1_ReadCompare, .-TCPWM_1_ReadCompare
 1261              		.section	.text.TCPWM_1_WriteCompareBuf,"ax",%progbits
 1262              		.align	2
 1263              		.global	TCPWM_1_WriteCompareBuf
 1264              		.code	16
 1265              		.thumb_func
 1266              		.type	TCPWM_1_WriteCompareBuf, %function
 1267              	TCPWM_1_WriteCompareBuf:
 1268              	.LFB26:
 929:Generated_Source\PSoC4/TCPWM_1.c **** 
 930:Generated_Source\PSoC4/TCPWM_1.c **** 
 931:Generated_Source\PSoC4/TCPWM_1.c **** /*******************************************************************************
 932:Generated_Source\PSoC4/TCPWM_1.c **** * Function Name: TCPWM_1_WriteCompareBuf
 933:Generated_Source\PSoC4/TCPWM_1.c **** ********************************************************************************
 934:Generated_Source\PSoC4/TCPWM_1.c **** *
 935:Generated_Source\PSoC4/TCPWM_1.c **** * Summary:
 936:Generated_Source\PSoC4/TCPWM_1.c **** *  Writes the 16 bit compare buffer register with the new compare value. Not
 937:Generated_Source\PSoC4/TCPWM_1.c **** *  applicable for Timer/Counter with Capture or in Quadrature Decoder modes.
 938:Generated_Source\PSoC4/TCPWM_1.c **** *
 939:Generated_Source\PSoC4/TCPWM_1.c **** * Parameters:
 940:Generated_Source\PSoC4/TCPWM_1.c **** *  compareBuf: Compare value
 941:Generated_Source\PSoC4/TCPWM_1.c **** *
 942:Generated_Source\PSoC4/TCPWM_1.c **** * Return:
 943:Generated_Source\PSoC4/TCPWM_1.c **** *  None
 944:Generated_Source\PSoC4/TCPWM_1.c **** *
 945:Generated_Source\PSoC4/TCPWM_1.c **** * Note:
 946:Generated_Source\PSoC4/TCPWM_1.c **** *  It is not recommended to use the value equal to "0" or equal to 
 947:Generated_Source\PSoC4/TCPWM_1.c **** *  "period value" in Center or Asymmetric align PWM modes on the 
 948:Generated_Source\PSoC4/TCPWM_1.c **** *  PSoC 4100/PSoC 4200 devices.
 949:Generated_Source\PSoC4/TCPWM_1.c **** *  PSoC 4000 devices write the 16 bit compare register with the decremented 
 950:Generated_Source\PSoC4/TCPWM_1.c **** *  compare value in the Up counting mode (except 0x0u), and the incremented 
 951:Generated_Source\PSoC4/TCPWM_1.c **** *  compare value in the Down counting mode (except 0xFFFFu).
 952:Generated_Source\PSoC4/TCPWM_1.c **** *
 953:Generated_Source\PSoC4/TCPWM_1.c **** *******************************************************************************/
 954:Generated_Source\PSoC4/TCPWM_1.c **** void TCPWM_1_WriteCompareBuf(uint32 compareBuf)
 955:Generated_Source\PSoC4/TCPWM_1.c **** {
ARM GAS  C:\Users\puria\AppData\Local\Temp\ccpsVPDq.s 			page 40


 1269              		.loc 1 955 0
 1270              		.cfi_startproc
 1271              		@ args = 0, pretend = 0, frame = 8
 1272              		@ frame_needed = 1, uses_anonymous_args = 0
 1273 0000 80B5     		push	{r7, lr}
 1274              		.cfi_def_cfa_offset 8
 1275              		.cfi_offset 7, -8
 1276              		.cfi_offset 14, -4
 1277 0002 82B0     		sub	sp, sp, #8
 1278              		.cfi_def_cfa_offset 16
 1279 0004 00AF     		add	r7, sp, #0
 1280              		.cfi_def_cfa_register 7
 1281 0006 7860     		str	r0, [r7, #4]
 956:Generated_Source\PSoC4/TCPWM_1.c ****     #if (TCPWM_1_CY_TCPWM_4000)
 957:Generated_Source\PSoC4/TCPWM_1.c ****         uint32 currentMode;
 958:Generated_Source\PSoC4/TCPWM_1.c ****     #endif /* (TCPWM_1_CY_TCPWM_4000) */
 959:Generated_Source\PSoC4/TCPWM_1.c **** 
 960:Generated_Source\PSoC4/TCPWM_1.c ****     #if (TCPWM_1_CY_TCPWM_4000)
 961:Generated_Source\PSoC4/TCPWM_1.c ****         currentMode = ((TCPWM_1_CONTROL_REG & TCPWM_1_UPDOWN_MASK) >> TCPWM_1_UPDOWN_SHIFT);
 962:Generated_Source\PSoC4/TCPWM_1.c **** 
 963:Generated_Source\PSoC4/TCPWM_1.c ****         if (((uint32)TCPWM_1__COUNT_DOWN == currentMode) && (0xFFFFu != compareBuf))
 964:Generated_Source\PSoC4/TCPWM_1.c ****         {
 965:Generated_Source\PSoC4/TCPWM_1.c ****             compareBuf++;
 966:Generated_Source\PSoC4/TCPWM_1.c ****         }
 967:Generated_Source\PSoC4/TCPWM_1.c ****         else if (((uint32)TCPWM_1__COUNT_UP == currentMode) && (0u != compareBuf))
 968:Generated_Source\PSoC4/TCPWM_1.c ****         {
 969:Generated_Source\PSoC4/TCPWM_1.c ****             compareBuf --;
 970:Generated_Source\PSoC4/TCPWM_1.c ****         }
 971:Generated_Source\PSoC4/TCPWM_1.c ****         else
 972:Generated_Source\PSoC4/TCPWM_1.c ****         {
 973:Generated_Source\PSoC4/TCPWM_1.c ****         }
 974:Generated_Source\PSoC4/TCPWM_1.c ****     #endif /* (TCPWM_1_CY_TCPWM_4000) */
 975:Generated_Source\PSoC4/TCPWM_1.c ****     
 976:Generated_Source\PSoC4/TCPWM_1.c ****     TCPWM_1_COMP_CAP_BUF_REG = (compareBuf & TCPWM_1_16BIT_MASK);
 1282              		.loc 1 976 0
 1283 0008 044B     		ldr	r3, .L79
 1284 000a 7A68     		ldr	r2, [r7, #4]
 1285 000c 1204     		lsls	r2, r2, #16
 1286 000e 120C     		lsrs	r2, r2, #16
 1287 0010 1A60     		str	r2, [r3]
 977:Generated_Source\PSoC4/TCPWM_1.c **** }
 1288              		.loc 1 977 0
 1289 0012 C046     		nop
 1290 0014 BD46     		mov	sp, r7
 1291 0016 02B0     		add	sp, sp, #8
 1292              		@ sp needed
 1293 0018 80BD     		pop	{r7, pc}
 1294              	.L80:
 1295 001a C046     		.align	2
 1296              	.L79:
 1297 001c 10012040 		.word	1075839248
 1298              		.cfi_endproc
 1299              	.LFE26:
 1300              		.size	TCPWM_1_WriteCompareBuf, .-TCPWM_1_WriteCompareBuf
 1301              		.section	.text.TCPWM_1_ReadCompareBuf,"ax",%progbits
 1302              		.align	2
 1303              		.global	TCPWM_1_ReadCompareBuf
ARM GAS  C:\Users\puria\AppData\Local\Temp\ccpsVPDq.s 			page 41


 1304              		.code	16
 1305              		.thumb_func
 1306              		.type	TCPWM_1_ReadCompareBuf, %function
 1307              	TCPWM_1_ReadCompareBuf:
 1308              	.LFB27:
 978:Generated_Source\PSoC4/TCPWM_1.c **** 
 979:Generated_Source\PSoC4/TCPWM_1.c **** 
 980:Generated_Source\PSoC4/TCPWM_1.c **** /*******************************************************************************
 981:Generated_Source\PSoC4/TCPWM_1.c **** * Function Name: TCPWM_1_ReadCompareBuf
 982:Generated_Source\PSoC4/TCPWM_1.c **** ********************************************************************************
 983:Generated_Source\PSoC4/TCPWM_1.c **** *
 984:Generated_Source\PSoC4/TCPWM_1.c **** * Summary:
 985:Generated_Source\PSoC4/TCPWM_1.c **** *  Reads the compare buffer register. Not applicable for Timer/Counter with
 986:Generated_Source\PSoC4/TCPWM_1.c **** *  Capture or in Quadrature Decoder modes.
 987:Generated_Source\PSoC4/TCPWM_1.c **** *
 988:Generated_Source\PSoC4/TCPWM_1.c **** * Parameters:
 989:Generated_Source\PSoC4/TCPWM_1.c **** *  None
 990:Generated_Source\PSoC4/TCPWM_1.c **** *
 991:Generated_Source\PSoC4/TCPWM_1.c **** * Return:
 992:Generated_Source\PSoC4/TCPWM_1.c **** *  Compare buffer value
 993:Generated_Source\PSoC4/TCPWM_1.c **** *
 994:Generated_Source\PSoC4/TCPWM_1.c **** * Note:
 995:Generated_Source\PSoC4/TCPWM_1.c **** *  PSoC 4000 devices read the incremented compare register value in the 
 996:Generated_Source\PSoC4/TCPWM_1.c **** *  Up counting mode (except 0xFFFFu), and the decremented value in the 
 997:Generated_Source\PSoC4/TCPWM_1.c **** *  Down counting mode (except 0x0u).
 998:Generated_Source\PSoC4/TCPWM_1.c **** *
 999:Generated_Source\PSoC4/TCPWM_1.c **** *******************************************************************************/
1000:Generated_Source\PSoC4/TCPWM_1.c **** uint32 TCPWM_1_ReadCompareBuf(void)
1001:Generated_Source\PSoC4/TCPWM_1.c **** {
 1309              		.loc 1 1001 0
 1310              		.cfi_startproc
 1311              		@ args = 0, pretend = 0, frame = 0
 1312              		@ frame_needed = 1, uses_anonymous_args = 0
 1313 0000 80B5     		push	{r7, lr}
 1314              		.cfi_def_cfa_offset 8
 1315              		.cfi_offset 7, -8
 1316              		.cfi_offset 14, -4
 1317 0002 00AF     		add	r7, sp, #0
 1318              		.cfi_def_cfa_register 7
1002:Generated_Source\PSoC4/TCPWM_1.c ****     #if (TCPWM_1_CY_TCPWM_4000)
1003:Generated_Source\PSoC4/TCPWM_1.c ****         uint32 currentMode;
1004:Generated_Source\PSoC4/TCPWM_1.c ****         uint32 regVal;
1005:Generated_Source\PSoC4/TCPWM_1.c ****     #endif /* (TCPWM_1_CY_TCPWM_4000) */
1006:Generated_Source\PSoC4/TCPWM_1.c **** 
1007:Generated_Source\PSoC4/TCPWM_1.c ****     #if (TCPWM_1_CY_TCPWM_4000)
1008:Generated_Source\PSoC4/TCPWM_1.c ****         currentMode = ((TCPWM_1_CONTROL_REG & TCPWM_1_UPDOWN_MASK) >> TCPWM_1_UPDOWN_SHIFT);
1009:Generated_Source\PSoC4/TCPWM_1.c **** 
1010:Generated_Source\PSoC4/TCPWM_1.c ****         regVal = TCPWM_1_COMP_CAP_BUF_REG;
1011:Generated_Source\PSoC4/TCPWM_1.c ****         
1012:Generated_Source\PSoC4/TCPWM_1.c ****         if (((uint32)TCPWM_1__COUNT_DOWN == currentMode) && (0u != regVal))
1013:Generated_Source\PSoC4/TCPWM_1.c ****         {
1014:Generated_Source\PSoC4/TCPWM_1.c ****             regVal--;
1015:Generated_Source\PSoC4/TCPWM_1.c ****         }
1016:Generated_Source\PSoC4/TCPWM_1.c ****         else if (((uint32)TCPWM_1__COUNT_UP == currentMode) && (0xFFFFu != regVal))
1017:Generated_Source\PSoC4/TCPWM_1.c ****         {
1018:Generated_Source\PSoC4/TCPWM_1.c ****             regVal++;
1019:Generated_Source\PSoC4/TCPWM_1.c ****         }
ARM GAS  C:\Users\puria\AppData\Local\Temp\ccpsVPDq.s 			page 42


1020:Generated_Source\PSoC4/TCPWM_1.c ****         else
1021:Generated_Source\PSoC4/TCPWM_1.c ****         {
1022:Generated_Source\PSoC4/TCPWM_1.c ****         }
1023:Generated_Source\PSoC4/TCPWM_1.c **** 
1024:Generated_Source\PSoC4/TCPWM_1.c ****         return (regVal & TCPWM_1_16BIT_MASK);
1025:Generated_Source\PSoC4/TCPWM_1.c ****     #else
1026:Generated_Source\PSoC4/TCPWM_1.c ****         return (TCPWM_1_COMP_CAP_BUF_REG & TCPWM_1_16BIT_MASK);
 1319              		.loc 1 1026 0
 1320 0004 034B     		ldr	r3, .L83
 1321 0006 1B68     		ldr	r3, [r3]
 1322 0008 1B04     		lsls	r3, r3, #16
 1323 000a 1B0C     		lsrs	r3, r3, #16
1027:Generated_Source\PSoC4/TCPWM_1.c ****     #endif /* (TCPWM_1_CY_TCPWM_4000) */
1028:Generated_Source\PSoC4/TCPWM_1.c **** }
 1324              		.loc 1 1028 0
 1325 000c 1800     		movs	r0, r3
 1326 000e BD46     		mov	sp, r7
 1327              		@ sp needed
 1328 0010 80BD     		pop	{r7, pc}
 1329              	.L84:
 1330 0012 C046     		.align	2
 1331              	.L83:
 1332 0014 10012040 		.word	1075839248
 1333              		.cfi_endproc
 1334              	.LFE27:
 1335              		.size	TCPWM_1_ReadCompareBuf, .-TCPWM_1_ReadCompareBuf
 1336              		.section	.text.TCPWM_1_ReadCapture,"ax",%progbits
 1337              		.align	2
 1338              		.global	TCPWM_1_ReadCapture
 1339              		.code	16
 1340              		.thumb_func
 1341              		.type	TCPWM_1_ReadCapture, %function
 1342              	TCPWM_1_ReadCapture:
 1343              	.LFB28:
1029:Generated_Source\PSoC4/TCPWM_1.c **** 
1030:Generated_Source\PSoC4/TCPWM_1.c **** 
1031:Generated_Source\PSoC4/TCPWM_1.c **** /*******************************************************************************
1032:Generated_Source\PSoC4/TCPWM_1.c **** * Function Name: TCPWM_1_ReadCapture
1033:Generated_Source\PSoC4/TCPWM_1.c **** ********************************************************************************
1034:Generated_Source\PSoC4/TCPWM_1.c **** *
1035:Generated_Source\PSoC4/TCPWM_1.c **** * Summary:
1036:Generated_Source\PSoC4/TCPWM_1.c **** *  Reads the captured counter value. This API is applicable only for
1037:Generated_Source\PSoC4/TCPWM_1.c **** *  Timer/Counter with the capture mode and Quadrature Decoder modes.
1038:Generated_Source\PSoC4/TCPWM_1.c **** *
1039:Generated_Source\PSoC4/TCPWM_1.c **** * Parameters:
1040:Generated_Source\PSoC4/TCPWM_1.c **** *  None
1041:Generated_Source\PSoC4/TCPWM_1.c **** *
1042:Generated_Source\PSoC4/TCPWM_1.c **** * Return:
1043:Generated_Source\PSoC4/TCPWM_1.c **** *  Capture value
1044:Generated_Source\PSoC4/TCPWM_1.c **** *
1045:Generated_Source\PSoC4/TCPWM_1.c **** *******************************************************************************/
1046:Generated_Source\PSoC4/TCPWM_1.c **** uint32 TCPWM_1_ReadCapture(void)
1047:Generated_Source\PSoC4/TCPWM_1.c **** {
 1344              		.loc 1 1047 0
 1345              		.cfi_startproc
 1346              		@ args = 0, pretend = 0, frame = 0
 1347              		@ frame_needed = 1, uses_anonymous_args = 0
ARM GAS  C:\Users\puria\AppData\Local\Temp\ccpsVPDq.s 			page 43


 1348 0000 80B5     		push	{r7, lr}
 1349              		.cfi_def_cfa_offset 8
 1350              		.cfi_offset 7, -8
 1351              		.cfi_offset 14, -4
 1352 0002 00AF     		add	r7, sp, #0
 1353              		.cfi_def_cfa_register 7
1048:Generated_Source\PSoC4/TCPWM_1.c ****     return (TCPWM_1_COMP_CAP_REG & TCPWM_1_16BIT_MASK);
 1354              		.loc 1 1048 0
 1355 0004 034B     		ldr	r3, .L87
 1356 0006 1B68     		ldr	r3, [r3]
 1357 0008 1B04     		lsls	r3, r3, #16
 1358 000a 1B0C     		lsrs	r3, r3, #16
1049:Generated_Source\PSoC4/TCPWM_1.c **** }
 1359              		.loc 1 1049 0
 1360 000c 1800     		movs	r0, r3
 1361 000e BD46     		mov	sp, r7
 1362              		@ sp needed
 1363 0010 80BD     		pop	{r7, pc}
 1364              	.L88:
 1365 0012 C046     		.align	2
 1366              	.L87:
 1367 0014 0C012040 		.word	1075839244
 1368              		.cfi_endproc
 1369              	.LFE28:
 1370              		.size	TCPWM_1_ReadCapture, .-TCPWM_1_ReadCapture
 1371              		.section	.text.TCPWM_1_ReadCaptureBuf,"ax",%progbits
 1372              		.align	2
 1373              		.global	TCPWM_1_ReadCaptureBuf
 1374              		.code	16
 1375              		.thumb_func
 1376              		.type	TCPWM_1_ReadCaptureBuf, %function
 1377              	TCPWM_1_ReadCaptureBuf:
 1378              	.LFB29:
1050:Generated_Source\PSoC4/TCPWM_1.c **** 
1051:Generated_Source\PSoC4/TCPWM_1.c **** 
1052:Generated_Source\PSoC4/TCPWM_1.c **** /*******************************************************************************
1053:Generated_Source\PSoC4/TCPWM_1.c **** * Function Name: TCPWM_1_ReadCaptureBuf
1054:Generated_Source\PSoC4/TCPWM_1.c **** ********************************************************************************
1055:Generated_Source\PSoC4/TCPWM_1.c **** *
1056:Generated_Source\PSoC4/TCPWM_1.c **** * Summary:
1057:Generated_Source\PSoC4/TCPWM_1.c **** *  Reads the capture buffer register. This API is applicable only for
1058:Generated_Source\PSoC4/TCPWM_1.c **** *  Timer/Counter with the capture mode and Quadrature Decoder modes.
1059:Generated_Source\PSoC4/TCPWM_1.c **** *
1060:Generated_Source\PSoC4/TCPWM_1.c **** * Parameters:
1061:Generated_Source\PSoC4/TCPWM_1.c **** *  None
1062:Generated_Source\PSoC4/TCPWM_1.c **** *
1063:Generated_Source\PSoC4/TCPWM_1.c **** * Return:
1064:Generated_Source\PSoC4/TCPWM_1.c **** *  Capture buffer value
1065:Generated_Source\PSoC4/TCPWM_1.c **** *
1066:Generated_Source\PSoC4/TCPWM_1.c **** *******************************************************************************/
1067:Generated_Source\PSoC4/TCPWM_1.c **** uint32 TCPWM_1_ReadCaptureBuf(void)
1068:Generated_Source\PSoC4/TCPWM_1.c **** {
 1379              		.loc 1 1068 0
 1380              		.cfi_startproc
 1381              		@ args = 0, pretend = 0, frame = 0
 1382              		@ frame_needed = 1, uses_anonymous_args = 0
 1383 0000 80B5     		push	{r7, lr}
ARM GAS  C:\Users\puria\AppData\Local\Temp\ccpsVPDq.s 			page 44


 1384              		.cfi_def_cfa_offset 8
 1385              		.cfi_offset 7, -8
 1386              		.cfi_offset 14, -4
 1387 0002 00AF     		add	r7, sp, #0
 1388              		.cfi_def_cfa_register 7
1069:Generated_Source\PSoC4/TCPWM_1.c ****     return (TCPWM_1_COMP_CAP_BUF_REG & TCPWM_1_16BIT_MASK);
 1389              		.loc 1 1069 0
 1390 0004 034B     		ldr	r3, .L91
 1391 0006 1B68     		ldr	r3, [r3]
 1392 0008 1B04     		lsls	r3, r3, #16
 1393 000a 1B0C     		lsrs	r3, r3, #16
1070:Generated_Source\PSoC4/TCPWM_1.c **** }
 1394              		.loc 1 1070 0
 1395 000c 1800     		movs	r0, r3
 1396 000e BD46     		mov	sp, r7
 1397              		@ sp needed
 1398 0010 80BD     		pop	{r7, pc}
 1399              	.L92:
 1400 0012 C046     		.align	2
 1401              	.L91:
 1402 0014 10012040 		.word	1075839248
 1403              		.cfi_endproc
 1404              	.LFE29:
 1405              		.size	TCPWM_1_ReadCaptureBuf, .-TCPWM_1_ReadCaptureBuf
 1406              		.section	.text.TCPWM_1_SetCaptureMode,"ax",%progbits
 1407              		.align	2
 1408              		.global	TCPWM_1_SetCaptureMode
 1409              		.code	16
 1410              		.thumb_func
 1411              		.type	TCPWM_1_SetCaptureMode, %function
 1412              	TCPWM_1_SetCaptureMode:
 1413              	.LFB30:
1071:Generated_Source\PSoC4/TCPWM_1.c **** 
1072:Generated_Source\PSoC4/TCPWM_1.c **** 
1073:Generated_Source\PSoC4/TCPWM_1.c **** /*******************************************************************************
1074:Generated_Source\PSoC4/TCPWM_1.c **** * Function Name: TCPWM_1_SetCaptureMode
1075:Generated_Source\PSoC4/TCPWM_1.c **** ********************************************************************************
1076:Generated_Source\PSoC4/TCPWM_1.c **** *
1077:Generated_Source\PSoC4/TCPWM_1.c **** * Summary:
1078:Generated_Source\PSoC4/TCPWM_1.c **** *  Sets the capture trigger mode. For PWM mode this is the switch input.
1079:Generated_Source\PSoC4/TCPWM_1.c **** *  This input is not applicable to the Timer/Counter without Capture and
1080:Generated_Source\PSoC4/TCPWM_1.c **** *  Quadrature Decoder modes.
1081:Generated_Source\PSoC4/TCPWM_1.c **** *
1082:Generated_Source\PSoC4/TCPWM_1.c **** * Parameters:
1083:Generated_Source\PSoC4/TCPWM_1.c **** *  triggerMode: Enumerated trigger mode value
1084:Generated_Source\PSoC4/TCPWM_1.c **** *   Values:
1085:Generated_Source\PSoC4/TCPWM_1.c **** *     - TCPWM_1_TRIG_LEVEL     - Level
1086:Generated_Source\PSoC4/TCPWM_1.c **** *     - TCPWM_1_TRIG_RISING    - Rising edge
1087:Generated_Source\PSoC4/TCPWM_1.c **** *     - TCPWM_1_TRIG_FALLING   - Falling edge
1088:Generated_Source\PSoC4/TCPWM_1.c **** *     - TCPWM_1_TRIG_BOTH      - Both rising and falling edge
1089:Generated_Source\PSoC4/TCPWM_1.c **** *
1090:Generated_Source\PSoC4/TCPWM_1.c **** * Return:
1091:Generated_Source\PSoC4/TCPWM_1.c **** *  None
1092:Generated_Source\PSoC4/TCPWM_1.c **** *
1093:Generated_Source\PSoC4/TCPWM_1.c **** *******************************************************************************/
1094:Generated_Source\PSoC4/TCPWM_1.c **** void TCPWM_1_SetCaptureMode(uint32 triggerMode)
1095:Generated_Source\PSoC4/TCPWM_1.c **** {
ARM GAS  C:\Users\puria\AppData\Local\Temp\ccpsVPDq.s 			page 45


 1414              		.loc 1 1095 0
 1415              		.cfi_startproc
 1416              		@ args = 0, pretend = 0, frame = 16
 1417              		@ frame_needed = 1, uses_anonymous_args = 0
 1418 0000 90B5     		push	{r4, r7, lr}
 1419              		.cfi_def_cfa_offset 12
 1420              		.cfi_offset 4, -12
 1421              		.cfi_offset 7, -8
 1422              		.cfi_offset 14, -4
 1423 0002 85B0     		sub	sp, sp, #20
 1424              		.cfi_def_cfa_offset 32
 1425 0004 00AF     		add	r7, sp, #0
 1426              		.cfi_def_cfa_register 7
 1427 0006 7860     		str	r0, [r7, #4]
1096:Generated_Source\PSoC4/TCPWM_1.c ****     uint8 enableInterrupts;
1097:Generated_Source\PSoC4/TCPWM_1.c **** 
1098:Generated_Source\PSoC4/TCPWM_1.c ****     enableInterrupts = CyEnterCriticalSection();
 1428              		.loc 1 1098 0
 1429 0008 0F23     		movs	r3, #15
 1430 000a FC18     		adds	r4, r7, r3
 1431 000c FFF7FEFF 		bl	CyEnterCriticalSection
 1432 0010 0300     		movs	r3, r0
 1433 0012 2370     		strb	r3, [r4]
1099:Generated_Source\PSoC4/TCPWM_1.c **** 
1100:Generated_Source\PSoC4/TCPWM_1.c ****     TCPWM_1_TRIG_CONTROL1_REG &= (uint32)~TCPWM_1_CAPTURE_MASK;
 1434              		.loc 1 1100 0
 1435 0014 0A4B     		ldr	r3, .L94
 1436 0016 0A4A     		ldr	r2, .L94
 1437 0018 1268     		ldr	r2, [r2]
 1438 001a 0321     		movs	r1, #3
 1439 001c 8A43     		bics	r2, r1
 1440 001e 1A60     		str	r2, [r3]
1101:Generated_Source\PSoC4/TCPWM_1.c ****     TCPWM_1_TRIG_CONTROL1_REG |= triggerMode;
 1441              		.loc 1 1101 0
 1442 0020 074B     		ldr	r3, .L94
 1443 0022 074A     		ldr	r2, .L94
 1444 0024 1168     		ldr	r1, [r2]
 1445 0026 7A68     		ldr	r2, [r7, #4]
 1446 0028 0A43     		orrs	r2, r1
 1447 002a 1A60     		str	r2, [r3]
1102:Generated_Source\PSoC4/TCPWM_1.c **** 
1103:Generated_Source\PSoC4/TCPWM_1.c ****     CyExitCriticalSection(enableInterrupts);
 1448              		.loc 1 1103 0
 1449 002c 0F23     		movs	r3, #15
 1450 002e FB18     		adds	r3, r7, r3
 1451 0030 1B78     		ldrb	r3, [r3]
 1452 0032 1800     		movs	r0, r3
 1453 0034 FFF7FEFF 		bl	CyExitCriticalSection
1104:Generated_Source\PSoC4/TCPWM_1.c **** }
 1454              		.loc 1 1104 0
 1455 0038 C046     		nop
 1456 003a BD46     		mov	sp, r7
 1457 003c 05B0     		add	sp, sp, #20
 1458              		@ sp needed
 1459 003e 90BD     		pop	{r4, r7, pc}
 1460              	.L95:
 1461              		.align	2
ARM GAS  C:\Users\puria\AppData\Local\Temp\ccpsVPDq.s 			page 46


 1462              	.L94:
 1463 0040 24012040 		.word	1075839268
 1464              		.cfi_endproc
 1465              	.LFE30:
 1466              		.size	TCPWM_1_SetCaptureMode, .-TCPWM_1_SetCaptureMode
 1467              		.section	.text.TCPWM_1_SetReloadMode,"ax",%progbits
 1468              		.align	2
 1469              		.global	TCPWM_1_SetReloadMode
 1470              		.code	16
 1471              		.thumb_func
 1472              		.type	TCPWM_1_SetReloadMode, %function
 1473              	TCPWM_1_SetReloadMode:
 1474              	.LFB31:
1105:Generated_Source\PSoC4/TCPWM_1.c **** 
1106:Generated_Source\PSoC4/TCPWM_1.c **** 
1107:Generated_Source\PSoC4/TCPWM_1.c **** /*******************************************************************************
1108:Generated_Source\PSoC4/TCPWM_1.c **** * Function Name: TCPWM_1_SetReloadMode
1109:Generated_Source\PSoC4/TCPWM_1.c **** ********************************************************************************
1110:Generated_Source\PSoC4/TCPWM_1.c **** *
1111:Generated_Source\PSoC4/TCPWM_1.c **** * Summary:
1112:Generated_Source\PSoC4/TCPWM_1.c **** *  Sets the reload trigger mode. For Quadrature Decoder mode this is the index
1113:Generated_Source\PSoC4/TCPWM_1.c **** *  input.
1114:Generated_Source\PSoC4/TCPWM_1.c **** *
1115:Generated_Source\PSoC4/TCPWM_1.c **** * Parameters:
1116:Generated_Source\PSoC4/TCPWM_1.c **** *  triggerMode: Enumerated trigger mode value
1117:Generated_Source\PSoC4/TCPWM_1.c **** *   Values:
1118:Generated_Source\PSoC4/TCPWM_1.c **** *     - TCPWM_1_TRIG_LEVEL     - Level
1119:Generated_Source\PSoC4/TCPWM_1.c **** *     - TCPWM_1_TRIG_RISING    - Rising edge
1120:Generated_Source\PSoC4/TCPWM_1.c **** *     - TCPWM_1_TRIG_FALLING   - Falling edge
1121:Generated_Source\PSoC4/TCPWM_1.c **** *     - TCPWM_1_TRIG_BOTH      - Both rising and falling edge
1122:Generated_Source\PSoC4/TCPWM_1.c **** *
1123:Generated_Source\PSoC4/TCPWM_1.c **** * Return:
1124:Generated_Source\PSoC4/TCPWM_1.c **** *  None
1125:Generated_Source\PSoC4/TCPWM_1.c **** *
1126:Generated_Source\PSoC4/TCPWM_1.c **** *******************************************************************************/
1127:Generated_Source\PSoC4/TCPWM_1.c **** void TCPWM_1_SetReloadMode(uint32 triggerMode)
1128:Generated_Source\PSoC4/TCPWM_1.c **** {
 1475              		.loc 1 1128 0
 1476              		.cfi_startproc
 1477              		@ args = 0, pretend = 0, frame = 16
 1478              		@ frame_needed = 1, uses_anonymous_args = 0
 1479 0000 90B5     		push	{r4, r7, lr}
 1480              		.cfi_def_cfa_offset 12
 1481              		.cfi_offset 4, -12
 1482              		.cfi_offset 7, -8
 1483              		.cfi_offset 14, -4
 1484 0002 85B0     		sub	sp, sp, #20
 1485              		.cfi_def_cfa_offset 32
 1486 0004 00AF     		add	r7, sp, #0
 1487              		.cfi_def_cfa_register 7
 1488 0006 7860     		str	r0, [r7, #4]
1129:Generated_Source\PSoC4/TCPWM_1.c ****     uint8 enableInterrupts;
1130:Generated_Source\PSoC4/TCPWM_1.c **** 
1131:Generated_Source\PSoC4/TCPWM_1.c ****     enableInterrupts = CyEnterCriticalSection();
 1489              		.loc 1 1131 0
 1490 0008 0F23     		movs	r3, #15
 1491 000a FC18     		adds	r4, r7, r3
ARM GAS  C:\Users\puria\AppData\Local\Temp\ccpsVPDq.s 			page 47


 1492 000c FFF7FEFF 		bl	CyEnterCriticalSection
 1493 0010 0300     		movs	r3, r0
 1494 0012 2370     		strb	r3, [r4]
1132:Generated_Source\PSoC4/TCPWM_1.c **** 
1133:Generated_Source\PSoC4/TCPWM_1.c ****     TCPWM_1_TRIG_CONTROL1_REG &= (uint32)~TCPWM_1_RELOAD_MASK;
 1495              		.loc 1 1133 0
 1496 0014 0B4B     		ldr	r3, .L97
 1497 0016 0B4A     		ldr	r2, .L97
 1498 0018 1268     		ldr	r2, [r2]
 1499 001a 3021     		movs	r1, #48
 1500 001c 8A43     		bics	r2, r1
 1501 001e 1A60     		str	r2, [r3]
1134:Generated_Source\PSoC4/TCPWM_1.c ****     TCPWM_1_TRIG_CONTROL1_REG |= ((uint32)(triggerMode << TCPWM_1_RELOAD_SHIFT));
 1502              		.loc 1 1134 0
 1503 0020 084B     		ldr	r3, .L97
 1504 0022 084A     		ldr	r2, .L97
 1505 0024 1168     		ldr	r1, [r2]
 1506 0026 7A68     		ldr	r2, [r7, #4]
 1507 0028 1201     		lsls	r2, r2, #4
 1508 002a 0A43     		orrs	r2, r1
 1509 002c 1A60     		str	r2, [r3]
1135:Generated_Source\PSoC4/TCPWM_1.c **** 
1136:Generated_Source\PSoC4/TCPWM_1.c ****     CyExitCriticalSection(enableInterrupts);
 1510              		.loc 1 1136 0
 1511 002e 0F23     		movs	r3, #15
 1512 0030 FB18     		adds	r3, r7, r3
 1513 0032 1B78     		ldrb	r3, [r3]
 1514 0034 1800     		movs	r0, r3
 1515 0036 FFF7FEFF 		bl	CyExitCriticalSection
1137:Generated_Source\PSoC4/TCPWM_1.c **** }
 1516              		.loc 1 1137 0
 1517 003a C046     		nop
 1518 003c BD46     		mov	sp, r7
 1519 003e 05B0     		add	sp, sp, #20
 1520              		@ sp needed
 1521 0040 90BD     		pop	{r4, r7, pc}
 1522              	.L98:
 1523 0042 C046     		.align	2
 1524              	.L97:
 1525 0044 24012040 		.word	1075839268
 1526              		.cfi_endproc
 1527              	.LFE31:
 1528              		.size	TCPWM_1_SetReloadMode, .-TCPWM_1_SetReloadMode
 1529              		.section	.text.TCPWM_1_SetStartMode,"ax",%progbits
 1530              		.align	2
 1531              		.global	TCPWM_1_SetStartMode
 1532              		.code	16
 1533              		.thumb_func
 1534              		.type	TCPWM_1_SetStartMode, %function
 1535              	TCPWM_1_SetStartMode:
 1536              	.LFB32:
1138:Generated_Source\PSoC4/TCPWM_1.c **** 
1139:Generated_Source\PSoC4/TCPWM_1.c **** 
1140:Generated_Source\PSoC4/TCPWM_1.c **** /*******************************************************************************
1141:Generated_Source\PSoC4/TCPWM_1.c **** * Function Name: TCPWM_1_SetStartMode
1142:Generated_Source\PSoC4/TCPWM_1.c **** ********************************************************************************
1143:Generated_Source\PSoC4/TCPWM_1.c **** *
ARM GAS  C:\Users\puria\AppData\Local\Temp\ccpsVPDq.s 			page 48


1144:Generated_Source\PSoC4/TCPWM_1.c **** * Summary:
1145:Generated_Source\PSoC4/TCPWM_1.c **** *  Sets the start trigger mode. For Quadrature Decoder mode this is the
1146:Generated_Source\PSoC4/TCPWM_1.c **** *  phiB input.
1147:Generated_Source\PSoC4/TCPWM_1.c **** *
1148:Generated_Source\PSoC4/TCPWM_1.c **** * Parameters:
1149:Generated_Source\PSoC4/TCPWM_1.c **** *  triggerMode: Enumerated trigger mode value
1150:Generated_Source\PSoC4/TCPWM_1.c **** *   Values:
1151:Generated_Source\PSoC4/TCPWM_1.c **** *     - TCPWM_1_TRIG_LEVEL     - Level
1152:Generated_Source\PSoC4/TCPWM_1.c **** *     - TCPWM_1_TRIG_RISING    - Rising edge
1153:Generated_Source\PSoC4/TCPWM_1.c **** *     - TCPWM_1_TRIG_FALLING   - Falling edge
1154:Generated_Source\PSoC4/TCPWM_1.c **** *     - TCPWM_1_TRIG_BOTH      - Both rising and falling edge
1155:Generated_Source\PSoC4/TCPWM_1.c **** *
1156:Generated_Source\PSoC4/TCPWM_1.c **** * Return:
1157:Generated_Source\PSoC4/TCPWM_1.c **** *  None
1158:Generated_Source\PSoC4/TCPWM_1.c **** *
1159:Generated_Source\PSoC4/TCPWM_1.c **** *******************************************************************************/
1160:Generated_Source\PSoC4/TCPWM_1.c **** void TCPWM_1_SetStartMode(uint32 triggerMode)
1161:Generated_Source\PSoC4/TCPWM_1.c **** {
 1537              		.loc 1 1161 0
 1538              		.cfi_startproc
 1539              		@ args = 0, pretend = 0, frame = 16
 1540              		@ frame_needed = 1, uses_anonymous_args = 0
 1541 0000 90B5     		push	{r4, r7, lr}
 1542              		.cfi_def_cfa_offset 12
 1543              		.cfi_offset 4, -12
 1544              		.cfi_offset 7, -8
 1545              		.cfi_offset 14, -4
 1546 0002 85B0     		sub	sp, sp, #20
 1547              		.cfi_def_cfa_offset 32
 1548 0004 00AF     		add	r7, sp, #0
 1549              		.cfi_def_cfa_register 7
 1550 0006 7860     		str	r0, [r7, #4]
1162:Generated_Source\PSoC4/TCPWM_1.c ****     uint8 enableInterrupts;
1163:Generated_Source\PSoC4/TCPWM_1.c **** 
1164:Generated_Source\PSoC4/TCPWM_1.c ****     enableInterrupts = CyEnterCriticalSection();
 1551              		.loc 1 1164 0
 1552 0008 0F23     		movs	r3, #15
 1553 000a FC18     		adds	r4, r7, r3
 1554 000c FFF7FEFF 		bl	CyEnterCriticalSection
 1555 0010 0300     		movs	r3, r0
 1556 0012 2370     		strb	r3, [r4]
1165:Generated_Source\PSoC4/TCPWM_1.c **** 
1166:Generated_Source\PSoC4/TCPWM_1.c ****     TCPWM_1_TRIG_CONTROL1_REG &= (uint32)~TCPWM_1_START_MASK;
 1557              		.loc 1 1166 0
 1558 0014 0B4B     		ldr	r3, .L100
 1559 0016 0B4A     		ldr	r2, .L100
 1560 0018 1268     		ldr	r2, [r2]
 1561 001a 0B49     		ldr	r1, .L100+4
 1562 001c 0A40     		ands	r2, r1
 1563 001e 1A60     		str	r2, [r3]
1167:Generated_Source\PSoC4/TCPWM_1.c ****     TCPWM_1_TRIG_CONTROL1_REG |= ((uint32)(triggerMode << TCPWM_1_START_SHIFT));
 1564              		.loc 1 1167 0
 1565 0020 084B     		ldr	r3, .L100
 1566 0022 084A     		ldr	r2, .L100
 1567 0024 1168     		ldr	r1, [r2]
 1568 0026 7A68     		ldr	r2, [r7, #4]
 1569 0028 1202     		lsls	r2, r2, #8
ARM GAS  C:\Users\puria\AppData\Local\Temp\ccpsVPDq.s 			page 49


 1570 002a 0A43     		orrs	r2, r1
 1571 002c 1A60     		str	r2, [r3]
1168:Generated_Source\PSoC4/TCPWM_1.c **** 
1169:Generated_Source\PSoC4/TCPWM_1.c ****     CyExitCriticalSection(enableInterrupts);
 1572              		.loc 1 1169 0
 1573 002e 0F23     		movs	r3, #15
 1574 0030 FB18     		adds	r3, r7, r3
 1575 0032 1B78     		ldrb	r3, [r3]
 1576 0034 1800     		movs	r0, r3
 1577 0036 FFF7FEFF 		bl	CyExitCriticalSection
1170:Generated_Source\PSoC4/TCPWM_1.c **** }
 1578              		.loc 1 1170 0
 1579 003a C046     		nop
 1580 003c BD46     		mov	sp, r7
 1581 003e 05B0     		add	sp, sp, #20
 1582              		@ sp needed
 1583 0040 90BD     		pop	{r4, r7, pc}
 1584              	.L101:
 1585 0042 C046     		.align	2
 1586              	.L100:
 1587 0044 24012040 		.word	1075839268
 1588 0048 FFFCFFFF 		.word	-769
 1589              		.cfi_endproc
 1590              	.LFE32:
 1591              		.size	TCPWM_1_SetStartMode, .-TCPWM_1_SetStartMode
 1592              		.section	.text.TCPWM_1_SetStopMode,"ax",%progbits
 1593              		.align	2
 1594              		.global	TCPWM_1_SetStopMode
 1595              		.code	16
 1596              		.thumb_func
 1597              		.type	TCPWM_1_SetStopMode, %function
 1598              	TCPWM_1_SetStopMode:
 1599              	.LFB33:
1171:Generated_Source\PSoC4/TCPWM_1.c **** 
1172:Generated_Source\PSoC4/TCPWM_1.c **** 
1173:Generated_Source\PSoC4/TCPWM_1.c **** /*******************************************************************************
1174:Generated_Source\PSoC4/TCPWM_1.c **** * Function Name: TCPWM_1_SetStopMode
1175:Generated_Source\PSoC4/TCPWM_1.c **** ********************************************************************************
1176:Generated_Source\PSoC4/TCPWM_1.c **** *
1177:Generated_Source\PSoC4/TCPWM_1.c **** * Summary:
1178:Generated_Source\PSoC4/TCPWM_1.c **** *  Sets the stop trigger mode. For PWM mode this is the kill input.
1179:Generated_Source\PSoC4/TCPWM_1.c **** *
1180:Generated_Source\PSoC4/TCPWM_1.c **** * Parameters:
1181:Generated_Source\PSoC4/TCPWM_1.c **** *  triggerMode: Enumerated trigger mode value
1182:Generated_Source\PSoC4/TCPWM_1.c **** *   Values:
1183:Generated_Source\PSoC4/TCPWM_1.c **** *     - TCPWM_1_TRIG_LEVEL     - Level
1184:Generated_Source\PSoC4/TCPWM_1.c **** *     - TCPWM_1_TRIG_RISING    - Rising edge
1185:Generated_Source\PSoC4/TCPWM_1.c **** *     - TCPWM_1_TRIG_FALLING   - Falling edge
1186:Generated_Source\PSoC4/TCPWM_1.c **** *     - TCPWM_1_TRIG_BOTH      - Both rising and falling edge
1187:Generated_Source\PSoC4/TCPWM_1.c **** *
1188:Generated_Source\PSoC4/TCPWM_1.c **** * Return:
1189:Generated_Source\PSoC4/TCPWM_1.c **** *  None
1190:Generated_Source\PSoC4/TCPWM_1.c **** *
1191:Generated_Source\PSoC4/TCPWM_1.c **** *******************************************************************************/
1192:Generated_Source\PSoC4/TCPWM_1.c **** void TCPWM_1_SetStopMode(uint32 triggerMode)
1193:Generated_Source\PSoC4/TCPWM_1.c **** {
 1600              		.loc 1 1193 0
ARM GAS  C:\Users\puria\AppData\Local\Temp\ccpsVPDq.s 			page 50


 1601              		.cfi_startproc
 1602              		@ args = 0, pretend = 0, frame = 16
 1603              		@ frame_needed = 1, uses_anonymous_args = 0
 1604 0000 90B5     		push	{r4, r7, lr}
 1605              		.cfi_def_cfa_offset 12
 1606              		.cfi_offset 4, -12
 1607              		.cfi_offset 7, -8
 1608              		.cfi_offset 14, -4
 1609 0002 85B0     		sub	sp, sp, #20
 1610              		.cfi_def_cfa_offset 32
 1611 0004 00AF     		add	r7, sp, #0
 1612              		.cfi_def_cfa_register 7
 1613 0006 7860     		str	r0, [r7, #4]
1194:Generated_Source\PSoC4/TCPWM_1.c ****     uint8 enableInterrupts;
1195:Generated_Source\PSoC4/TCPWM_1.c **** 
1196:Generated_Source\PSoC4/TCPWM_1.c ****     enableInterrupts = CyEnterCriticalSection();
 1614              		.loc 1 1196 0
 1615 0008 0F23     		movs	r3, #15
 1616 000a FC18     		adds	r4, r7, r3
 1617 000c FFF7FEFF 		bl	CyEnterCriticalSection
 1618 0010 0300     		movs	r3, r0
 1619 0012 2370     		strb	r3, [r4]
1197:Generated_Source\PSoC4/TCPWM_1.c **** 
1198:Generated_Source\PSoC4/TCPWM_1.c ****     TCPWM_1_TRIG_CONTROL1_REG &= (uint32)~TCPWM_1_STOP_MASK;
 1620              		.loc 1 1198 0
 1621 0014 0B4B     		ldr	r3, .L103
 1622 0016 0B4A     		ldr	r2, .L103
 1623 0018 1268     		ldr	r2, [r2]
 1624 001a C021     		movs	r1, #192
 1625 001c 8A43     		bics	r2, r1
 1626 001e 1A60     		str	r2, [r3]
1199:Generated_Source\PSoC4/TCPWM_1.c ****     TCPWM_1_TRIG_CONTROL1_REG |= ((uint32)(triggerMode << TCPWM_1_STOP_SHIFT));
 1627              		.loc 1 1199 0
 1628 0020 084B     		ldr	r3, .L103
 1629 0022 084A     		ldr	r2, .L103
 1630 0024 1168     		ldr	r1, [r2]
 1631 0026 7A68     		ldr	r2, [r7, #4]
 1632 0028 9201     		lsls	r2, r2, #6
 1633 002a 0A43     		orrs	r2, r1
 1634 002c 1A60     		str	r2, [r3]
1200:Generated_Source\PSoC4/TCPWM_1.c **** 
1201:Generated_Source\PSoC4/TCPWM_1.c ****     CyExitCriticalSection(enableInterrupts);
 1635              		.loc 1 1201 0
 1636 002e 0F23     		movs	r3, #15
 1637 0030 FB18     		adds	r3, r7, r3
 1638 0032 1B78     		ldrb	r3, [r3]
 1639 0034 1800     		movs	r0, r3
 1640 0036 FFF7FEFF 		bl	CyExitCriticalSection
1202:Generated_Source\PSoC4/TCPWM_1.c **** }
 1641              		.loc 1 1202 0
 1642 003a C046     		nop
 1643 003c BD46     		mov	sp, r7
 1644 003e 05B0     		add	sp, sp, #20
 1645              		@ sp needed
 1646 0040 90BD     		pop	{r4, r7, pc}
 1647              	.L104:
 1648 0042 C046     		.align	2
ARM GAS  C:\Users\puria\AppData\Local\Temp\ccpsVPDq.s 			page 51


 1649              	.L103:
 1650 0044 24012040 		.word	1075839268
 1651              		.cfi_endproc
 1652              	.LFE33:
 1653              		.size	TCPWM_1_SetStopMode, .-TCPWM_1_SetStopMode
 1654              		.section	.text.TCPWM_1_SetCountMode,"ax",%progbits
 1655              		.align	2
 1656              		.global	TCPWM_1_SetCountMode
 1657              		.code	16
 1658              		.thumb_func
 1659              		.type	TCPWM_1_SetCountMode, %function
 1660              	TCPWM_1_SetCountMode:
 1661              	.LFB34:
1203:Generated_Source\PSoC4/TCPWM_1.c **** 
1204:Generated_Source\PSoC4/TCPWM_1.c **** 
1205:Generated_Source\PSoC4/TCPWM_1.c **** /*******************************************************************************
1206:Generated_Source\PSoC4/TCPWM_1.c **** * Function Name: TCPWM_1_SetCountMode
1207:Generated_Source\PSoC4/TCPWM_1.c **** ********************************************************************************
1208:Generated_Source\PSoC4/TCPWM_1.c **** *
1209:Generated_Source\PSoC4/TCPWM_1.c **** * Summary:
1210:Generated_Source\PSoC4/TCPWM_1.c **** *  Sets the count trigger mode. For Quadrature Decoder mode this is the phiA
1211:Generated_Source\PSoC4/TCPWM_1.c **** *  input.
1212:Generated_Source\PSoC4/TCPWM_1.c **** *
1213:Generated_Source\PSoC4/TCPWM_1.c **** * Parameters:
1214:Generated_Source\PSoC4/TCPWM_1.c **** *  triggerMode: Enumerated trigger mode value
1215:Generated_Source\PSoC4/TCPWM_1.c **** *   Values:
1216:Generated_Source\PSoC4/TCPWM_1.c **** *     - TCPWM_1_TRIG_LEVEL     - Level
1217:Generated_Source\PSoC4/TCPWM_1.c **** *     - TCPWM_1_TRIG_RISING    - Rising edge
1218:Generated_Source\PSoC4/TCPWM_1.c **** *     - TCPWM_1_TRIG_FALLING   - Falling edge
1219:Generated_Source\PSoC4/TCPWM_1.c **** *     - TCPWM_1_TRIG_BOTH      - Both rising and falling edge
1220:Generated_Source\PSoC4/TCPWM_1.c **** *
1221:Generated_Source\PSoC4/TCPWM_1.c **** * Return:
1222:Generated_Source\PSoC4/TCPWM_1.c **** *  None
1223:Generated_Source\PSoC4/TCPWM_1.c **** *
1224:Generated_Source\PSoC4/TCPWM_1.c **** *******************************************************************************/
1225:Generated_Source\PSoC4/TCPWM_1.c **** void TCPWM_1_SetCountMode(uint32 triggerMode)
1226:Generated_Source\PSoC4/TCPWM_1.c **** {
 1662              		.loc 1 1226 0
 1663              		.cfi_startproc
 1664              		@ args = 0, pretend = 0, frame = 16
 1665              		@ frame_needed = 1, uses_anonymous_args = 0
 1666 0000 90B5     		push	{r4, r7, lr}
 1667              		.cfi_def_cfa_offset 12
 1668              		.cfi_offset 4, -12
 1669              		.cfi_offset 7, -8
 1670              		.cfi_offset 14, -4
 1671 0002 85B0     		sub	sp, sp, #20
 1672              		.cfi_def_cfa_offset 32
 1673 0004 00AF     		add	r7, sp, #0
 1674              		.cfi_def_cfa_register 7
 1675 0006 7860     		str	r0, [r7, #4]
1227:Generated_Source\PSoC4/TCPWM_1.c ****     uint8 enableInterrupts;
1228:Generated_Source\PSoC4/TCPWM_1.c **** 
1229:Generated_Source\PSoC4/TCPWM_1.c ****     enableInterrupts = CyEnterCriticalSection();
 1676              		.loc 1 1229 0
 1677 0008 0F23     		movs	r3, #15
 1678 000a FC18     		adds	r4, r7, r3
ARM GAS  C:\Users\puria\AppData\Local\Temp\ccpsVPDq.s 			page 52


 1679 000c FFF7FEFF 		bl	CyEnterCriticalSection
 1680 0010 0300     		movs	r3, r0
 1681 0012 2370     		strb	r3, [r4]
1230:Generated_Source\PSoC4/TCPWM_1.c **** 
1231:Generated_Source\PSoC4/TCPWM_1.c ****     TCPWM_1_TRIG_CONTROL1_REG &= (uint32)~TCPWM_1_COUNT_MASK;
 1682              		.loc 1 1231 0
 1683 0014 0B4B     		ldr	r3, .L106
 1684 0016 0B4A     		ldr	r2, .L106
 1685 0018 1268     		ldr	r2, [r2]
 1686 001a 0C21     		movs	r1, #12
 1687 001c 8A43     		bics	r2, r1
 1688 001e 1A60     		str	r2, [r3]
1232:Generated_Source\PSoC4/TCPWM_1.c ****     TCPWM_1_TRIG_CONTROL1_REG |= ((uint32)(triggerMode << TCPWM_1_COUNT_SHIFT));
 1689              		.loc 1 1232 0
 1690 0020 084B     		ldr	r3, .L106
 1691 0022 084A     		ldr	r2, .L106
 1692 0024 1168     		ldr	r1, [r2]
 1693 0026 7A68     		ldr	r2, [r7, #4]
 1694 0028 9200     		lsls	r2, r2, #2
 1695 002a 0A43     		orrs	r2, r1
 1696 002c 1A60     		str	r2, [r3]
1233:Generated_Source\PSoC4/TCPWM_1.c **** 
1234:Generated_Source\PSoC4/TCPWM_1.c ****     CyExitCriticalSection(enableInterrupts);
 1697              		.loc 1 1234 0
 1698 002e 0F23     		movs	r3, #15
 1699 0030 FB18     		adds	r3, r7, r3
 1700 0032 1B78     		ldrb	r3, [r3]
 1701 0034 1800     		movs	r0, r3
 1702 0036 FFF7FEFF 		bl	CyExitCriticalSection
1235:Generated_Source\PSoC4/TCPWM_1.c **** }
 1703              		.loc 1 1235 0
 1704 003a C046     		nop
 1705 003c BD46     		mov	sp, r7
 1706 003e 05B0     		add	sp, sp, #20
 1707              		@ sp needed
 1708 0040 90BD     		pop	{r4, r7, pc}
 1709              	.L107:
 1710 0042 C046     		.align	2
 1711              	.L106:
 1712 0044 24012040 		.word	1075839268
 1713              		.cfi_endproc
 1714              	.LFE34:
 1715              		.size	TCPWM_1_SetCountMode, .-TCPWM_1_SetCountMode
 1716              		.section	.text.TCPWM_1_TriggerCommand,"ax",%progbits
 1717              		.align	2
 1718              		.global	TCPWM_1_TriggerCommand
 1719              		.code	16
 1720              		.thumb_func
 1721              		.type	TCPWM_1_TriggerCommand, %function
 1722              	TCPWM_1_TriggerCommand:
 1723              	.LFB35:
1236:Generated_Source\PSoC4/TCPWM_1.c **** 
1237:Generated_Source\PSoC4/TCPWM_1.c **** 
1238:Generated_Source\PSoC4/TCPWM_1.c **** /*******************************************************************************
1239:Generated_Source\PSoC4/TCPWM_1.c **** * Function Name: TCPWM_1_TriggerCommand
1240:Generated_Source\PSoC4/TCPWM_1.c **** ********************************************************************************
1241:Generated_Source\PSoC4/TCPWM_1.c **** *
ARM GAS  C:\Users\puria\AppData\Local\Temp\ccpsVPDq.s 			page 53


1242:Generated_Source\PSoC4/TCPWM_1.c **** * Summary:
1243:Generated_Source\PSoC4/TCPWM_1.c **** *  Triggers the designated command to occur on the designated TCPWM instances.
1244:Generated_Source\PSoC4/TCPWM_1.c **** *  The mask can be used to apply this command simultaneously to more than one
1245:Generated_Source\PSoC4/TCPWM_1.c **** *  instance.  This allows multiple TCPWM instances to be synchronized.
1246:Generated_Source\PSoC4/TCPWM_1.c **** *
1247:Generated_Source\PSoC4/TCPWM_1.c **** * Parameters:
1248:Generated_Source\PSoC4/TCPWM_1.c **** *  mask: A combination of mask bits for each instance of the TCPWM that the
1249:Generated_Source\PSoC4/TCPWM_1.c **** *        command should apply to.  This function from one instance can be used
1250:Generated_Source\PSoC4/TCPWM_1.c **** *        to apply the command to any of the instances in the design.
1251:Generated_Source\PSoC4/TCPWM_1.c **** *        The mask value for a specific instance is available with the MASK
1252:Generated_Source\PSoC4/TCPWM_1.c **** *        define.
1253:Generated_Source\PSoC4/TCPWM_1.c **** *  command: Enumerated command values. Capture command only applicable for
1254:Generated_Source\PSoC4/TCPWM_1.c **** *           Timer/Counter with Capture and PWM modes.
1255:Generated_Source\PSoC4/TCPWM_1.c **** *   Values:
1256:Generated_Source\PSoC4/TCPWM_1.c **** *     - TCPWM_1_CMD_CAPTURE    - Trigger Capture/Switch command
1257:Generated_Source\PSoC4/TCPWM_1.c **** *     - TCPWM_1_CMD_RELOAD     - Trigger Reload/Index command
1258:Generated_Source\PSoC4/TCPWM_1.c **** *     - TCPWM_1_CMD_STOP       - Trigger Stop/Kill command
1259:Generated_Source\PSoC4/TCPWM_1.c **** *     - TCPWM_1_CMD_START      - Trigger Start/phiB command
1260:Generated_Source\PSoC4/TCPWM_1.c **** *
1261:Generated_Source\PSoC4/TCPWM_1.c **** * Return:
1262:Generated_Source\PSoC4/TCPWM_1.c **** *  None
1263:Generated_Source\PSoC4/TCPWM_1.c **** *
1264:Generated_Source\PSoC4/TCPWM_1.c **** *******************************************************************************/
1265:Generated_Source\PSoC4/TCPWM_1.c **** void TCPWM_1_TriggerCommand(uint32 mask, uint32 command)
1266:Generated_Source\PSoC4/TCPWM_1.c **** {
 1724              		.loc 1 1266 0
 1725              		.cfi_startproc
 1726              		@ args = 0, pretend = 0, frame = 16
 1727              		@ frame_needed = 1, uses_anonymous_args = 0
 1728 0000 90B5     		push	{r4, r7, lr}
 1729              		.cfi_def_cfa_offset 12
 1730              		.cfi_offset 4, -12
 1731              		.cfi_offset 7, -8
 1732              		.cfi_offset 14, -4
 1733 0002 85B0     		sub	sp, sp, #20
 1734              		.cfi_def_cfa_offset 32
 1735 0004 00AF     		add	r7, sp, #0
 1736              		.cfi_def_cfa_register 7
 1737 0006 7860     		str	r0, [r7, #4]
 1738 0008 3960     		str	r1, [r7]
1267:Generated_Source\PSoC4/TCPWM_1.c ****     uint8 enableInterrupts;
1268:Generated_Source\PSoC4/TCPWM_1.c **** 
1269:Generated_Source\PSoC4/TCPWM_1.c ****     enableInterrupts = CyEnterCriticalSection();
 1739              		.loc 1 1269 0
 1740 000a 0F23     		movs	r3, #15
 1741 000c FC18     		adds	r4, r7, r3
 1742 000e FFF7FEFF 		bl	CyEnterCriticalSection
 1743 0012 0300     		movs	r3, r0
 1744 0014 2370     		strb	r3, [r4]
1270:Generated_Source\PSoC4/TCPWM_1.c **** 
1271:Generated_Source\PSoC4/TCPWM_1.c ****     TCPWM_1_COMMAND_REG = ((uint32)(mask << command));
 1745              		.loc 1 1271 0
 1746 0016 084B     		ldr	r3, .L109
 1747 0018 7968     		ldr	r1, [r7, #4]
 1748 001a 3A68     		ldr	r2, [r7]
 1749 001c 9140     		lsls	r1, r1, r2
 1750 001e 0A00     		movs	r2, r1
ARM GAS  C:\Users\puria\AppData\Local\Temp\ccpsVPDq.s 			page 54


 1751 0020 1A60     		str	r2, [r3]
1272:Generated_Source\PSoC4/TCPWM_1.c **** 
1273:Generated_Source\PSoC4/TCPWM_1.c ****     CyExitCriticalSection(enableInterrupts);
 1752              		.loc 1 1273 0
 1753 0022 0F23     		movs	r3, #15
 1754 0024 FB18     		adds	r3, r7, r3
 1755 0026 1B78     		ldrb	r3, [r3]
 1756 0028 1800     		movs	r0, r3
 1757 002a FFF7FEFF 		bl	CyExitCriticalSection
1274:Generated_Source\PSoC4/TCPWM_1.c **** }
 1758              		.loc 1 1274 0
 1759 002e C046     		nop
 1760 0030 BD46     		mov	sp, r7
 1761 0032 05B0     		add	sp, sp, #20
 1762              		@ sp needed
 1763 0034 90BD     		pop	{r4, r7, pc}
 1764              	.L110:
 1765 0036 C046     		.align	2
 1766              	.L109:
 1767 0038 08002040 		.word	1075838984
 1768              		.cfi_endproc
 1769              	.LFE35:
 1770              		.size	TCPWM_1_TriggerCommand, .-TCPWM_1_TriggerCommand
 1771              		.section	.text.TCPWM_1_ReadStatus,"ax",%progbits
 1772              		.align	2
 1773              		.global	TCPWM_1_ReadStatus
 1774              		.code	16
 1775              		.thumb_func
 1776              		.type	TCPWM_1_ReadStatus, %function
 1777              	TCPWM_1_ReadStatus:
 1778              	.LFB36:
1275:Generated_Source\PSoC4/TCPWM_1.c **** 
1276:Generated_Source\PSoC4/TCPWM_1.c **** 
1277:Generated_Source\PSoC4/TCPWM_1.c **** /*******************************************************************************
1278:Generated_Source\PSoC4/TCPWM_1.c **** * Function Name: TCPWM_1_ReadStatus
1279:Generated_Source\PSoC4/TCPWM_1.c **** ********************************************************************************
1280:Generated_Source\PSoC4/TCPWM_1.c **** *
1281:Generated_Source\PSoC4/TCPWM_1.c **** * Summary:
1282:Generated_Source\PSoC4/TCPWM_1.c **** *  Reads the status of the TCPWM_1.
1283:Generated_Source\PSoC4/TCPWM_1.c **** *
1284:Generated_Source\PSoC4/TCPWM_1.c **** * Parameters:
1285:Generated_Source\PSoC4/TCPWM_1.c **** *  None
1286:Generated_Source\PSoC4/TCPWM_1.c **** *
1287:Generated_Source\PSoC4/TCPWM_1.c **** * Return:
1288:Generated_Source\PSoC4/TCPWM_1.c **** *  Status
1289:Generated_Source\PSoC4/TCPWM_1.c **** *   Values:
1290:Generated_Source\PSoC4/TCPWM_1.c **** *     - TCPWM_1_STATUS_DOWN    - Set if counting down
1291:Generated_Source\PSoC4/TCPWM_1.c **** *     - TCPWM_1_STATUS_RUNNING - Set if counter is running
1292:Generated_Source\PSoC4/TCPWM_1.c **** *
1293:Generated_Source\PSoC4/TCPWM_1.c **** *******************************************************************************/
1294:Generated_Source\PSoC4/TCPWM_1.c **** uint32 TCPWM_1_ReadStatus(void)
1295:Generated_Source\PSoC4/TCPWM_1.c **** {
 1779              		.loc 1 1295 0
 1780              		.cfi_startproc
 1781              		@ args = 0, pretend = 0, frame = 0
 1782              		@ frame_needed = 1, uses_anonymous_args = 0
 1783 0000 80B5     		push	{r7, lr}
ARM GAS  C:\Users\puria\AppData\Local\Temp\ccpsVPDq.s 			page 55


 1784              		.cfi_def_cfa_offset 8
 1785              		.cfi_offset 7, -8
 1786              		.cfi_offset 14, -4
 1787 0002 00AF     		add	r7, sp, #0
 1788              		.cfi_def_cfa_register 7
1296:Generated_Source\PSoC4/TCPWM_1.c ****     return ((TCPWM_1_STATUS_REG >> TCPWM_1_RUNNING_STATUS_SHIFT) |
 1789              		.loc 1 1296 0
 1790 0004 054B     		ldr	r3, .L113
 1791 0006 1B68     		ldr	r3, [r3]
 1792 0008 9A0F     		lsrs	r2, r3, #30
1297:Generated_Source\PSoC4/TCPWM_1.c ****             (TCPWM_1_STATUS_REG & TCPWM_1_STATUS_DOWN));
 1793              		.loc 1 1297 0
 1794 000a 044B     		ldr	r3, .L113
 1795 000c 1B68     		ldr	r3, [r3]
 1796 000e 0121     		movs	r1, #1
 1797 0010 0B40     		ands	r3, r1
1296:Generated_Source\PSoC4/TCPWM_1.c ****     return ((TCPWM_1_STATUS_REG >> TCPWM_1_RUNNING_STATUS_SHIFT) |
 1798              		.loc 1 1296 0
 1799 0012 1343     		orrs	r3, r2
1298:Generated_Source\PSoC4/TCPWM_1.c **** }
 1800              		.loc 1 1298 0
 1801 0014 1800     		movs	r0, r3
 1802 0016 BD46     		mov	sp, r7
 1803              		@ sp needed
 1804 0018 80BD     		pop	{r7, pc}
 1805              	.L114:
 1806 001a C046     		.align	2
 1807              	.L113:
 1808 001c 04012040 		.word	1075839236
 1809              		.cfi_endproc
 1810              	.LFE36:
 1811              		.size	TCPWM_1_ReadStatus, .-TCPWM_1_ReadStatus
 1812              		.section	.text.TCPWM_1_SetInterruptMode,"ax",%progbits
 1813              		.align	2
 1814              		.global	TCPWM_1_SetInterruptMode
 1815              		.code	16
 1816              		.thumb_func
 1817              		.type	TCPWM_1_SetInterruptMode, %function
 1818              	TCPWM_1_SetInterruptMode:
 1819              	.LFB37:
1299:Generated_Source\PSoC4/TCPWM_1.c **** 
1300:Generated_Source\PSoC4/TCPWM_1.c **** 
1301:Generated_Source\PSoC4/TCPWM_1.c **** /*******************************************************************************
1302:Generated_Source\PSoC4/TCPWM_1.c **** * Function Name: TCPWM_1_SetInterruptMode
1303:Generated_Source\PSoC4/TCPWM_1.c **** ********************************************************************************
1304:Generated_Source\PSoC4/TCPWM_1.c **** *
1305:Generated_Source\PSoC4/TCPWM_1.c **** * Summary:
1306:Generated_Source\PSoC4/TCPWM_1.c **** *  Sets the interrupt mask to control which interrupt
1307:Generated_Source\PSoC4/TCPWM_1.c **** *  requests generate the interrupt signal.
1308:Generated_Source\PSoC4/TCPWM_1.c **** *
1309:Generated_Source\PSoC4/TCPWM_1.c **** * Parameters:
1310:Generated_Source\PSoC4/TCPWM_1.c **** *   interruptMask: Mask of bits to be enabled
1311:Generated_Source\PSoC4/TCPWM_1.c **** *   Values:
1312:Generated_Source\PSoC4/TCPWM_1.c **** *     - TCPWM_1_INTR_MASK_TC       - Terminal count mask
1313:Generated_Source\PSoC4/TCPWM_1.c **** *     - TCPWM_1_INTR_MASK_CC_MATCH - Compare count / capture mask
1314:Generated_Source\PSoC4/TCPWM_1.c **** *
1315:Generated_Source\PSoC4/TCPWM_1.c **** * Return:
ARM GAS  C:\Users\puria\AppData\Local\Temp\ccpsVPDq.s 			page 56


1316:Generated_Source\PSoC4/TCPWM_1.c **** *  None
1317:Generated_Source\PSoC4/TCPWM_1.c **** *
1318:Generated_Source\PSoC4/TCPWM_1.c **** *******************************************************************************/
1319:Generated_Source\PSoC4/TCPWM_1.c **** void TCPWM_1_SetInterruptMode(uint32 interruptMask)
1320:Generated_Source\PSoC4/TCPWM_1.c **** {
 1820              		.loc 1 1320 0
 1821              		.cfi_startproc
 1822              		@ args = 0, pretend = 0, frame = 8
 1823              		@ frame_needed = 1, uses_anonymous_args = 0
 1824 0000 80B5     		push	{r7, lr}
 1825              		.cfi_def_cfa_offset 8
 1826              		.cfi_offset 7, -8
 1827              		.cfi_offset 14, -4
 1828 0002 82B0     		sub	sp, sp, #8
 1829              		.cfi_def_cfa_offset 16
 1830 0004 00AF     		add	r7, sp, #0
 1831              		.cfi_def_cfa_register 7
 1832 0006 7860     		str	r0, [r7, #4]
1321:Generated_Source\PSoC4/TCPWM_1.c ****     TCPWM_1_INTERRUPT_MASK_REG =  interruptMask;
 1833              		.loc 1 1321 0
 1834 0008 034B     		ldr	r3, .L116
 1835 000a 7A68     		ldr	r2, [r7, #4]
 1836 000c 1A60     		str	r2, [r3]
1322:Generated_Source\PSoC4/TCPWM_1.c **** }
 1837              		.loc 1 1322 0
 1838 000e C046     		nop
 1839 0010 BD46     		mov	sp, r7
 1840 0012 02B0     		add	sp, sp, #8
 1841              		@ sp needed
 1842 0014 80BD     		pop	{r7, pc}
 1843              	.L117:
 1844 0016 C046     		.align	2
 1845              	.L116:
 1846 0018 38012040 		.word	1075839288
 1847              		.cfi_endproc
 1848              	.LFE37:
 1849              		.size	TCPWM_1_SetInterruptMode, .-TCPWM_1_SetInterruptMode
 1850              		.section	.text.TCPWM_1_GetInterruptSourceMasked,"ax",%progbits
 1851              		.align	2
 1852              		.global	TCPWM_1_GetInterruptSourceMasked
 1853              		.code	16
 1854              		.thumb_func
 1855              		.type	TCPWM_1_GetInterruptSourceMasked, %function
 1856              	TCPWM_1_GetInterruptSourceMasked:
 1857              	.LFB38:
1323:Generated_Source\PSoC4/TCPWM_1.c **** 
1324:Generated_Source\PSoC4/TCPWM_1.c **** 
1325:Generated_Source\PSoC4/TCPWM_1.c **** /*******************************************************************************
1326:Generated_Source\PSoC4/TCPWM_1.c **** * Function Name: TCPWM_1_GetInterruptSourceMasked
1327:Generated_Source\PSoC4/TCPWM_1.c **** ********************************************************************************
1328:Generated_Source\PSoC4/TCPWM_1.c **** *
1329:Generated_Source\PSoC4/TCPWM_1.c **** * Summary:
1330:Generated_Source\PSoC4/TCPWM_1.c **** *  Gets the interrupt requests masked by the interrupt mask.
1331:Generated_Source\PSoC4/TCPWM_1.c **** *
1332:Generated_Source\PSoC4/TCPWM_1.c **** * Parameters:
1333:Generated_Source\PSoC4/TCPWM_1.c **** *   None
1334:Generated_Source\PSoC4/TCPWM_1.c **** *
ARM GAS  C:\Users\puria\AppData\Local\Temp\ccpsVPDq.s 			page 57


1335:Generated_Source\PSoC4/TCPWM_1.c **** * Return:
1336:Generated_Source\PSoC4/TCPWM_1.c **** *  Masked interrupt source
1337:Generated_Source\PSoC4/TCPWM_1.c **** *   Values:
1338:Generated_Source\PSoC4/TCPWM_1.c **** *     - TCPWM_1_INTR_MASK_TC       - Terminal count mask
1339:Generated_Source\PSoC4/TCPWM_1.c **** *     - TCPWM_1_INTR_MASK_CC_MATCH - Compare count / capture mask
1340:Generated_Source\PSoC4/TCPWM_1.c **** *
1341:Generated_Source\PSoC4/TCPWM_1.c **** *******************************************************************************/
1342:Generated_Source\PSoC4/TCPWM_1.c **** uint32 TCPWM_1_GetInterruptSourceMasked(void)
1343:Generated_Source\PSoC4/TCPWM_1.c **** {
 1858              		.loc 1 1343 0
 1859              		.cfi_startproc
 1860              		@ args = 0, pretend = 0, frame = 0
 1861              		@ frame_needed = 1, uses_anonymous_args = 0
 1862 0000 80B5     		push	{r7, lr}
 1863              		.cfi_def_cfa_offset 8
 1864              		.cfi_offset 7, -8
 1865              		.cfi_offset 14, -4
 1866 0002 00AF     		add	r7, sp, #0
 1867              		.cfi_def_cfa_register 7
1344:Generated_Source\PSoC4/TCPWM_1.c ****     return (TCPWM_1_INTERRUPT_MASKED_REG);
 1868              		.loc 1 1344 0
 1869 0004 024B     		ldr	r3, .L120
 1870 0006 1B68     		ldr	r3, [r3]
1345:Generated_Source\PSoC4/TCPWM_1.c **** }
 1871              		.loc 1 1345 0
 1872 0008 1800     		movs	r0, r3
 1873 000a BD46     		mov	sp, r7
 1874              		@ sp needed
 1875 000c 80BD     		pop	{r7, pc}
 1876              	.L121:
 1877 000e C046     		.align	2
 1878              	.L120:
 1879 0010 3C012040 		.word	1075839292
 1880              		.cfi_endproc
 1881              	.LFE38:
 1882              		.size	TCPWM_1_GetInterruptSourceMasked, .-TCPWM_1_GetInterruptSourceMasked
 1883              		.section	.text.TCPWM_1_GetInterruptSource,"ax",%progbits
 1884              		.align	2
 1885              		.global	TCPWM_1_GetInterruptSource
 1886              		.code	16
 1887              		.thumb_func
 1888              		.type	TCPWM_1_GetInterruptSource, %function
 1889              	TCPWM_1_GetInterruptSource:
 1890              	.LFB39:
1346:Generated_Source\PSoC4/TCPWM_1.c **** 
1347:Generated_Source\PSoC4/TCPWM_1.c **** 
1348:Generated_Source\PSoC4/TCPWM_1.c **** /*******************************************************************************
1349:Generated_Source\PSoC4/TCPWM_1.c **** * Function Name: TCPWM_1_GetInterruptSource
1350:Generated_Source\PSoC4/TCPWM_1.c **** ********************************************************************************
1351:Generated_Source\PSoC4/TCPWM_1.c **** *
1352:Generated_Source\PSoC4/TCPWM_1.c **** * Summary:
1353:Generated_Source\PSoC4/TCPWM_1.c **** *  Gets the interrupt requests (without masking).
1354:Generated_Source\PSoC4/TCPWM_1.c **** *
1355:Generated_Source\PSoC4/TCPWM_1.c **** * Parameters:
1356:Generated_Source\PSoC4/TCPWM_1.c **** *  None
1357:Generated_Source\PSoC4/TCPWM_1.c **** *
1358:Generated_Source\PSoC4/TCPWM_1.c **** * Return:
ARM GAS  C:\Users\puria\AppData\Local\Temp\ccpsVPDq.s 			page 58


1359:Generated_Source\PSoC4/TCPWM_1.c **** *  Interrupt request value
1360:Generated_Source\PSoC4/TCPWM_1.c **** *   Values:
1361:Generated_Source\PSoC4/TCPWM_1.c **** *     - TCPWM_1_INTR_MASK_TC       - Terminal count mask
1362:Generated_Source\PSoC4/TCPWM_1.c **** *     - TCPWM_1_INTR_MASK_CC_MATCH - Compare count / capture mask
1363:Generated_Source\PSoC4/TCPWM_1.c **** *
1364:Generated_Source\PSoC4/TCPWM_1.c **** *******************************************************************************/
1365:Generated_Source\PSoC4/TCPWM_1.c **** uint32 TCPWM_1_GetInterruptSource(void)
1366:Generated_Source\PSoC4/TCPWM_1.c **** {
 1891              		.loc 1 1366 0
 1892              		.cfi_startproc
 1893              		@ args = 0, pretend = 0, frame = 0
 1894              		@ frame_needed = 1, uses_anonymous_args = 0
 1895 0000 80B5     		push	{r7, lr}
 1896              		.cfi_def_cfa_offset 8
 1897              		.cfi_offset 7, -8
 1898              		.cfi_offset 14, -4
 1899 0002 00AF     		add	r7, sp, #0
 1900              		.cfi_def_cfa_register 7
1367:Generated_Source\PSoC4/TCPWM_1.c ****     return (TCPWM_1_INTERRUPT_REQ_REG);
 1901              		.loc 1 1367 0
 1902 0004 024B     		ldr	r3, .L124
 1903 0006 1B68     		ldr	r3, [r3]
1368:Generated_Source\PSoC4/TCPWM_1.c **** }
 1904              		.loc 1 1368 0
 1905 0008 1800     		movs	r0, r3
 1906 000a BD46     		mov	sp, r7
 1907              		@ sp needed
 1908 000c 80BD     		pop	{r7, pc}
 1909              	.L125:
 1910 000e C046     		.align	2
 1911              	.L124:
 1912 0010 30012040 		.word	1075839280
 1913              		.cfi_endproc
 1914              	.LFE39:
 1915              		.size	TCPWM_1_GetInterruptSource, .-TCPWM_1_GetInterruptSource
 1916              		.section	.text.TCPWM_1_ClearInterrupt,"ax",%progbits
 1917              		.align	2
 1918              		.global	TCPWM_1_ClearInterrupt
 1919              		.code	16
 1920              		.thumb_func
 1921              		.type	TCPWM_1_ClearInterrupt, %function
 1922              	TCPWM_1_ClearInterrupt:
 1923              	.LFB40:
1369:Generated_Source\PSoC4/TCPWM_1.c **** 
1370:Generated_Source\PSoC4/TCPWM_1.c **** 
1371:Generated_Source\PSoC4/TCPWM_1.c **** /*******************************************************************************
1372:Generated_Source\PSoC4/TCPWM_1.c **** * Function Name: TCPWM_1_ClearInterrupt
1373:Generated_Source\PSoC4/TCPWM_1.c **** ********************************************************************************
1374:Generated_Source\PSoC4/TCPWM_1.c **** *
1375:Generated_Source\PSoC4/TCPWM_1.c **** * Summary:
1376:Generated_Source\PSoC4/TCPWM_1.c **** *  Clears the interrupt request.
1377:Generated_Source\PSoC4/TCPWM_1.c **** *
1378:Generated_Source\PSoC4/TCPWM_1.c **** * Parameters:
1379:Generated_Source\PSoC4/TCPWM_1.c **** *   interruptMask: Mask of interrupts to clear
1380:Generated_Source\PSoC4/TCPWM_1.c **** *   Values:
1381:Generated_Source\PSoC4/TCPWM_1.c **** *     - TCPWM_1_INTR_MASK_TC       - Terminal count mask
1382:Generated_Source\PSoC4/TCPWM_1.c **** *     - TCPWM_1_INTR_MASK_CC_MATCH - Compare count / capture mask
ARM GAS  C:\Users\puria\AppData\Local\Temp\ccpsVPDq.s 			page 59


1383:Generated_Source\PSoC4/TCPWM_1.c **** *
1384:Generated_Source\PSoC4/TCPWM_1.c **** * Return:
1385:Generated_Source\PSoC4/TCPWM_1.c **** *  None
1386:Generated_Source\PSoC4/TCPWM_1.c **** *
1387:Generated_Source\PSoC4/TCPWM_1.c **** *******************************************************************************/
1388:Generated_Source\PSoC4/TCPWM_1.c **** void TCPWM_1_ClearInterrupt(uint32 interruptMask)
1389:Generated_Source\PSoC4/TCPWM_1.c **** {
 1924              		.loc 1 1389 0
 1925              		.cfi_startproc
 1926              		@ args = 0, pretend = 0, frame = 8
 1927              		@ frame_needed = 1, uses_anonymous_args = 0
 1928 0000 80B5     		push	{r7, lr}
 1929              		.cfi_def_cfa_offset 8
 1930              		.cfi_offset 7, -8
 1931              		.cfi_offset 14, -4
 1932 0002 82B0     		sub	sp, sp, #8
 1933              		.cfi_def_cfa_offset 16
 1934 0004 00AF     		add	r7, sp, #0
 1935              		.cfi_def_cfa_register 7
 1936 0006 7860     		str	r0, [r7, #4]
1390:Generated_Source\PSoC4/TCPWM_1.c ****     TCPWM_1_INTERRUPT_REQ_REG = interruptMask;
 1937              		.loc 1 1390 0
 1938 0008 034B     		ldr	r3, .L127
 1939 000a 7A68     		ldr	r2, [r7, #4]
 1940 000c 1A60     		str	r2, [r3]
1391:Generated_Source\PSoC4/TCPWM_1.c **** }
 1941              		.loc 1 1391 0
 1942 000e C046     		nop
 1943 0010 BD46     		mov	sp, r7
 1944 0012 02B0     		add	sp, sp, #8
 1945              		@ sp needed
 1946 0014 80BD     		pop	{r7, pc}
 1947              	.L128:
 1948 0016 C046     		.align	2
 1949              	.L127:
 1950 0018 30012040 		.word	1075839280
 1951              		.cfi_endproc
 1952              	.LFE40:
 1953              		.size	TCPWM_1_ClearInterrupt, .-TCPWM_1_ClearInterrupt
 1954              		.section	.text.TCPWM_1_SetInterrupt,"ax",%progbits
 1955              		.align	2
 1956              		.global	TCPWM_1_SetInterrupt
 1957              		.code	16
 1958              		.thumb_func
 1959              		.type	TCPWM_1_SetInterrupt, %function
 1960              	TCPWM_1_SetInterrupt:
 1961              	.LFB41:
1392:Generated_Source\PSoC4/TCPWM_1.c **** 
1393:Generated_Source\PSoC4/TCPWM_1.c **** 
1394:Generated_Source\PSoC4/TCPWM_1.c **** /*******************************************************************************
1395:Generated_Source\PSoC4/TCPWM_1.c **** * Function Name: TCPWM_1_SetInterrupt
1396:Generated_Source\PSoC4/TCPWM_1.c **** ********************************************************************************
1397:Generated_Source\PSoC4/TCPWM_1.c **** *
1398:Generated_Source\PSoC4/TCPWM_1.c **** * Summary:
1399:Generated_Source\PSoC4/TCPWM_1.c **** *  Sets a software interrupt request.
1400:Generated_Source\PSoC4/TCPWM_1.c **** *
1401:Generated_Source\PSoC4/TCPWM_1.c **** * Parameters:
ARM GAS  C:\Users\puria\AppData\Local\Temp\ccpsVPDq.s 			page 60


1402:Generated_Source\PSoC4/TCPWM_1.c **** *   interruptMask: Mask of interrupts to set
1403:Generated_Source\PSoC4/TCPWM_1.c **** *   Values:
1404:Generated_Source\PSoC4/TCPWM_1.c **** *     - TCPWM_1_INTR_MASK_TC       - Terminal count mask
1405:Generated_Source\PSoC4/TCPWM_1.c **** *     - TCPWM_1_INTR_MASK_CC_MATCH - Compare count / capture mask
1406:Generated_Source\PSoC4/TCPWM_1.c **** *
1407:Generated_Source\PSoC4/TCPWM_1.c **** * Return:
1408:Generated_Source\PSoC4/TCPWM_1.c **** *  None
1409:Generated_Source\PSoC4/TCPWM_1.c **** *
1410:Generated_Source\PSoC4/TCPWM_1.c **** *******************************************************************************/
1411:Generated_Source\PSoC4/TCPWM_1.c **** void TCPWM_1_SetInterrupt(uint32 interruptMask)
1412:Generated_Source\PSoC4/TCPWM_1.c **** {
 1962              		.loc 1 1412 0
 1963              		.cfi_startproc
 1964              		@ args = 0, pretend = 0, frame = 8
 1965              		@ frame_needed = 1, uses_anonymous_args = 0
 1966 0000 80B5     		push	{r7, lr}
 1967              		.cfi_def_cfa_offset 8
 1968              		.cfi_offset 7, -8
 1969              		.cfi_offset 14, -4
 1970 0002 82B0     		sub	sp, sp, #8
 1971              		.cfi_def_cfa_offset 16
 1972 0004 00AF     		add	r7, sp, #0
 1973              		.cfi_def_cfa_register 7
 1974 0006 7860     		str	r0, [r7, #4]
1413:Generated_Source\PSoC4/TCPWM_1.c ****     TCPWM_1_INTERRUPT_SET_REG = interruptMask;
 1975              		.loc 1 1413 0
 1976 0008 034B     		ldr	r3, .L130
 1977 000a 7A68     		ldr	r2, [r7, #4]
 1978 000c 1A60     		str	r2, [r3]
1414:Generated_Source\PSoC4/TCPWM_1.c **** }
 1979              		.loc 1 1414 0
 1980 000e C046     		nop
 1981 0010 BD46     		mov	sp, r7
 1982 0012 02B0     		add	sp, sp, #8
 1983              		@ sp needed
 1984 0014 80BD     		pop	{r7, pc}
 1985              	.L131:
 1986 0016 C046     		.align	2
 1987              	.L130:
 1988 0018 34012040 		.word	1075839284
 1989              		.cfi_endproc
 1990              	.LFE41:
 1991              		.size	TCPWM_1_SetInterrupt, .-TCPWM_1_SetInterrupt
 1992              		.text
 1993              	.Letext0:
 1994              		.file 2 "Generated_Source\\PSoC4\\cytypes.h"
 1995              		.section	.debug_info,"",%progbits
 1996              	.Ldebug_info0:
 1997 0000 F7060000 		.4byte	0x6f7
 1998 0004 0400     		.2byte	0x4
 1999 0006 00000000 		.4byte	.Ldebug_abbrev0
 2000 000a 04       		.byte	0x4
 2001 000b 01       		.uleb128 0x1
 2002 000c 6E020000 		.4byte	.LASF77
 2003 0010 0C       		.byte	0xc
 2004 0011 BF030000 		.4byte	.LASF78
 2005 0015 2E000000 		.4byte	.LASF79
ARM GAS  C:\Users\puria\AppData\Local\Temp\ccpsVPDq.s 			page 61


 2006 0019 00000000 		.4byte	.Ldebug_ranges0+0
 2007 001d 00000000 		.4byte	0
 2008 0021 00000000 		.4byte	.Ldebug_line0
 2009 0025 02       		.uleb128 0x2
 2010 0026 01       		.byte	0x1
 2011 0027 06       		.byte	0x6
 2012 0028 10010000 		.4byte	.LASF0
 2013 002c 02       		.uleb128 0x2
 2014 002d 01       		.byte	0x1
 2015 002e 08       		.byte	0x8
 2016 002f 0B040000 		.4byte	.LASF1
 2017 0033 02       		.uleb128 0x2
 2018 0034 02       		.byte	0x2
 2019 0035 05       		.byte	0x5
 2020 0036 5A040000 		.4byte	.LASF2
 2021 003a 02       		.uleb128 0x2
 2022 003b 02       		.byte	0x2
 2023 003c 07       		.byte	0x7
 2024 003d 38020000 		.4byte	.LASF3
 2025 0041 02       		.uleb128 0x2
 2026 0042 04       		.byte	0x4
 2027 0043 05       		.byte	0x5
 2028 0044 37010000 		.4byte	.LASF4
 2029 0048 02       		.uleb128 0x2
 2030 0049 04       		.byte	0x4
 2031 004a 07       		.byte	0x7
 2032 004b 1D020000 		.4byte	.LASF5
 2033 004f 02       		.uleb128 0x2
 2034 0050 08       		.byte	0x8
 2035 0051 05       		.byte	0x5
 2036 0052 02010000 		.4byte	.LASF6
 2037 0056 02       		.uleb128 0x2
 2038 0057 08       		.byte	0x8
 2039 0058 07       		.byte	0x7
 2040 0059 B7000000 		.4byte	.LASF7
 2041 005d 03       		.uleb128 0x3
 2042 005e 04       		.byte	0x4
 2043 005f 05       		.byte	0x5
 2044 0060 696E7400 		.ascii	"int\000"
 2045 0064 02       		.uleb128 0x2
 2046 0065 04       		.byte	0x4
 2047 0066 07       		.byte	0x7
 2048 0067 F1010000 		.4byte	.LASF8
 2049 006b 04       		.uleb128 0x4
 2050 006c 58010000 		.4byte	.LASF9
 2051 0070 02       		.byte	0x2
 2052 0071 D201     		.2byte	0x1d2
 2053 0073 2C000000 		.4byte	0x2c
 2054 0077 04       		.uleb128 0x4
 2055 0078 7C010000 		.4byte	.LASF10
 2056 007c 02       		.byte	0x2
 2057 007d D401     		.2byte	0x1d4
 2058 007f 48000000 		.4byte	0x48
 2059 0083 02       		.uleb128 0x2
 2060 0084 04       		.byte	0x4
 2061 0085 04       		.byte	0x4
 2062 0086 AF030000 		.4byte	.LASF11
ARM GAS  C:\Users\puria\AppData\Local\Temp\ccpsVPDq.s 			page 62


 2063 008a 02       		.uleb128 0x2
 2064 008b 08       		.byte	0x8
 2065 008c 04       		.byte	0x4
 2066 008d 75010000 		.4byte	.LASF12
 2067 0091 02       		.uleb128 0x2
 2068 0092 01       		.byte	0x1
 2069 0093 08       		.byte	0x8
 2070 0094 C8040000 		.4byte	.LASF13
 2071 0098 04       		.uleb128 0x4
 2072 0099 0F030000 		.4byte	.LASF14
 2073 009d 02       		.byte	0x2
 2074 009e 7E02     		.2byte	0x27e
 2075 00a0 A4000000 		.4byte	0xa4
 2076 00a4 05       		.uleb128 0x5
 2077 00a5 77000000 		.4byte	0x77
 2078 00a9 02       		.uleb128 0x2
 2079 00aa 08       		.byte	0x8
 2080 00ab 04       		.byte	0x4
 2081 00ac 41030000 		.4byte	.LASF15
 2082 00b0 02       		.uleb128 0x2
 2083 00b1 04       		.byte	0x4
 2084 00b2 07       		.byte	0x7
 2085 00b3 38030000 		.4byte	.LASF16
 2086 00b7 06       		.uleb128 0x6
 2087 00b8 4D030000 		.4byte	.LASF17
 2088 00bc 01       		.byte	0x1
 2089 00bd 26       		.byte	0x26
 2090 00be 00000000 		.4byte	.LFB2
 2091 00c2 34000000 		.4byte	.LFE2-.LFB2
 2092 00c6 01       		.uleb128 0x1
 2093 00c7 9C       		.byte	0x9c
 2094 00c8 07       		.uleb128 0x7
 2095 00c9 29030000 		.4byte	.LASF19
 2096 00cd 01       		.byte	0x1
 2097 00ce B1       		.byte	0xb1
 2098 00cf 00000000 		.4byte	.LFB3
 2099 00d3 3C000000 		.4byte	.LFE3-.LFB3
 2100 00d7 01       		.uleb128 0x1
 2101 00d8 9C       		.byte	0x9c
 2102 00d9 EC000000 		.4byte	0xec
 2103 00dd 08       		.uleb128 0x8
 2104 00de 1D050000 		.4byte	.LASF21
 2105 00e2 01       		.byte	0x1
 2106 00e3 B3       		.byte	0xb3
 2107 00e4 6B000000 		.4byte	0x6b
 2108 00e8 02       		.uleb128 0x2
 2109 00e9 91       		.byte	0x91
 2110 00ea 6F       		.sleb128 -17
 2111 00eb 00       		.byte	0
 2112 00ec 06       		.uleb128 0x6
 2113 00ed 8C030000 		.4byte	.LASF18
 2114 00f1 01       		.byte	0x1
 2115 00f2 E6       		.byte	0xe6
 2116 00f3 00000000 		.4byte	.LFB4
 2117 00f7 24000000 		.4byte	.LFE4-.LFB4
 2118 00fb 01       		.uleb128 0x1
 2119 00fc 9C       		.byte	0x9c
ARM GAS  C:\Users\puria\AppData\Local\Temp\ccpsVPDq.s 			page 63


 2120 00fd 09       		.uleb128 0x9
 2121 00fe DE000000 		.4byte	.LASF20
 2122 0102 01       		.byte	0x1
 2123 0103 0001     		.2byte	0x100
 2124 0105 00000000 		.4byte	.LFB5
 2125 0109 34000000 		.4byte	.LFE5-.LFB5
 2126 010d 01       		.uleb128 0x1
 2127 010e 9C       		.byte	0x9c
 2128 010f 23010000 		.4byte	0x123
 2129 0113 0A       		.uleb128 0xa
 2130 0114 1D050000 		.4byte	.LASF21
 2131 0118 01       		.byte	0x1
 2132 0119 0201     		.2byte	0x102
 2133 011b 6B000000 		.4byte	0x6b
 2134 011f 02       		.uleb128 0x2
 2135 0120 91       		.byte	0x91
 2136 0121 6F       		.sleb128 -17
 2137 0122 00       		.byte	0
 2138 0123 09       		.uleb128 0x9
 2139 0124 6B000000 		.4byte	.LASF22
 2140 0128 01       		.byte	0x1
 2141 0129 2501     		.2byte	0x125
 2142 012b 00000000 		.4byte	.LFB6
 2143 012f 48000000 		.4byte	.LFE6-.LFB6
 2144 0133 01       		.uleb128 0x1
 2145 0134 9C       		.byte	0x9c
 2146 0135 58010000 		.4byte	0x158
 2147 0139 0B       		.uleb128 0xb
 2148 013a CD040000 		.4byte	.LASF24
 2149 013e 01       		.byte	0x1
 2150 013f 2501     		.2byte	0x125
 2151 0141 77000000 		.4byte	0x77
 2152 0145 02       		.uleb128 0x2
 2153 0146 91       		.byte	0x91
 2154 0147 64       		.sleb128 -28
 2155 0148 0A       		.uleb128 0xa
 2156 0149 1D050000 		.4byte	.LASF21
 2157 014d 01       		.byte	0x1
 2158 014e 2701     		.2byte	0x127
 2159 0150 6B000000 		.4byte	0x6b
 2160 0154 02       		.uleb128 0x2
 2161 0155 91       		.byte	0x91
 2162 0156 6F       		.sleb128 -17
 2163 0157 00       		.byte	0
 2164 0158 09       		.uleb128 0x9
 2165 0159 7B000000 		.4byte	.LASF23
 2166 015d 01       		.byte	0x1
 2167 015e 4601     		.2byte	0x146
 2168 0160 00000000 		.4byte	.LFB7
 2169 0164 48000000 		.4byte	.LFE7-.LFB7
 2170 0168 01       		.uleb128 0x1
 2171 0169 9C       		.byte	0x9c
 2172 016a 8D010000 		.4byte	0x18d
 2173 016e 0B       		.uleb128 0xb
 2174 016f 30010000 		.4byte	.LASF25
 2175 0173 01       		.byte	0x1
 2176 0174 4601     		.2byte	0x146
ARM GAS  C:\Users\puria\AppData\Local\Temp\ccpsVPDq.s 			page 64


 2177 0176 77000000 		.4byte	0x77
 2178 017a 02       		.uleb128 0x2
 2179 017b 91       		.byte	0x91
 2180 017c 64       		.sleb128 -28
 2181 017d 0A       		.uleb128 0xa
 2182 017e 1D050000 		.4byte	.LASF21
 2183 0182 01       		.byte	0x1
 2184 0183 4801     		.2byte	0x148
 2185 0185 6B000000 		.4byte	0x6b
 2186 0189 02       		.uleb128 0x2
 2187 018a 91       		.byte	0x91
 2188 018b 6F       		.sleb128 -17
 2189 018c 00       		.byte	0
 2190 018d 09       		.uleb128 0x9
 2191 018e 8D000000 		.4byte	.LASF26
 2192 0192 01       		.byte	0x1
 2193 0193 6B01     		.2byte	0x16b
 2194 0195 00000000 		.4byte	.LFB8
 2195 0199 48000000 		.4byte	.LFE8-.LFB8
 2196 019d 01       		.uleb128 0x1
 2197 019e 9C       		.byte	0x9c
 2198 019f C2010000 		.4byte	0x1c2
 2199 01a3 0B       		.uleb128 0xb
 2200 01a4 B5030000 		.4byte	.LASF27
 2201 01a8 01       		.byte	0x1
 2202 01a9 6B01     		.2byte	0x16b
 2203 01ab 77000000 		.4byte	0x77
 2204 01af 02       		.uleb128 0x2
 2205 01b0 91       		.byte	0x91
 2206 01b1 64       		.sleb128 -28
 2207 01b2 0A       		.uleb128 0xa
 2208 01b3 1D050000 		.4byte	.LASF21
 2209 01b7 01       		.byte	0x1
 2210 01b8 6D01     		.2byte	0x16d
 2211 01ba 6B000000 		.4byte	0x6b
 2212 01be 02       		.uleb128 0x2
 2213 01bf 91       		.byte	0x91
 2214 01c0 6F       		.sleb128 -17
 2215 01c1 00       		.byte	0
 2216 01c2 09       		.uleb128 0x9
 2217 01c3 FC020000 		.4byte	.LASF28
 2218 01c7 01       		.byte	0x1
 2219 01c8 8B01     		.2byte	0x18b
 2220 01ca 00000000 		.4byte	.LFB9
 2221 01ce 50000000 		.4byte	.LFE9-.LFB9
 2222 01d2 01       		.uleb128 0x1
 2223 01d3 9C       		.byte	0x9c
 2224 01d4 F7010000 		.4byte	0x1f7
 2225 01d8 0B       		.uleb128 0xb
 2226 01d9 4B020000 		.4byte	.LASF29
 2227 01dd 01       		.byte	0x1
 2228 01de 8B01     		.2byte	0x18b
 2229 01e0 77000000 		.4byte	0x77
 2230 01e4 02       		.uleb128 0x2
 2231 01e5 91       		.byte	0x91
 2232 01e6 64       		.sleb128 -28
 2233 01e7 0A       		.uleb128 0xa
ARM GAS  C:\Users\puria\AppData\Local\Temp\ccpsVPDq.s 			page 65


 2234 01e8 1D050000 		.4byte	.LASF21
 2235 01ec 01       		.byte	0x1
 2236 01ed 8D01     		.2byte	0x18d
 2237 01ef 6B000000 		.4byte	0x6b
 2238 01f3 02       		.uleb128 0x2
 2239 01f4 91       		.byte	0x91
 2240 01f5 6F       		.sleb128 -17
 2241 01f6 00       		.byte	0
 2242 01f7 0C       		.uleb128 0xc
 2243 01f8 45050000 		.4byte	.LASF30
 2244 01fc 01       		.byte	0x1
 2245 01fd C101     		.2byte	0x1c1
 2246 01ff 00000000 		.4byte	.LFB10
 2247 0203 20000000 		.4byte	.LFE10-.LFB10
 2248 0207 01       		.uleb128 0x1
 2249 0208 9C       		.byte	0x9c
 2250 0209 1D020000 		.4byte	0x21d
 2251 020d 0B       		.uleb128 0xb
 2252 020e 2F020000 		.4byte	.LASF31
 2253 0212 01       		.byte	0x1
 2254 0213 C101     		.2byte	0x1c1
 2255 0215 77000000 		.4byte	0x77
 2256 0219 02       		.uleb128 0x2
 2257 021a 91       		.byte	0x91
 2258 021b 74       		.sleb128 -12
 2259 021c 00       		.byte	0
 2260 021d 09       		.uleb128 0x9
 2261 021e 00000000 		.4byte	.LASF32
 2262 0222 01       		.byte	0x1
 2263 0223 E501     		.2byte	0x1e5
 2264 0225 00000000 		.4byte	.LFB11
 2265 0229 4C000000 		.4byte	.LFE11-.LFB11
 2266 022d 01       		.uleb128 0x1
 2267 022e 9C       		.byte	0x9c
 2268 022f 52020000 		.4byte	0x252
 2269 0233 0B       		.uleb128 0xb
 2270 0234 6D050000 		.4byte	.LASF33
 2271 0238 01       		.byte	0x1
 2272 0239 E501     		.2byte	0x1e5
 2273 023b 77000000 		.4byte	0x77
 2274 023f 02       		.uleb128 0x2
 2275 0240 91       		.byte	0x91
 2276 0241 64       		.sleb128 -28
 2277 0242 0A       		.uleb128 0xa
 2278 0243 1D050000 		.4byte	.LASF21
 2279 0247 01       		.byte	0x1
 2280 0248 E701     		.2byte	0x1e7
 2281 024a 6B000000 		.4byte	0x6b
 2282 024e 02       		.uleb128 0x2
 2283 024f 91       		.byte	0x91
 2284 0250 6F       		.sleb128 -17
 2285 0251 00       		.byte	0
 2286 0252 09       		.uleb128 0x9
 2287 0253 9A010000 		.4byte	.LASF34
 2288 0257 01       		.byte	0x1
 2289 0258 0702     		.2byte	0x207
 2290 025a 00000000 		.4byte	.LFB12
ARM GAS  C:\Users\puria\AppData\Local\Temp\ccpsVPDq.s 			page 66


 2291 025e 4C000000 		.4byte	.LFE12-.LFB12
 2292 0262 01       		.uleb128 0x1
 2293 0263 9C       		.byte	0x9c
 2294 0264 87020000 		.4byte	0x287
 2295 0268 0B       		.uleb128 0xb
 2296 0269 2E040000 		.4byte	.LASF35
 2297 026d 01       		.byte	0x1
 2298 026e 0702     		.2byte	0x207
 2299 0270 77000000 		.4byte	0x77
 2300 0274 02       		.uleb128 0x2
 2301 0275 91       		.byte	0x91
 2302 0276 64       		.sleb128 -28
 2303 0277 0A       		.uleb128 0xa
 2304 0278 1D050000 		.4byte	.LASF21
 2305 027c 01       		.byte	0x1
 2306 027d 0902     		.2byte	0x209
 2307 027f 6B000000 		.4byte	0x6b
 2308 0283 02       		.uleb128 0x2
 2309 0284 91       		.byte	0x91
 2310 0285 6F       		.sleb128 -17
 2311 0286 00       		.byte	0
 2312 0287 09       		.uleb128 0x9
 2313 0288 5A030000 		.4byte	.LASF36
 2314 028c 01       		.byte	0x1
 2315 028d 2802     		.2byte	0x228
 2316 028f 00000000 		.4byte	.LFB13
 2317 0293 50000000 		.4byte	.LFE13-.LFB13
 2318 0297 01       		.uleb128 0x1
 2319 0298 9C       		.byte	0x9c
 2320 0299 BC020000 		.4byte	0x2bc
 2321 029d 0B       		.uleb128 0xb
 2322 029e C7010000 		.4byte	.LASF37
 2323 02a2 01       		.byte	0x1
 2324 02a3 2802     		.2byte	0x228
 2325 02a5 77000000 		.4byte	0x77
 2326 02a9 02       		.uleb128 0x2
 2327 02aa 91       		.byte	0x91
 2328 02ab 64       		.sleb128 -28
 2329 02ac 0A       		.uleb128 0xa
 2330 02ad 1D050000 		.4byte	.LASF21
 2331 02b1 01       		.byte	0x1
 2332 02b2 2A02     		.2byte	0x22a
 2333 02b4 6B000000 		.4byte	0x6b
 2334 02b8 02       		.uleb128 0x2
 2335 02b9 91       		.byte	0x91
 2336 02ba 6F       		.sleb128 -17
 2337 02bb 00       		.byte	0
 2338 02bc 09       		.uleb128 0x9
 2339 02bd 58050000 		.4byte	.LASF38
 2340 02c1 01       		.byte	0x1
 2341 02c2 4902     		.2byte	0x249
 2342 02c4 00000000 		.4byte	.LFB14
 2343 02c8 48000000 		.4byte	.LFE14-.LFB14
 2344 02cc 01       		.uleb128 0x1
 2345 02cd 9C       		.byte	0x9c
 2346 02ce F1020000 		.4byte	0x2f1
 2347 02d2 0B       		.uleb128 0xb
ARM GAS  C:\Users\puria\AppData\Local\Temp\ccpsVPDq.s 			page 67


 2348 02d3 95010000 		.4byte	.LASF39
 2349 02d7 01       		.byte	0x1
 2350 02d8 4902     		.2byte	0x249
 2351 02da 77000000 		.4byte	0x77
 2352 02de 02       		.uleb128 0x2
 2353 02df 91       		.byte	0x91
 2354 02e0 64       		.sleb128 -28
 2355 02e1 0A       		.uleb128 0xa
 2356 02e2 1D050000 		.4byte	.LASF21
 2357 02e6 01       		.byte	0x1
 2358 02e7 4B02     		.2byte	0x24b
 2359 02e9 6B000000 		.4byte	0x6b
 2360 02ed 02       		.uleb128 0x2
 2361 02ee 91       		.byte	0x91
 2362 02ef 6F       		.sleb128 -17
 2363 02f0 00       		.byte	0
 2364 02f1 0C       		.uleb128 0xc
 2365 02f2 A2000000 		.4byte	.LASF40
 2366 02f6 01       		.byte	0x1
 2367 02f7 6702     		.2byte	0x267
 2368 02f9 00000000 		.4byte	.LFB15
 2369 02fd 20000000 		.4byte	.LFE15-.LFB15
 2370 0301 01       		.uleb128 0x1
 2371 0302 9C       		.byte	0x9c
 2372 0303 17030000 		.4byte	0x317
 2373 0307 0B       		.uleb128 0xb
 2374 0308 83010000 		.4byte	.LASF41
 2375 030c 01       		.byte	0x1
 2376 030d 6702     		.2byte	0x267
 2377 030f 77000000 		.4byte	0x77
 2378 0313 02       		.uleb128 0x2
 2379 0314 91       		.byte	0x91
 2380 0315 74       		.sleb128 -12
 2381 0316 00       		.byte	0
 2382 0317 0D       		.uleb128 0xd
 2383 0318 B3010000 		.4byte	.LASF46
 2384 031c 01       		.byte	0x1
 2385 031d 7B02     		.2byte	0x27b
 2386 031f 77000000 		.4byte	0x77
 2387 0323 00000000 		.4byte	.LFB16
 2388 0327 18000000 		.4byte	.LFE16-.LFB16
 2389 032b 01       		.uleb128 0x1
 2390 032c 9C       		.byte	0x9c
 2391 032d 09       		.uleb128 0x9
 2392 032e 2E050000 		.4byte	.LASF42
 2393 0332 01       		.byte	0x1
 2394 0333 9802     		.2byte	0x298
 2395 0335 00000000 		.4byte	.LFB17
 2396 0339 48000000 		.4byte	.LFE17-.LFB17
 2397 033d 01       		.uleb128 0x1
 2398 033e 9C       		.byte	0x9c
 2399 033f 62030000 		.4byte	0x362
 2400 0343 0B       		.uleb128 0xb
 2401 0344 E6040000 		.4byte	.LASF43
 2402 0348 01       		.byte	0x1
 2403 0349 9802     		.2byte	0x298
 2404 034b 77000000 		.4byte	0x77
ARM GAS  C:\Users\puria\AppData\Local\Temp\ccpsVPDq.s 			page 68


 2405 034f 02       		.uleb128 0x2
 2406 0350 91       		.byte	0x91
 2407 0351 64       		.sleb128 -28
 2408 0352 0A       		.uleb128 0xa
 2409 0353 1D050000 		.4byte	.LASF21
 2410 0357 01       		.byte	0x1
 2411 0358 9A02     		.2byte	0x29a
 2412 035a 6B000000 		.4byte	0x6b
 2413 035e 02       		.uleb128 0x2
 2414 035f 91       		.byte	0x91
 2415 0360 6F       		.sleb128 -17
 2416 0361 00       		.byte	0
 2417 0362 0C       		.uleb128 0xc
 2418 0363 E0030000 		.4byte	.LASF44
 2419 0367 01       		.byte	0x1
 2420 0368 B502     		.2byte	0x2b5
 2421 036a 00000000 		.4byte	.LFB18
 2422 036e 20000000 		.4byte	.LFE18-.LFB18
 2423 0372 01       		.uleb128 0x1
 2424 0373 9C       		.byte	0x9c
 2425 0374 88030000 		.4byte	0x388
 2426 0378 0B       		.uleb128 0xb
 2427 0379 F2040000 		.4byte	.LASF45
 2428 037d 01       		.byte	0x1
 2429 037e B502     		.2byte	0x2b5
 2430 0380 77000000 		.4byte	0x77
 2431 0384 02       		.uleb128 0x2
 2432 0385 91       		.byte	0x91
 2433 0386 74       		.sleb128 -12
 2434 0387 00       		.byte	0
 2435 0388 0D       		.uleb128 0xd
 2436 0389 9F040000 		.4byte	.LASF47
 2437 038d 01       		.byte	0x1
 2438 038e C902     		.2byte	0x2c9
 2439 0390 77000000 		.4byte	0x77
 2440 0394 00000000 		.4byte	.LFB19
 2441 0398 18000000 		.4byte	.LFE19-.LFB19
 2442 039c 01       		.uleb128 0x1
 2443 039d 9C       		.byte	0x9c
 2444 039e 09       		.uleb128 0x9
 2445 039f EB000000 		.4byte	.LASF48
 2446 03a3 01       		.byte	0x1
 2447 03a4 E302     		.2byte	0x2e3
 2448 03a6 00000000 		.4byte	.LFB20
 2449 03aa 48000000 		.4byte	.LFE20-.LFB20
 2450 03ae 01       		.uleb128 0x1
 2451 03af 9C       		.byte	0x9c
 2452 03b0 D3030000 		.4byte	0x3d3
 2453 03b4 0B       		.uleb128 0xb
 2454 03b5 A7050000 		.4byte	.LASF49
 2455 03b9 01       		.byte	0x1
 2456 03ba E302     		.2byte	0x2e3
 2457 03bc 77000000 		.4byte	0x77
 2458 03c0 02       		.uleb128 0x2
 2459 03c1 91       		.byte	0x91
 2460 03c2 64       		.sleb128 -28
 2461 03c3 0A       		.uleb128 0xa
ARM GAS  C:\Users\puria\AppData\Local\Temp\ccpsVPDq.s 			page 69


 2462 03c4 1D050000 		.4byte	.LASF21
 2463 03c8 01       		.byte	0x1
 2464 03c9 E502     		.2byte	0x2e5
 2465 03cb 6B000000 		.4byte	0x6b
 2466 03cf 02       		.uleb128 0x2
 2467 03d0 91       		.byte	0x91
 2468 03d1 6F       		.sleb128 -17
 2469 03d2 00       		.byte	0
 2470 03d3 0C       		.uleb128 0xc
 2471 03d4 F4030000 		.4byte	.LASF50
 2472 03d8 01       		.byte	0x1
 2473 03d9 FE02     		.2byte	0x2fe
 2474 03db 00000000 		.4byte	.LFB21
 2475 03df 20000000 		.4byte	.LFE21-.LFB21
 2476 03e3 01       		.uleb128 0x1
 2477 03e4 9C       		.byte	0x9c
 2478 03e5 F9030000 		.4byte	0x3f9
 2479 03e9 0B       		.uleb128 0xb
 2480 03ea B2050000 		.4byte	.LASF51
 2481 03ee 01       		.byte	0x1
 2482 03ef FE02     		.2byte	0x2fe
 2483 03f1 77000000 		.4byte	0x77
 2484 03f5 02       		.uleb128 0x2
 2485 03f6 91       		.byte	0x91
 2486 03f7 74       		.sleb128 -12
 2487 03f8 00       		.byte	0
 2488 03f9 0D       		.uleb128 0xd
 2489 03fa 64040000 		.4byte	.LASF52
 2490 03fe 01       		.byte	0x1
 2491 03ff 1203     		.2byte	0x312
 2492 0401 77000000 		.4byte	0x77
 2493 0405 00000000 		.4byte	.LFB22
 2494 0409 18000000 		.4byte	.LFE22-.LFB22
 2495 040d 01       		.uleb128 0x1
 2496 040e 9C       		.byte	0x9c
 2497 040f 09       		.uleb128 0x9
 2498 0410 B2040000 		.4byte	.LASF53
 2499 0414 01       		.byte	0x1
 2500 0415 2C03     		.2byte	0x32c
 2501 0417 00000000 		.4byte	.LFB23
 2502 041b 4C000000 		.4byte	.LFE23-.LFB23
 2503 041f 01       		.uleb128 0x1
 2504 0420 9C       		.byte	0x9c
 2505 0421 44040000 		.4byte	0x444
 2506 0425 0B       		.uleb128 0xb
 2507 0426 A7050000 		.4byte	.LASF49
 2508 042a 01       		.byte	0x1
 2509 042b 2C03     		.2byte	0x32c
 2510 042d 77000000 		.4byte	0x77
 2511 0431 02       		.uleb128 0x2
 2512 0432 91       		.byte	0x91
 2513 0433 64       		.sleb128 -28
 2514 0434 0A       		.uleb128 0xa
 2515 0435 1D050000 		.4byte	.LASF21
 2516 0439 01       		.byte	0x1
 2517 043a 2E03     		.2byte	0x32e
 2518 043c 6B000000 		.4byte	0x6b
ARM GAS  C:\Users\puria\AppData\Local\Temp\ccpsVPDq.s 			page 70


 2519 0440 02       		.uleb128 0x2
 2520 0441 91       		.byte	0x91
 2521 0442 6F       		.sleb128 -17
 2522 0443 00       		.byte	0
 2523 0444 0C       		.uleb128 0xc
 2524 0445 19040000 		.4byte	.LASF54
 2525 0449 01       		.byte	0x1
 2526 044a 5103     		.2byte	0x351
 2527 044c 00000000 		.4byte	.LFB24
 2528 0450 20000000 		.4byte	.LFE24-.LFB24
 2529 0454 01       		.uleb128 0x1
 2530 0455 9C       		.byte	0x9c
 2531 0456 6A040000 		.4byte	0x46a
 2532 045a 0B       		.uleb128 0xb
 2533 045b 84030000 		.4byte	.LASF55
 2534 045f 01       		.byte	0x1
 2535 0460 5103     		.2byte	0x351
 2536 0462 77000000 		.4byte	0x77
 2537 0466 02       		.uleb128 0x2
 2538 0467 91       		.byte	0x91
 2539 0468 74       		.sleb128 -12
 2540 0469 00       		.byte	0
 2541 046a 0D       		.uleb128 0xd
 2542 046b 1C010000 		.4byte	.LASF56
 2543 046f 01       		.byte	0x1
 2544 0470 8403     		.2byte	0x384
 2545 0472 77000000 		.4byte	0x77
 2546 0476 00000000 		.4byte	.LFB25
 2547 047a 18000000 		.4byte	.LFE25-.LFB25
 2548 047e 01       		.uleb128 0x1
 2549 047f 9C       		.byte	0x9c
 2550 0480 0C       		.uleb128 0xc
 2551 0481 40010000 		.4byte	.LASF57
 2552 0485 01       		.byte	0x1
 2553 0486 BA03     		.2byte	0x3ba
 2554 0488 00000000 		.4byte	.LFB26
 2555 048c 20000000 		.4byte	.LFE26-.LFB26
 2556 0490 01       		.uleb128 0x1
 2557 0491 9C       		.byte	0x9c
 2558 0492 A6040000 		.4byte	0x4a6
 2559 0496 0B       		.uleb128 0xb
 2560 0497 12050000 		.4byte	.LASF58
 2561 049b 01       		.byte	0x1
 2562 049c BA03     		.2byte	0x3ba
 2563 049e 77000000 		.4byte	0x77
 2564 04a2 02       		.uleb128 0x2
 2565 04a3 91       		.byte	0x91
 2566 04a4 74       		.sleb128 -12
 2567 04a5 00       		.byte	0
 2568 04a6 0D       		.uleb128 0xd
 2569 04a7 88040000 		.4byte	.LASF59
 2570 04ab 01       		.byte	0x1
 2571 04ac E803     		.2byte	0x3e8
 2572 04ae 77000000 		.4byte	0x77
 2573 04b2 00000000 		.4byte	.LFB27
 2574 04b6 18000000 		.4byte	.LFE27-.LFB27
 2575 04ba 01       		.uleb128 0x1
ARM GAS  C:\Users\puria\AppData\Local\Temp\ccpsVPDq.s 			page 71


 2576 04bb 9C       		.byte	0x9c
 2577 04bc 0D       		.uleb128 0xd
 2578 04bd D2040000 		.4byte	.LASF60
 2579 04c1 01       		.byte	0x1
 2580 04c2 1604     		.2byte	0x416
 2581 04c4 77000000 		.4byte	0x77
 2582 04c8 00000000 		.4byte	.LFB28
 2583 04cc 18000000 		.4byte	.LFE28-.LFB28
 2584 04d0 01       		.uleb128 0x1
 2585 04d1 9C       		.byte	0x9c
 2586 04d2 0D       		.uleb128 0xd
 2587 04d3 17000000 		.4byte	.LASF61
 2588 04d7 01       		.byte	0x1
 2589 04d8 2B04     		.2byte	0x42b
 2590 04da 77000000 		.4byte	0x77
 2591 04de 00000000 		.4byte	.LFB29
 2592 04e2 18000000 		.4byte	.LFE29-.LFB29
 2593 04e6 01       		.uleb128 0x1
 2594 04e7 9C       		.byte	0x9c
 2595 04e8 09       		.uleb128 0x9
 2596 04e9 BC050000 		.4byte	.LASF62
 2597 04ed 01       		.byte	0x1
 2598 04ee 4604     		.2byte	0x446
 2599 04f0 00000000 		.4byte	.LFB30
 2600 04f4 44000000 		.4byte	.LFE30-.LFB30
 2601 04f8 01       		.uleb128 0x1
 2602 04f9 9C       		.byte	0x9c
 2603 04fa 1D050000 		.4byte	0x51d
 2604 04fe 0B       		.uleb128 0xb
 2605 04ff 89010000 		.4byte	.LASF63
 2606 0503 01       		.byte	0x1
 2607 0504 4604     		.2byte	0x446
 2608 0506 77000000 		.4byte	0x77
 2609 050a 02       		.uleb128 0x2
 2610 050b 91       		.byte	0x91
 2611 050c 64       		.sleb128 -28
 2612 050d 0A       		.uleb128 0xa
 2613 050e 1D050000 		.4byte	.LASF21
 2614 0512 01       		.byte	0x1
 2615 0513 4804     		.2byte	0x448
 2616 0515 6B000000 		.4byte	0x6b
 2617 0519 02       		.uleb128 0x2
 2618 051a 91       		.byte	0x91
 2619 051b 6F       		.sleb128 -17
 2620 051c 00       		.byte	0
 2621 051d 09       		.uleb128 0x9
 2622 051e 7C050000 		.4byte	.LASF64
 2623 0522 01       		.byte	0x1
 2624 0523 6704     		.2byte	0x467
 2625 0525 00000000 		.4byte	.LFB31
 2626 0529 48000000 		.4byte	.LFE31-.LFB31
 2627 052d 01       		.uleb128 0x1
 2628 052e 9C       		.byte	0x9c
 2629 052f 52050000 		.4byte	0x552
 2630 0533 0B       		.uleb128 0xb
 2631 0534 89010000 		.4byte	.LASF63
 2632 0538 01       		.byte	0x1
ARM GAS  C:\Users\puria\AppData\Local\Temp\ccpsVPDq.s 			page 72


 2633 0539 6704     		.2byte	0x467
 2634 053b 77000000 		.4byte	0x77
 2635 053f 02       		.uleb128 0x2
 2636 0540 91       		.byte	0x91
 2637 0541 64       		.sleb128 -28
 2638 0542 0A       		.uleb128 0xa
 2639 0543 1D050000 		.4byte	.LASF21
 2640 0547 01       		.byte	0x1
 2641 0548 6904     		.2byte	0x469
 2642 054a 6B000000 		.4byte	0x6b
 2643 054e 02       		.uleb128 0x2
 2644 054f 91       		.byte	0x91
 2645 0550 6F       		.sleb128 -17
 2646 0551 00       		.byte	0
 2647 0552 09       		.uleb128 0x9
 2648 0553 92050000 		.4byte	.LASF65
 2649 0557 01       		.byte	0x1
 2650 0558 8804     		.2byte	0x488
 2651 055a 00000000 		.4byte	.LFB32
 2652 055e 4C000000 		.4byte	.LFE32-.LFB32
 2653 0562 01       		.uleb128 0x1
 2654 0563 9C       		.byte	0x9c
 2655 0564 87050000 		.4byte	0x587
 2656 0568 0B       		.uleb128 0xb
 2657 0569 89010000 		.4byte	.LASF63
 2658 056d 01       		.byte	0x1
 2659 056e 8804     		.2byte	0x488
 2660 0570 77000000 		.4byte	0x77
 2661 0574 02       		.uleb128 0x2
 2662 0575 91       		.byte	0x91
 2663 0576 64       		.sleb128 -28
 2664 0577 0A       		.uleb128 0xa
 2665 0578 1D050000 		.4byte	.LASF21
 2666 057c 01       		.byte	0x1
 2667 057d 8A04     		.2byte	0x48a
 2668 057f 6B000000 		.4byte	0x6b
 2669 0583 02       		.uleb128 0x2
 2670 0584 91       		.byte	0x91
 2671 0585 6F       		.sleb128 -17
 2672 0586 00       		.byte	0
 2673 0587 09       		.uleb128 0x9
 2674 0588 15030000 		.4byte	.LASF66
 2675 058c 01       		.byte	0x1
 2676 058d A804     		.2byte	0x4a8
 2677 058f 00000000 		.4byte	.LFB33
 2678 0593 48000000 		.4byte	.LFE33-.LFB33
 2679 0597 01       		.uleb128 0x1
 2680 0598 9C       		.byte	0x9c
 2681 0599 BC050000 		.4byte	0x5bc
 2682 059d 0B       		.uleb128 0xb
 2683 059e 89010000 		.4byte	.LASF63
 2684 05a2 01       		.byte	0x1
 2685 05a3 A804     		.2byte	0x4a8
 2686 05a5 77000000 		.4byte	0x77
 2687 05a9 02       		.uleb128 0x2
 2688 05aa 91       		.byte	0x91
 2689 05ab 64       		.sleb128 -28
ARM GAS  C:\Users\puria\AppData\Local\Temp\ccpsVPDq.s 			page 73


 2690 05ac 0A       		.uleb128 0xa
 2691 05ad 1D050000 		.4byte	.LASF21
 2692 05b1 01       		.byte	0x1
 2693 05b2 AA04     		.2byte	0x4aa
 2694 05b4 6B000000 		.4byte	0x6b
 2695 05b8 02       		.uleb128 0x2
 2696 05b9 91       		.byte	0x91
 2697 05ba 6F       		.sleb128 -17
 2698 05bb 00       		.byte	0
 2699 05bc 09       		.uleb128 0x9
 2700 05bd 9A030000 		.4byte	.LASF67
 2701 05c1 01       		.byte	0x1
 2702 05c2 C904     		.2byte	0x4c9
 2703 05c4 00000000 		.4byte	.LFB34
 2704 05c8 48000000 		.4byte	.LFE34-.LFB34
 2705 05cc 01       		.uleb128 0x1
 2706 05cd 9C       		.byte	0x9c
 2707 05ce F1050000 		.4byte	0x5f1
 2708 05d2 0B       		.uleb128 0xb
 2709 05d3 89010000 		.4byte	.LASF63
 2710 05d7 01       		.byte	0x1
 2711 05d8 C904     		.2byte	0x4c9
 2712 05da 77000000 		.4byte	0x77
 2713 05de 02       		.uleb128 0x2
 2714 05df 91       		.byte	0x91
 2715 05e0 64       		.sleb128 -28
 2716 05e1 0A       		.uleb128 0xa
 2717 05e2 1D050000 		.4byte	.LASF21
 2718 05e6 01       		.byte	0x1
 2719 05e7 CB04     		.2byte	0x4cb
 2720 05e9 6B000000 		.4byte	0x6b
 2721 05ed 02       		.uleb128 0x2
 2722 05ee 91       		.byte	0x91
 2723 05ef 6F       		.sleb128 -17
 2724 05f0 00       		.byte	0
 2725 05f1 09       		.uleb128 0x9
 2726 05f2 FE010000 		.4byte	.LASF68
 2727 05f6 01       		.byte	0x1
 2728 05f7 F104     		.2byte	0x4f1
 2729 05f9 00000000 		.4byte	.LFB35
 2730 05fd 3C000000 		.4byte	.LFE35-.LFB35
 2731 0601 01       		.uleb128 0x1
 2732 0602 9C       		.byte	0x9c
 2733 0603 35060000 		.4byte	0x635
 2734 0607 0B       		.uleb128 0xb
 2735 0608 95010000 		.4byte	.LASF39
 2736 060c 01       		.byte	0x1
 2737 060d F104     		.2byte	0x4f1
 2738 060f 77000000 		.4byte	0x77
 2739 0613 02       		.uleb128 0x2
 2740 0614 91       		.byte	0x91
 2741 0615 64       		.sleb128 -28
 2742 0616 0B       		.uleb128 0xb
 2743 0617 15020000 		.4byte	.LASF69
 2744 061b 01       		.byte	0x1
 2745 061c F104     		.2byte	0x4f1
 2746 061e 77000000 		.4byte	0x77
ARM GAS  C:\Users\puria\AppData\Local\Temp\ccpsVPDq.s 			page 74


 2747 0622 02       		.uleb128 0x2
 2748 0623 91       		.byte	0x91
 2749 0624 60       		.sleb128 -32
 2750 0625 0A       		.uleb128 0xa
 2751 0626 1D050000 		.4byte	.LASF21
 2752 062a 01       		.byte	0x1
 2753 062b F304     		.2byte	0x4f3
 2754 062d 6B000000 		.4byte	0x6b
 2755 0631 02       		.uleb128 0x2
 2756 0632 91       		.byte	0x91
 2757 0633 6F       		.sleb128 -17
 2758 0634 00       		.byte	0
 2759 0635 0D       		.uleb128 0xd
 2760 0636 71030000 		.4byte	.LASF70
 2761 063a 01       		.byte	0x1
 2762 063b 0E05     		.2byte	0x50e
 2763 063d 77000000 		.4byte	0x77
 2764 0641 00000000 		.4byte	.LFB36
 2765 0645 20000000 		.4byte	.LFE36-.LFB36
 2766 0649 01       		.uleb128 0x1
 2767 064a 9C       		.byte	0x9c
 2768 064b 0C       		.uleb128 0xc
 2769 064c F9040000 		.4byte	.LASF71
 2770 0650 01       		.byte	0x1
 2771 0651 2705     		.2byte	0x527
 2772 0653 00000000 		.4byte	.LFB37
 2773 0657 1C000000 		.4byte	.LFE37-.LFB37
 2774 065b 01       		.uleb128 0x1
 2775 065c 9C       		.byte	0x9c
 2776 065d 71060000 		.4byte	0x671
 2777 0661 0B       		.uleb128 0xb
 2778 0662 7A040000 		.4byte	.LASF72
 2779 0666 01       		.byte	0x1
 2780 0667 2705     		.2byte	0x527
 2781 0669 77000000 		.4byte	0x77
 2782 066d 02       		.uleb128 0x2
 2783 066e 91       		.byte	0x91
 2784 066f 74       		.sleb128 -12
 2785 0670 00       		.byte	0
 2786 0671 0D       		.uleb128 0xd
 2787 0672 D0010000 		.4byte	.LASF73
 2788 0676 01       		.byte	0x1
 2789 0677 3E05     		.2byte	0x53e
 2790 0679 77000000 		.4byte	0x77
 2791 067d 00000000 		.4byte	.LFB38
 2792 0681 14000000 		.4byte	.LFE38-.LFB38
 2793 0685 01       		.uleb128 0x1
 2794 0686 9C       		.byte	0x9c
 2795 0687 0D       		.uleb128 0xd
 2796 0688 3F040000 		.4byte	.LASF74
 2797 068c 01       		.byte	0x1
 2798 068d 5505     		.2byte	0x555
 2799 068f 77000000 		.4byte	0x77
 2800 0693 00000000 		.4byte	.LFB39
 2801 0697 14000000 		.4byte	.LFE39-.LFB39
 2802 069b 01       		.uleb128 0x1
 2803 069c 9C       		.byte	0x9c
ARM GAS  C:\Users\puria\AppData\Local\Temp\ccpsVPDq.s 			page 75


 2804 069d 0C       		.uleb128 0xc
 2805 069e 5E010000 		.4byte	.LASF75
 2806 06a2 01       		.byte	0x1
 2807 06a3 6C05     		.2byte	0x56c
 2808 06a5 00000000 		.4byte	.LFB40
 2809 06a9 1C000000 		.4byte	.LFE40-.LFB40
 2810 06ad 01       		.uleb128 0x1
 2811 06ae 9C       		.byte	0x9c
 2812 06af C3060000 		.4byte	0x6c3
 2813 06b3 0B       		.uleb128 0xb
 2814 06b4 7A040000 		.4byte	.LASF72
 2815 06b8 01       		.byte	0x1
 2816 06b9 6C05     		.2byte	0x56c
 2817 06bb 77000000 		.4byte	0x77
 2818 06bf 02       		.uleb128 0x2
 2819 06c0 91       		.byte	0x91
 2820 06c1 74       		.sleb128 -12
 2821 06c2 00       		.byte	0
 2822 06c3 0C       		.uleb128 0xc
 2823 06c4 59020000 		.4byte	.LASF76
 2824 06c8 01       		.byte	0x1
 2825 06c9 8305     		.2byte	0x583
 2826 06cb 00000000 		.4byte	.LFB41
 2827 06cf 1C000000 		.4byte	.LFE41-.LFB41
 2828 06d3 01       		.uleb128 0x1
 2829 06d4 9C       		.byte	0x9c
 2830 06d5 E9060000 		.4byte	0x6e9
 2831 06d9 0B       		.uleb128 0xb
 2832 06da 7A040000 		.4byte	.LASF72
 2833 06de 01       		.byte	0x1
 2834 06df 8305     		.2byte	0x583
 2835 06e1 77000000 		.4byte	0x77
 2836 06e5 02       		.uleb128 0x2
 2837 06e6 91       		.byte	0x91
 2838 06e7 74       		.sleb128 -12
 2839 06e8 00       		.byte	0
 2840 06e9 0E       		.uleb128 0xe
 2841 06ea CE000000 		.4byte	.LASF80
 2842 06ee 01       		.byte	0x1
 2843 06ef 15       		.byte	0x15
 2844 06f0 6B000000 		.4byte	0x6b
 2845 06f4 05       		.uleb128 0x5
 2846 06f5 03       		.byte	0x3
 2847 06f6 00000000 		.4byte	TCPWM_1_initVar
 2848 06fa 00       		.byte	0
 2849              		.section	.debug_abbrev,"",%progbits
 2850              	.Ldebug_abbrev0:
 2851 0000 01       		.uleb128 0x1
 2852 0001 11       		.uleb128 0x11
 2853 0002 01       		.byte	0x1
 2854 0003 25       		.uleb128 0x25
 2855 0004 0E       		.uleb128 0xe
 2856 0005 13       		.uleb128 0x13
 2857 0006 0B       		.uleb128 0xb
 2858 0007 03       		.uleb128 0x3
 2859 0008 0E       		.uleb128 0xe
 2860 0009 1B       		.uleb128 0x1b
ARM GAS  C:\Users\puria\AppData\Local\Temp\ccpsVPDq.s 			page 76


 2861 000a 0E       		.uleb128 0xe
 2862 000b 55       		.uleb128 0x55
 2863 000c 17       		.uleb128 0x17
 2864 000d 11       		.uleb128 0x11
 2865 000e 01       		.uleb128 0x1
 2866 000f 10       		.uleb128 0x10
 2867 0010 17       		.uleb128 0x17
 2868 0011 00       		.byte	0
 2869 0012 00       		.byte	0
 2870 0013 02       		.uleb128 0x2
 2871 0014 24       		.uleb128 0x24
 2872 0015 00       		.byte	0
 2873 0016 0B       		.uleb128 0xb
 2874 0017 0B       		.uleb128 0xb
 2875 0018 3E       		.uleb128 0x3e
 2876 0019 0B       		.uleb128 0xb
 2877 001a 03       		.uleb128 0x3
 2878 001b 0E       		.uleb128 0xe
 2879 001c 00       		.byte	0
 2880 001d 00       		.byte	0
 2881 001e 03       		.uleb128 0x3
 2882 001f 24       		.uleb128 0x24
 2883 0020 00       		.byte	0
 2884 0021 0B       		.uleb128 0xb
 2885 0022 0B       		.uleb128 0xb
 2886 0023 3E       		.uleb128 0x3e
 2887 0024 0B       		.uleb128 0xb
 2888 0025 03       		.uleb128 0x3
 2889 0026 08       		.uleb128 0x8
 2890 0027 00       		.byte	0
 2891 0028 00       		.byte	0
 2892 0029 04       		.uleb128 0x4
 2893 002a 16       		.uleb128 0x16
 2894 002b 00       		.byte	0
 2895 002c 03       		.uleb128 0x3
 2896 002d 0E       		.uleb128 0xe
 2897 002e 3A       		.uleb128 0x3a
 2898 002f 0B       		.uleb128 0xb
 2899 0030 3B       		.uleb128 0x3b
 2900 0031 05       		.uleb128 0x5
 2901 0032 49       		.uleb128 0x49
 2902 0033 13       		.uleb128 0x13
 2903 0034 00       		.byte	0
 2904 0035 00       		.byte	0
 2905 0036 05       		.uleb128 0x5
 2906 0037 35       		.uleb128 0x35
 2907 0038 00       		.byte	0
 2908 0039 49       		.uleb128 0x49
 2909 003a 13       		.uleb128 0x13
 2910 003b 00       		.byte	0
 2911 003c 00       		.byte	0
 2912 003d 06       		.uleb128 0x6
 2913 003e 2E       		.uleb128 0x2e
 2914 003f 00       		.byte	0
 2915 0040 3F       		.uleb128 0x3f
 2916 0041 19       		.uleb128 0x19
 2917 0042 03       		.uleb128 0x3
ARM GAS  C:\Users\puria\AppData\Local\Temp\ccpsVPDq.s 			page 77


 2918 0043 0E       		.uleb128 0xe
 2919 0044 3A       		.uleb128 0x3a
 2920 0045 0B       		.uleb128 0xb
 2921 0046 3B       		.uleb128 0x3b
 2922 0047 0B       		.uleb128 0xb
 2923 0048 27       		.uleb128 0x27
 2924 0049 19       		.uleb128 0x19
 2925 004a 11       		.uleb128 0x11
 2926 004b 01       		.uleb128 0x1
 2927 004c 12       		.uleb128 0x12
 2928 004d 06       		.uleb128 0x6
 2929 004e 40       		.uleb128 0x40
 2930 004f 18       		.uleb128 0x18
 2931 0050 9642     		.uleb128 0x2116
 2932 0052 19       		.uleb128 0x19
 2933 0053 00       		.byte	0
 2934 0054 00       		.byte	0
 2935 0055 07       		.uleb128 0x7
 2936 0056 2E       		.uleb128 0x2e
 2937 0057 01       		.byte	0x1
 2938 0058 3F       		.uleb128 0x3f
 2939 0059 19       		.uleb128 0x19
 2940 005a 03       		.uleb128 0x3
 2941 005b 0E       		.uleb128 0xe
 2942 005c 3A       		.uleb128 0x3a
 2943 005d 0B       		.uleb128 0xb
 2944 005e 3B       		.uleb128 0x3b
 2945 005f 0B       		.uleb128 0xb
 2946 0060 27       		.uleb128 0x27
 2947 0061 19       		.uleb128 0x19
 2948 0062 11       		.uleb128 0x11
 2949 0063 01       		.uleb128 0x1
 2950 0064 12       		.uleb128 0x12
 2951 0065 06       		.uleb128 0x6
 2952 0066 40       		.uleb128 0x40
 2953 0067 18       		.uleb128 0x18
 2954 0068 9642     		.uleb128 0x2116
 2955 006a 19       		.uleb128 0x19
 2956 006b 01       		.uleb128 0x1
 2957 006c 13       		.uleb128 0x13
 2958 006d 00       		.byte	0
 2959 006e 00       		.byte	0
 2960 006f 08       		.uleb128 0x8
 2961 0070 34       		.uleb128 0x34
 2962 0071 00       		.byte	0
 2963 0072 03       		.uleb128 0x3
 2964 0073 0E       		.uleb128 0xe
 2965 0074 3A       		.uleb128 0x3a
 2966 0075 0B       		.uleb128 0xb
 2967 0076 3B       		.uleb128 0x3b
 2968 0077 0B       		.uleb128 0xb
 2969 0078 49       		.uleb128 0x49
 2970 0079 13       		.uleb128 0x13
 2971 007a 02       		.uleb128 0x2
 2972 007b 18       		.uleb128 0x18
 2973 007c 00       		.byte	0
 2974 007d 00       		.byte	0
ARM GAS  C:\Users\puria\AppData\Local\Temp\ccpsVPDq.s 			page 78


 2975 007e 09       		.uleb128 0x9
 2976 007f 2E       		.uleb128 0x2e
 2977 0080 01       		.byte	0x1
 2978 0081 3F       		.uleb128 0x3f
 2979 0082 19       		.uleb128 0x19
 2980 0083 03       		.uleb128 0x3
 2981 0084 0E       		.uleb128 0xe
 2982 0085 3A       		.uleb128 0x3a
 2983 0086 0B       		.uleb128 0xb
 2984 0087 3B       		.uleb128 0x3b
 2985 0088 05       		.uleb128 0x5
 2986 0089 27       		.uleb128 0x27
 2987 008a 19       		.uleb128 0x19
 2988 008b 11       		.uleb128 0x11
 2989 008c 01       		.uleb128 0x1
 2990 008d 12       		.uleb128 0x12
 2991 008e 06       		.uleb128 0x6
 2992 008f 40       		.uleb128 0x40
 2993 0090 18       		.uleb128 0x18
 2994 0091 9642     		.uleb128 0x2116
 2995 0093 19       		.uleb128 0x19
 2996 0094 01       		.uleb128 0x1
 2997 0095 13       		.uleb128 0x13
 2998 0096 00       		.byte	0
 2999 0097 00       		.byte	0
 3000 0098 0A       		.uleb128 0xa
 3001 0099 34       		.uleb128 0x34
 3002 009a 00       		.byte	0
 3003 009b 03       		.uleb128 0x3
 3004 009c 0E       		.uleb128 0xe
 3005 009d 3A       		.uleb128 0x3a
 3006 009e 0B       		.uleb128 0xb
 3007 009f 3B       		.uleb128 0x3b
 3008 00a0 05       		.uleb128 0x5
 3009 00a1 49       		.uleb128 0x49
 3010 00a2 13       		.uleb128 0x13
 3011 00a3 02       		.uleb128 0x2
 3012 00a4 18       		.uleb128 0x18
 3013 00a5 00       		.byte	0
 3014 00a6 00       		.byte	0
 3015 00a7 0B       		.uleb128 0xb
 3016 00a8 05       		.uleb128 0x5
 3017 00a9 00       		.byte	0
 3018 00aa 03       		.uleb128 0x3
 3019 00ab 0E       		.uleb128 0xe
 3020 00ac 3A       		.uleb128 0x3a
 3021 00ad 0B       		.uleb128 0xb
 3022 00ae 3B       		.uleb128 0x3b
 3023 00af 05       		.uleb128 0x5
 3024 00b0 49       		.uleb128 0x49
 3025 00b1 13       		.uleb128 0x13
 3026 00b2 02       		.uleb128 0x2
 3027 00b3 18       		.uleb128 0x18
 3028 00b4 00       		.byte	0
 3029 00b5 00       		.byte	0
 3030 00b6 0C       		.uleb128 0xc
 3031 00b7 2E       		.uleb128 0x2e
ARM GAS  C:\Users\puria\AppData\Local\Temp\ccpsVPDq.s 			page 79


 3032 00b8 01       		.byte	0x1
 3033 00b9 3F       		.uleb128 0x3f
 3034 00ba 19       		.uleb128 0x19
 3035 00bb 03       		.uleb128 0x3
 3036 00bc 0E       		.uleb128 0xe
 3037 00bd 3A       		.uleb128 0x3a
 3038 00be 0B       		.uleb128 0xb
 3039 00bf 3B       		.uleb128 0x3b
 3040 00c0 05       		.uleb128 0x5
 3041 00c1 27       		.uleb128 0x27
 3042 00c2 19       		.uleb128 0x19
 3043 00c3 11       		.uleb128 0x11
 3044 00c4 01       		.uleb128 0x1
 3045 00c5 12       		.uleb128 0x12
 3046 00c6 06       		.uleb128 0x6
 3047 00c7 40       		.uleb128 0x40
 3048 00c8 18       		.uleb128 0x18
 3049 00c9 9742     		.uleb128 0x2117
 3050 00cb 19       		.uleb128 0x19
 3051 00cc 01       		.uleb128 0x1
 3052 00cd 13       		.uleb128 0x13
 3053 00ce 00       		.byte	0
 3054 00cf 00       		.byte	0
 3055 00d0 0D       		.uleb128 0xd
 3056 00d1 2E       		.uleb128 0x2e
 3057 00d2 00       		.byte	0
 3058 00d3 3F       		.uleb128 0x3f
 3059 00d4 19       		.uleb128 0x19
 3060 00d5 03       		.uleb128 0x3
 3061 00d6 0E       		.uleb128 0xe
 3062 00d7 3A       		.uleb128 0x3a
 3063 00d8 0B       		.uleb128 0xb
 3064 00d9 3B       		.uleb128 0x3b
 3065 00da 05       		.uleb128 0x5
 3066 00db 27       		.uleb128 0x27
 3067 00dc 19       		.uleb128 0x19
 3068 00dd 49       		.uleb128 0x49
 3069 00de 13       		.uleb128 0x13
 3070 00df 11       		.uleb128 0x11
 3071 00e0 01       		.uleb128 0x1
 3072 00e1 12       		.uleb128 0x12
 3073 00e2 06       		.uleb128 0x6
 3074 00e3 40       		.uleb128 0x40
 3075 00e4 18       		.uleb128 0x18
 3076 00e5 9742     		.uleb128 0x2117
 3077 00e7 19       		.uleb128 0x19
 3078 00e8 00       		.byte	0
 3079 00e9 00       		.byte	0
 3080 00ea 0E       		.uleb128 0xe
 3081 00eb 34       		.uleb128 0x34
 3082 00ec 00       		.byte	0
 3083 00ed 03       		.uleb128 0x3
 3084 00ee 0E       		.uleb128 0xe
 3085 00ef 3A       		.uleb128 0x3a
 3086 00f0 0B       		.uleb128 0xb
 3087 00f1 3B       		.uleb128 0x3b
 3088 00f2 0B       		.uleb128 0xb
ARM GAS  C:\Users\puria\AppData\Local\Temp\ccpsVPDq.s 			page 80


 3089 00f3 49       		.uleb128 0x49
 3090 00f4 13       		.uleb128 0x13
 3091 00f5 3F       		.uleb128 0x3f
 3092 00f6 19       		.uleb128 0x19
 3093 00f7 02       		.uleb128 0x2
 3094 00f8 18       		.uleb128 0x18
 3095 00f9 00       		.byte	0
 3096 00fa 00       		.byte	0
 3097 00fb 00       		.byte	0
 3098              		.section	.debug_aranges,"",%progbits
 3099 0000 54010000 		.4byte	0x154
 3100 0004 0200     		.2byte	0x2
 3101 0006 00000000 		.4byte	.Ldebug_info0
 3102 000a 04       		.byte	0x4
 3103 000b 00       		.byte	0
 3104 000c 0000     		.2byte	0
 3105 000e 0000     		.2byte	0
 3106 0010 00000000 		.4byte	.LFB2
 3107 0014 34000000 		.4byte	.LFE2-.LFB2
 3108 0018 00000000 		.4byte	.LFB3
 3109 001c 3C000000 		.4byte	.LFE3-.LFB3
 3110 0020 00000000 		.4byte	.LFB4
 3111 0024 24000000 		.4byte	.LFE4-.LFB4
 3112 0028 00000000 		.4byte	.LFB5
 3113 002c 34000000 		.4byte	.LFE5-.LFB5
 3114 0030 00000000 		.4byte	.LFB6
 3115 0034 48000000 		.4byte	.LFE6-.LFB6
 3116 0038 00000000 		.4byte	.LFB7
 3117 003c 48000000 		.4byte	.LFE7-.LFB7
 3118 0040 00000000 		.4byte	.LFB8
 3119 0044 48000000 		.4byte	.LFE8-.LFB8
 3120 0048 00000000 		.4byte	.LFB9
 3121 004c 50000000 		.4byte	.LFE9-.LFB9
 3122 0050 00000000 		.4byte	.LFB10
 3123 0054 20000000 		.4byte	.LFE10-.LFB10
 3124 0058 00000000 		.4byte	.LFB11
 3125 005c 4C000000 		.4byte	.LFE11-.LFB11
 3126 0060 00000000 		.4byte	.LFB12
 3127 0064 4C000000 		.4byte	.LFE12-.LFB12
 3128 0068 00000000 		.4byte	.LFB13
 3129 006c 50000000 		.4byte	.LFE13-.LFB13
 3130 0070 00000000 		.4byte	.LFB14
 3131 0074 48000000 		.4byte	.LFE14-.LFB14
 3132 0078 00000000 		.4byte	.LFB15
 3133 007c 20000000 		.4byte	.LFE15-.LFB15
 3134 0080 00000000 		.4byte	.LFB16
 3135 0084 18000000 		.4byte	.LFE16-.LFB16
 3136 0088 00000000 		.4byte	.LFB17
 3137 008c 48000000 		.4byte	.LFE17-.LFB17
 3138 0090 00000000 		.4byte	.LFB18
 3139 0094 20000000 		.4byte	.LFE18-.LFB18
 3140 0098 00000000 		.4byte	.LFB19
 3141 009c 18000000 		.4byte	.LFE19-.LFB19
 3142 00a0 00000000 		.4byte	.LFB20
 3143 00a4 48000000 		.4byte	.LFE20-.LFB20
 3144 00a8 00000000 		.4byte	.LFB21
 3145 00ac 20000000 		.4byte	.LFE21-.LFB21
ARM GAS  C:\Users\puria\AppData\Local\Temp\ccpsVPDq.s 			page 81


 3146 00b0 00000000 		.4byte	.LFB22
 3147 00b4 18000000 		.4byte	.LFE22-.LFB22
 3148 00b8 00000000 		.4byte	.LFB23
 3149 00bc 4C000000 		.4byte	.LFE23-.LFB23
 3150 00c0 00000000 		.4byte	.LFB24
 3151 00c4 20000000 		.4byte	.LFE24-.LFB24
 3152 00c8 00000000 		.4byte	.LFB25
 3153 00cc 18000000 		.4byte	.LFE25-.LFB25
 3154 00d0 00000000 		.4byte	.LFB26
 3155 00d4 20000000 		.4byte	.LFE26-.LFB26
 3156 00d8 00000000 		.4byte	.LFB27
 3157 00dc 18000000 		.4byte	.LFE27-.LFB27
 3158 00e0 00000000 		.4byte	.LFB28
 3159 00e4 18000000 		.4byte	.LFE28-.LFB28
 3160 00e8 00000000 		.4byte	.LFB29
 3161 00ec 18000000 		.4byte	.LFE29-.LFB29
 3162 00f0 00000000 		.4byte	.LFB30
 3163 00f4 44000000 		.4byte	.LFE30-.LFB30
 3164 00f8 00000000 		.4byte	.LFB31
 3165 00fc 48000000 		.4byte	.LFE31-.LFB31
 3166 0100 00000000 		.4byte	.LFB32
 3167 0104 4C000000 		.4byte	.LFE32-.LFB32
 3168 0108 00000000 		.4byte	.LFB33
 3169 010c 48000000 		.4byte	.LFE33-.LFB33
 3170 0110 00000000 		.4byte	.LFB34
 3171 0114 48000000 		.4byte	.LFE34-.LFB34
 3172 0118 00000000 		.4byte	.LFB35
 3173 011c 3C000000 		.4byte	.LFE35-.LFB35
 3174 0120 00000000 		.4byte	.LFB36
 3175 0124 20000000 		.4byte	.LFE36-.LFB36
 3176 0128 00000000 		.4byte	.LFB37
 3177 012c 1C000000 		.4byte	.LFE37-.LFB37
 3178 0130 00000000 		.4byte	.LFB38
 3179 0134 14000000 		.4byte	.LFE38-.LFB38
 3180 0138 00000000 		.4byte	.LFB39
 3181 013c 14000000 		.4byte	.LFE39-.LFB39
 3182 0140 00000000 		.4byte	.LFB40
 3183 0144 1C000000 		.4byte	.LFE40-.LFB40
 3184 0148 00000000 		.4byte	.LFB41
 3185 014c 1C000000 		.4byte	.LFE41-.LFB41
 3186 0150 00000000 		.4byte	0
 3187 0154 00000000 		.4byte	0
 3188              		.section	.debug_ranges,"",%progbits
 3189              	.Ldebug_ranges0:
 3190 0000 00000000 		.4byte	.LFB2
 3191 0004 34000000 		.4byte	.LFE2
 3192 0008 00000000 		.4byte	.LFB3
 3193 000c 3C000000 		.4byte	.LFE3
 3194 0010 00000000 		.4byte	.LFB4
 3195 0014 24000000 		.4byte	.LFE4
 3196 0018 00000000 		.4byte	.LFB5
 3197 001c 34000000 		.4byte	.LFE5
 3198 0020 00000000 		.4byte	.LFB6
 3199 0024 48000000 		.4byte	.LFE6
 3200 0028 00000000 		.4byte	.LFB7
 3201 002c 48000000 		.4byte	.LFE7
 3202 0030 00000000 		.4byte	.LFB8
ARM GAS  C:\Users\puria\AppData\Local\Temp\ccpsVPDq.s 			page 82


 3203 0034 48000000 		.4byte	.LFE8
 3204 0038 00000000 		.4byte	.LFB9
 3205 003c 50000000 		.4byte	.LFE9
 3206 0040 00000000 		.4byte	.LFB10
 3207 0044 20000000 		.4byte	.LFE10
 3208 0048 00000000 		.4byte	.LFB11
 3209 004c 4C000000 		.4byte	.LFE11
 3210 0050 00000000 		.4byte	.LFB12
 3211 0054 4C000000 		.4byte	.LFE12
 3212 0058 00000000 		.4byte	.LFB13
 3213 005c 50000000 		.4byte	.LFE13
 3214 0060 00000000 		.4byte	.LFB14
 3215 0064 48000000 		.4byte	.LFE14
 3216 0068 00000000 		.4byte	.LFB15
 3217 006c 20000000 		.4byte	.LFE15
 3218 0070 00000000 		.4byte	.LFB16
 3219 0074 18000000 		.4byte	.LFE16
 3220 0078 00000000 		.4byte	.LFB17
 3221 007c 48000000 		.4byte	.LFE17
 3222 0080 00000000 		.4byte	.LFB18
 3223 0084 20000000 		.4byte	.LFE18
 3224 0088 00000000 		.4byte	.LFB19
 3225 008c 18000000 		.4byte	.LFE19
 3226 0090 00000000 		.4byte	.LFB20
 3227 0094 48000000 		.4byte	.LFE20
 3228 0098 00000000 		.4byte	.LFB21
 3229 009c 20000000 		.4byte	.LFE21
 3230 00a0 00000000 		.4byte	.LFB22
 3231 00a4 18000000 		.4byte	.LFE22
 3232 00a8 00000000 		.4byte	.LFB23
 3233 00ac 4C000000 		.4byte	.LFE23
 3234 00b0 00000000 		.4byte	.LFB24
 3235 00b4 20000000 		.4byte	.LFE24
 3236 00b8 00000000 		.4byte	.LFB25
 3237 00bc 18000000 		.4byte	.LFE25
 3238 00c0 00000000 		.4byte	.LFB26
 3239 00c4 20000000 		.4byte	.LFE26
 3240 00c8 00000000 		.4byte	.LFB27
 3241 00cc 18000000 		.4byte	.LFE27
 3242 00d0 00000000 		.4byte	.LFB28
 3243 00d4 18000000 		.4byte	.LFE28
 3244 00d8 00000000 		.4byte	.LFB29
 3245 00dc 18000000 		.4byte	.LFE29
 3246 00e0 00000000 		.4byte	.LFB30
 3247 00e4 44000000 		.4byte	.LFE30
 3248 00e8 00000000 		.4byte	.LFB31
 3249 00ec 48000000 		.4byte	.LFE31
 3250 00f0 00000000 		.4byte	.LFB32
 3251 00f4 4C000000 		.4byte	.LFE32
 3252 00f8 00000000 		.4byte	.LFB33
 3253 00fc 48000000 		.4byte	.LFE33
 3254 0100 00000000 		.4byte	.LFB34
 3255 0104 48000000 		.4byte	.LFE34
 3256 0108 00000000 		.4byte	.LFB35
 3257 010c 3C000000 		.4byte	.LFE35
 3258 0110 00000000 		.4byte	.LFB36
 3259 0114 20000000 		.4byte	.LFE36
ARM GAS  C:\Users\puria\AppData\Local\Temp\ccpsVPDq.s 			page 83


 3260 0118 00000000 		.4byte	.LFB37
 3261 011c 1C000000 		.4byte	.LFE37
 3262 0120 00000000 		.4byte	.LFB38
 3263 0124 14000000 		.4byte	.LFE38
 3264 0128 00000000 		.4byte	.LFB39
 3265 012c 14000000 		.4byte	.LFE39
 3266 0130 00000000 		.4byte	.LFB40
 3267 0134 1C000000 		.4byte	.LFE40
 3268 0138 00000000 		.4byte	.LFB41
 3269 013c 1C000000 		.4byte	.LFE41
 3270 0140 00000000 		.4byte	0
 3271 0144 00000000 		.4byte	0
 3272              		.section	.debug_line,"",%progbits
 3273              	.Ldebug_line0:
 3274 0000 6C030000 		.section	.debug_str,"MS",%progbits,1
 3274      02004400 
 3274      00000201 
 3274      FB0E0D00 
 3274      01010101 
 3275              	.LASF32:
 3276 0000 54435057 		.ascii	"TCPWM_1_SetPWMSyncKill\000"
 3276      4D5F315F 
 3276      53657450 
 3276      574D5379 
 3276      6E634B69 
 3277              	.LASF61:
 3278 0017 54435057 		.ascii	"TCPWM_1_ReadCaptureBuf\000"
 3278      4D5F315F 
 3278      52656164 
 3278      43617074 
 3278      75726542 
 3279              	.LASF79:
 3280 002e 433A5C55 		.ascii	"C:\\Users\\puria\\Documents\\GitHub\\able\\psoc\\mu"
 3280      73657273 
 3280      5C707572 
 3280      69615C44 
 3280      6F63756D 
 3281 005a 6C746963 		.ascii	"lticon_ble.cydsn\000"
 3281      6F6E5F62 
 3281      6C652E63 
 3281      7964736E 
 3281      00
 3282              	.LASF22:
 3283 006b 54435057 		.ascii	"TCPWM_1_SetMode\000"
 3283      4D5F315F 
 3283      5365744D 
 3283      6F646500 
 3284              	.LASF23:
 3285 007b 54435057 		.ascii	"TCPWM_1_SetQDMode\000"
 3285      4D5F315F 
 3285      53657451 
 3285      444D6F64 
 3285      6500
 3286              	.LASF26:
 3287 008d 54435057 		.ascii	"TCPWM_1_SetPrescaler\000"
 3287      4D5F315F 
 3287      53657450 
ARM GAS  C:\Users\puria\AppData\Local\Temp\ccpsVPDq.s 			page 84


 3287      72657363 
 3287      616C6572 
 3288              	.LASF40:
 3289 00a2 54435057 		.ascii	"TCPWM_1_WriteCounter\000"
 3289      4D5F315F 
 3289      57726974 
 3289      65436F75 
 3289      6E746572 
 3290              	.LASF7:
 3291 00b7 6C6F6E67 		.ascii	"long long unsigned int\000"
 3291      206C6F6E 
 3291      6720756E 
 3291      7369676E 
 3291      65642069 
 3292              	.LASF80:
 3293 00ce 54435057 		.ascii	"TCPWM_1_initVar\000"
 3293      4D5F315F 
 3293      696E6974 
 3293      56617200 
 3294              	.LASF20:
 3295 00de 54435057 		.ascii	"TCPWM_1_Stop\000"
 3295      4D5F315F 
 3295      53746F70 
 3295      00
 3296              	.LASF48:
 3297 00eb 54435057 		.ascii	"TCPWM_1_SetCompareSwap\000"
 3297      4D5F315F 
 3297      53657443 
 3297      6F6D7061 
 3297      72655377 
 3298              	.LASF6:
 3299 0102 6C6F6E67 		.ascii	"long long int\000"
 3299      206C6F6E 
 3299      6720696E 
 3299      7400
 3300              	.LASF0:
 3301 0110 7369676E 		.ascii	"signed char\000"
 3301      65642063 
 3301      68617200 
 3302              	.LASF56:
 3303 011c 54435057 		.ascii	"TCPWM_1_ReadCompare\000"
 3303      4D5F315F 
 3303      52656164 
 3303      436F6D70 
 3303      61726500 
 3304              	.LASF25:
 3305 0130 71644D6F 		.ascii	"qdMode\000"
 3305      646500
 3306              	.LASF4:
 3307 0137 6C6F6E67 		.ascii	"long int\000"
 3307      20696E74 
 3307      00
 3308              	.LASF57:
 3309 0140 54435057 		.ascii	"TCPWM_1_WriteCompareBuf\000"
 3309      4D5F315F 
 3309      57726974 
 3309      65436F6D 
ARM GAS  C:\Users\puria\AppData\Local\Temp\ccpsVPDq.s 			page 85


 3309      70617265 
 3310              	.LASF9:
 3311 0158 75696E74 		.ascii	"uint8\000"
 3311      3800
 3312              	.LASF75:
 3313 015e 54435057 		.ascii	"TCPWM_1_ClearInterrupt\000"
 3313      4D5F315F 
 3313      436C6561 
 3313      72496E74 
 3313      65727275 
 3314              	.LASF12:
 3315 0175 646F7562 		.ascii	"double\000"
 3315      6C6500
 3316              	.LASF10:
 3317 017c 75696E74 		.ascii	"uint32\000"
 3317      333200
 3318              	.LASF41:
 3319 0183 636F756E 		.ascii	"count\000"
 3319      7400
 3320              	.LASF63:
 3321 0189 74726967 		.ascii	"triggerMode\000"
 3321      6765724D 
 3321      6F646500 
 3322              	.LASF39:
 3323 0195 6D61736B 		.ascii	"mask\000"
 3323      00
 3324              	.LASF34:
 3325 019a 54435057 		.ascii	"TCPWM_1_SetPWMStopOnKill\000"
 3325      4D5F315F 
 3325      53657450 
 3325      574D5374 
 3325      6F704F6E 
 3326              	.LASF46:
 3327 01b3 54435057 		.ascii	"TCPWM_1_ReadCounter\000"
 3327      4D5F315F 
 3327      52656164 
 3327      436F756E 
 3327      74657200 
 3328              	.LASF37:
 3329 01c7 64656164 		.ascii	"deadTime\000"
 3329      54696D65 
 3329      00
 3330              	.LASF73:
 3331 01d0 54435057 		.ascii	"TCPWM_1_GetInterruptSourceMasked\000"
 3331      4D5F315F 
 3331      47657449 
 3331      6E746572 
 3331      72757074 
 3332              	.LASF8:
 3333 01f1 756E7369 		.ascii	"unsigned int\000"
 3333      676E6564 
 3333      20696E74 
 3333      00
 3334              	.LASF68:
 3335 01fe 54435057 		.ascii	"TCPWM_1_TriggerCommand\000"
 3335      4D5F315F 
 3335      54726967 
ARM GAS  C:\Users\puria\AppData\Local\Temp\ccpsVPDq.s 			page 86


 3335      67657243 
 3335      6F6D6D61 
 3336              	.LASF69:
 3337 0215 636F6D6D 		.ascii	"command\000"
 3337      616E6400 
 3338              	.LASF5:
 3339 021d 6C6F6E67 		.ascii	"long unsigned int\000"
 3339      20756E73 
 3339      69676E65 
 3339      6420696E 
 3339      7400
 3340              	.LASF31:
 3341 022f 6D6F6465 		.ascii	"modeMask\000"
 3341      4D61736B 
 3341      00
 3342              	.LASF3:
 3343 0238 73686F72 		.ascii	"short unsigned int\000"
 3343      7420756E 
 3343      7369676E 
 3343      65642069 
 3343      6E7400
 3344              	.LASF29:
 3345 024b 6F6E6553 		.ascii	"oneShotEnable\000"
 3345      686F7445 
 3345      6E61626C 
 3345      6500
 3346              	.LASF76:
 3347 0259 54435057 		.ascii	"TCPWM_1_SetInterrupt\000"
 3347      4D5F315F 
 3347      53657449 
 3347      6E746572 
 3347      72757074 
 3348              	.LASF77:
 3349 026e 474E5520 		.ascii	"GNU C11 5.4.1 20160609 (release) [ARM/embedded-5-br"
 3349      43313120 
 3349      352E342E 
 3349      31203230 
 3349      31363036 
 3350 02a1 616E6368 		.ascii	"anch revision 237715] -mcpu=cortex-m0 -mthumb -g -O"
 3350      20726576 
 3350      6973696F 
 3350      6E203233 
 3350      37373135 
 3351 02d4 30202D66 		.ascii	"0 -ffunction-sections -ffat-lto-objects\000"
 3351      66756E63 
 3351      74696F6E 
 3351      2D736563 
 3351      74696F6E 
 3352              	.LASF28:
 3353 02fc 54435057 		.ascii	"TCPWM_1_SetOneShot\000"
 3353      4D5F315F 
 3353      5365744F 
 3353      6E655368 
 3353      6F7400
 3354              	.LASF14:
 3355 030f 72656733 		.ascii	"reg32\000"
 3355      3200
ARM GAS  C:\Users\puria\AppData\Local\Temp\ccpsVPDq.s 			page 87


 3356              	.LASF66:
 3357 0315 54435057 		.ascii	"TCPWM_1_SetStopMode\000"
 3357      4D5F315F 
 3357      53657453 
 3357      746F704D 
 3357      6F646500 
 3358              	.LASF19:
 3359 0329 54435057 		.ascii	"TCPWM_1_Enable\000"
 3359      4D5F315F 
 3359      456E6162 
 3359      6C6500
 3360              	.LASF16:
 3361 0338 73697A65 		.ascii	"sizetype\000"
 3361      74797065 
 3361      00
 3362              	.LASF15:
 3363 0341 6C6F6E67 		.ascii	"long double\000"
 3363      20646F75 
 3363      626C6500 
 3364              	.LASF17:
 3365 034d 54435057 		.ascii	"TCPWM_1_Init\000"
 3365      4D5F315F 
 3365      496E6974 
 3365      00
 3366              	.LASF36:
 3367 035a 54435057 		.ascii	"TCPWM_1_SetPWMDeadTime\000"
 3367      4D5F315F 
 3367      53657450 
 3367      574D4465 
 3367      61645469 
 3368              	.LASF70:
 3369 0371 54435057 		.ascii	"TCPWM_1_ReadStatus\000"
 3369      4D5F315F 
 3369      52656164 
 3369      53746174 
 3369      757300
 3370              	.LASF55:
 3371 0384 636F6D70 		.ascii	"compare\000"
 3371      61726500 
 3372              	.LASF18:
 3373 038c 54435057 		.ascii	"TCPWM_1_Start\000"
 3373      4D5F315F 
 3373      53746172 
 3373      7400
 3374              	.LASF67:
 3375 039a 54435057 		.ascii	"TCPWM_1_SetCountMode\000"
 3375      4D5F315F 
 3375      53657443 
 3375      6F756E74 
 3375      4D6F6465 
 3376              	.LASF11:
 3377 03af 666C6F61 		.ascii	"float\000"
 3377      7400
 3378              	.LASF27:
 3379 03b5 70726573 		.ascii	"prescaler\000"
 3379      63616C65 
 3379      7200
ARM GAS  C:\Users\puria\AppData\Local\Temp\ccpsVPDq.s 			page 88


 3380              	.LASF78:
 3381 03bf 47656E65 		.ascii	"Generated_Source\\PSoC4\\TCPWM_1.c\000"
 3381      72617465 
 3381      645F536F 
 3381      75726365 
 3381      5C50536F 
 3382              	.LASF44:
 3383 03e0 54435057 		.ascii	"TCPWM_1_WritePeriod\000"
 3383      4D5F315F 
 3383      57726974 
 3383      65506572 
 3383      696F6400 
 3384              	.LASF50:
 3385 03f4 54435057 		.ascii	"TCPWM_1_WritePeriodBuf\000"
 3385      4D5F315F 
 3385      57726974 
 3385      65506572 
 3385      696F6442 
 3386              	.LASF1:
 3387 040b 756E7369 		.ascii	"unsigned char\000"
 3387      676E6564 
 3387      20636861 
 3387      7200
 3388              	.LASF54:
 3389 0419 54435057 		.ascii	"TCPWM_1_WriteCompare\000"
 3389      4D5F315F 
 3389      57726974 
 3389      65436F6D 
 3389      70617265 
 3390              	.LASF35:
 3391 042e 73746F70 		.ascii	"stopOnKillEnable\000"
 3391      4F6E4B69 
 3391      6C6C456E 
 3391      61626C65 
 3391      00
 3392              	.LASF74:
 3393 043f 54435057 		.ascii	"TCPWM_1_GetInterruptSource\000"
 3393      4D5F315F 
 3393      47657449 
 3393      6E746572 
 3393      72757074 
 3394              	.LASF2:
 3395 045a 73686F72 		.ascii	"short int\000"
 3395      7420696E 
 3395      7400
 3396              	.LASF52:
 3397 0464 54435057 		.ascii	"TCPWM_1_ReadPeriodBuf\000"
 3397      4D5F315F 
 3397      52656164 
 3397      50657269 
 3397      6F644275 
 3398              	.LASF72:
 3399 047a 696E7465 		.ascii	"interruptMask\000"
 3399      72727570 
 3399      744D6173 
 3399      6B00
 3400              	.LASF59:
ARM GAS  C:\Users\puria\AppData\Local\Temp\ccpsVPDq.s 			page 89


 3401 0488 54435057 		.ascii	"TCPWM_1_ReadCompareBuf\000"
 3401      4D5F315F 
 3401      52656164 
 3401      436F6D70 
 3401      61726542 
 3402              	.LASF47:
 3403 049f 54435057 		.ascii	"TCPWM_1_ReadPeriod\000"
 3403      4D5F315F 
 3403      52656164 
 3403      50657269 
 3403      6F6400
 3404              	.LASF53:
 3405 04b2 54435057 		.ascii	"TCPWM_1_SetPeriodSwap\000"
 3405      4D5F315F 
 3405      53657450 
 3405      6572696F 
 3405      64537761 
 3406              	.LASF13:
 3407 04c8 63686172 		.ascii	"char\000"
 3407      00
 3408              	.LASF24:
 3409 04cd 6D6F6465 		.ascii	"mode\000"
 3409      00
 3410              	.LASF60:
 3411 04d2 54435057 		.ascii	"TCPWM_1_ReadCapture\000"
 3411      4D5F315F 
 3411      52656164 
 3411      43617074 
 3411      75726500 
 3412              	.LASF43:
 3413 04e6 636F756E 		.ascii	"counterMode\000"
 3413      7465724D 
 3413      6F646500 
 3414              	.LASF45:
 3415 04f2 70657269 		.ascii	"period\000"
 3415      6F6400
 3416              	.LASF71:
 3417 04f9 54435057 		.ascii	"TCPWM_1_SetInterruptMode\000"
 3417      4D5F315F 
 3417      53657449 
 3417      6E746572 
 3417      72757074 
 3418              	.LASF58:
 3419 0512 636F6D70 		.ascii	"compareBuf\000"
 3419      61726542 
 3419      756600
 3420              	.LASF21:
 3421 051d 656E6162 		.ascii	"enableInterrupts\000"
 3421      6C65496E 
 3421      74657272 
 3421      75707473 
 3421      00
 3422              	.LASF42:
 3423 052e 54435057 		.ascii	"TCPWM_1_SetCounterMode\000"
 3423      4D5F315F 
 3423      53657443 
 3423      6F756E74 
ARM GAS  C:\Users\puria\AppData\Local\Temp\ccpsVPDq.s 			page 90


 3423      65724D6F 
 3424              	.LASF30:
 3425 0545 54435057 		.ascii	"TCPWM_1_SetPWMMode\000"
 3425      4D5F315F 
 3425      53657450 
 3425      574D4D6F 
 3425      646500
 3426              	.LASF38:
 3427 0558 54435057 		.ascii	"TCPWM_1_SetPWMInvert\000"
 3427      4D5F315F 
 3427      53657450 
 3427      574D496E 
 3427      76657274 
 3428              	.LASF33:
 3429 056d 73796E63 		.ascii	"syncKillEnable\000"
 3429      4B696C6C 
 3429      456E6162 
 3429      6C6500
 3430              	.LASF64:
 3431 057c 54435057 		.ascii	"TCPWM_1_SetReloadMode\000"
 3431      4D5F315F 
 3431      53657452 
 3431      656C6F61 
 3431      644D6F64 
 3432              	.LASF65:
 3433 0592 54435057 		.ascii	"TCPWM_1_SetStartMode\000"
 3433      4D5F315F 
 3433      53657453 
 3433      74617274 
 3433      4D6F6465 
 3434              	.LASF49:
 3435 05a7 73776170 		.ascii	"swapEnable\000"
 3435      456E6162 
 3435      6C6500
 3436              	.LASF51:
 3437 05b2 70657269 		.ascii	"periodBuf\000"
 3437      6F644275 
 3437      6600
 3438              	.LASF62:
 3439 05bc 54435057 		.ascii	"TCPWM_1_SetCaptureMode\000"
 3439      4D5F315F 
 3439      53657443 
 3439      61707475 
 3439      72654D6F 
 3440              		.ident	"GCC: (GNU Tools for ARM Embedded Processors) 5.4.1 20160609 (release) [ARM/embedded-5-bran
