ARM GAS  C:\Users\puria\AppData\Local\Temp\ccpsVPDq.s 			page 1


   1              		.syntax unified
   2              		.cpu cortex-m0
   3              		.fpu softvfp
   4              		.eabi_attribute 20, 1
   5              		.eabi_attribute 21, 1
   6              		.eabi_attribute 23, 3
   7              		.eabi_attribute 24, 1
   8              		.eabi_attribute 25, 1
   9              		.eabi_attribute 26, 1
  10              		.eabi_attribute 30, 6
  11              		.eabi_attribute 34, 0
  12              		.eabi_attribute 18, 4
  13              		.thumb
  14              		.syntax unified
  15              		.file	"TCPWM_1.c"
  16              		.text
  17              	.Ltext0:
  18              		.cfi_sections	.debug_frame
  19              		.global	TCPWM_1_initVar
  20              		.bss
  21              		.type	TCPWM_1_initVar, %object
  22              		.size	TCPWM_1_initVar, 1
  23              	TCPWM_1_initVar:
  24 0000 00       		.space	1
  25              		.section	.text.TCPWM_1_Init,"ax",%progbits
  26              		.align	2
  27              		.global	TCPWM_1_Init
  28              		.code	16
  29              		.thumb_func
  30              		.type	TCPWM_1_Init, %function
  31              	TCPWM_1_Init:
  32              	.LFB2:
  33              		.file 1 "Generated_Source\\PSoC4\\TCPWM_1.c"
   1:Generated_Source\PSoC4/TCPWM_1.c **** /*******************************************************************************
   2:Generated_Source\PSoC4/TCPWM_1.c **** * File Name: TCPWM_1.c
   3:Generated_Source\PSoC4/TCPWM_1.c **** * Version 2.10
   4:Generated_Source\PSoC4/TCPWM_1.c **** *
   5:Generated_Source\PSoC4/TCPWM_1.c **** * Description:
   6:Generated_Source\PSoC4/TCPWM_1.c **** *  This file provides the source code to the API for the TCPWM_1
   7:Generated_Source\PSoC4/TCPWM_1.c **** *  component
   8:Generated_Source\PSoC4/TCPWM_1.c **** *
   9:Generated_Source\PSoC4/TCPWM_1.c **** * Note:
  10:Generated_Source\PSoC4/TCPWM_1.c **** *  None
  11:Generated_Source\PSoC4/TCPWM_1.c **** *
  12:Generated_Source\PSoC4/TCPWM_1.c **** ********************************************************************************
  13:Generated_Source\PSoC4/TCPWM_1.c **** * Copyright 2013-2015, Cypress Semiconductor Corporation.  All rights reserved.
  14:Generated_Source\PSoC4/TCPWM_1.c **** * You may use this file only in accordance with the license, terms, conditions,
  15:Generated_Source\PSoC4/TCPWM_1.c **** * disclaimers, and limitations in the end user license agreement accompanying
  16:Generated_Source\PSoC4/TCPWM_1.c **** * the software package with which this file was provided.
  17:Generated_Source\PSoC4/TCPWM_1.c **** *******************************************************************************/
  18:Generated_Source\PSoC4/TCPWM_1.c **** 
  19:Generated_Source\PSoC4/TCPWM_1.c **** #include "TCPWM_1.h"
  20:Generated_Source\PSoC4/TCPWM_1.c **** 
  21:Generated_Source\PSoC4/TCPWM_1.c **** uint8 TCPWM_1_initVar = 0u;
  22:Generated_Source\PSoC4/TCPWM_1.c **** 
  23:Generated_Source\PSoC4/TCPWM_1.c **** 
  24:Generated_Source\PSoC4/TCPWM_1.c **** /*******************************************************************************
ARM GAS  C:\Users\puria\AppData\Local\Temp\ccpsVPDq.s 			page 2


  25:Generated_Source\PSoC4/TCPWM_1.c **** * Function Name: TCPWM_1_Init
  26:Generated_Source\PSoC4/TCPWM_1.c **** ********************************************************************************
  27:Generated_Source\PSoC4/TCPWM_1.c **** *
  28:Generated_Source\PSoC4/TCPWM_1.c **** * Summary:
  29:Generated_Source\PSoC4/TCPWM_1.c **** *  Initialize/Restore default TCPWM_1 configuration.
  30:Generated_Source\PSoC4/TCPWM_1.c **** *
  31:Generated_Source\PSoC4/TCPWM_1.c **** * Parameters:
  32:Generated_Source\PSoC4/TCPWM_1.c **** *  None
  33:Generated_Source\PSoC4/TCPWM_1.c **** *
  34:Generated_Source\PSoC4/TCPWM_1.c **** * Return:
  35:Generated_Source\PSoC4/TCPWM_1.c **** *  None
  36:Generated_Source\PSoC4/TCPWM_1.c **** *
  37:Generated_Source\PSoC4/TCPWM_1.c **** *******************************************************************************/
  38:Generated_Source\PSoC4/TCPWM_1.c **** void TCPWM_1_Init(void)
  39:Generated_Source\PSoC4/TCPWM_1.c **** {
  34              		.loc 1 39 0
  35              		.cfi_startproc
  36              		@ args = 0, pretend = 0, frame = 0
  37              		@ frame_needed = 1, uses_anonymous_args = 0
  38 0000 80B5     		push	{r7, lr}
  39              		.cfi_def_cfa_offset 8
  40              		.cfi_offset 7, -8
  41              		.cfi_offset 14, -4
  42 0002 00AF     		add	r7, sp, #0
  43              		.cfi_def_cfa_register 7
  40:Generated_Source\PSoC4/TCPWM_1.c **** 
  41:Generated_Source\PSoC4/TCPWM_1.c ****     /* Set values from customizer to CTRL */
  42:Generated_Source\PSoC4/TCPWM_1.c ****     #if (TCPWM_1__QUAD == TCPWM_1_CONFIG)
  43:Generated_Source\PSoC4/TCPWM_1.c ****         TCPWM_1_CONTROL_REG = TCPWM_1_CTRL_QUAD_BASE_CONFIG;
  44:Generated_Source\PSoC4/TCPWM_1.c ****         
  45:Generated_Source\PSoC4/TCPWM_1.c ****         /* Set values from customizer to CTRL1 */
  46:Generated_Source\PSoC4/TCPWM_1.c ****         TCPWM_1_TRIG_CONTROL1_REG  = TCPWM_1_QUAD_SIGNALS_MODES;
  47:Generated_Source\PSoC4/TCPWM_1.c **** 
  48:Generated_Source\PSoC4/TCPWM_1.c ****         /* Set values from customizer to INTR */
  49:Generated_Source\PSoC4/TCPWM_1.c ****         TCPWM_1_SetInterruptMode(TCPWM_1_QUAD_INTERRUPT_MASK);
  50:Generated_Source\PSoC4/TCPWM_1.c ****         
  51:Generated_Source\PSoC4/TCPWM_1.c ****          /* Set other values */
  52:Generated_Source\PSoC4/TCPWM_1.c ****         TCPWM_1_SetCounterMode(TCPWM_1_COUNT_DOWN);
  53:Generated_Source\PSoC4/TCPWM_1.c ****         TCPWM_1_WritePeriod(TCPWM_1_QUAD_PERIOD_INIT_VALUE);
  54:Generated_Source\PSoC4/TCPWM_1.c ****         TCPWM_1_WriteCounter(TCPWM_1_QUAD_PERIOD_INIT_VALUE);
  55:Generated_Source\PSoC4/TCPWM_1.c ****     #endif  /* (TCPWM_1__QUAD == TCPWM_1_CONFIG) */
  56:Generated_Source\PSoC4/TCPWM_1.c **** 
  57:Generated_Source\PSoC4/TCPWM_1.c ****     #if (TCPWM_1__TIMER == TCPWM_1_CONFIG)
  58:Generated_Source\PSoC4/TCPWM_1.c ****         TCPWM_1_CONTROL_REG = TCPWM_1_CTRL_TIMER_BASE_CONFIG;
  44              		.loc 1 58 0
  45 0004 094B     		ldr	r3, .L2
  46 0006 8022     		movs	r2, #128
  47 0008 9204     		lsls	r2, r2, #18
  48 000a 1A60     		str	r2, [r3]
  59:Generated_Source\PSoC4/TCPWM_1.c ****         
  60:Generated_Source\PSoC4/TCPWM_1.c ****         /* Set values from customizer to CTRL1 */
  61:Generated_Source\PSoC4/TCPWM_1.c ****         TCPWM_1_TRIG_CONTROL1_REG  = TCPWM_1_TIMER_SIGNALS_MODES;
  49              		.loc 1 61 0
  50 000c 084B     		ldr	r3, .L2+4
  51 000e 0C22     		movs	r2, #12
  52 0010 1A60     		str	r2, [r3]
  62:Generated_Source\PSoC4/TCPWM_1.c ****     
ARM GAS  C:\Users\puria\AppData\Local\Temp\ccpsVPDq.s 			page 3


  63:Generated_Source\PSoC4/TCPWM_1.c ****         /* Set values from customizer to INTR */
  64:Generated_Source\PSoC4/TCPWM_1.c ****         TCPWM_1_SetInterruptMode(TCPWM_1_TC_INTERRUPT_MASK);
  53              		.loc 1 64 0
  54 0012 0120     		movs	r0, #1
  55 0014 FFF7FEFF 		bl	TCPWM_1_SetInterruptMode
  65:Generated_Source\PSoC4/TCPWM_1.c ****         
  66:Generated_Source\PSoC4/TCPWM_1.c ****         /* Set other values from customizer */
  67:Generated_Source\PSoC4/TCPWM_1.c ****         TCPWM_1_WritePeriod(TCPWM_1_TC_PERIOD_VALUE );
  56              		.loc 1 67 0
  57 0018 2020     		movs	r0, #32
  58 001a FFF7FEFF 		bl	TCPWM_1_WritePeriod
  68:Generated_Source\PSoC4/TCPWM_1.c **** 
  69:Generated_Source\PSoC4/TCPWM_1.c ****         #if (TCPWM_1__COMPARE == TCPWM_1_TC_COMP_CAP_MODE)
  70:Generated_Source\PSoC4/TCPWM_1.c ****             TCPWM_1_WriteCompare(TCPWM_1_TC_COMPARE_VALUE);
  71:Generated_Source\PSoC4/TCPWM_1.c **** 
  72:Generated_Source\PSoC4/TCPWM_1.c ****             #if (1u == TCPWM_1_TC_COMPARE_SWAP)
  73:Generated_Source\PSoC4/TCPWM_1.c ****                 TCPWM_1_SetCompareSwap(1u);
  74:Generated_Source\PSoC4/TCPWM_1.c ****                 TCPWM_1_WriteCompareBuf(TCPWM_1_TC_COMPARE_BUF_VALUE);
  75:Generated_Source\PSoC4/TCPWM_1.c ****             #endif  /* (1u == TCPWM_1_TC_COMPARE_SWAP) */
  76:Generated_Source\PSoC4/TCPWM_1.c ****         #endif  /* (TCPWM_1__COMPARE == TCPWM_1_TC_COMP_CAP_MODE) */
  77:Generated_Source\PSoC4/TCPWM_1.c **** 
  78:Generated_Source\PSoC4/TCPWM_1.c ****         /* Initialize counter value */
  79:Generated_Source\PSoC4/TCPWM_1.c ****         #if (TCPWM_1_CY_TCPWM_V2 && TCPWM_1_TIMER_UPDOWN_CNT_USED && !TCPWM_1_CY_TCPWM_4000)
  80:Generated_Source\PSoC4/TCPWM_1.c ****             TCPWM_1_WriteCounter(1u);
  81:Generated_Source\PSoC4/TCPWM_1.c ****         #elif(TCPWM_1__COUNT_DOWN == TCPWM_1_TC_COUNTER_MODE)
  82:Generated_Source\PSoC4/TCPWM_1.c ****             TCPWM_1_WriteCounter(TCPWM_1_TC_PERIOD_VALUE);
  83:Generated_Source\PSoC4/TCPWM_1.c ****         #else
  84:Generated_Source\PSoC4/TCPWM_1.c ****             TCPWM_1_WriteCounter(0u);
  59              		.loc 1 84 0
  60 001e 0020     		movs	r0, #0
  61 0020 FFF7FEFF 		bl	TCPWM_1_WriteCounter
  85:Generated_Source\PSoC4/TCPWM_1.c ****         #endif /* (TCPWM_1_CY_TCPWM_V2 && TCPWM_1_TIMER_UPDOWN_CNT_USED && !TCPWM_1_CY_TCPWM_4000) 
  86:Generated_Source\PSoC4/TCPWM_1.c ****     #endif  /* (TCPWM_1__TIMER == TCPWM_1_CONFIG) */
  87:Generated_Source\PSoC4/TCPWM_1.c **** 
  88:Generated_Source\PSoC4/TCPWM_1.c ****     #if (TCPWM_1__PWM_SEL == TCPWM_1_CONFIG)
  89:Generated_Source\PSoC4/TCPWM_1.c ****         TCPWM_1_CONTROL_REG = TCPWM_1_CTRL_PWM_BASE_CONFIG;
  90:Generated_Source\PSoC4/TCPWM_1.c **** 
  91:Generated_Source\PSoC4/TCPWM_1.c ****         #if (TCPWM_1__PWM_PR == TCPWM_1_PWM_MODE)
  92:Generated_Source\PSoC4/TCPWM_1.c ****             TCPWM_1_CONTROL_REG |= TCPWM_1_CTRL_PWM_RUN_MODE;
  93:Generated_Source\PSoC4/TCPWM_1.c ****             TCPWM_1_WriteCounter(TCPWM_1_PWM_PR_INIT_VALUE);
  94:Generated_Source\PSoC4/TCPWM_1.c ****         #else
  95:Generated_Source\PSoC4/TCPWM_1.c ****             TCPWM_1_CONTROL_REG |= TCPWM_1_CTRL_PWM_ALIGN | TCPWM_1_CTRL_PWM_KILL_EVENT;
  96:Generated_Source\PSoC4/TCPWM_1.c ****             
  97:Generated_Source\PSoC4/TCPWM_1.c ****             /* Initialize counter value */
  98:Generated_Source\PSoC4/TCPWM_1.c ****             #if (TCPWM_1_CY_TCPWM_V2 && TCPWM_1_PWM_UPDOWN_CNT_USED && !TCPWM_1_CY_TCPWM_4000)
  99:Generated_Source\PSoC4/TCPWM_1.c ****                 TCPWM_1_WriteCounter(1u);
 100:Generated_Source\PSoC4/TCPWM_1.c ****             #elif (TCPWM_1__RIGHT == TCPWM_1_PWM_ALIGN)
 101:Generated_Source\PSoC4/TCPWM_1.c ****                 TCPWM_1_WriteCounter(TCPWM_1_PWM_PERIOD_VALUE);
 102:Generated_Source\PSoC4/TCPWM_1.c ****             #else 
 103:Generated_Source\PSoC4/TCPWM_1.c ****                 TCPWM_1_WriteCounter(0u);
 104:Generated_Source\PSoC4/TCPWM_1.c ****             #endif  /* (TCPWM_1_CY_TCPWM_V2 && TCPWM_1_PWM_UPDOWN_CNT_USED && !TCPWM_1_CY_TCPWM_400
 105:Generated_Source\PSoC4/TCPWM_1.c ****         #endif  /* (TCPWM_1__PWM_PR == TCPWM_1_PWM_MODE) */
 106:Generated_Source\PSoC4/TCPWM_1.c **** 
 107:Generated_Source\PSoC4/TCPWM_1.c ****         #if (TCPWM_1__PWM_DT == TCPWM_1_PWM_MODE)
 108:Generated_Source\PSoC4/TCPWM_1.c ****             TCPWM_1_CONTROL_REG |= TCPWM_1_CTRL_PWM_DEAD_TIME_CYCLE;
 109:Generated_Source\PSoC4/TCPWM_1.c ****         #endif  /* (TCPWM_1__PWM_DT == TCPWM_1_PWM_MODE) */
 110:Generated_Source\PSoC4/TCPWM_1.c **** 
ARM GAS  C:\Users\puria\AppData\Local\Temp\ccpsVPDq.s 			page 4


 111:Generated_Source\PSoC4/TCPWM_1.c ****         #if (TCPWM_1__PWM == TCPWM_1_PWM_MODE)
 112:Generated_Source\PSoC4/TCPWM_1.c ****             TCPWM_1_CONTROL_REG |= TCPWM_1_CTRL_PWM_PRESCALER;
 113:Generated_Source\PSoC4/TCPWM_1.c ****         #endif  /* (TCPWM_1__PWM == TCPWM_1_PWM_MODE) */
 114:Generated_Source\PSoC4/TCPWM_1.c **** 
 115:Generated_Source\PSoC4/TCPWM_1.c ****         /* Set values from customizer to CTRL1 */
 116:Generated_Source\PSoC4/TCPWM_1.c ****         TCPWM_1_TRIG_CONTROL1_REG  = TCPWM_1_PWM_SIGNALS_MODES;
 117:Generated_Source\PSoC4/TCPWM_1.c ****     
 118:Generated_Source\PSoC4/TCPWM_1.c ****         /* Set values from customizer to INTR */
 119:Generated_Source\PSoC4/TCPWM_1.c ****         TCPWM_1_SetInterruptMode(TCPWM_1_PWM_INTERRUPT_MASK);
 120:Generated_Source\PSoC4/TCPWM_1.c **** 
 121:Generated_Source\PSoC4/TCPWM_1.c ****         /* Set values from customizer to CTRL2 */
 122:Generated_Source\PSoC4/TCPWM_1.c ****         #if (TCPWM_1__PWM_PR == TCPWM_1_PWM_MODE)
 123:Generated_Source\PSoC4/TCPWM_1.c ****             TCPWM_1_TRIG_CONTROL2_REG =
 124:Generated_Source\PSoC4/TCPWM_1.c ****                     (TCPWM_1_CC_MATCH_NO_CHANGE    |
 125:Generated_Source\PSoC4/TCPWM_1.c ****                     TCPWM_1_OVERLOW_NO_CHANGE      |
 126:Generated_Source\PSoC4/TCPWM_1.c ****                     TCPWM_1_UNDERFLOW_NO_CHANGE);
 127:Generated_Source\PSoC4/TCPWM_1.c ****         #else
 128:Generated_Source\PSoC4/TCPWM_1.c ****             #if (TCPWM_1__LEFT == TCPWM_1_PWM_ALIGN)
 129:Generated_Source\PSoC4/TCPWM_1.c ****                 TCPWM_1_TRIG_CONTROL2_REG = TCPWM_1_PWM_MODE_LEFT;
 130:Generated_Source\PSoC4/TCPWM_1.c ****             #endif  /* ( TCPWM_1_PWM_LEFT == TCPWM_1_PWM_ALIGN) */
 131:Generated_Source\PSoC4/TCPWM_1.c **** 
 132:Generated_Source\PSoC4/TCPWM_1.c ****             #if (TCPWM_1__RIGHT == TCPWM_1_PWM_ALIGN)
 133:Generated_Source\PSoC4/TCPWM_1.c ****                 TCPWM_1_TRIG_CONTROL2_REG = TCPWM_1_PWM_MODE_RIGHT;
 134:Generated_Source\PSoC4/TCPWM_1.c ****             #endif  /* ( TCPWM_1_PWM_RIGHT == TCPWM_1_PWM_ALIGN) */
 135:Generated_Source\PSoC4/TCPWM_1.c **** 
 136:Generated_Source\PSoC4/TCPWM_1.c ****             #if (TCPWM_1__CENTER == TCPWM_1_PWM_ALIGN)
 137:Generated_Source\PSoC4/TCPWM_1.c ****                 TCPWM_1_TRIG_CONTROL2_REG = TCPWM_1_PWM_MODE_CENTER;
 138:Generated_Source\PSoC4/TCPWM_1.c ****             #endif  /* ( TCPWM_1_PWM_CENTER == TCPWM_1_PWM_ALIGN) */
 139:Generated_Source\PSoC4/TCPWM_1.c **** 
 140:Generated_Source\PSoC4/TCPWM_1.c ****             #if (TCPWM_1__ASYMMETRIC == TCPWM_1_PWM_ALIGN)
 141:Generated_Source\PSoC4/TCPWM_1.c ****                 TCPWM_1_TRIG_CONTROL2_REG = TCPWM_1_PWM_MODE_ASYM;
 142:Generated_Source\PSoC4/TCPWM_1.c ****             #endif  /* (TCPWM_1__ASYMMETRIC == TCPWM_1_PWM_ALIGN) */
 143:Generated_Source\PSoC4/TCPWM_1.c ****         #endif  /* (TCPWM_1__PWM_PR == TCPWM_1_PWM_MODE) */
 144:Generated_Source\PSoC4/TCPWM_1.c **** 
 145:Generated_Source\PSoC4/TCPWM_1.c ****         /* Set other values from customizer */
 146:Generated_Source\PSoC4/TCPWM_1.c ****         TCPWM_1_WritePeriod(TCPWM_1_PWM_PERIOD_VALUE );
 147:Generated_Source\PSoC4/TCPWM_1.c ****         TCPWM_1_WriteCompare(TCPWM_1_PWM_COMPARE_VALUE);
 148:Generated_Source\PSoC4/TCPWM_1.c **** 
 149:Generated_Source\PSoC4/TCPWM_1.c ****         #if (1u == TCPWM_1_PWM_COMPARE_SWAP)
 150:Generated_Source\PSoC4/TCPWM_1.c ****             TCPWM_1_SetCompareSwap(1u);
 151:Generated_Source\PSoC4/TCPWM_1.c ****             TCPWM_1_WriteCompareBuf(TCPWM_1_PWM_COMPARE_BUF_VALUE);
 152:Generated_Source\PSoC4/TCPWM_1.c ****         #endif  /* (1u == TCPWM_1_PWM_COMPARE_SWAP) */
 153:Generated_Source\PSoC4/TCPWM_1.c **** 
 154:Generated_Source\PSoC4/TCPWM_1.c ****         #if (1u == TCPWM_1_PWM_PERIOD_SWAP)
 155:Generated_Source\PSoC4/TCPWM_1.c ****             TCPWM_1_SetPeriodSwap(1u);
 156:Generated_Source\PSoC4/TCPWM_1.c ****             TCPWM_1_WritePeriodBuf(TCPWM_1_PWM_PERIOD_BUF_VALUE);
 157:Generated_Source\PSoC4/TCPWM_1.c ****         #endif  /* (1u == TCPWM_1_PWM_PERIOD_SWAP) */
 158:Generated_Source\PSoC4/TCPWM_1.c ****     #endif  /* (TCPWM_1__PWM_SEL == TCPWM_1_CONFIG) */
 159:Generated_Source\PSoC4/TCPWM_1.c ****     
 160:Generated_Source\PSoC4/TCPWM_1.c **** }
  62              		.loc 1 160 0
  63 0024 C046     		nop
  64 0026 BD46     		mov	sp, r7
  65              		@ sp needed
  66 0028 80BD     		pop	{r7, pc}
  67              	.L3:
  68 002a C046     		.align	2
ARM GAS  C:\Users\puria\AppData\Local\Temp\ccpsVPDq.s 			page 5


  69              	.L2:
  70 002c 00012040 		.word	1075839232
  71 0030 24012040 		.word	1075839268
  72              		.cfi_endproc
  73              	.LFE2:
  74              		.size	TCPWM_1_Init, .-TCPWM_1_Init
  75              		.section	.text.TCPWM_1_Enable,"ax",%progbits
  76              		.align	2
  77              		.global	TCPWM_1_Enable
  78              		.code	16
  79              		.thumb_func
  80              		.type	TCPWM_1_Enable, %function
  81              	TCPWM_1_Enable:
  82              	.LFB3:
 161:Generated_Source\PSoC4/TCPWM_1.c **** 
 162:Generated_Source\PSoC4/TCPWM_1.c **** 
 163:Generated_Source\PSoC4/TCPWM_1.c **** /*******************************************************************************
 164:Generated_Source\PSoC4/TCPWM_1.c **** * Function Name: TCPWM_1_Enable
 165:Generated_Source\PSoC4/TCPWM_1.c **** ********************************************************************************
 166:Generated_Source\PSoC4/TCPWM_1.c **** *
 167:Generated_Source\PSoC4/TCPWM_1.c **** * Summary:
 168:Generated_Source\PSoC4/TCPWM_1.c **** *  Enables the TCPWM_1.
 169:Generated_Source\PSoC4/TCPWM_1.c **** *
 170:Generated_Source\PSoC4/TCPWM_1.c **** * Parameters:
 171:Generated_Source\PSoC4/TCPWM_1.c **** *  None
 172:Generated_Source\PSoC4/TCPWM_1.c **** *
 173:Generated_Source\PSoC4/TCPWM_1.c **** * Return:
 174:Generated_Source\PSoC4/TCPWM_1.c **** *  None
 175:Generated_Source\PSoC4/TCPWM_1.c **** *
 176:Generated_Source\PSoC4/TCPWM_1.c **** *******************************************************************************/
 177:Generated_Source\PSoC4/TCPWM_1.c **** void TCPWM_1_Enable(void)
 178:Generated_Source\PSoC4/TCPWM_1.c **** {
  83              		.loc 1 178 0
  84              		.cfi_startproc
  85              		@ args = 0, pretend = 0, frame = 8
  86              		@ frame_needed = 1, uses_anonymous_args = 0
  87 0000 90B5     		push	{r4, r7, lr}
  88              		.cfi_def_cfa_offset 12
  89              		.cfi_offset 4, -12
  90              		.cfi_offset 7, -8
  91              		.cfi_offset 14, -4
  92 0002 83B0     		sub	sp, sp, #12
  93              		.cfi_def_cfa_offset 24
  94 0004 00AF     		add	r7, sp, #0
  95              		.cfi_def_cfa_register 7
 179:Generated_Source\PSoC4/TCPWM_1.c ****     uint8 enableInterrupts;
 180:Generated_Source\PSoC4/TCPWM_1.c **** 
 181:Generated_Source\PSoC4/TCPWM_1.c ****     enableInterrupts = CyEnterCriticalSection();
  96              		.loc 1 181 0
  97 0006 FC1D     		adds	r4, r7, #7
  98 0008 FFF7FEFF 		bl	CyEnterCriticalSection
  99 000c 0300     		movs	r3, r0
 100 000e 2370     		strb	r3, [r4]
 182:Generated_Source\PSoC4/TCPWM_1.c ****     TCPWM_1_BLOCK_CONTROL_REG |= TCPWM_1_MASK;
 101              		.loc 1 182 0
 102 0010 094B     		ldr	r3, .L5
 103 0012 094A     		ldr	r2, .L5
ARM GAS  C:\Users\puria\AppData\Local\Temp\ccpsVPDq.s 			page 6


 104 0014 1268     		ldr	r2, [r2]
 105 0016 0121     		movs	r1, #1
 106 0018 0A43     		orrs	r2, r1
 107 001a 1A60     		str	r2, [r3]
 183:Generated_Source\PSoC4/TCPWM_1.c ****     CyExitCriticalSection(enableInterrupts);
 108              		.loc 1 183 0
 109 001c FB1D     		adds	r3, r7, #7
 110 001e 1B78     		ldrb	r3, [r3]
 111 0020 1800     		movs	r0, r3
 112 0022 FFF7FEFF 		bl	CyExitCriticalSection
 184:Generated_Source\PSoC4/TCPWM_1.c **** 
 185:Generated_Source\PSoC4/TCPWM_1.c ****     /* Start Timer or PWM if start input is absent */
 186:Generated_Source\PSoC4/TCPWM_1.c ****     #if (TCPWM_1__PWM_SEL == TCPWM_1_CONFIG)
 187:Generated_Source\PSoC4/TCPWM_1.c ****         #if (0u == TCPWM_1_PWM_START_SIGNAL_PRESENT)
 188:Generated_Source\PSoC4/TCPWM_1.c ****             TCPWM_1_TriggerCommand(TCPWM_1_MASK, TCPWM_1_CMD_START);
 189:Generated_Source\PSoC4/TCPWM_1.c ****         #endif /* (0u == TCPWM_1_PWM_START_SIGNAL_PRESENT) */
 190:Generated_Source\PSoC4/TCPWM_1.c ****     #endif /* (TCPWM_1__PWM_SEL == TCPWM_1_CONFIG) */
 191:Generated_Source\PSoC4/TCPWM_1.c **** 
 192:Generated_Source\PSoC4/TCPWM_1.c ****     #if (TCPWM_1__TIMER == TCPWM_1_CONFIG)
 193:Generated_Source\PSoC4/TCPWM_1.c ****         #if (0u == TCPWM_1_TC_START_SIGNAL_PRESENT)
 194:Generated_Source\PSoC4/TCPWM_1.c ****             TCPWM_1_TriggerCommand(TCPWM_1_MASK, TCPWM_1_CMD_START);
 113              		.loc 1 194 0
 114 0026 1821     		movs	r1, #24
 115 0028 0120     		movs	r0, #1
 116 002a FFF7FEFF 		bl	TCPWM_1_TriggerCommand
 195:Generated_Source\PSoC4/TCPWM_1.c ****         #endif /* (0u == TCPWM_1_TC_START_SIGNAL_PRESENT) */
 196:Generated_Source\PSoC4/TCPWM_1.c ****     #endif /* (TCPWM_1__TIMER == TCPWM_1_CONFIG) */
 197:Generated_Source\PSoC4/TCPWM_1.c ****     
 198:Generated_Source\PSoC4/TCPWM_1.c ****     #if (TCPWM_1__QUAD == TCPWM_1_CONFIG)
 199:Generated_Source\PSoC4/TCPWM_1.c ****         #if (0u != TCPWM_1_QUAD_AUTO_START)
 200:Generated_Source\PSoC4/TCPWM_1.c ****             TCPWM_1_TriggerCommand(TCPWM_1_MASK, TCPWM_1_CMD_RELOAD);
 201:Generated_Source\PSoC4/TCPWM_1.c ****         #endif /* (0u != TCPWM_1_QUAD_AUTO_START) */
 202:Generated_Source\PSoC4/TCPWM_1.c ****     #endif  /* (TCPWM_1__QUAD == TCPWM_1_CONFIG) */
 203:Generated_Source\PSoC4/TCPWM_1.c **** }
 117              		.loc 1 203 0
 118 002e C046     		nop
 119 0030 BD46     		mov	sp, r7
 120 0032 03B0     		add	sp, sp, #12
 121              		@ sp needed
 122 0034 90BD     		pop	{r4, r7, pc}
 123              	.L6:
 124 0036 C046     		.align	2
 125              	.L5:
 126 0038 00002040 		.word	1075838976
 127              		.cfi_endproc
 128              	.LFE3:
 129              		.size	TCPWM_1_Enable, .-TCPWM_1_Enable
 130              		.section	.text.TCPWM_1_Start,"ax",%progbits
 131              		.align	2
 132              		.global	TCPWM_1_Start
 133              		.code	16
 134              		.thumb_func
 135              		.type	TCPWM_1_Start, %function
 136              	TCPWM_1_Start:
 137              	.LFB4:
 204:Generated_Source\PSoC4/TCPWM_1.c **** 
 205:Generated_Source\PSoC4/TCPWM_1.c **** 
ARM GAS  C:\Users\puria\AppData\Local\Temp\ccpsVPDq.s 			page 7


 206:Generated_Source\PSoC4/TCPWM_1.c **** /*******************************************************************************
 207:Generated_Source\PSoC4/TCPWM_1.c **** * Function Name: TCPWM_1_Start
 208:Generated_Source\PSoC4/TCPWM_1.c **** ********************************************************************************
 209:Generated_Source\PSoC4/TCPWM_1.c **** *
 210:Generated_Source\PSoC4/TCPWM_1.c **** * Summary:
 211:Generated_Source\PSoC4/TCPWM_1.c **** *  Initializes the TCPWM_1 with default customizer
 212:Generated_Source\PSoC4/TCPWM_1.c **** *  values when called the first time and enables the TCPWM_1.
 213:Generated_Source\PSoC4/TCPWM_1.c **** *  For subsequent calls the configuration is left unchanged and the component is
 214:Generated_Source\PSoC4/TCPWM_1.c **** *  just enabled.
 215:Generated_Source\PSoC4/TCPWM_1.c **** *
 216:Generated_Source\PSoC4/TCPWM_1.c **** * Parameters:
 217:Generated_Source\PSoC4/TCPWM_1.c **** *  None
 218:Generated_Source\PSoC4/TCPWM_1.c **** *
 219:Generated_Source\PSoC4/TCPWM_1.c **** * Return:
 220:Generated_Source\PSoC4/TCPWM_1.c **** *  None
 221:Generated_Source\PSoC4/TCPWM_1.c **** *
 222:Generated_Source\PSoC4/TCPWM_1.c **** * Global variables:
 223:Generated_Source\PSoC4/TCPWM_1.c **** *  TCPWM_1_initVar: global variable is used to indicate initial
 224:Generated_Source\PSoC4/TCPWM_1.c **** *  configuration of this component.  The variable is initialized to zero and set
 225:Generated_Source\PSoC4/TCPWM_1.c **** *  to 1 the first time TCPWM_1_Start() is called. This allows
 226:Generated_Source\PSoC4/TCPWM_1.c **** *  enabling/disabling a component without re-initialization in all subsequent
 227:Generated_Source\PSoC4/TCPWM_1.c **** *  calls to the TCPWM_1_Start() routine.
 228:Generated_Source\PSoC4/TCPWM_1.c **** *
 229:Generated_Source\PSoC4/TCPWM_1.c **** *******************************************************************************/
 230:Generated_Source\PSoC4/TCPWM_1.c **** void TCPWM_1_Start(void)
 231:Generated_Source\PSoC4/TCPWM_1.c **** {
 138              		.loc 1 231 0
 139              		.cfi_startproc
 140              		@ args = 0, pretend = 0, frame = 0
 141              		@ frame_needed = 1, uses_anonymous_args = 0
 142 0000 80B5     		push	{r7, lr}
 143              		.cfi_def_cfa_offset 8
 144              		.cfi_offset 7, -8
 145              		.cfi_offset 14, -4
 146 0002 00AF     		add	r7, sp, #0
 147              		.cfi_def_cfa_register 7
 232:Generated_Source\PSoC4/TCPWM_1.c ****     if (0u == TCPWM_1_initVar)
 148              		.loc 1 232 0
 149 0004 064B     		ldr	r3, .L9
 150 0006 1B78     		ldrb	r3, [r3]
 151 0008 002B     		cmp	r3, #0
 152 000a 04D1     		bne	.L8
 233:Generated_Source\PSoC4/TCPWM_1.c ****     {
 234:Generated_Source\PSoC4/TCPWM_1.c ****         TCPWM_1_Init();
 153              		.loc 1 234 0
 154 000c FFF7FEFF 		bl	TCPWM_1_Init
 235:Generated_Source\PSoC4/TCPWM_1.c ****         TCPWM_1_initVar = 1u;
 155              		.loc 1 235 0
 156 0010 034B     		ldr	r3, .L9
 157 0012 0122     		movs	r2, #1
 158 0014 1A70     		strb	r2, [r3]
 159              	.L8:
 236:Generated_Source\PSoC4/TCPWM_1.c ****     }
 237:Generated_Source\PSoC4/TCPWM_1.c **** 
 238:Generated_Source\PSoC4/TCPWM_1.c ****     TCPWM_1_Enable();
 160              		.loc 1 238 0
 161 0016 FFF7FEFF 		bl	TCPWM_1_Enable
ARM GAS  C:\Users\puria\AppData\Local\Temp\ccpsVPDq.s 			page 8


 239:Generated_Source\PSoC4/TCPWM_1.c **** }
 162              		.loc 1 239 0
 163 001a C046     		nop
 164 001c BD46     		mov	sp, r7
 165              		@ sp needed
 166 001e 80BD     		pop	{r7, pc}
 167              	.L10:
 168              		.align	2
 169              	.L9:
 170 0020 00000000 		.word	TCPWM_1_initVar
 171              		.cfi_endproc
 172              	.LFE4:
 173              		.size	TCPWM_1_Start, .-TCPWM_1_Start
 174              		.section	.text.TCPWM_1_Stop,"ax",%progbits
 175              		.align	2
 176              		.global	TCPWM_1_Stop
 177              		.code	16
 178              		.thumb_func
 179              		.type	TCPWM_1_Stop, %function
 180              	TCPWM_1_Stop:
 181              	.LFB5:
 240:Generated_Source\PSoC4/TCPWM_1.c **** 
 241:Generated_Source\PSoC4/TCPWM_1.c **** 
 242:Generated_Source\PSoC4/TCPWM_1.c **** /*******************************************************************************
 243:Generated_Source\PSoC4/TCPWM_1.c **** * Function Name: TCPWM_1_Stop
 244:Generated_Source\PSoC4/TCPWM_1.c **** ********************************************************************************
 245:Generated_Source\PSoC4/TCPWM_1.c **** *
 246:Generated_Source\PSoC4/TCPWM_1.c **** * Summary:
 247:Generated_Source\PSoC4/TCPWM_1.c **** *  Disables the TCPWM_1.
 248:Generated_Source\PSoC4/TCPWM_1.c **** *
 249:Generated_Source\PSoC4/TCPWM_1.c **** * Parameters:
 250:Generated_Source\PSoC4/TCPWM_1.c **** *  None
 251:Generated_Source\PSoC4/TCPWM_1.c **** *
 252:Generated_Source\PSoC4/TCPWM_1.c **** * Return:
 253:Generated_Source\PSoC4/TCPWM_1.c **** *  None
 254:Generated_Source\PSoC4/TCPWM_1.c **** *
 255:Generated_Source\PSoC4/TCPWM_1.c **** *******************************************************************************/
 256:Generated_Source\PSoC4/TCPWM_1.c **** void TCPWM_1_Stop(void)
 257:Generated_Source\PSoC4/TCPWM_1.c **** {
 182              		.loc 1 257 0
 183              		.cfi_startproc
 184              		@ args = 0, pretend = 0, frame = 8
 185              		@ frame_needed = 1, uses_anonymous_args = 0
 186 0000 90B5     		push	{r4, r7, lr}
 187              		.cfi_def_cfa_offset 12
 188              		.cfi_offset 4, -12
 189              		.cfi_offset 7, -8
 190              		.cfi_offset 14, -4
 191 0002 83B0     		sub	sp, sp, #12
 192              		.cfi_def_cfa_offset 24
 193 0004 00AF     		add	r7, sp, #0
 194              		.cfi_def_cfa_register 7
 258:Generated_Source\PSoC4/TCPWM_1.c ****     uint8 enableInterrupts;
 259:Generated_Source\PSoC4/TCPWM_1.c **** 
 260:Generated_Source\PSoC4/TCPWM_1.c ****     enableInterrupts = CyEnterCriticalSection();
 195              		.loc 1 260 0
 196 0006 FC1D     		adds	r4, r7, #7
ARM GAS  C:\Users\puria\AppData\Local\Temp\ccpsVPDq.s 			page 9


 197 0008 FFF7FEFF 		bl	CyEnterCriticalSection
 198 000c 0300     		movs	r3, r0
 199 000e 2370     		strb	r3, [r4]
 261:Generated_Source\PSoC4/TCPWM_1.c **** 
 262:Generated_Source\PSoC4/TCPWM_1.c ****     TCPWM_1_BLOCK_CONTROL_REG &= (uint32)~TCPWM_1_MASK;
 200              		.loc 1 262 0
 201 0010 074B     		ldr	r3, .L12
 202 0012 074A     		ldr	r2, .L12
 203 0014 1268     		ldr	r2, [r2]
 204 0016 0121     		movs	r1, #1
 205 0018 8A43     		bics	r2, r1
 206 001a 1A60     		str	r2, [r3]
 263:Generated_Source\PSoC4/TCPWM_1.c **** 
 264:Generated_Source\PSoC4/TCPWM_1.c ****     CyExitCriticalSection(enableInterrupts);
 207              		.loc 1 264 0
 208 001c FB1D     		adds	r3, r7, #7
 209 001e 1B78     		ldrb	r3, [r3]
 210 0020 1800     		movs	r0, r3
 211 0022 FFF7FEFF 		bl	CyExitCriticalSection
 265:Generated_Source\PSoC4/TCPWM_1.c **** }
 212              		.loc 1 265 0
 213 0026 C046     		nop
 214 0028 BD46     		mov	sp, r7
 215 002a 03B0     		add	sp, sp, #12
 216              		@ sp needed
 217 002c 90BD     		pop	{r4, r7, pc}
 218              	.L13:
 219 002e C046     		.align	2
 220              	.L12:
 221 0030 00002040 		.word	1075838976
 222              		.cfi_endproc
 223              	.LFE5:
 224              		.size	TCPWM_1_Stop, .-TCPWM_1_Stop
 225              		.section	.text.TCPWM_1_SetMode,"ax",%progbits
 226              		.align	2
 227              		.global	TCPWM_1_SetMode
 228              		.code	16
 229              		.thumb_func
 230              		.type	TCPWM_1_SetMode, %function
 231              	TCPWM_1_SetMode:
 232              	.LFB6:
 266:Generated_Source\PSoC4/TCPWM_1.c **** 
 267:Generated_Source\PSoC4/TCPWM_1.c **** 
 268:Generated_Source\PSoC4/TCPWM_1.c **** /*******************************************************************************
 269:Generated_Source\PSoC4/TCPWM_1.c **** * Function Name: TCPWM_1_SetMode
 270:Generated_Source\PSoC4/TCPWM_1.c **** ********************************************************************************
 271:Generated_Source\PSoC4/TCPWM_1.c **** *
 272:Generated_Source\PSoC4/TCPWM_1.c **** * Summary:
 273:Generated_Source\PSoC4/TCPWM_1.c **** *  Sets the operation mode of the TCPWM_1. This function is used when
 274:Generated_Source\PSoC4/TCPWM_1.c **** *  configured as a generic TCPWM_1 and the actual mode of operation is
 275:Generated_Source\PSoC4/TCPWM_1.c **** *  set at runtime. The mode must be set while the component is disabled.
 276:Generated_Source\PSoC4/TCPWM_1.c **** *
 277:Generated_Source\PSoC4/TCPWM_1.c **** * Parameters:
 278:Generated_Source\PSoC4/TCPWM_1.c **** *  mode: Mode for the TCPWM_1 to operate in
 279:Generated_Source\PSoC4/TCPWM_1.c **** *   Values:
 280:Generated_Source\PSoC4/TCPWM_1.c **** *   - TCPWM_1_MODE_TIMER_COMPARE - Timer / Counter with
 281:Generated_Source\PSoC4/TCPWM_1.c **** *                                                 compare capability
ARM GAS  C:\Users\puria\AppData\Local\Temp\ccpsVPDq.s 			page 10


 282:Generated_Source\PSoC4/TCPWM_1.c **** *         - TCPWM_1_MODE_TIMER_CAPTURE - Timer / Counter with
 283:Generated_Source\PSoC4/TCPWM_1.c **** *                                                 capture capability
 284:Generated_Source\PSoC4/TCPWM_1.c **** *         - TCPWM_1_MODE_QUAD - Quadrature decoder
 285:Generated_Source\PSoC4/TCPWM_1.c **** *         - TCPWM_1_MODE_PWM - PWM
 286:Generated_Source\PSoC4/TCPWM_1.c **** *         - TCPWM_1_MODE_PWM_DT - PWM with dead time
 287:Generated_Source\PSoC4/TCPWM_1.c **** *         - TCPWM_1_MODE_PWM_PR - PWM with pseudo random capability
 288:Generated_Source\PSoC4/TCPWM_1.c **** *
 289:Generated_Source\PSoC4/TCPWM_1.c **** * Return:
 290:Generated_Source\PSoC4/TCPWM_1.c **** *  None
 291:Generated_Source\PSoC4/TCPWM_1.c **** *
 292:Generated_Source\PSoC4/TCPWM_1.c **** *******************************************************************************/
 293:Generated_Source\PSoC4/TCPWM_1.c **** void TCPWM_1_SetMode(uint32 mode)
 294:Generated_Source\PSoC4/TCPWM_1.c **** {
 233              		.loc 1 294 0
 234              		.cfi_startproc
 235              		@ args = 0, pretend = 0, frame = 16
 236              		@ frame_needed = 1, uses_anonymous_args = 0
 237 0000 90B5     		push	{r4, r7, lr}
 238              		.cfi_def_cfa_offset 12
 239              		.cfi_offset 4, -12
 240              		.cfi_offset 7, -8
 241              		.cfi_offset 14, -4
 242 0002 85B0     		sub	sp, sp, #20
 243              		.cfi_def_cfa_offset 32
 244 0004 00AF     		add	r7, sp, #0
 245              		.cfi_def_cfa_register 7
 246 0006 7860     		str	r0, [r7, #4]
 295:Generated_Source\PSoC4/TCPWM_1.c ****     uint8 enableInterrupts;
 296:Generated_Source\PSoC4/TCPWM_1.c **** 
 297:Generated_Source\PSoC4/TCPWM_1.c ****     enableInterrupts = CyEnterCriticalSection();
 247              		.loc 1 297 0
 248 0008 0F23     		movs	r3, #15
 249 000a FC18     		adds	r4, r7, r3
 250 000c FFF7FEFF 		bl	CyEnterCriticalSection
 251 0010 0300     		movs	r3, r0
 252 0012 2370     		strb	r3, [r4]
 298:Generated_Source\PSoC4/TCPWM_1.c **** 
 299:Generated_Source\PSoC4/TCPWM_1.c ****     TCPWM_1_CONTROL_REG &= (uint32)~TCPWM_1_MODE_MASK;
 253              		.loc 1 299 0
 254 0014 0A4B     		ldr	r3, .L15
 255 0016 0A4A     		ldr	r2, .L15
 256 0018 1268     		ldr	r2, [r2]
 257 001a 0A49     		ldr	r1, .L15+4
 258 001c 0A40     		ands	r2, r1
 259 001e 1A60     		str	r2, [r3]
 300:Generated_Source\PSoC4/TCPWM_1.c ****     TCPWM_1_CONTROL_REG |= mode;
 260              		.loc 1 300 0
 261 0020 074B     		ldr	r3, .L15
 262 0022 074A     		ldr	r2, .L15
 263 0024 1168     		ldr	r1, [r2]
 264 0026 7A68     		ldr	r2, [r7, #4]
 265 0028 0A43     		orrs	r2, r1
 266 002a 1A60     		str	r2, [r3]
 301:Generated_Source\PSoC4/TCPWM_1.c **** 
 302:Generated_Source\PSoC4/TCPWM_1.c ****     CyExitCriticalSection(enableInterrupts);
 267              		.loc 1 302 0
 268 002c 0F23     		movs	r3, #15
ARM GAS  C:\Users\puria\AppData\Local\Temp\ccpsVPDq.s 			page 11


 269 002e FB18     		adds	r3, r7, r3
 270 0030 1B78     		ldrb	r3, [r3]
 271 0032 1800     		movs	r0, r3
 272 0034 FFF7FEFF 		bl	CyExitCriticalSection
 303:Generated_Source\PSoC4/TCPWM_1.c **** }
 273              		.loc 1 303 0
 274 0038 C046     		nop
 275 003a BD46     		mov	sp, r7
 276 003c 05B0     		add	sp, sp, #20
 277              		@ sp needed
 278 003e 90BD     		pop	{r4, r7, pc}
 279              	.L16:
 280              		.align	2
 281              	.L15:
 282 0040 00012040 		.word	1075839232
 283 0044 FFFFFFF8 		.word	-117440513
 284              		.cfi_endproc
 285              	.LFE6:
 286              		.size	TCPWM_1_SetMode, .-TCPWM_1_SetMode
 287              		.section	.text.TCPWM_1_SetQDMode,"ax",%progbits
 288              		.align	2
 289              		.global	TCPWM_1_SetQDMode
 290              		.code	16
 291              		.thumb_func
 292              		.type	TCPWM_1_SetQDMode, %function
 293              	TCPWM_1_SetQDMode:
 294              	.LFB7:
 304:Generated_Source\PSoC4/TCPWM_1.c **** 
 305:Generated_Source\PSoC4/TCPWM_1.c **** 
 306:Generated_Source\PSoC4/TCPWM_1.c **** /*******************************************************************************
 307:Generated_Source\PSoC4/TCPWM_1.c **** * Function Name: TCPWM_1_SetQDMode
 308:Generated_Source\PSoC4/TCPWM_1.c **** ********************************************************************************
 309:Generated_Source\PSoC4/TCPWM_1.c **** *
 310:Generated_Source\PSoC4/TCPWM_1.c **** * Summary:
 311:Generated_Source\PSoC4/TCPWM_1.c **** *  Sets the the Quadrature Decoder to one of the 3 supported modes.
 312:Generated_Source\PSoC4/TCPWM_1.c **** *  Its functionality is only applicable to Quadrature Decoder operation.
 313:Generated_Source\PSoC4/TCPWM_1.c **** *
 314:Generated_Source\PSoC4/TCPWM_1.c **** * Parameters:
 315:Generated_Source\PSoC4/TCPWM_1.c **** *  qdMode: Quadrature Decoder mode
 316:Generated_Source\PSoC4/TCPWM_1.c **** *   Values:
 317:Generated_Source\PSoC4/TCPWM_1.c **** *         - TCPWM_1_MODE_X1 - Counts on phi 1 rising
 318:Generated_Source\PSoC4/TCPWM_1.c **** *         - TCPWM_1_MODE_X2 - Counts on both edges of phi1 (2x faster)
 319:Generated_Source\PSoC4/TCPWM_1.c **** *         - TCPWM_1_MODE_X4 - Counts on both edges of phi1 and phi2
 320:Generated_Source\PSoC4/TCPWM_1.c **** *                                        (4x faster)
 321:Generated_Source\PSoC4/TCPWM_1.c **** *
 322:Generated_Source\PSoC4/TCPWM_1.c **** * Return:
 323:Generated_Source\PSoC4/TCPWM_1.c **** *  None
 324:Generated_Source\PSoC4/TCPWM_1.c **** *
 325:Generated_Source\PSoC4/TCPWM_1.c **** *******************************************************************************/
 326:Generated_Source\PSoC4/TCPWM_1.c **** void TCPWM_1_SetQDMode(uint32 qdMode)
 327:Generated_Source\PSoC4/TCPWM_1.c **** {
 295              		.loc 1 327 0
 296              		.cfi_startproc
 297              		@ args = 0, pretend = 0, frame = 16
 298              		@ frame_needed = 1, uses_anonymous_args = 0
 299 0000 90B5     		push	{r4, r7, lr}
 300              		.cfi_def_cfa_offset 12
ARM GAS  C:\Users\puria\AppData\Local\Temp\ccpsVPDq.s 			page 12


 301              		.cfi_offset 4, -12
 302              		.cfi_offset 7, -8
 303              		.cfi_offset 14, -4
 304 0002 85B0     		sub	sp, sp, #20
 305              		.cfi_def_cfa_offset 32
 306 0004 00AF     		add	r7, sp, #0
 307              		.cfi_def_cfa_register 7
 308 0006 7860     		str	r0, [r7, #4]
 328:Generated_Source\PSoC4/TCPWM_1.c ****     uint8 enableInterrupts;
 329:Generated_Source\PSoC4/TCPWM_1.c **** 
 330:Generated_Source\PSoC4/TCPWM_1.c ****     enableInterrupts = CyEnterCriticalSection();
 309              		.loc 1 330 0
 310 0008 0F23     		movs	r3, #15
 311 000a FC18     		adds	r4, r7, r3
 312 000c FFF7FEFF 		bl	CyEnterCriticalSection
 313 0010 0300     		movs	r3, r0
 314 0012 2370     		strb	r3, [r4]
 331:Generated_Source\PSoC4/TCPWM_1.c **** 
 332:Generated_Source\PSoC4/TCPWM_1.c ****     TCPWM_1_CONTROL_REG &= (uint32)~TCPWM_1_QUAD_MODE_MASK;
 315              		.loc 1 332 0
 316 0014 0A4B     		ldr	r3, .L18
 317 0016 0A4A     		ldr	r2, .L18
 318 0018 1268     		ldr	r2, [r2]
 319 001a 0A49     		ldr	r1, .L18+4
 320 001c 0A40     		ands	r2, r1
 321 001e 1A60     		str	r2, [r3]
 333:Generated_Source\PSoC4/TCPWM_1.c ****     TCPWM_1_CONTROL_REG |= qdMode;
 322              		.loc 1 333 0
 323 0020 074B     		ldr	r3, .L18
 324 0022 074A     		ldr	r2, .L18
 325 0024 1168     		ldr	r1, [r2]
 326 0026 7A68     		ldr	r2, [r7, #4]
 327 0028 0A43     		orrs	r2, r1
 328 002a 1A60     		str	r2, [r3]
 334:Generated_Source\PSoC4/TCPWM_1.c **** 
 335:Generated_Source\PSoC4/TCPWM_1.c ****     CyExitCriticalSection(enableInterrupts);
 329              		.loc 1 335 0
 330 002c 0F23     		movs	r3, #15
 331 002e FB18     		adds	r3, r7, r3
 332 0030 1B78     		ldrb	r3, [r3]
 333 0032 1800     		movs	r0, r3
 334 0034 FFF7FEFF 		bl	CyExitCriticalSection
 336:Generated_Source\PSoC4/TCPWM_1.c **** }
 335              		.loc 1 336 0
 336 0038 C046     		nop
 337 003a BD46     		mov	sp, r7
 338 003c 05B0     		add	sp, sp, #20
 339              		@ sp needed
 340 003e 90BD     		pop	{r4, r7, pc}
 341              	.L19:
 342              		.align	2
 343              	.L18:
 344 0040 00012040 		.word	1075839232
 345 0044 FFFF8FFF 		.word	-7340033
 346              		.cfi_endproc
 347              	.LFE7:
 348              		.size	TCPWM_1_SetQDMode, .-TCPWM_1_SetQDMode
ARM GAS  C:\Users\puria\AppData\Local\Temp\ccpsVPDq.s 			page 13


 349              		.section	.text.TCPWM_1_SetPrescaler,"ax",%progbits
 350              		.align	2
 351              		.global	TCPWM_1_SetPrescaler
 352              		.code	16
 353              		.thumb_func
 354              		.type	TCPWM_1_SetPrescaler, %function
 355              	TCPWM_1_SetPrescaler:
 356              	.LFB8:
 337:Generated_Source\PSoC4/TCPWM_1.c **** 
 338:Generated_Source\PSoC4/TCPWM_1.c **** 
 339:Generated_Source\PSoC4/TCPWM_1.c **** /*******************************************************************************
 340:Generated_Source\PSoC4/TCPWM_1.c **** * Function Name: TCPWM_1_SetPrescaler
 341:Generated_Source\PSoC4/TCPWM_1.c **** ********************************************************************************
 342:Generated_Source\PSoC4/TCPWM_1.c **** *
 343:Generated_Source\PSoC4/TCPWM_1.c **** * Summary:
 344:Generated_Source\PSoC4/TCPWM_1.c **** *  Sets the prescaler value that is applied to the clock input.  Not applicable
 345:Generated_Source\PSoC4/TCPWM_1.c **** *  to a PWM with the dead time mode or Quadrature Decoder mode.
 346:Generated_Source\PSoC4/TCPWM_1.c **** *
 347:Generated_Source\PSoC4/TCPWM_1.c **** * Parameters:
 348:Generated_Source\PSoC4/TCPWM_1.c **** *  prescaler: Prescaler divider value
 349:Generated_Source\PSoC4/TCPWM_1.c **** *   Values:
 350:Generated_Source\PSoC4/TCPWM_1.c **** *         - TCPWM_1_PRESCALE_DIVBY1    - Divide by 1 (no prescaling)
 351:Generated_Source\PSoC4/TCPWM_1.c **** *         - TCPWM_1_PRESCALE_DIVBY2    - Divide by 2
 352:Generated_Source\PSoC4/TCPWM_1.c **** *         - TCPWM_1_PRESCALE_DIVBY4    - Divide by 4
 353:Generated_Source\PSoC4/TCPWM_1.c **** *         - TCPWM_1_PRESCALE_DIVBY8    - Divide by 8
 354:Generated_Source\PSoC4/TCPWM_1.c **** *         - TCPWM_1_PRESCALE_DIVBY16   - Divide by 16
 355:Generated_Source\PSoC4/TCPWM_1.c **** *         - TCPWM_1_PRESCALE_DIVBY32   - Divide by 32
 356:Generated_Source\PSoC4/TCPWM_1.c **** *         - TCPWM_1_PRESCALE_DIVBY64   - Divide by 64
 357:Generated_Source\PSoC4/TCPWM_1.c **** *         - TCPWM_1_PRESCALE_DIVBY128  - Divide by 128
 358:Generated_Source\PSoC4/TCPWM_1.c **** *
 359:Generated_Source\PSoC4/TCPWM_1.c **** * Return:
 360:Generated_Source\PSoC4/TCPWM_1.c **** *  None
 361:Generated_Source\PSoC4/TCPWM_1.c **** *
 362:Generated_Source\PSoC4/TCPWM_1.c **** *******************************************************************************/
 363:Generated_Source\PSoC4/TCPWM_1.c **** void TCPWM_1_SetPrescaler(uint32 prescaler)
 364:Generated_Source\PSoC4/TCPWM_1.c **** {
 357              		.loc 1 364 0
 358              		.cfi_startproc
 359              		@ args = 0, pretend = 0, frame = 16
 360              		@ frame_needed = 1, uses_anonymous_args = 0
 361 0000 90B5     		push	{r4, r7, lr}
 362              		.cfi_def_cfa_offset 12
 363              		.cfi_offset 4, -12
 364              		.cfi_offset 7, -8
 365              		.cfi_offset 14, -4
 366 0002 85B0     		sub	sp, sp, #20
 367              		.cfi_def_cfa_offset 32
 368 0004 00AF     		add	r7, sp, #0
 369              		.cfi_def_cfa_register 7
 370 0006 7860     		str	r0, [r7, #4]
 365:Generated_Source\PSoC4/TCPWM_1.c ****     uint8 enableInterrupts;
 366:Generated_Source\PSoC4/TCPWM_1.c **** 
 367:Generated_Source\PSoC4/TCPWM_1.c ****     enableInterrupts = CyEnterCriticalSection();
 371              		.loc 1 367 0
 372 0008 0F23     		movs	r3, #15
 373 000a FC18     		adds	r4, r7, r3
 374 000c FFF7FEFF 		bl	CyEnterCriticalSection
ARM GAS  C:\Users\puria\AppData\Local\Temp\ccpsVPDq.s 			page 14


 375 0010 0300     		movs	r3, r0
 376 0012 2370     		strb	r3, [r4]
 368:Generated_Source\PSoC4/TCPWM_1.c **** 
 369:Generated_Source\PSoC4/TCPWM_1.c ****     TCPWM_1_CONTROL_REG &= (uint32)~TCPWM_1_PRESCALER_MASK;
 377              		.loc 1 369 0
 378 0014 0A4B     		ldr	r3, .L21
 379 0016 0A4A     		ldr	r2, .L21
 380 0018 1268     		ldr	r2, [r2]
 381 001a 0A49     		ldr	r1, .L21+4
 382 001c 0A40     		ands	r2, r1
 383 001e 1A60     		str	r2, [r3]
 370:Generated_Source\PSoC4/TCPWM_1.c ****     TCPWM_1_CONTROL_REG |= prescaler;
 384              		.loc 1 370 0
 385 0020 074B     		ldr	r3, .L21
 386 0022 074A     		ldr	r2, .L21
 387 0024 1168     		ldr	r1, [r2]
 388 0026 7A68     		ldr	r2, [r7, #4]
 389 0028 0A43     		orrs	r2, r1
 390 002a 1A60     		str	r2, [r3]
 371:Generated_Source\PSoC4/TCPWM_1.c **** 
 372:Generated_Source\PSoC4/TCPWM_1.c ****     CyExitCriticalSection(enableInterrupts);
 391              		.loc 1 372 0
 392 002c 0F23     		movs	r3, #15
 393 002e FB18     		adds	r3, r7, r3
 394 0030 1B78     		ldrb	r3, [r3]
 395 0032 1800     		movs	r0, r3
 396 0034 FFF7FEFF 		bl	CyExitCriticalSection
 373:Generated_Source\PSoC4/TCPWM_1.c **** }
 397              		.loc 1 373 0
 398 0038 C046     		nop
 399 003a BD46     		mov	sp, r7
 400 003c 05B0     		add	sp, sp, #20
 401              		@ sp needed
 402 003e 90BD     		pop	{r4, r7, pc}
 403              	.L22:
 404              		.align	2
 405              	.L21:
 406 0040 00012040 		.word	1075839232
 407 0044 FF00FFFF 		.word	-65281
 408              		.cfi_endproc
 409              	.LFE8:
 410              		.size	TCPWM_1_SetPrescaler, .-TCPWM_1_SetPrescaler
 411              		.section	.text.TCPWM_1_SetOneShot,"ax",%progbits
 412              		.align	2
 413              		.global	TCPWM_1_SetOneShot
 414              		.code	16
 415              		.thumb_func
 416              		.type	TCPWM_1_SetOneShot, %function
 417              	TCPWM_1_SetOneShot:
 418              	.LFB9:
 374:Generated_Source\PSoC4/TCPWM_1.c **** 
 375:Generated_Source\PSoC4/TCPWM_1.c **** 
 376:Generated_Source\PSoC4/TCPWM_1.c **** /*******************************************************************************
 377:Generated_Source\PSoC4/TCPWM_1.c **** * Function Name: TCPWM_1_SetOneShot
 378:Generated_Source\PSoC4/TCPWM_1.c **** ********************************************************************************
 379:Generated_Source\PSoC4/TCPWM_1.c **** *
 380:Generated_Source\PSoC4/TCPWM_1.c **** * Summary:
ARM GAS  C:\Users\puria\AppData\Local\Temp\ccpsVPDq.s 			page 15


 381:Generated_Source\PSoC4/TCPWM_1.c **** *  Writes the register that controls whether the TCPWM_1 runs
 382:Generated_Source\PSoC4/TCPWM_1.c **** *  continuously or stops when terminal count is reached.  By default the
 383:Generated_Source\PSoC4/TCPWM_1.c **** *  TCPWM_1 operates in the continuous mode.
 384:Generated_Source\PSoC4/TCPWM_1.c **** *
 385:Generated_Source\PSoC4/TCPWM_1.c **** * Parameters:
 386:Generated_Source\PSoC4/TCPWM_1.c **** *  oneShotEnable
 387:Generated_Source\PSoC4/TCPWM_1.c **** *   Values:
 388:Generated_Source\PSoC4/TCPWM_1.c **** *     - 0 - Continuous
 389:Generated_Source\PSoC4/TCPWM_1.c **** *     - 1 - Enable One Shot
 390:Generated_Source\PSoC4/TCPWM_1.c **** *
 391:Generated_Source\PSoC4/TCPWM_1.c **** * Return:
 392:Generated_Source\PSoC4/TCPWM_1.c **** *  None
 393:Generated_Source\PSoC4/TCPWM_1.c **** *
 394:Generated_Source\PSoC4/TCPWM_1.c **** *******************************************************************************/
 395:Generated_Source\PSoC4/TCPWM_1.c **** void TCPWM_1_SetOneShot(uint32 oneShotEnable)
 396:Generated_Source\PSoC4/TCPWM_1.c **** {
 419              		.loc 1 396 0
 420              		.cfi_startproc
 421              		@ args = 0, pretend = 0, frame = 16
 422              		@ frame_needed = 1, uses_anonymous_args = 0
 423 0000 90B5     		push	{r4, r7, lr}
 424              		.cfi_def_cfa_offset 12
 425              		.cfi_offset 4, -12
 426              		.cfi_offset 7, -8
 427              		.cfi_offset 14, -4
 428 0002 85B0     		sub	sp, sp, #20
 429              		.cfi_def_cfa_offset 32
 430 0004 00AF     		add	r7, sp, #0
 431              		.cfi_def_cfa_register 7
 432 0006 7860     		str	r0, [r7, #4]
 397:Generated_Source\PSoC4/TCPWM_1.c ****     uint8 enableInterrupts;
 398:Generated_Source\PSoC4/TCPWM_1.c **** 
 399:Generated_Source\PSoC4/TCPWM_1.c ****     enableInterrupts = CyEnterCriticalSection();
 433              		.loc 1 399 0
 434 0008 0F23     		movs	r3, #15
 435 000a FC18     		adds	r4, r7, r3
 436 000c FFF7FEFF 		bl	CyEnterCriticalSection
 437 0010 0300     		movs	r3, r0
 438 0012 2370     		strb	r3, [r4]
 400:Generated_Source\PSoC4/TCPWM_1.c **** 
 401:Generated_Source\PSoC4/TCPWM_1.c ****     TCPWM_1_CONTROL_REG &= (uint32)~TCPWM_1_ONESHOT_MASK;
 439              		.loc 1 401 0
 440 0014 0C4B     		ldr	r3, .L24
 441 0016 0C4A     		ldr	r2, .L24
 442 0018 1268     		ldr	r2, [r2]
 443 001a 0C49     		ldr	r1, .L24+4
 444 001c 0A40     		ands	r2, r1
 445 001e 1A60     		str	r2, [r3]
 402:Generated_Source\PSoC4/TCPWM_1.c ****     TCPWM_1_CONTROL_REG |= ((uint32)((oneShotEnable & TCPWM_1_1BIT_MASK) <<
 446              		.loc 1 402 0
 447 0020 094B     		ldr	r3, .L24
 448 0022 094A     		ldr	r2, .L24
 449 0024 1168     		ldr	r1, [r2]
 450 0026 7A68     		ldr	r2, [r7, #4]
 451 0028 9004     		lsls	r0, r2, #18
 452 002a 8022     		movs	r2, #128
 453 002c D202     		lsls	r2, r2, #11
ARM GAS  C:\Users\puria\AppData\Local\Temp\ccpsVPDq.s 			page 16


 454 002e 0240     		ands	r2, r0
 455 0030 0A43     		orrs	r2, r1
 456 0032 1A60     		str	r2, [r3]
 403:Generated_Source\PSoC4/TCPWM_1.c ****                                                                TCPWM_1_ONESHOT_SHIFT));
 404:Generated_Source\PSoC4/TCPWM_1.c **** 
 405:Generated_Source\PSoC4/TCPWM_1.c ****     CyExitCriticalSection(enableInterrupts);
 457              		.loc 1 405 0
 458 0034 0F23     		movs	r3, #15
 459 0036 FB18     		adds	r3, r7, r3
 460 0038 1B78     		ldrb	r3, [r3]
 461 003a 1800     		movs	r0, r3
 462 003c FFF7FEFF 		bl	CyExitCriticalSection
 406:Generated_Source\PSoC4/TCPWM_1.c **** }
 463              		.loc 1 406 0
 464 0040 C046     		nop
 465 0042 BD46     		mov	sp, r7
 466 0044 05B0     		add	sp, sp, #20
 467              		@ sp needed
 468 0046 90BD     		pop	{r4, r7, pc}
 469              	.L25:
 470              		.align	2
 471              	.L24:
 472 0048 00012040 		.word	1075839232
 473 004c FFFFFBFF 		.word	-262145
 474              		.cfi_endproc
 475              	.LFE9:
 476              		.size	TCPWM_1_SetOneShot, .-TCPWM_1_SetOneShot
 477              		.section	.text.TCPWM_1_SetPWMMode,"ax",%progbits
 478              		.align	2
 479              		.global	TCPWM_1_SetPWMMode
 480              		.code	16
 481              		.thumb_func
 482              		.type	TCPWM_1_SetPWMMode, %function
 483              	TCPWM_1_SetPWMMode:
 484              	.LFB10:
 407:Generated_Source\PSoC4/TCPWM_1.c **** 
 408:Generated_Source\PSoC4/TCPWM_1.c **** 
 409:Generated_Source\PSoC4/TCPWM_1.c **** /*******************************************************************************
 410:Generated_Source\PSoC4/TCPWM_1.c **** * Function Name: TCPWM_1_SetPWMMode
 411:Generated_Source\PSoC4/TCPWM_1.c **** ********************************************************************************
 412:Generated_Source\PSoC4/TCPWM_1.c **** *
 413:Generated_Source\PSoC4/TCPWM_1.c **** * Summary:
 414:Generated_Source\PSoC4/TCPWM_1.c **** *  Writes the control register that determines what mode of operation the PWM
 415:Generated_Source\PSoC4/TCPWM_1.c **** *  output lines are driven in.  There is a setting for what to do on a
 416:Generated_Source\PSoC4/TCPWM_1.c **** *  comparison match (CC_MATCH), on an overflow (OVERFLOW) and on an underflow
 417:Generated_Source\PSoC4/TCPWM_1.c **** *  (UNDERFLOW).  The value for each of the three must be ORed together to form
 418:Generated_Source\PSoC4/TCPWM_1.c **** *  the mode.
 419:Generated_Source\PSoC4/TCPWM_1.c **** *
 420:Generated_Source\PSoC4/TCPWM_1.c **** * Parameters:
 421:Generated_Source\PSoC4/TCPWM_1.c **** *  modeMask: A combination of three mode settings.  Mask must include a value
 422:Generated_Source\PSoC4/TCPWM_1.c **** *  for each of the three or use one of the preconfigured PWM settings.
 423:Generated_Source\PSoC4/TCPWM_1.c **** *   Values:
 424:Generated_Source\PSoC4/TCPWM_1.c **** *     - CC_MATCH_SET        - Set on comparison match
 425:Generated_Source\PSoC4/TCPWM_1.c **** *     - CC_MATCH_CLEAR      - Clear on comparison match
 426:Generated_Source\PSoC4/TCPWM_1.c **** *     - CC_MATCH_INVERT     - Invert on comparison match
 427:Generated_Source\PSoC4/TCPWM_1.c **** *     - CC_MATCH_NO_CHANGE  - No change on comparison match
 428:Generated_Source\PSoC4/TCPWM_1.c **** *     - OVERLOW_SET         - Set on overflow
ARM GAS  C:\Users\puria\AppData\Local\Temp\ccpsVPDq.s 			page 17


 429:Generated_Source\PSoC4/TCPWM_1.c **** *     - OVERLOW_CLEAR       - Clear on  overflow
 430:Generated_Source\PSoC4/TCPWM_1.c **** *     - OVERLOW_INVERT      - Invert on overflow
 431:Generated_Source\PSoC4/TCPWM_1.c **** *     - OVERLOW_NO_CHANGE   - No change on overflow
 432:Generated_Source\PSoC4/TCPWM_1.c **** *     - UNDERFLOW_SET       - Set on underflow
 433:Generated_Source\PSoC4/TCPWM_1.c **** *     - UNDERFLOW_CLEAR     - Clear on underflow
 434:Generated_Source\PSoC4/TCPWM_1.c **** *     - UNDERFLOW_INVERT    - Invert on underflow
 435:Generated_Source\PSoC4/TCPWM_1.c **** *     - UNDERFLOW_NO_CHANGE - No change on underflow
 436:Generated_Source\PSoC4/TCPWM_1.c **** *     - PWM_MODE_LEFT       - Setting for left aligned PWM.  Should be combined
 437:Generated_Source\PSoC4/TCPWM_1.c **** *                             with up counting mode
 438:Generated_Source\PSoC4/TCPWM_1.c **** *     - PWM_MODE_RIGHT      - Setting for right aligned PWM.  Should be combined
 439:Generated_Source\PSoC4/TCPWM_1.c **** *                             with down counting mode
 440:Generated_Source\PSoC4/TCPWM_1.c **** *     - PWM_MODE_CENTER     - Setting for center aligned PWM.  Should be
 441:Generated_Source\PSoC4/TCPWM_1.c **** *                             combined with up/down 0 mode
 442:Generated_Source\PSoC4/TCPWM_1.c **** *     - PWM_MODE_ASYM       - Setting for asymmetric PWM.  Should be combined
 443:Generated_Source\PSoC4/TCPWM_1.c **** *                             with up/down 1 mode
 444:Generated_Source\PSoC4/TCPWM_1.c **** *
 445:Generated_Source\PSoC4/TCPWM_1.c **** * Return:
 446:Generated_Source\PSoC4/TCPWM_1.c **** *  None
 447:Generated_Source\PSoC4/TCPWM_1.c **** *
 448:Generated_Source\PSoC4/TCPWM_1.c **** *******************************************************************************/
 449:Generated_Source\PSoC4/TCPWM_1.c **** void TCPWM_1_SetPWMMode(uint32 modeMask)
 450:Generated_Source\PSoC4/TCPWM_1.c **** {
 485              		.loc 1 450 0
 486              		.cfi_startproc
 487              		@ args = 0, pretend = 0, frame = 8
 488              		@ frame_needed = 1, uses_anonymous_args = 0
 489 0000 80B5     		push	{r7, lr}
 490              		.cfi_def_cfa_offset 8
 491              		.cfi_offset 7, -8
 492              		.cfi_offset 14, -4
 493 0002 82B0     		sub	sp, sp, #8
 494              		.cfi_def_cfa_offset 16
 495 0004 00AF     		add	r7, sp, #0
 496              		.cfi_def_cfa_register 7
 497 0006 7860     		str	r0, [r7, #4]
 451:Generated_Source\PSoC4/TCPWM_1.c ****     TCPWM_1_TRIG_CONTROL2_REG = (modeMask & TCPWM_1_6BIT_MASK);
 498              		.loc 1 451 0
 499 0008 044B     		ldr	r3, .L27
 500 000a 7A68     		ldr	r2, [r7, #4]
 501 000c 3F21     		movs	r1, #63
 502 000e 0A40     		ands	r2, r1
 503 0010 1A60     		str	r2, [r3]
 452:Generated_Source\PSoC4/TCPWM_1.c **** }
 504              		.loc 1 452 0
 505 0012 C046     		nop
 506 0014 BD46     		mov	sp, r7
 507 0016 02B0     		add	sp, sp, #8
 508              		@ sp needed
 509 0018 80BD     		pop	{r7, pc}
 510              	.L28:
 511 001a C046     		.align	2
 512              	.L27:
 513 001c 28012040 		.word	1075839272
 514              		.cfi_endproc
 515              	.LFE10:
 516              		.size	TCPWM_1_SetPWMMode, .-TCPWM_1_SetPWMMode
 517              		.section	.text.TCPWM_1_SetPWMSyncKill,"ax",%progbits
ARM GAS  C:\Users\puria\AppData\Local\Temp\ccpsVPDq.s 			page 18


 518              		.align	2
 519              		.global	TCPWM_1_SetPWMSyncKill
 520              		.code	16
 521              		.thumb_func
 522              		.type	TCPWM_1_SetPWMSyncKill, %function
 523              	TCPWM_1_SetPWMSyncKill:
 524              	.LFB11:
 453:Generated_Source\PSoC4/TCPWM_1.c **** 
 454:Generated_Source\PSoC4/TCPWM_1.c **** 
 455:Generated_Source\PSoC4/TCPWM_1.c **** 
 456:Generated_Source\PSoC4/TCPWM_1.c **** /*******************************************************************************
 457:Generated_Source\PSoC4/TCPWM_1.c **** * Function Name: TCPWM_1_SetPWMSyncKill
 458:Generated_Source\PSoC4/TCPWM_1.c **** ********************************************************************************
 459:Generated_Source\PSoC4/TCPWM_1.c **** *
 460:Generated_Source\PSoC4/TCPWM_1.c **** * Summary:
 461:Generated_Source\PSoC4/TCPWM_1.c **** *  Writes the register that controls whether the PWM kill signal (stop input)
 462:Generated_Source\PSoC4/TCPWM_1.c **** *  causes asynchronous or synchronous kill operation.  By default the kill
 463:Generated_Source\PSoC4/TCPWM_1.c **** *  operation is asynchronous.  This functionality is only applicable to the PWM
 464:Generated_Source\PSoC4/TCPWM_1.c **** *  and PWM with dead time modes.
 465:Generated_Source\PSoC4/TCPWM_1.c **** *
 466:Generated_Source\PSoC4/TCPWM_1.c **** *  For Synchronous mode the kill signal disables both the line and line_n
 467:Generated_Source\PSoC4/TCPWM_1.c **** *  signals until the next terminal count.
 468:Generated_Source\PSoC4/TCPWM_1.c **** *
 469:Generated_Source\PSoC4/TCPWM_1.c **** *  For Asynchronous mode the kill signal disables both the line and line_n
 470:Generated_Source\PSoC4/TCPWM_1.c **** *  signals when the kill signal is present.  This mode should only be used
 471:Generated_Source\PSoC4/TCPWM_1.c **** *  when the kill signal (stop input) is configured in the pass through mode
 472:Generated_Source\PSoC4/TCPWM_1.c **** *  (Level sensitive signal).
 473:Generated_Source\PSoC4/TCPWM_1.c **** 
 474:Generated_Source\PSoC4/TCPWM_1.c **** *
 475:Generated_Source\PSoC4/TCPWM_1.c **** * Parameters:
 476:Generated_Source\PSoC4/TCPWM_1.c **** *  syncKillEnable
 477:Generated_Source\PSoC4/TCPWM_1.c **** *   Values:
 478:Generated_Source\PSoC4/TCPWM_1.c **** *     - 0 - Asynchronous
 479:Generated_Source\PSoC4/TCPWM_1.c **** *     - 1 - Synchronous
 480:Generated_Source\PSoC4/TCPWM_1.c **** *
 481:Generated_Source\PSoC4/TCPWM_1.c **** * Return:
 482:Generated_Source\PSoC4/TCPWM_1.c **** *  None
 483:Generated_Source\PSoC4/TCPWM_1.c **** *
 484:Generated_Source\PSoC4/TCPWM_1.c **** *******************************************************************************/
 485:Generated_Source\PSoC4/TCPWM_1.c **** void TCPWM_1_SetPWMSyncKill(uint32 syncKillEnable)
 486:Generated_Source\PSoC4/TCPWM_1.c **** {
 525              		.loc 1 486 0
 526              		.cfi_startproc
 527              		@ args = 0, pretend = 0, frame = 16
 528              		@ frame_needed = 1, uses_anonymous_args = 0
 529 0000 90B5     		push	{r4, r7, lr}
 530              		.cfi_def_cfa_offset 12
 531              		.cfi_offset 4, -12
 532              		.cfi_offset 7, -8
 533              		.cfi_offset 14, -4
 534 0002 85B0     		sub	sp, sp, #20
 535              		.cfi_def_cfa_offset 32
 536 0004 00AF     		add	r7, sp, #0
 537              		.cfi_def_cfa_register 7
 538 0006 7860     		str	r0, [r7, #4]
 487:Generated_Source\PSoC4/TCPWM_1.c ****     uint8 enableInterrupts;
 488:Generated_Source\PSoC4/TCPWM_1.c **** 
ARM GAS  C:\Users\puria\AppData\Local\Temp\ccpsVPDq.s 			page 19


 489:Generated_Source\PSoC4/TCPWM_1.c ****     enableInterrupts = CyEnterCriticalSection();
 539              		.loc 1 489 0
 540 0008 0F23     		movs	r3, #15
 541 000a FC18     		adds	r4, r7, r3
 542 000c FFF7FEFF 		bl	CyEnterCriticalSection
 543 0010 0300     		movs	r3, r0
 544 0012 2370     		strb	r3, [r4]
 490:Generated_Source\PSoC4/TCPWM_1.c **** 
 491:Generated_Source\PSoC4/TCPWM_1.c ****     TCPWM_1_CONTROL_REG &= (uint32)~TCPWM_1_PWM_SYNC_KILL_MASK;
 545              		.loc 1 491 0
 546 0014 0C4B     		ldr	r3, .L30
 547 0016 0C4A     		ldr	r2, .L30
 548 0018 1268     		ldr	r2, [r2]
 549 001a 0421     		movs	r1, #4
 550 001c 8A43     		bics	r2, r1
 551 001e 1A60     		str	r2, [r3]
 492:Generated_Source\PSoC4/TCPWM_1.c ****     TCPWM_1_CONTROL_REG |= ((uint32)((syncKillEnable & TCPWM_1_1BIT_MASK)  <<
 552              		.loc 1 492 0
 553 0020 094B     		ldr	r3, .L30
 554 0022 094A     		ldr	r2, .L30
 555 0024 1168     		ldr	r1, [r2]
 556 0026 7A68     		ldr	r2, [r7, #4]
 557 0028 9200     		lsls	r2, r2, #2
 558 002a 0420     		movs	r0, #4
 559 002c 0240     		ands	r2, r0
 560 002e 0A43     		orrs	r2, r1
 561 0030 1A60     		str	r2, [r3]
 493:Generated_Source\PSoC4/TCPWM_1.c ****                                                TCPWM_1_PWM_SYNC_KILL_SHIFT));
 494:Generated_Source\PSoC4/TCPWM_1.c **** 
 495:Generated_Source\PSoC4/TCPWM_1.c ****     CyExitCriticalSection(enableInterrupts);
 562              		.loc 1 495 0
 563 0032 0F23     		movs	r3, #15
 564 0034 FB18     		adds	r3, r7, r3
 565 0036 1B78     		ldrb	r3, [r3]
 566 0038 1800     		movs	r0, r3
 567 003a FFF7FEFF 		bl	CyExitCriticalSection
 496:Generated_Source\PSoC4/TCPWM_1.c **** }
 568              		.loc 1 496 0
 569 003e C046     		nop
 570 0040 BD46     		mov	sp, r7
 571 0042 05B0     		add	sp, sp, #20
 572              		@ sp needed
 573 0044 90BD     		pop	{r4, r7, pc}
 574              	.L31:
 575 0046 C046     		.align	2
 576              	.L30:
 577 0048 00012040 		.word	1075839232
 578              		.cfi_endproc
 579              	.LFE11:
 580              		.size	TCPWM_1_SetPWMSyncKill, .-TCPWM_1_SetPWMSyncKill
 581              		.section	.text.TCPWM_1_SetPWMStopOnKill,"ax",%progbits
 582              		.align	2
 583              		.global	TCPWM_1_SetPWMStopOnKill
 584              		.code	16
 585              		.thumb_func
 586              		.type	TCPWM_1_SetPWMStopOnKill, %function
 587              	TCPWM_1_SetPWMStopOnKill:
ARM GAS  C:\Users\puria\AppData\Local\Temp\ccpsVPDq.s 			page 20


 588              	.LFB12:
 497:Generated_Source\PSoC4/TCPWM_1.c **** 
 498:Generated_Source\PSoC4/TCPWM_1.c **** 
 499:Generated_Source\PSoC4/TCPWM_1.c **** /*******************************************************************************
 500:Generated_Source\PSoC4/TCPWM_1.c **** * Function Name: TCPWM_1_SetPWMStopOnKill
 501:Generated_Source\PSoC4/TCPWM_1.c **** ********************************************************************************
 502:Generated_Source\PSoC4/TCPWM_1.c **** *
 503:Generated_Source\PSoC4/TCPWM_1.c **** * Summary:
 504:Generated_Source\PSoC4/TCPWM_1.c **** *  Writes the register that controls whether the PWM kill signal (stop input)
 505:Generated_Source\PSoC4/TCPWM_1.c **** *  causes the PWM counter to stop.  By default the kill operation does not stop
 506:Generated_Source\PSoC4/TCPWM_1.c **** *  the counter.  This functionality is only applicable to the three PWM modes.
 507:Generated_Source\PSoC4/TCPWM_1.c **** *
 508:Generated_Source\PSoC4/TCPWM_1.c **** *
 509:Generated_Source\PSoC4/TCPWM_1.c **** * Parameters:
 510:Generated_Source\PSoC4/TCPWM_1.c **** *  stopOnKillEnable
 511:Generated_Source\PSoC4/TCPWM_1.c **** *   Values:
 512:Generated_Source\PSoC4/TCPWM_1.c **** *     - 0 - Don't stop
 513:Generated_Source\PSoC4/TCPWM_1.c **** *     - 1 - Stop
 514:Generated_Source\PSoC4/TCPWM_1.c **** *
 515:Generated_Source\PSoC4/TCPWM_1.c **** * Return:
 516:Generated_Source\PSoC4/TCPWM_1.c **** *  None
 517:Generated_Source\PSoC4/TCPWM_1.c **** *
 518:Generated_Source\PSoC4/TCPWM_1.c **** *******************************************************************************/
 519:Generated_Source\PSoC4/TCPWM_1.c **** void TCPWM_1_SetPWMStopOnKill(uint32 stopOnKillEnable)
 520:Generated_Source\PSoC4/TCPWM_1.c **** {
 589              		.loc 1 520 0
 590              		.cfi_startproc
 591              		@ args = 0, pretend = 0, frame = 16
 592              		@ frame_needed = 1, uses_anonymous_args = 0
 593 0000 90B5     		push	{r4, r7, lr}
 594              		.cfi_def_cfa_offset 12
 595              		.cfi_offset 4, -12
 596              		.cfi_offset 7, -8
 597              		.cfi_offset 14, -4
 598 0002 85B0     		sub	sp, sp, #20
 599              		.cfi_def_cfa_offset 32
 600 0004 00AF     		add	r7, sp, #0
 601              		.cfi_def_cfa_register 7
 602 0006 7860     		str	r0, [r7, #4]
 521:Generated_Source\PSoC4/TCPWM_1.c ****     uint8 enableInterrupts;
 522:Generated_Source\PSoC4/TCPWM_1.c **** 
 523:Generated_Source\PSoC4/TCPWM_1.c ****     enableInterrupts = CyEnterCriticalSection();
 603              		.loc 1 523 0
 604 0008 0F23     		movs	r3, #15
 605 000a FC18     		adds	r4, r7, r3
 606 000c FFF7FEFF 		bl	CyEnterCriticalSection
 607 0010 0300     		movs	r3, r0
 608 0012 2370     		strb	r3, [r4]
 524:Generated_Source\PSoC4/TCPWM_1.c **** 
 525:Generated_Source\PSoC4/TCPWM_1.c ****     TCPWM_1_CONTROL_REG &= (uint32)~TCPWM_1_PWM_STOP_KILL_MASK;
 609              		.loc 1 525 0
 610 0014 0C4B     		ldr	r3, .L33
 611 0016 0C4A     		ldr	r2, .L33
 612 0018 1268     		ldr	r2, [r2]
 613 001a 0821     		movs	r1, #8
 614 001c 8A43     		bics	r2, r1
 615 001e 1A60     		str	r2, [r3]
ARM GAS  C:\Users\puria\AppData\Local\Temp\ccpsVPDq.s 			page 21


 526:Generated_Source\PSoC4/TCPWM_1.c ****     TCPWM_1_CONTROL_REG |= ((uint32)((stopOnKillEnable & TCPWM_1_1BIT_MASK)  <<
 616              		.loc 1 526 0
 617 0020 094B     		ldr	r3, .L33
 618 0022 094A     		ldr	r2, .L33
 619 0024 1168     		ldr	r1, [r2]
 620 0026 7A68     		ldr	r2, [r7, #4]
 621 0028 D200     		lsls	r2, r2, #3
 622 002a 0820     		movs	r0, #8
 623 002c 0240     		ands	r2, r0
 624 002e 0A43     		orrs	r2, r1
 625 0030 1A60     		str	r2, [r3]
 527:Generated_Source\PSoC4/TCPWM_1.c ****                                                          TCPWM_1_PWM_STOP_KILL_SHIFT));
 528:Generated_Source\PSoC4/TCPWM_1.c **** 
 529:Generated_Source\PSoC4/TCPWM_1.c ****     CyExitCriticalSection(enableInterrupts);
 626              		.loc 1 529 0
 627 0032 0F23     		movs	r3, #15
 628 0034 FB18     		adds	r3, r7, r3
 629 0036 1B78     		ldrb	r3, [r3]
 630 0038 1800     		movs	r0, r3
 631 003a FFF7FEFF 		bl	CyExitCriticalSection
 530:Generated_Source\PSoC4/TCPWM_1.c **** }
 632              		.loc 1 530 0
 633 003e C046     		nop
 634 0040 BD46     		mov	sp, r7
 635 0042 05B0     		add	sp, sp, #20
 636              		@ sp needed
 637 0044 90BD     		pop	{r4, r7, pc}
 638              	.L34:
 639 0046 C046     		.align	2
 640              	.L33:
 641 0048 00012040 		.word	1075839232
 642              		.cfi_endproc
 643              	.LFE12:
 644              		.size	TCPWM_1_SetPWMStopOnKill, .-TCPWM_1_SetPWMStopOnKill
 645              		.section	.text.TCPWM_1_SetPWMDeadTime,"ax",%progbits
 646              		.align	2
 647              		.global	TCPWM_1_SetPWMDeadTime
 648              		.code	16
 649              		.thumb_func
 650              		.type	TCPWM_1_SetPWMDeadTime, %function
 651              	TCPWM_1_SetPWMDeadTime:
 652              	.LFB13:
 531:Generated_Source\PSoC4/TCPWM_1.c **** 
 532:Generated_Source\PSoC4/TCPWM_1.c **** 
 533:Generated_Source\PSoC4/TCPWM_1.c **** /*******************************************************************************
 534:Generated_Source\PSoC4/TCPWM_1.c **** * Function Name: TCPWM_1_SetPWMDeadTime
 535:Generated_Source\PSoC4/TCPWM_1.c **** ********************************************************************************
 536:Generated_Source\PSoC4/TCPWM_1.c **** *
 537:Generated_Source\PSoC4/TCPWM_1.c **** * Summary:
 538:Generated_Source\PSoC4/TCPWM_1.c **** *  Writes the dead time control value.  This value delays the rising edge of
 539:Generated_Source\PSoC4/TCPWM_1.c **** *  both the line and line_n signals the designated number of cycles resulting
 540:Generated_Source\PSoC4/TCPWM_1.c **** *  in both signals being inactive for that many cycles.  This functionality is
 541:Generated_Source\PSoC4/TCPWM_1.c **** *  only applicable to the PWM in the dead time mode.
 542:Generated_Source\PSoC4/TCPWM_1.c **** 
 543:Generated_Source\PSoC4/TCPWM_1.c **** *
 544:Generated_Source\PSoC4/TCPWM_1.c **** * Parameters:
 545:Generated_Source\PSoC4/TCPWM_1.c **** *  Dead time to insert
ARM GAS  C:\Users\puria\AppData\Local\Temp\ccpsVPDq.s 			page 22


 546:Generated_Source\PSoC4/TCPWM_1.c **** *   Values: 0 to 255
 547:Generated_Source\PSoC4/TCPWM_1.c **** *
 548:Generated_Source\PSoC4/TCPWM_1.c **** * Return:
 549:Generated_Source\PSoC4/TCPWM_1.c **** *  None
 550:Generated_Source\PSoC4/TCPWM_1.c **** *
 551:Generated_Source\PSoC4/TCPWM_1.c **** *******************************************************************************/
 552:Generated_Source\PSoC4/TCPWM_1.c **** void TCPWM_1_SetPWMDeadTime(uint32 deadTime)
 553:Generated_Source\PSoC4/TCPWM_1.c **** {
 653              		.loc 1 553 0
 654              		.cfi_startproc
 655              		@ args = 0, pretend = 0, frame = 16
 656              		@ frame_needed = 1, uses_anonymous_args = 0
 657 0000 90B5     		push	{r4, r7, lr}
 658              		.cfi_def_cfa_offset 12
 659              		.cfi_offset 4, -12
 660              		.cfi_offset 7, -8
 661              		.cfi_offset 14, -4
 662 0002 85B0     		sub	sp, sp, #20
 663              		.cfi_def_cfa_offset 32
 664 0004 00AF     		add	r7, sp, #0
 665              		.cfi_def_cfa_register 7
 666 0006 7860     		str	r0, [r7, #4]
 554:Generated_Source\PSoC4/TCPWM_1.c ****     uint8 enableInterrupts;
 555:Generated_Source\PSoC4/TCPWM_1.c **** 
 556:Generated_Source\PSoC4/TCPWM_1.c ****     enableInterrupts = CyEnterCriticalSection();
 667              		.loc 1 556 0
 668 0008 0F23     		movs	r3, #15
 669 000a FC18     		adds	r4, r7, r3
 670 000c FFF7FEFF 		bl	CyEnterCriticalSection
 671 0010 0300     		movs	r3, r0
 672 0012 2370     		strb	r3, [r4]
 557:Generated_Source\PSoC4/TCPWM_1.c **** 
 558:Generated_Source\PSoC4/TCPWM_1.c ****     TCPWM_1_CONTROL_REG &= (uint32)~TCPWM_1_PRESCALER_MASK;
 673              		.loc 1 558 0
 674 0014 0C4B     		ldr	r3, .L36
 675 0016 0C4A     		ldr	r2, .L36
 676 0018 1268     		ldr	r2, [r2]
 677 001a 0C49     		ldr	r1, .L36+4
 678 001c 0A40     		ands	r2, r1
 679 001e 1A60     		str	r2, [r3]
 559:Generated_Source\PSoC4/TCPWM_1.c ****     TCPWM_1_CONTROL_REG |= ((uint32)((deadTime & TCPWM_1_8BIT_MASK) <<
 680              		.loc 1 559 0
 681 0020 094B     		ldr	r3, .L36
 682 0022 094A     		ldr	r2, .L36
 683 0024 1168     		ldr	r1, [r2]
 684 0026 7A68     		ldr	r2, [r7, #4]
 685 0028 1202     		lsls	r2, r2, #8
 686 002a 1204     		lsls	r2, r2, #16
 687 002c 120C     		lsrs	r2, r2, #16
 688 002e 0A43     		orrs	r2, r1
 689 0030 1A60     		str	r2, [r3]
 560:Generated_Source\PSoC4/TCPWM_1.c ****                                                           TCPWM_1_PRESCALER_SHIFT));
 561:Generated_Source\PSoC4/TCPWM_1.c **** 
 562:Generated_Source\PSoC4/TCPWM_1.c ****     CyExitCriticalSection(enableInterrupts);
 690              		.loc 1 562 0
 691 0032 0F23     		movs	r3, #15
 692 0034 FB18     		adds	r3, r7, r3
ARM GAS  C:\Users\puria\AppData\Local\Temp\ccpsVPDq.s 			page 23


 693 0036 1B78     		ldrb	r3, [r3]
 694 0038 1800     		movs	r0, r3
 695 003a FFF7FEFF 		bl	CyExitCriticalSection
 563:Generated_Source\PSoC4/TCPWM_1.c **** }
 696              		.loc 1 563 0
 697 003e C046     		nop
 698 0040 BD46     		mov	sp, r7
 699 0042 05B0     		add	sp, sp, #20
 700              		@ sp needed
 701 0044 90BD     		pop	{r4, r7, pc}
 702              	.L37:
 703 0046 C046     		.align	2
 704              	.L36:
 705 0048 00012040 		.word	1075839232
 706 004c FF00FFFF 		.word	-65281
 707              		.cfi_endproc
 708              	.LFE13:
 709              		.size	TCPWM_1_SetPWMDeadTime, .-TCPWM_1_SetPWMDeadTime
 710              		.section	.text.TCPWM_1_SetPWMInvert,"ax",%progbits
 711              		.align	2
 712              		.global	TCPWM_1_SetPWMInvert
 713              		.code	16
 714              		.thumb_func
 715              		.type	TCPWM_1_SetPWMInvert, %function
 716              	TCPWM_1_SetPWMInvert:
 717              	.LFB14:
 564:Generated_Source\PSoC4/TCPWM_1.c **** 
 565:Generated_Source\PSoC4/TCPWM_1.c **** 
 566:Generated_Source\PSoC4/TCPWM_1.c **** /*******************************************************************************
 567:Generated_Source\PSoC4/TCPWM_1.c **** * Function Name: TCPWM_1_SetPWMInvert
 568:Generated_Source\PSoC4/TCPWM_1.c **** ********************************************************************************
 569:Generated_Source\PSoC4/TCPWM_1.c **** *
 570:Generated_Source\PSoC4/TCPWM_1.c **** * Summary:
 571:Generated_Source\PSoC4/TCPWM_1.c **** *  Writes the bits that control whether the line and line_n outputs are
 572:Generated_Source\PSoC4/TCPWM_1.c **** *  inverted from their normal output values.  This functionality is only
 573:Generated_Source\PSoC4/TCPWM_1.c **** *  applicable to the three PWM modes.
 574:Generated_Source\PSoC4/TCPWM_1.c **** *
 575:Generated_Source\PSoC4/TCPWM_1.c **** * Parameters:
 576:Generated_Source\PSoC4/TCPWM_1.c **** *  mask: Mask of outputs to invert.
 577:Generated_Source\PSoC4/TCPWM_1.c **** *   Values:
 578:Generated_Source\PSoC4/TCPWM_1.c **** *         - TCPWM_1_INVERT_LINE   - Inverts the line output
 579:Generated_Source\PSoC4/TCPWM_1.c **** *         - TCPWM_1_INVERT_LINE_N - Inverts the line_n output
 580:Generated_Source\PSoC4/TCPWM_1.c **** *
 581:Generated_Source\PSoC4/TCPWM_1.c **** * Return:
 582:Generated_Source\PSoC4/TCPWM_1.c **** *  None
 583:Generated_Source\PSoC4/TCPWM_1.c **** *
 584:Generated_Source\PSoC4/TCPWM_1.c **** *******************************************************************************/
 585:Generated_Source\PSoC4/TCPWM_1.c **** void TCPWM_1_SetPWMInvert(uint32 mask)
 586:Generated_Source\PSoC4/TCPWM_1.c **** {
 718              		.loc 1 586 0
 719              		.cfi_startproc
 720              		@ args = 0, pretend = 0, frame = 16
 721              		@ frame_needed = 1, uses_anonymous_args = 0
 722 0000 90B5     		push	{r4, r7, lr}
 723              		.cfi_def_cfa_offset 12
 724              		.cfi_offset 4, -12
 725              		.cfi_offset 7, -8
ARM GAS  C:\Users\puria\AppData\Local\Temp\ccpsVPDq.s 			page 24


 726              		.cfi_offset 14, -4
 727 0002 85B0     		sub	sp, sp, #20
 728              		.cfi_def_cfa_offset 32
 729 0004 00AF     		add	r7, sp, #0
 730              		.cfi_def_cfa_register 7
 731 0006 7860     		str	r0, [r7, #4]
 587:Generated_Source\PSoC4/TCPWM_1.c ****     uint8 enableInterrupts;
 588:Generated_Source\PSoC4/TCPWM_1.c **** 
 589:Generated_Source\PSoC4/TCPWM_1.c ****     enableInterrupts = CyEnterCriticalSection();
 732              		.loc 1 589 0
 733 0008 0F23     		movs	r3, #15
 734 000a FC18     		adds	r4, r7, r3
 735 000c FFF7FEFF 		bl	CyEnterCriticalSection
 736 0010 0300     		movs	r3, r0
 737 0012 2370     		strb	r3, [r4]
 590:Generated_Source\PSoC4/TCPWM_1.c **** 
 591:Generated_Source\PSoC4/TCPWM_1.c ****     TCPWM_1_CONTROL_REG &= (uint32)~TCPWM_1_INV_OUT_MASK;
 738              		.loc 1 591 0
 739 0014 0A4B     		ldr	r3, .L39
 740 0016 0A4A     		ldr	r2, .L39
 741 0018 1268     		ldr	r2, [r2]
 742 001a 0A49     		ldr	r1, .L39+4
 743 001c 0A40     		ands	r2, r1
 744 001e 1A60     		str	r2, [r3]
 592:Generated_Source\PSoC4/TCPWM_1.c ****     TCPWM_1_CONTROL_REG |= mask;
 745              		.loc 1 592 0
 746 0020 074B     		ldr	r3, .L39
 747 0022 074A     		ldr	r2, .L39
 748 0024 1168     		ldr	r1, [r2]
 749 0026 7A68     		ldr	r2, [r7, #4]
 750 0028 0A43     		orrs	r2, r1
 751 002a 1A60     		str	r2, [r3]
 593:Generated_Source\PSoC4/TCPWM_1.c **** 
 594:Generated_Source\PSoC4/TCPWM_1.c ****     CyExitCriticalSection(enableInterrupts);
 752              		.loc 1 594 0
 753 002c 0F23     		movs	r3, #15
 754 002e FB18     		adds	r3, r7, r3
 755 0030 1B78     		ldrb	r3, [r3]
 756 0032 1800     		movs	r0, r3
 757 0034 FFF7FEFF 		bl	CyExitCriticalSection
 595:Generated_Source\PSoC4/TCPWM_1.c **** }
 758              		.loc 1 595 0
 759 0038 C046     		nop
 760 003a BD46     		mov	sp, r7
 761 003c 05B0     		add	sp, sp, #20
 762              		@ sp needed
 763 003e 90BD     		pop	{r4, r7, pc}
 764              	.L40:
 765              		.align	2
 766              	.L39:
 767 0040 00012040 		.word	1075839232
 768 0044 FFFFCFFF 		.word	-3145729
 769              		.cfi_endproc
 770              	.LFE14:
 771              		.size	TCPWM_1_SetPWMInvert, .-TCPWM_1_SetPWMInvert
 772              		.section	.text.TCPWM_1_WriteCounter,"ax",%progbits
 773              		.align	2
ARM GAS  C:\Users\puria\AppData\Local\Temp\ccpsVPDq.s 			page 25


 774              		.global	TCPWM_1_WriteCounter
 775              		.code	16
 776              		.thumb_func
 777              		.type	TCPWM_1_WriteCounter, %function
 778              	TCPWM_1_WriteCounter:
 779              	.LFB15:
 596:Generated_Source\PSoC4/TCPWM_1.c **** 
 597:Generated_Source\PSoC4/TCPWM_1.c **** 
 598:Generated_Source\PSoC4/TCPWM_1.c **** 
 599:Generated_Source\PSoC4/TCPWM_1.c **** /*******************************************************************************
 600:Generated_Source\PSoC4/TCPWM_1.c **** * Function Name: TCPWM_1_WriteCounter
 601:Generated_Source\PSoC4/TCPWM_1.c **** ********************************************************************************
 602:Generated_Source\PSoC4/TCPWM_1.c **** *
 603:Generated_Source\PSoC4/TCPWM_1.c **** * Summary:
 604:Generated_Source\PSoC4/TCPWM_1.c **** *  Writes a new 16bit counter value directly into the counter register, thus
 605:Generated_Source\PSoC4/TCPWM_1.c **** *  setting the counter (not the period) to the value written. It is not
 606:Generated_Source\PSoC4/TCPWM_1.c **** *  advised to write to this field when the counter is running.
 607:Generated_Source\PSoC4/TCPWM_1.c **** *
 608:Generated_Source\PSoC4/TCPWM_1.c **** * Parameters:
 609:Generated_Source\PSoC4/TCPWM_1.c **** *  count: value to write
 610:Generated_Source\PSoC4/TCPWM_1.c **** *
 611:Generated_Source\PSoC4/TCPWM_1.c **** * Return:
 612:Generated_Source\PSoC4/TCPWM_1.c **** *  None
 613:Generated_Source\PSoC4/TCPWM_1.c **** *
 614:Generated_Source\PSoC4/TCPWM_1.c **** *******************************************************************************/
 615:Generated_Source\PSoC4/TCPWM_1.c **** void TCPWM_1_WriteCounter(uint32 count)
 616:Generated_Source\PSoC4/TCPWM_1.c **** {
 780              		.loc 1 616 0
 781              		.cfi_startproc
 782              		@ args = 0, pretend = 0, frame = 8
 783              		@ frame_needed = 1, uses_anonymous_args = 0
 784 0000 80B5     		push	{r7, lr}
 785              		.cfi_def_cfa_offset 8
 786              		.cfi_offset 7, -8
 787              		.cfi_offset 14, -4
 788 0002 82B0     		sub	sp, sp, #8
 789              		.cfi_def_cfa_offset 16
 790 0004 00AF     		add	r7, sp, #0
 791              		.cfi_def_cfa_register 7
 792 0006 7860     		str	r0, [r7, #4]
 617:Generated_Source\PSoC4/TCPWM_1.c ****     TCPWM_1_COUNTER_REG = (count & TCPWM_1_16BIT_MASK);
 793              		.loc 1 617 0
 794 0008 044B     		ldr	r3, .L42
 795 000a 7A68     		ldr	r2, [r7, #4]
 796 000c 1204     		lsls	r2, r2, #16
 797 000e 120C     		lsrs	r2, r2, #16
 798 0010 1A60     		str	r2, [r3]
 618:Generated_Source\PSoC4/TCPWM_1.c **** }
 799              		.loc 1 618 0
 800 0012 C046     		nop
 801 0014 BD46     		mov	sp, r7
 802 0016 02B0     		add	sp, sp, #8
 803              		@ sp needed
 804 0018 80BD     		pop	{r7, pc}
 805              	.L43:
 806 001a C046     		.align	2
 807              	.L42:
ARM GAS  C:\Users\puria\AppData\Local\Temp\ccpsVPDq.s 			page 26


 808 001c 08012040 		.word	1075839240
 809              		.cfi_endproc
 810              	.LFE15:
 811              		.size	TCPWM_1_WriteCounter, .-TCPWM_1_WriteCounter
 812              		.section	.text.TCPWM_1_ReadCounter,"ax",%progbits
 813              		.align	2
 814              		.global	TCPWM_1_ReadCounter
 815              		.code	16
 816              		.thumb_func
 817              		.type	TCPWM_1_ReadCounter, %function
 818              	TCPWM_1_ReadCounter:
 819              	.LFB16:
 619:Generated_Source\PSoC4/TCPWM_1.c **** 
 620:Generated_Source\PSoC4/TCPWM_1.c **** 
 621:Generated_Source\PSoC4/TCPWM_1.c **** /*******************************************************************************
 622:Generated_Source\PSoC4/TCPWM_1.c **** * Function Name: TCPWM_1_ReadCounter
 623:Generated_Source\PSoC4/TCPWM_1.c **** ********************************************************************************
 624:Generated_Source\PSoC4/TCPWM_1.c **** *
 625:Generated_Source\PSoC4/TCPWM_1.c **** * Summary:
 626:Generated_Source\PSoC4/TCPWM_1.c **** *  Reads the current counter value.
 627:Generated_Source\PSoC4/TCPWM_1.c **** *
 628:Generated_Source\PSoC4/TCPWM_1.c **** * Parameters:
 629:Generated_Source\PSoC4/TCPWM_1.c **** *  None
 630:Generated_Source\PSoC4/TCPWM_1.c **** *
 631:Generated_Source\PSoC4/TCPWM_1.c **** * Return:
 632:Generated_Source\PSoC4/TCPWM_1.c **** *  Current counter value
 633:Generated_Source\PSoC4/TCPWM_1.c **** *
 634:Generated_Source\PSoC4/TCPWM_1.c **** *******************************************************************************/
 635:Generated_Source\PSoC4/TCPWM_1.c **** uint32 TCPWM_1_ReadCounter(void)
 636:Generated_Source\PSoC4/TCPWM_1.c **** {
 820              		.loc 1 636 0
 821              		.cfi_startproc
 822              		@ args = 0, pretend = 0, frame = 0
 823              		@ frame_needed = 1, uses_anonymous_args = 0
 824 0000 80B5     		push	{r7, lr}
 825              		.cfi_def_cfa_offset 8
 826              		.cfi_offset 7, -8
 827              		.cfi_offset 14, -4
 828 0002 00AF     		add	r7, sp, #0
 829              		.cfi_def_cfa_register 7
 637:Generated_Source\PSoC4/TCPWM_1.c ****     return (TCPWM_1_COUNTER_REG & TCPWM_1_16BIT_MASK);
 830              		.loc 1 637 0
 831 0004 034B     		ldr	r3, .L46
 832 0006 1B68     		ldr	r3, [r3]
 833 0008 1B04     		lsls	r3, r3, #16
 834 000a 1B0C     		lsrs	r3, r3, #16
 638:Generated_Source\PSoC4/TCPWM_1.c **** }
 835              		.loc 1 638 0
 836 000c 1800     		movs	r0, r3
 837 000e BD46     		mov	sp, r7
 838              		@ sp needed
 839 0010 80BD     		pop	{r7, pc}
 840              	.L47:
 841 0012 C046     		.align	2
 842              	.L46:
 843 0014 08012040 		.word	1075839240
 844              		.cfi_endproc
ARM GAS  C:\Users\puria\AppData\Local\Temp\ccpsVPDq.s 			page 27


 845              	.LFE16:
 846              		.size	TCPWM_1_ReadCounter, .-TCPWM_1_ReadCounter
 847              		.section	.text.TCPWM_1_SetCounterMode,"ax",%progbits
 848              		.align	2
 849              		.global	TCPWM_1_SetCounterMode
 850              		.code	16
 851              		.thumb_func
 852              		.type	TCPWM_1_SetCounterMode, %function
 853              	TCPWM_1_SetCounterMode:
 854              	.LFB17:
 639:Generated_Source\PSoC4/TCPWM_1.c **** 
 640:Generated_Source\PSoC4/TCPWM_1.c **** 
 641:Generated_Source\PSoC4/TCPWM_1.c **** /*******************************************************************************
 642:Generated_Source\PSoC4/TCPWM_1.c **** * Function Name: TCPWM_1_SetCounterMode
 643:Generated_Source\PSoC4/TCPWM_1.c **** ********************************************************************************
 644:Generated_Source\PSoC4/TCPWM_1.c **** *
 645:Generated_Source\PSoC4/TCPWM_1.c **** * Summary:
 646:Generated_Source\PSoC4/TCPWM_1.c **** *  Sets the counter mode.  Applicable to all modes except Quadrature Decoder
 647:Generated_Source\PSoC4/TCPWM_1.c **** *  and the PWM with a pseudo random output.
 648:Generated_Source\PSoC4/TCPWM_1.c **** *
 649:Generated_Source\PSoC4/TCPWM_1.c **** * Parameters:
 650:Generated_Source\PSoC4/TCPWM_1.c **** *  counterMode: Enumerated counter type values
 651:Generated_Source\PSoC4/TCPWM_1.c **** *   Values:
 652:Generated_Source\PSoC4/TCPWM_1.c **** *     - TCPWM_1_COUNT_UP       - Counts up
 653:Generated_Source\PSoC4/TCPWM_1.c **** *     - TCPWM_1_COUNT_DOWN     - Counts down
 654:Generated_Source\PSoC4/TCPWM_1.c **** *     - TCPWM_1_COUNT_UPDOWN0  - Counts up and down. Terminal count
 655:Generated_Source\PSoC4/TCPWM_1.c **** *                                         generated when counter reaches 0
 656:Generated_Source\PSoC4/TCPWM_1.c **** *     - TCPWM_1_COUNT_UPDOWN1  - Counts up and down. Terminal count
 657:Generated_Source\PSoC4/TCPWM_1.c **** *                                         generated both when counter reaches 0
 658:Generated_Source\PSoC4/TCPWM_1.c **** *                                         and period
 659:Generated_Source\PSoC4/TCPWM_1.c **** *
 660:Generated_Source\PSoC4/TCPWM_1.c **** * Return:
 661:Generated_Source\PSoC4/TCPWM_1.c **** *  None
 662:Generated_Source\PSoC4/TCPWM_1.c **** *
 663:Generated_Source\PSoC4/TCPWM_1.c **** *******************************************************************************/
 664:Generated_Source\PSoC4/TCPWM_1.c **** void TCPWM_1_SetCounterMode(uint32 counterMode)
 665:Generated_Source\PSoC4/TCPWM_1.c **** {
 855              		.loc 1 665 0
 856              		.cfi_startproc
 857              		@ args = 0, pretend = 0, frame = 16
 858              		@ frame_needed = 1, uses_anonymous_args = 0
 859 0000 90B5     		push	{r4, r7, lr}
 860              		.cfi_def_cfa_offset 12
 861              		.cfi_offset 4, -12
 862              		.cfi_offset 7, -8
 863              		.cfi_offset 14, -4
 864 0002 85B0     		sub	sp, sp, #20
 865              		.cfi_def_cfa_offset 32
 866 0004 00AF     		add	r7, sp, #0
 867              		.cfi_def_cfa_register 7
 868 0006 7860     		str	r0, [r7, #4]
 666:Generated_Source\PSoC4/TCPWM_1.c ****     uint8 enableInterrupts;
 667:Generated_Source\PSoC4/TCPWM_1.c **** 
 668:Generated_Source\PSoC4/TCPWM_1.c ****     enableInterrupts = CyEnterCriticalSection();
 869              		.loc 1 668 0
 870 0008 0F23     		movs	r3, #15
 871 000a FC18     		adds	r4, r7, r3
ARM GAS  C:\Users\puria\AppData\Local\Temp\ccpsVPDq.s 			page 28


 872 000c FFF7FEFF 		bl	CyEnterCriticalSection
 873 0010 0300     		movs	r3, r0
 874 0012 2370     		strb	r3, [r4]
 669:Generated_Source\PSoC4/TCPWM_1.c **** 
 670:Generated_Source\PSoC4/TCPWM_1.c ****     TCPWM_1_CONTROL_REG &= (uint32)~TCPWM_1_UPDOWN_MASK;
 875              		.loc 1 670 0
 876 0014 0A4B     		ldr	r3, .L49
 877 0016 0A4A     		ldr	r2, .L49
 878 0018 1268     		ldr	r2, [r2]
 879 001a 0A49     		ldr	r1, .L49+4
 880 001c 0A40     		ands	r2, r1
 881 001e 1A60     		str	r2, [r3]
 671:Generated_Source\PSoC4/TCPWM_1.c ****     TCPWM_1_CONTROL_REG |= counterMode;
 882              		.loc 1 671 0
 883 0020 074B     		ldr	r3, .L49
 884 0022 074A     		ldr	r2, .L49
 885 0024 1168     		ldr	r1, [r2]
 886 0026 7A68     		ldr	r2, [r7, #4]
 887 0028 0A43     		orrs	r2, r1
 888 002a 1A60     		str	r2, [r3]
 672:Generated_Source\PSoC4/TCPWM_1.c **** 
 673:Generated_Source\PSoC4/TCPWM_1.c ****     CyExitCriticalSection(enableInterrupts);
 889              		.loc 1 673 0
 890 002c 0F23     		movs	r3, #15
 891 002e FB18     		adds	r3, r7, r3
 892 0030 1B78     		ldrb	r3, [r3]
 893 0032 1800     		movs	r0, r3
 894 0034 FFF7FEFF 		bl	CyExitCriticalSection
 674:Generated_Source\PSoC4/TCPWM_1.c **** }
 895              		.loc 1 674 0
 896 0038 C046     		nop
 897 003a BD46     		mov	sp, r7
 898 003c 05B0     		add	sp, sp, #20
 899              		@ sp needed
 900 003e 90BD     		pop	{r4, r7, pc}
 901              	.L50:
 902              		.align	2
 903              	.L49:
 904 0040 00012040 		.word	1075839232
 905 0044 FFFFFCFF 		.word	-196609
 906              		.cfi_endproc
 907              	.LFE17:
 908              		.size	TCPWM_1_SetCounterMode, .-TCPWM_1_SetCounterMode
 909              		.section	.text.TCPWM_1_WritePeriod,"ax",%progbits
 910              		.align	2
 911              		.global	TCPWM_1_WritePeriod
 912              		.code	16
 913              		.thumb_func
 914              		.type	TCPWM_1_WritePeriod, %function
 915              	TCPWM_1_WritePeriod:
 916              	.LFB18:
 675:Generated_Source\PSoC4/TCPWM_1.c **** 
 676:Generated_Source\PSoC4/TCPWM_1.c **** 
 677:Generated_Source\PSoC4/TCPWM_1.c **** /*******************************************************************************
 678:Generated_Source\PSoC4/TCPWM_1.c **** * Function Name: TCPWM_1_WritePeriod
 679:Generated_Source\PSoC4/TCPWM_1.c **** ********************************************************************************
 680:Generated_Source\PSoC4/TCPWM_1.c **** *
ARM GAS  C:\Users\puria\AppData\Local\Temp\ccpsVPDq.s 			page 29


 681:Generated_Source\PSoC4/TCPWM_1.c **** * Summary:
 682:Generated_Source\PSoC4/TCPWM_1.c **** *  Writes the 16 bit period register with the new period value.
 683:Generated_Source\PSoC4/TCPWM_1.c **** *  To cause the counter to count for N cycles this register should be written
 684:Generated_Source\PSoC4/TCPWM_1.c **** *  with N-1 (counts from 0 to period inclusive).
 685:Generated_Source\PSoC4/TCPWM_1.c **** *
 686:Generated_Source\PSoC4/TCPWM_1.c **** * Parameters:
 687:Generated_Source\PSoC4/TCPWM_1.c **** *  period: Period value
 688:Generated_Source\PSoC4/TCPWM_1.c **** *
 689:Generated_Source\PSoC4/TCPWM_1.c **** * Return:
 690:Generated_Source\PSoC4/TCPWM_1.c **** *  None
 691:Generated_Source\PSoC4/TCPWM_1.c **** *
 692:Generated_Source\PSoC4/TCPWM_1.c **** *******************************************************************************/
 693:Generated_Source\PSoC4/TCPWM_1.c **** void TCPWM_1_WritePeriod(uint32 period)
 694:Generated_Source\PSoC4/TCPWM_1.c **** {
 917              		.loc 1 694 0
 918              		.cfi_startproc
 919              		@ args = 0, pretend = 0, frame = 8
 920              		@ frame_needed = 1, uses_anonymous_args = 0
 921 0000 80B5     		push	{r7, lr}
 922              		.cfi_def_cfa_offset 8
 923              		.cfi_offset 7, -8
 924              		.cfi_offset 14, -4
 925 0002 82B0     		sub	sp, sp, #8
 926              		.cfi_def_cfa_offset 16
 927 0004 00AF     		add	r7, sp, #0
 928              		.cfi_def_cfa_register 7
 929 0006 7860     		str	r0, [r7, #4]
 695:Generated_Source\PSoC4/TCPWM_1.c ****     TCPWM_1_PERIOD_REG = (period & TCPWM_1_16BIT_MASK);
 930              		.loc 1 695 0
 931 0008 044B     		ldr	r3, .L52
 932 000a 7A68     		ldr	r2, [r7, #4]
 933 000c 1204     		lsls	r2, r2, #16
 934 000e 120C     		lsrs	r2, r2, #16
 935 0010 1A60     		str	r2, [r3]
 696:Generated_Source\PSoC4/TCPWM_1.c **** }
 936              		.loc 1 696 0
 937 0012 C046     		nop
 938 0014 BD46     		mov	sp, r7
 939 0016 02B0     		add	sp, sp, #8
 940              		@ sp needed
 941 0018 80BD     		pop	{r7, pc}
 942              	.L53:
 943 001a C046     		.align	2
 944              	.L52:
 945 001c 14012040 		.word	1075839252
 946              		.cfi_endproc
 947              	.LFE18:
 948              		.size	TCPWM_1_WritePeriod, .-TCPWM_1_WritePeriod
 949              		.section	.text.TCPWM_1_ReadPeriod,"ax",%progbits
 950              		.align	2
 951              		.global	TCPWM_1_ReadPeriod
 952              		.code	16
 953              		.thumb_func
 954              		.type	TCPWM_1_ReadPeriod, %function
 955              	TCPWM_1_ReadPeriod:
 956              	.LFB19:
 697:Generated_Source\PSoC4/TCPWM_1.c **** 
ARM GAS  C:\Users\puria\AppData\Local\Temp\ccpsVPDq.s 			page 30


 698:Generated_Source\PSoC4/TCPWM_1.c **** 
 699:Generated_Source\PSoC4/TCPWM_1.c **** /*******************************************************************************
 700:Generated_Source\PSoC4/TCPWM_1.c **** * Function Name: TCPWM_1_ReadPeriod
 701:Generated_Source\PSoC4/TCPWM_1.c **** ********************************************************************************
 702:Generated_Source\PSoC4/TCPWM_1.c **** *
 703:Generated_Source\PSoC4/TCPWM_1.c **** * Summary:
 704:Generated_Source\PSoC4/TCPWM_1.c **** *  Reads the 16 bit period register.
 705:Generated_Source\PSoC4/TCPWM_1.c **** *
 706:Generated_Source\PSoC4/TCPWM_1.c **** * Parameters:
 707:Generated_Source\PSoC4/TCPWM_1.c **** *  None
 708:Generated_Source\PSoC4/TCPWM_1.c **** *
 709:Generated_Source\PSoC4/TCPWM_1.c **** * Return:
 710:Generated_Source\PSoC4/TCPWM_1.c **** *  Period value
 711:Generated_Source\PSoC4/TCPWM_1.c **** *
 712:Generated_Source\PSoC4/TCPWM_1.c **** *******************************************************************************/
 713:Generated_Source\PSoC4/TCPWM_1.c **** uint32 TCPWM_1_ReadPeriod(void)
 714:Generated_Source\PSoC4/TCPWM_1.c **** {
 957              		.loc 1 714 0
 958              		.cfi_startproc
 959              		@ args = 0, pretend = 0, frame = 0
 960              		@ frame_needed = 1, uses_anonymous_args = 0
 961 0000 80B5     		push	{r7, lr}
 962              		.cfi_def_cfa_offset 8
 963              		.cfi_offset 7, -8
 964              		.cfi_offset 14, -4
 965 0002 00AF     		add	r7, sp, #0
 966              		.cfi_def_cfa_register 7
 715:Generated_Source\PSoC4/TCPWM_1.c ****     return (TCPWM_1_PERIOD_REG & TCPWM_1_16BIT_MASK);
 967              		.loc 1 715 0
 968 0004 034B     		ldr	r3, .L56
 969 0006 1B68     		ldr	r3, [r3]
 970 0008 1B04     		lsls	r3, r3, #16
 971 000a 1B0C     		lsrs	r3, r3, #16
 716:Generated_Source\PSoC4/TCPWM_1.c **** }
 972              		.loc 1 716 0
 973 000c 1800     		movs	r0, r3
 974 000e BD46     		mov	sp, r7
 975              		@ sp needed
 976 0010 80BD     		pop	{r7, pc}
 977              	.L57:
 978 0012 C046     		.align	2
 979              	.L56:
 980 0014 14012040 		.word	1075839252
 981              		.cfi_endproc
 982              	.LFE19:
 983              		.size	TCPWM_1_ReadPeriod, .-TCPWM_1_ReadPeriod
 984              		.section	.text.TCPWM_1_SetCompareSwap,"ax",%progbits
 985              		.align	2
 986              		.global	TCPWM_1_SetCompareSwap
 987              		.code	16
 988              		.thumb_func
 989              		.type	TCPWM_1_SetCompareSwap, %function
 990              	TCPWM_1_SetCompareSwap:
 991              	.LFB20:
 717:Generated_Source\PSoC4/TCPWM_1.c **** 
 718:Generated_Source\PSoC4/TCPWM_1.c **** 
 719:Generated_Source\PSoC4/TCPWM_1.c **** /*******************************************************************************
ARM GAS  C:\Users\puria\AppData\Local\Temp\ccpsVPDq.s 			page 31


 720:Generated_Source\PSoC4/TCPWM_1.c **** * Function Name: TCPWM_1_SetCompareSwap
 721:Generated_Source\PSoC4/TCPWM_1.c **** ********************************************************************************
 722:Generated_Source\PSoC4/TCPWM_1.c **** *
 723:Generated_Source\PSoC4/TCPWM_1.c **** * Summary:
 724:Generated_Source\PSoC4/TCPWM_1.c **** *  Writes the register that controls whether the compare registers are
 725:Generated_Source\PSoC4/TCPWM_1.c **** *  swapped. When enabled in the Timer/Counter mode(without capture) the swap
 726:Generated_Source\PSoC4/TCPWM_1.c **** *  occurs at a TC event. In the PWM mode the swap occurs at the next TC event
 727:Generated_Source\PSoC4/TCPWM_1.c **** *  following a hardware switch event.
 728:Generated_Source\PSoC4/TCPWM_1.c **** *
 729:Generated_Source\PSoC4/TCPWM_1.c **** * Parameters:
 730:Generated_Source\PSoC4/TCPWM_1.c **** *  swapEnable
 731:Generated_Source\PSoC4/TCPWM_1.c **** *   Values:
 732:Generated_Source\PSoC4/TCPWM_1.c **** *     - 0 - Disable swap
 733:Generated_Source\PSoC4/TCPWM_1.c **** *     - 1 - Enable swap
 734:Generated_Source\PSoC4/TCPWM_1.c **** *
 735:Generated_Source\PSoC4/TCPWM_1.c **** * Return:
 736:Generated_Source\PSoC4/TCPWM_1.c **** *  None
 737:Generated_Source\PSoC4/TCPWM_1.c **** *
 738:Generated_Source\PSoC4/TCPWM_1.c **** *******************************************************************************/
 739:Generated_Source\PSoC4/TCPWM_1.c **** void TCPWM_1_SetCompareSwap(uint32 swapEnable)
 740:Generated_Source\PSoC4/TCPWM_1.c **** {
 992              		.loc 1 740 0
 993              		.cfi_startproc
 994              		@ args = 0, pretend = 0, frame = 16
 995              		@ frame_needed = 1, uses_anonymous_args = 0
 996 0000 90B5     		push	{r4, r7, lr}
 997              		.cfi_def_cfa_offset 12
 998              		.cfi_offset 4, -12
 999              		.cfi_offset 7, -8
 1000              		.cfi_offset 14, -4
 1001 0002 85B0     		sub	sp, sp, #20
 1002              		.cfi_def_cfa_offset 32
 1003 0004 00AF     		add	r7, sp, #0
 1004              		.cfi_def_cfa_register 7
 1005 0006 7860     		str	r0, [r7, #4]
 741:Generated_Source\PSoC4/TCPWM_1.c ****     uint8 enableInterrupts;
 742:Generated_Source\PSoC4/TCPWM_1.c **** 
 743:Generated_Source\PSoC4/TCPWM_1.c ****     enableInterrupts = CyEnterCriticalSection();
 1006              		.loc 1 743 0
 1007 0008 0F23     		movs	r3, #15
 1008 000a FC18     		adds	r4, r7, r3
 1009 000c FFF7FEFF 		bl	CyEnterCriticalSection
 1010 0010 0300     		movs	r3, r0
 1011 0012 2370     		strb	r3, [r4]
 744:Generated_Source\PSoC4/TCPWM_1.c **** 
 745:Generated_Source\PSoC4/TCPWM_1.c ****     TCPWM_1_CONTROL_REG &= (uint32)~TCPWM_1_RELOAD_CC_MASK;
 1012              		.loc 1 745 0
 1013 0014 0B4B     		ldr	r3, .L59
 1014 0016 0B4A     		ldr	r2, .L59
 1015 0018 1268     		ldr	r2, [r2]
 1016 001a 0121     		movs	r1, #1
 1017 001c 8A43     		bics	r2, r1
 1018 001e 1A60     		str	r2, [r3]
 746:Generated_Source\PSoC4/TCPWM_1.c ****     TCPWM_1_CONTROL_REG |= (swapEnable & TCPWM_1_1BIT_MASK);
 1019              		.loc 1 746 0
 1020 0020 084B     		ldr	r3, .L59
 1021 0022 084A     		ldr	r2, .L59
ARM GAS  C:\Users\puria\AppData\Local\Temp\ccpsVPDq.s 			page 32


 1022 0024 1168     		ldr	r1, [r2]
 1023 0026 7A68     		ldr	r2, [r7, #4]
 1024 0028 0120     		movs	r0, #1
 1025 002a 0240     		ands	r2, r0
 1026 002c 0A43     		orrs	r2, r1
 1027 002e 1A60     		str	r2, [r3]
 747:Generated_Source\PSoC4/TCPWM_1.c **** 
 748:Generated_Source\PSoC4/TCPWM_1.c ****     CyExitCriticalSection(enableInterrupts);
 1028              		.loc 1 748 0
 1029 0030 0F23     		movs	r3, #15
 1030 0032 FB18     		adds	r3, r7, r3
 1031 0034 1B78     		ldrb	r3, [r3]
 1032 0036 1800     		movs	r0, r3
 1033 0038 FFF7FEFF 		bl	CyExitCriticalSection
 749:Generated_Source\PSoC4/TCPWM_1.c **** }
 1034              		.loc 1 749 0
 1035 003c C046     		nop
 1036 003e BD46     		mov	sp, r7
 1037 0040 05B0     		add	sp, sp, #20
 1038              		@ sp needed
 1039 0042 90BD     		pop	{r4, r7, pc}
 1040              	.L60:
 1041              		.align	2
 1042              	.L59:
 1043 0044 00012040 		.word	1075839232
 1044              		.cfi_endproc
 1045              	.LFE20:
 1046              		.size	TCPWM_1_SetCompareSwap, .-TCPWM_1_SetCompareSwap
 1047              		.section	.text.TCPWM_1_WritePeriodBuf,"ax",%progbits
 1048              		.align	2
 1049              		.global	TCPWM_1_WritePeriodBuf
 1050              		.code	16
 1051              		.thumb_func
 1052              		.type	TCPWM_1_WritePeriodBuf, %function
 1053              	TCPWM_1_WritePeriodBuf:
 1054              	.LFB21:
 750:Generated_Source\PSoC4/TCPWM_1.c **** 
 751:Generated_Source\PSoC4/TCPWM_1.c **** 
 752:Generated_Source\PSoC4/TCPWM_1.c **** /*******************************************************************************
 753:Generated_Source\PSoC4/TCPWM_1.c **** * Function Name: TCPWM_1_WritePeriodBuf
 754:Generated_Source\PSoC4/TCPWM_1.c **** ********************************************************************************
 755:Generated_Source\PSoC4/TCPWM_1.c **** *
 756:Generated_Source\PSoC4/TCPWM_1.c **** * Summary:
 757:Generated_Source\PSoC4/TCPWM_1.c **** *  Writes the 16 bit period buf register with the new period value.
 758:Generated_Source\PSoC4/TCPWM_1.c **** *
 759:Generated_Source\PSoC4/TCPWM_1.c **** * Parameters:
 760:Generated_Source\PSoC4/TCPWM_1.c **** *  periodBuf: Period value
 761:Generated_Source\PSoC4/TCPWM_1.c **** *
 762:Generated_Source\PSoC4/TCPWM_1.c **** * Return:
 763:Generated_Source\PSoC4/TCPWM_1.c **** *  None
 764:Generated_Source\PSoC4/TCPWM_1.c **** *
 765:Generated_Source\PSoC4/TCPWM_1.c **** *******************************************************************************/
 766:Generated_Source\PSoC4/TCPWM_1.c **** void TCPWM_1_WritePeriodBuf(uint32 periodBuf)
 767:Generated_Source\PSoC4/TCPWM_1.c **** {
 1055              		.loc 1 767 0
 1056              		.cfi_startproc
 1057              		@ args = 0, pretend = 0, frame = 8
ARM GAS  C:\Users\puria\AppData\Local\Temp\ccpsVPDq.s 			page 33


 1058              		@ frame_needed = 1, uses_anonymous_args = 0
 1059 0000 80B5     		push	{r7, lr}
 1060              		.cfi_def_cfa_offset 8
 1061              		.cfi_offset 7, -8
 1062              		.cfi_offset 14, -4
 1063 0002 82B0     		sub	sp, sp, #8
 1064              		.cfi_def_cfa_offset 16
 1065 0004 00AF     		add	r7, sp, #0
 1066              		.cfi_def_cfa_register 7
 1067 0006 7860     		str	r0, [r7, #4]
 768:Generated_Source\PSoC4/TCPWM_1.c ****     TCPWM_1_PERIOD_BUF_REG = (periodBuf & TCPWM_1_16BIT_MASK);
 1068              		.loc 1 768 0
 1069 0008 044B     		ldr	r3, .L62
 1070 000a 7A68     		ldr	r2, [r7, #4]
 1071 000c 1204     		lsls	r2, r2, #16
 1072 000e 120C     		lsrs	r2, r2, #16
 1073 0010 1A60     		str	r2, [r3]
 769:Generated_Source\PSoC4/TCPWM_1.c **** }
 1074              		.loc 1 769 0
 1075 0012 C046     		nop
 1076 0014 BD46     		mov	sp, r7
 1077 0016 02B0     		add	sp, sp, #8
 1078              		@ sp needed
 1079 0018 80BD     		pop	{r7, pc}
 1080              	.L63:
 1081 001a C046     		.align	2
 1082              	.L62:
 1083 001c 18012040 		.word	1075839256
 1084              		.cfi_endproc
 1085              	.LFE21:
 1086              		.size	TCPWM_1_WritePeriodBuf, .-TCPWM_1_WritePeriodBuf
 1087              		.section	.text.TCPWM_1_ReadPeriodBuf,"ax",%progbits
 1088              		.align	2
 1089              		.global	TCPWM_1_ReadPeriodBuf
 1090              		.code	16
 1091              		.thumb_func
 1092              		.type	TCPWM_1_ReadPeriodBuf, %function
 1093              	TCPWM_1_ReadPeriodBuf:
 1094              	.LFB22:
 770:Generated_Source\PSoC4/TCPWM_1.c **** 
 771:Generated_Source\PSoC4/TCPWM_1.c **** 
 772:Generated_Source\PSoC4/TCPWM_1.c **** /*******************************************************************************
 773:Generated_Source\PSoC4/TCPWM_1.c **** * Function Name: TCPWM_1_ReadPeriodBuf
 774:Generated_Source\PSoC4/TCPWM_1.c **** ********************************************************************************
 775:Generated_Source\PSoC4/TCPWM_1.c **** *
 776:Generated_Source\PSoC4/TCPWM_1.c **** * Summary:
 777:Generated_Source\PSoC4/TCPWM_1.c **** *  Reads the 16 bit period buf register.
 778:Generated_Source\PSoC4/TCPWM_1.c **** *
 779:Generated_Source\PSoC4/TCPWM_1.c **** * Parameters:
 780:Generated_Source\PSoC4/TCPWM_1.c **** *  None
 781:Generated_Source\PSoC4/TCPWM_1.c **** *
 782:Generated_Source\PSoC4/TCPWM_1.c **** * Return:
 783:Generated_Source\PSoC4/TCPWM_1.c **** *  Period value
 784:Generated_Source\PSoC4/TCPWM_1.c **** *
 785:Generated_Source\PSoC4/TCPWM_1.c **** *******************************************************************************/
 786:Generated_Source\PSoC4/TCPWM_1.c **** uint32 TCPWM_1_ReadPeriodBuf(void)
 787:Generated_Source\PSoC4/TCPWM_1.c **** {
ARM GAS  C:\Users\puria\AppData\Local\Temp\ccpsVPDq.s 			page 34


 1095              		.loc 1 787 0
 1096              		.cfi_startproc
 1097              		@ args = 0, pretend = 0, frame = 0
 1098              		@ frame_needed = 1, uses_anonymous_args = 0
 1099 0000 80B5     		push	{r7, lr}
 1100              		.cfi_def_cfa_offset 8
 1101              		.cfi_offset 7, -8
 1102              		.cfi_offset 14, -4
 1103 0002 00AF     		add	r7, sp, #0
 1104              		.cfi_def_cfa_register 7
 788:Generated_Source\PSoC4/TCPWM_1.c ****     return (TCPWM_1_PERIOD_BUF_REG & TCPWM_1_16BIT_MASK);
 1105              		.loc 1 788 0
 1106 0004 034B     		ldr	r3, .L66
 1107 0006 1B68     		ldr	r3, [r3]
 1108 0008 1B04     		lsls	r3, r3, #16
 1109 000a 1B0C     		lsrs	r3, r3, #16
 789:Generated_Source\PSoC4/TCPWM_1.c **** }
 1110              		.loc 1 789 0
 1111 000c 1800     		movs	r0, r3
 1112 000e BD46     		mov	sp, r7
 1113              		@ sp needed
 1114 0010 80BD     		pop	{r7, pc}
 1115              	.L67:
 1116 0012 C046     		.align	2
 1117              	.L66:
 1118 0014 18012040 		.word	1075839256
 1119              		.cfi_endproc
 1120              	.LFE22:
 1121              		.size	TCPWM_1_ReadPeriodBuf, .-TCPWM_1_ReadPeriodBuf
 1122              		.section	.text.TCPWM_1_SetPeriodSwap,"ax",%progbits
 1123              		.align	2
 1124              		.global	TCPWM_1_SetPeriodSwap
 1125              		.code	16
 1126              		.thumb_func
 1127              		.type	TCPWM_1_SetPeriodSwap, %function
 1128              	TCPWM_1_SetPeriodSwap:
 1129              	.LFB23:
 790:Generated_Source\PSoC4/TCPWM_1.c **** 
 791:Generated_Source\PSoC4/TCPWM_1.c **** 
 792:Generated_Source\PSoC4/TCPWM_1.c **** /*******************************************************************************
 793:Generated_Source\PSoC4/TCPWM_1.c **** * Function Name: TCPWM_1_SetPeriodSwap
 794:Generated_Source\PSoC4/TCPWM_1.c **** ********************************************************************************
 795:Generated_Source\PSoC4/TCPWM_1.c **** *
 796:Generated_Source\PSoC4/TCPWM_1.c **** * Summary:
 797:Generated_Source\PSoC4/TCPWM_1.c **** *  Writes the register that controls whether the period registers are
 798:Generated_Source\PSoC4/TCPWM_1.c **** *  swapped. When enabled in Timer/Counter mode the swap occurs at a TC event.
 799:Generated_Source\PSoC4/TCPWM_1.c **** *  In the PWM mode the swap occurs at the next TC event following a hardware
 800:Generated_Source\PSoC4/TCPWM_1.c **** *  switch event.
 801:Generated_Source\PSoC4/TCPWM_1.c **** *
 802:Generated_Source\PSoC4/TCPWM_1.c **** * Parameters:
 803:Generated_Source\PSoC4/TCPWM_1.c **** *  swapEnable
 804:Generated_Source\PSoC4/TCPWM_1.c **** *   Values:
 805:Generated_Source\PSoC4/TCPWM_1.c **** *     - 0 - Disable swap
 806:Generated_Source\PSoC4/TCPWM_1.c **** *     - 1 - Enable swap
 807:Generated_Source\PSoC4/TCPWM_1.c **** *
 808:Generated_Source\PSoC4/TCPWM_1.c **** * Return:
 809:Generated_Source\PSoC4/TCPWM_1.c **** *  None
ARM GAS  C:\Users\puria\AppData\Local\Temp\ccpsVPDq.s 			page 35


 810:Generated_Source\PSoC4/TCPWM_1.c **** *
 811:Generated_Source\PSoC4/TCPWM_1.c **** *******************************************************************************/
 812:Generated_Source\PSoC4/TCPWM_1.c **** void TCPWM_1_SetPeriodSwap(uint32 swapEnable)
 813:Generated_Source\PSoC4/TCPWM_1.c **** {
 1130              		.loc 1 813 0
 1131              		.cfi_startproc
 1132              		@ args = 0, pretend = 0, frame = 16
 1133              		@ frame_needed = 1, uses_anonymous_args = 0
 1134 0000 90B5     		push	{r4, r7, lr}
 1135              		.cfi_def_cfa_offset 12
 1136              		.cfi_offset 4, -12
 1137              		.cfi_offset 7, -8
 1138              		.cfi_offset 14, -4
 1139 0002 85B0     		sub	sp, sp, #20
 1140              		.cfi_def_cfa_offset 32
 1141 0004 00AF     		add	r7, sp, #0
 1142              		.cfi_def_cfa_register 7
 1143 0006 7860     		str	r0, [r7, #4]
 814:Generated_Source\PSoC4/TCPWM_1.c ****     uint8 enableInterrupts;
 815:Generated_Source\PSoC4/TCPWM_1.c **** 
 816:Generated_Source\PSoC4/TCPWM_1.c ****     enableInterrupts = CyEnterCriticalSection();
 1144              		.loc 1 816 0
 1145 0008 0F23     		movs	r3, #15
 1146 000a FC18     		adds	r4, r7, r3
 1147 000c FFF7FEFF 		bl	CyEnterCriticalSection
 1148 0010 0300     		movs	r3, r0
 1149 0012 2370     		strb	r3, [r4]
 817:Generated_Source\PSoC4/TCPWM_1.c **** 
 818:Generated_Source\PSoC4/TCPWM_1.c ****     TCPWM_1_CONTROL_REG &= (uint32)~TCPWM_1_RELOAD_PERIOD_MASK;
 1150              		.loc 1 818 0
 1151 0014 0C4B     		ldr	r3, .L69
 1152 0016 0C4A     		ldr	r2, .L69
 1153 0018 1268     		ldr	r2, [r2]
 1154 001a 0221     		movs	r1, #2
 1155 001c 8A43     		bics	r2, r1
 1156 001e 1A60     		str	r2, [r3]
 819:Generated_Source\PSoC4/TCPWM_1.c ****     TCPWM_1_CONTROL_REG |= ((uint32)((swapEnable & TCPWM_1_1BIT_MASK) <<
 1157              		.loc 1 819 0
 1158 0020 094B     		ldr	r3, .L69
 1159 0022 094A     		ldr	r2, .L69
 1160 0024 1168     		ldr	r1, [r2]
 1161 0026 7A68     		ldr	r2, [r7, #4]
 1162 0028 5200     		lsls	r2, r2, #1
 1163 002a 0220     		movs	r0, #2
 1164 002c 0240     		ands	r2, r0
 1165 002e 0A43     		orrs	r2, r1
 1166 0030 1A60     		str	r2, [r3]
 820:Generated_Source\PSoC4/TCPWM_1.c ****                                                             TCPWM_1_RELOAD_PERIOD_SHIFT));
 821:Generated_Source\PSoC4/TCPWM_1.c **** 
 822:Generated_Source\PSoC4/TCPWM_1.c ****     CyExitCriticalSection(enableInterrupts);
 1167              		.loc 1 822 0
 1168 0032 0F23     		movs	r3, #15
 1169 0034 FB18     		adds	r3, r7, r3
 1170 0036 1B78     		ldrb	r3, [r3]
 1171 0038 1800     		movs	r0, r3
 1172 003a FFF7FEFF 		bl	CyExitCriticalSection
 823:Generated_Source\PSoC4/TCPWM_1.c **** }
ARM GAS  C:\Users\puria\AppData\Local\Temp\ccpsVPDq.s 			page 36


 1173              		.loc 1 823 0
 1174 003e C046     		nop
 1175 0040 BD46     		mov	sp, r7
 1176 0042 05B0     		add	sp, sp, #20
 1177              		@ sp needed
 1178 0044 90BD     		pop	{r4, r7, pc}
 1179              	.L70:
 1180 0046 C046     		.align	2
 1181              	.L69:
 1182 0048 00012040 		.word	1075839232
 1183              		.cfi_endproc
 1184              	.LFE23:
 1185              		.size	TCPWM_1_SetPeriodSwap, .-TCPWM_1_SetPeriodSwap
 1186              		.section	.text.TCPWM_1_WriteCompare,"ax",%progbits
 1187              		.align	2
 1188              		.global	TCPWM_1_WriteCompare
 1189              		.code	16
 1190              		.thumb_func
 1191              		.type	TCPWM_1_WriteCompare, %function
 1192              	TCPWM_1_WriteCompare:
 1193              	.LFB24:
 824:Generated_Source\PSoC4/TCPWM_1.c **** 
 825:Generated_Source\PSoC4/TCPWM_1.c **** 
 826:Generated_Source\PSoC4/TCPWM_1.c **** /*******************************************************************************
 827:Generated_Source\PSoC4/TCPWM_1.c **** * Function Name: TCPWM_1_WriteCompare
 828:Generated_Source\PSoC4/TCPWM_1.c **** ********************************************************************************
 829:Generated_Source\PSoC4/TCPWM_1.c **** *
 830:Generated_Source\PSoC4/TCPWM_1.c **** * Summary:
 831:Generated_Source\PSoC4/TCPWM_1.c **** *  Writes the 16 bit compare register with the new compare value. Not
 832:Generated_Source\PSoC4/TCPWM_1.c **** *  applicable for Timer/Counter with Capture or in Quadrature Decoder modes.
 833:Generated_Source\PSoC4/TCPWM_1.c **** *
 834:Generated_Source\PSoC4/TCPWM_1.c **** * Parameters:
 835:Generated_Source\PSoC4/TCPWM_1.c **** *  compare: Compare value
 836:Generated_Source\PSoC4/TCPWM_1.c **** *
 837:Generated_Source\PSoC4/TCPWM_1.c **** * Return:
 838:Generated_Source\PSoC4/TCPWM_1.c **** *  None
 839:Generated_Source\PSoC4/TCPWM_1.c **** *
 840:Generated_Source\PSoC4/TCPWM_1.c **** * Note:
 841:Generated_Source\PSoC4/TCPWM_1.c **** *  It is not recommended to use the value equal to "0" or equal to 
 842:Generated_Source\PSoC4/TCPWM_1.c **** *  "period value" in Center or Asymmetric align PWM modes on the 
 843:Generated_Source\PSoC4/TCPWM_1.c **** *  PSoC 4100/PSoC 4200 devices.
 844:Generated_Source\PSoC4/TCPWM_1.c **** *  PSoC 4000 devices write the 16 bit compare register with the decremented 
 845:Generated_Source\PSoC4/TCPWM_1.c **** *  compare value in the Up counting mode (except 0x0u), and the incremented 
 846:Generated_Source\PSoC4/TCPWM_1.c **** *  compare value in the Down counting mode (except 0xFFFFu).
 847:Generated_Source\PSoC4/TCPWM_1.c **** *
 848:Generated_Source\PSoC4/TCPWM_1.c **** *******************************************************************************/
 849:Generated_Source\PSoC4/TCPWM_1.c **** void TCPWM_1_WriteCompare(uint32 compare)
 850:Generated_Source\PSoC4/TCPWM_1.c **** {
 1194              		.loc 1 850 0
 1195              		.cfi_startproc
 1196              		@ args = 0, pretend = 0, frame = 8
 1197              		@ frame_needed = 1, uses_anonymous_args = 0
 1198 0000 80B5     		push	{r7, lr}
 1199              		.cfi_def_cfa_offset 8
 1200              		.cfi_offset 7, -8
 1201              		.cfi_offset 14, -4
 1202 0002 82B0     		sub	sp, sp, #8
ARM GAS  C:\Users\puria\AppData\Local\Temp\ccpsVPDq.s 			page 37


 1203              		.cfi_def_cfa_offset 16
 1204 0004 00AF     		add	r7, sp, #0
 1205              		.cfi_def_cfa_register 7
 1206 0006 7860     		str	r0, [r7, #4]
 851:Generated_Source\PSoC4/TCPWM_1.c ****     #if (TCPWM_1_CY_TCPWM_4000)
 852:Generated_Source\PSoC4/TCPWM_1.c ****         uint32 currentMode;
 853:Generated_Source\PSoC4/TCPWM_1.c ****     #endif /* (TCPWM_1_CY_TCPWM_4000) */
 854:Generated_Source\PSoC4/TCPWM_1.c **** 
 855:Generated_Source\PSoC4/TCPWM_1.c ****     #if (TCPWM_1_CY_TCPWM_4000)
 856:Generated_Source\PSoC4/TCPWM_1.c ****         currentMode = ((TCPWM_1_CONTROL_REG & TCPWM_1_UPDOWN_MASK) >> TCPWM_1_UPDOWN_SHIFT);
 857:Generated_Source\PSoC4/TCPWM_1.c **** 
 858:Generated_Source\PSoC4/TCPWM_1.c ****         if (((uint32)TCPWM_1__COUNT_DOWN == currentMode) && (0xFFFFu != compare))
 859:Generated_Source\PSoC4/TCPWM_1.c ****         {
 860:Generated_Source\PSoC4/TCPWM_1.c ****             compare++;
 861:Generated_Source\PSoC4/TCPWM_1.c ****         }
 862:Generated_Source\PSoC4/TCPWM_1.c ****         else if (((uint32)TCPWM_1__COUNT_UP == currentMode) && (0u != compare))
 863:Generated_Source\PSoC4/TCPWM_1.c ****         {
 864:Generated_Source\PSoC4/TCPWM_1.c ****             compare--;
 865:Generated_Source\PSoC4/TCPWM_1.c ****         }
 866:Generated_Source\PSoC4/TCPWM_1.c ****         else
 867:Generated_Source\PSoC4/TCPWM_1.c ****         {
 868:Generated_Source\PSoC4/TCPWM_1.c ****         }
 869:Generated_Source\PSoC4/TCPWM_1.c ****         
 870:Generated_Source\PSoC4/TCPWM_1.c ****     
 871:Generated_Source\PSoC4/TCPWM_1.c ****     #endif /* (TCPWM_1_CY_TCPWM_4000) */
 872:Generated_Source\PSoC4/TCPWM_1.c ****     
 873:Generated_Source\PSoC4/TCPWM_1.c ****     TCPWM_1_COMP_CAP_REG = (compare & TCPWM_1_16BIT_MASK);
 1207              		.loc 1 873 0
 1208 0008 044B     		ldr	r3, .L72
 1209 000a 7A68     		ldr	r2, [r7, #4]
 1210 000c 1204     		lsls	r2, r2, #16
 1211 000e 120C     		lsrs	r2, r2, #16
 1212 0010 1A60     		str	r2, [r3]
 874:Generated_Source\PSoC4/TCPWM_1.c **** }
 1213              		.loc 1 874 0
 1214 0012 C046     		nop
 1215 0014 BD46     		mov	sp, r7
 1216 0016 02B0     		add	sp, sp, #8
 1217              		@ sp needed
 1218 0018 80BD     		pop	{r7, pc}
 1219              	.L73:
 1220 001a C046     		.align	2
 1221              	.L72:
 1222 001c 0C012040 		.word	1075839244
 1223              		.cfi_endproc
 1224              	.LFE24:
 1225              		.size	TCPWM_1_WriteCompare, .-TCPWM_1_WriteCompare
 1226              		.section	.text.TCPWM_1_ReadCompare,"ax",%progbits
 1227              		.align	2
 1228              		.global	TCPWM_1_ReadCompare
 1229              		.code	16
 1230              		.thumb_func
 1231              		.type	TCPWM_1_ReadCompare, %function
 1232              	TCPWM_1_ReadCompare:
 1233              	.LFB25:
 875:Generated_Source\PSoC4/TCPWM_1.c **** 
 876:Generated_Source\PSoC4/TCPWM_1.c **** 
ARM GAS  C:\Users\puria\AppData\Local\Temp\ccpsVPDq.s 			page 38


 877:Generated_Source\PSoC4/TCPWM_1.c **** /*******************************************************************************
 878:Generated_Source\PSoC4/TCPWM_1.c **** * Function Name: TCPWM_1_ReadCompare
 879:Generated_Source\PSoC4/TCPWM_1.c **** ********************************************************************************
 880:Generated_Source\PSoC4/TCPWM_1.c **** *
 881:Generated_Source\PSoC4/TCPWM_1.c **** * Summary:
 882:Generated_Source\PSoC4/TCPWM_1.c **** *  Reads the compare register. Not applicable for Timer/Counter with Capture
 883:Generated_Source\PSoC4/TCPWM_1.c **** *  or in Quadrature Decoder modes.
 884:Generated_Source\PSoC4/TCPWM_1.c **** *  PSoC 4000 devices read the incremented compare register value in the 
 885:Generated_Source\PSoC4/TCPWM_1.c **** *  Up counting mode (except 0xFFFFu), and the decremented value in the 
 886:Generated_Source\PSoC4/TCPWM_1.c **** *  Down counting mode (except 0x0u).
 887:Generated_Source\PSoC4/TCPWM_1.c **** *
 888:Generated_Source\PSoC4/TCPWM_1.c **** * Parameters:
 889:Generated_Source\PSoC4/TCPWM_1.c **** *  None
 890:Generated_Source\PSoC4/TCPWM_1.c **** *
 891:Generated_Source\PSoC4/TCPWM_1.c **** * Return:
 892:Generated_Source\PSoC4/TCPWM_1.c **** *  Compare value
 893:Generated_Source\PSoC4/TCPWM_1.c **** *
 894:Generated_Source\PSoC4/TCPWM_1.c **** * Note:
 895:Generated_Source\PSoC4/TCPWM_1.c **** *  PSoC 4000 devices read the incremented compare register value in the 
 896:Generated_Source\PSoC4/TCPWM_1.c **** *  Up counting mode (except 0xFFFFu), and the decremented value in the 
 897:Generated_Source\PSoC4/TCPWM_1.c **** *  Down counting mode (except 0x0u).
 898:Generated_Source\PSoC4/TCPWM_1.c **** *
 899:Generated_Source\PSoC4/TCPWM_1.c **** *******************************************************************************/
 900:Generated_Source\PSoC4/TCPWM_1.c **** uint32 TCPWM_1_ReadCompare(void)
 901:Generated_Source\PSoC4/TCPWM_1.c **** {
 1234              		.loc 1 901 0
 1235              		.cfi_startproc
 1236              		@ args = 0, pretend = 0, frame = 0
 1237              		@ frame_needed = 1, uses_anonymous_args = 0
 1238 0000 80B5     		push	{r7, lr}
 1239              		.cfi_def_cfa_offset 8
 1240              		.cfi_offset 7, -8
 1241              		.cfi_offset 14, -4
 1242 0002 00AF     		add	r7, sp, #0
 1243              		.cfi_def_cfa_register 7
 902:Generated_Source\PSoC4/TCPWM_1.c ****     #if (TCPWM_1_CY_TCPWM_4000)
 903:Generated_Source\PSoC4/TCPWM_1.c ****         uint32 currentMode;
 904:Generated_Source\PSoC4/TCPWM_1.c ****         uint32 regVal;
 905:Generated_Source\PSoC4/TCPWM_1.c ****     #endif /* (TCPWM_1_CY_TCPWM_4000) */
 906:Generated_Source\PSoC4/TCPWM_1.c **** 
 907:Generated_Source\PSoC4/TCPWM_1.c ****     #if (TCPWM_1_CY_TCPWM_4000)
 908:Generated_Source\PSoC4/TCPWM_1.c ****         currentMode = ((TCPWM_1_CONTROL_REG & TCPWM_1_UPDOWN_MASK) >> TCPWM_1_UPDOWN_SHIFT);
 909:Generated_Source\PSoC4/TCPWM_1.c ****         
 910:Generated_Source\PSoC4/TCPWM_1.c ****         regVal = TCPWM_1_COMP_CAP_REG;
 911:Generated_Source\PSoC4/TCPWM_1.c ****         
 912:Generated_Source\PSoC4/TCPWM_1.c ****         if (((uint32)TCPWM_1__COUNT_DOWN == currentMode) && (0u != regVal))
 913:Generated_Source\PSoC4/TCPWM_1.c ****         {
 914:Generated_Source\PSoC4/TCPWM_1.c ****             regVal--;
 915:Generated_Source\PSoC4/TCPWM_1.c ****         }
 916:Generated_Source\PSoC4/TCPWM_1.c ****         else if (((uint32)TCPWM_1__COUNT_UP == currentMode) && (0xFFFFu != regVal))
 917:Generated_Source\PSoC4/TCPWM_1.c ****         {
 918:Generated_Source\PSoC4/TCPWM_1.c ****             regVal++;
 919:Generated_Source\PSoC4/TCPWM_1.c ****         }
 920:Generated_Source\PSoC4/TCPWM_1.c ****         else
 921:Generated_Source\PSoC4/TCPWM_1.c ****         {
 922:Generated_Source\PSoC4/TCPWM_1.c ****         }
 923:Generated_Source\PSoC4/TCPWM_1.c **** 
ARM GAS  C:\Users\puria\AppData\Local\Temp\ccpsVPDq.s 			page 39


 924:Generated_Source\PSoC4/TCPWM_1.c ****         return (regVal & TCPWM_1_16BIT_MASK);
 925:Generated_Source\PSoC4/TCPWM_1.c ****     #else
 926:Generated_Source\PSoC4/TCPWM_1.c ****         return (TCPWM_1_COMP_CAP_REG & TCPWM_1_16BIT_MASK);
 1244              		.loc 1 926 0
 1245 0004 034B     		ldr	r3, .L76
 1246 0006 1B68     		ldr	r3, [r3]
 1247 0008 1B04     		lsls	r3, r3, #16
 1248 000a 1B0C     		lsrs	r3, r3, #16
 927:Generated_Source\PSoC4/TCPWM_1.c ****     #endif /* (TCPWM_1_CY_TCPWM_4000) */
 928:Generated_Source\PSoC4/TCPWM_1.c **** }
 1249              		.loc 1 928 0
 1250 000c 1800     		movs	r0, r3
 1251 000e BD46     		mov	sp, r7
 1252              		@ sp needed
 1253 0010 80BD     		pop	{r7, pc}
 1254              	.L77:
 1255 0012 C046     		.align	2
 1256              	.L76:
 1257 0014 0C012040 		.word	1075839244
 1258              		.cfi_endproc
 1259              	.LFE25:
 1260              		.size	TCPWM_1_ReadCompare, .-TCPWM_1_ReadCompare
 1261              		.section	.text.TCPWM_1_WriteCompareBuf,"ax",%progbits
 1262              		.align	2
 1263              		.global	TCPWM_1_WriteCompareBuf
 1264              		.code	16
 1265              		.thumb_func
 1266              		.type	TCPWM_1_WriteCompareBuf, %function
 1267              	TCPWM_1_WriteCompareBuf:
 1268              	.LFB26:
 929:Generated_Source\PSoC4/TCPWM_1.c **** 
 930:Generated_Source\PSoC4/TCPWM_1.c **** 
 931:Generated_Source\PSoC4/TCPWM_1.c **** /*******************************************************************************
 932:Generated_Source\PSoC4/TCPWM_1.c **** * Function Name: TCPWM_1_WriteCompareBuf
 933:Generated_Source\PSoC4/TCPWM_1.c **** ********************************************************************************
 934:Generated_Source\PSoC4/TCPWM_1.c **** *
 935:Generated_Source\PSoC4/TCPWM_1.c **** * Summary:
 936:Generated_Source\PSoC4/TCPWM_1.c **** *  Writes the 16 bit compare buffer register with the new compare value. Not
 937:Generated_Source\PSoC4/TCPWM_1.c **** *  applicable for Timer/Counter with Capture or in Quadrature Decoder modes.
 938:Generated_Source\PSoC4/TCPWM_1.c **** *
 939:Generated_Source\PSoC4/TCPWM_1.c **** * Parameters:
 940:Generated_Source\PSoC4/TCPWM_1.c **** *  compareBuf: Compare value
 941:Generated_Source\PSoC4/TCPWM_1.c **** *
 942:Generated_Source\PSoC4/TCPWM_1.c **** * Return:
 943:Generated_Source\PSoC4/TCPWM_1.c **** *  None
 944:Generated_Source\PSoC4/TCPWM_1.c **** *
 945:Generated_Source\PSoC4/TCPWM_1.c **** * Note:
 946:Generated_Source\PSoC4/TCPWM_1.c **** *  It is not recommended to use the value equal to "0" or equal to 
 947:Generated_Source\PSoC4/TCPWM_1.c **** *  "period value" in Center or Asymmetric align PWM modes on the 
 948:Generated_Source\PSoC4/TCPWM_1.c **** *  PSoC 4100/PSoC 4200 devices.
 949:Generated_Source\PSoC4/TCPWM_1.c **** *  PSoC 4000 devices write the 16 bit compare register with the decremented 
 950:Generated_Source\PSoC4/TCPWM_1.c **** *  compare value in the Up counting mode (except 0x0u), and the incremented 
 951:Generated_Source\PSoC4/TCPWM_1.c **** *  compare value in the Down counting mode (except 0xFFFFu).
 952:Generated_Source\PSoC4/TCPWM_1.c **** *
 953:Generated_Source\PSoC4/TCPWM_1.c **** *******************************************************************************/
 954:Generated_Source\PSoC4/TCPWM_1.c **** void TCPWM_1_WriteCompareBuf(uint32 compareBuf)
 955:Generated_Source\PSoC4/TCPWM_1.c **** {
ARM GAS  C:\Users\puria\AppData\Local\Temp\ccpsVPDq.s 			page 40


 1269              		.loc 1 955 0
 1270              		.cfi_startproc
 1271              		@ args = 0, pretend = 0, frame = 8
 1272              		@ frame_needed = 1, uses_anonymous_args = 0
 1273 0000 80B5     		push	{r7, lr}
 1274              		.cfi_def_cfa_offset 8
 1275              		.cfi_offset 7, -8
 1276              		.cfi_offset 14, -4
 1277 0002 82B0     		sub	sp, sp, #8
 1278              		.cfi_def_cfa_offset 16
 1279 0004 00AF     		add	r7, sp, #0
 1280              		.cfi_def_cfa_register 7
 1281 0006 7860     		str	r0, [r7, #4]
 956:Generated_Source\PSoC4/TCPWM_1.c ****     #if (TCPWM_1_CY_TCPWM_4000)
 957:Generated_Source\PSoC4/TCPWM_1.c ****         uint32 currentMode;
 958:Generated_Source\PSoC4/TCPWM_1.c ****     #endif /* (TCPWM_1_CY_TCPWM_4000) */
 959:Generated_Source\PSoC4/TCPWM_1.c **** 
 960:Generated_Source\PSoC4/TCPWM_1.c ****     #if (TCPWM_1_CY_TCPWM_4000)
 961:Generated_Source\PSoC4/TCPWM_1.c ****         currentMode = ((TCPWM_1_CONTROL_REG & TCPWM_1_UPDOWN_MASK) >> TCPWM_1_UPDOWN_SHIFT);
 962:Generated_Source\PSoC4/TCPWM_1.c **** 
 963:Generated_Source\PSoC4/TCPWM_1.c ****         if (((uint32)TCPWM_1__COUNT_DOWN == currentMode) && (0xFFFFu != compareBuf))
 964:Generated_Source\PSoC4/TCPWM_1.c ****         {
 965:Generated_Source\PSoC4/TCPWM_1.c ****             compareBuf++;
 966:Generated_Source\PSoC4/TCPWM_1.c ****         }
 967:Generated_Source\PSoC4/TCPWM_1.c ****         else if (((uint32)TCPWM_1__COUNT_UP == currentMode) && (0u != compareBuf))
 968:Generated_Source\PSoC4/TCPWM_1.c ****         {
 969:Generated_Source\PSoC4/TCPWM_1.c ****             compareBuf --;
 970:Generated_Source\PSoC4/TCPWM_1.c ****         }
 971:Generated_Source\PSoC4/TCPWM_1.c ****         else
 972:Generated_Source\PSoC4/TCPWM_1.c ****         {
 973:Generated_Source\PSoC4/TCPWM_1.c ****         }
 974:Generated_Source\PSoC4/TCPWM_1.c ****     #endif /* (TCPWM_1_CY_TCPWM_4000) */
 975:Generated_Source\PSoC4/TCPWM_1.c ****     
 976:Generated_Source\PSoC4/TCPWM_1.c ****     TCPWM_1_COMP_CAP_BUF_REG = (compareBuf & TCPWM_1_16BIT_MASK);
 1282              		.loc 1 976 0
 1283 0008 044B     		ldr	r3, .L79
 1284 000a 7A68     		ldr	r2, [r7, #4]
 1285 000c 1204     		lsls	r2, r2, #16
 1286 000e 120C     		lsrs	r2, r2, #16
 1287 0010 1A60     		str	r2, [r3]
 977:Generated_Source\PSoC4/TCPWM_1.c **** }
 1288              		.loc 1 977 0
 1289 0012 C046     		nop
 1290 0014 BD46     		mov	sp, r7
 1291 0016 02B0     		add	sp, sp, #8
 1292              		@ sp needed
 1293 0018 80BD     		pop	{r7, pc}
 1294              	.L80:
 1295 001a C046     		.align	2
 1296              	.L79:
 1297 001c 10012040 		.word	1075839248
 1298              		.cfi_endproc
 1299              	.LFE26:
 1300              		.size	TCPWM_1_WriteCompareBuf, .-TCPWM_1_WriteCompareBuf
 1301              		.section	.text.TCPWM_1_ReadCompareBuf,"ax",%progbits
 1302              		.align	2
 1303              		.global	TCPWM_1_ReadCompareBuf
ARM GAS  C:\Users\puria\AppData\Local\Temp\ccpsVPDq.s 			page 41


 1304              		.code	16
 1305              		.thumb_func
 1306              		.type	TCPWM_1_ReadCompareBuf, %function
 1307              	TCPWM_1_ReadCompareBuf:
 1308              	.LFB27:
 978:Generated_Source\PSoC4/TCPWM_1.c **** 
 979:Generated_Source\PSoC4/TCPWM_1.c **** 
 980:Generated_Source\PSoC4/TCPWM_1.c **** /*******************************************************************************
 981:Generated_Source\PSoC4/TCPWM_1.c **** * Function Name: TCPWM_1_ReadCompareBuf
 982:Generated_Source\PSoC4/TCPWM_1.c **** ********************************************************************************
 983:Generated_Source\PSoC4/TCPWM_1.c **** *
 984:Generated_Source\PSoC4/TCPWM_1.c **** * Summary:
 985:Generated_Source\PSoC4/TCPWM_1.c **** *  Reads the compare buffer register. Not applicable for Timer/Counter with
 986:Generated_Source\PSoC4/TCPWM_1.c **** *  Capture or in Quadrature Decoder modes.
 987:Generated_Source\PSoC4/TCPWM_1.c **** *
 988:Generated_Source\PSoC4/TCPWM_1.c **** * Parameters:
 989:Generated_Source\PSoC4/TCPWM_1.c **** *  None
 990:Generated_Source\PSoC4/TCPWM_1.c **** *
 991:Generated_Source\PSoC4/TCPWM_1.c **** * Return:
 992:Generated_Source\PSoC4/TCPWM_1.c **** *  Compare buffer value
 993:Generated_Source\PSoC4/TCPWM_1.c **** *
 994:Generated_Source\PSoC4/TCPWM_1.c **** * Note:
 995:Generated_Source\PSoC4/TCPWM_1.c **** *  PSoC 4000 devices read the incremented compare register value in the 
 996:Generated_Source\PSoC4/TCPWM_1.c **** *  Up counting mode (except 0xFFFFu), and the decremented value in the 
 997:Generated_Source\PSoC4/TCPWM_1.c **** *  Down counting mode (except 0x0u).
 998:Generated_Source\PSoC4/TCPWM_1.c **** *
 999:Generated_Source\PSoC4/TCPWM_1.c **** *******************************************************************************/
1000:Generated_Source\PSoC4/TCPWM_1.c **** uint32 TCPWM_1_ReadCompareBuf(void)
1001:Generated_Source\PSoC4/TCPWM_1.c **** {
 1309              		.loc 1 1001 0
 1310              		.cfi_startproc
 1311              		@ args = 0, pretend = 0, frame = 0
 1312              		@ frame_needed = 1, uses_anonymous_args = 0
 1313 0000 80B5     		push	{r7, lr}
 1314              		.cfi_def_cfa_offset 8
 1315              		.cfi_offset 7, -8
 1316              		.cfi_offset 14, -4
 1317 0002 00AF     		add	r7, sp, #0
 1318              		.cfi_def_cfa_register 7
1002:Generated_Source\PSoC4/TCPWM_1.c ****     #if (TCPWM_1_CY_TCPWM_4000)
1003:Generated_Source\PSoC4/TCPWM_1.c ****         uint32 currentMode;
1004:Generated_Source\PSoC4/TCPWM_1.c ****         uint32 regVal;
1005:Generated_Source\PSoC4/TCPWM_1.c ****     #endif /* (TCPWM_1_CY_TCPWM_4000) */
1006:Generated_Source\PSoC4/TCPWM_1.c **** 
1007:Generated_Source\PSoC4/TCPWM_1.c ****     #if (TCPWM_1_CY_TCPWM_4000)
1008:Generated_Source\PSoC4/TCPWM_1.c ****         currentMode = ((TCPWM_1_CONTROL_REG & TCPWM_1_UPDOWN_MASK) >> TCPWM_1_UPDOWN_SHIFT);
1009:Generated_Source\PSoC4/TCPWM_1.c **** 
1010:Generated_Source\PSoC4/TCPWM_1.c ****         regVal = TCPWM_1_COMP_CAP_BUF_REG;
1011:Generated_Source\PSoC4/TCPWM_1.c ****         
1012:Generated_Source\PSoC4/TCPWM_1.c ****         if (((uint32)TCPWM_1__COUNT_DOWN == currentMode) && (0u != regVal))
1013:Generated_Source\PSoC4/TCPWM_1.c ****         {
1014:Generated_Source\PSoC4/TCPWM_1.c ****             regVal--;
1015:Generated_Source\PSoC4/TCPWM_1.c ****         }
1016:Generated_Source\PSoC4/TCPWM_1.c ****         else if (((uint32)TCPWM_1__COUNT_UP == currentMode) && (0xFFFFu != regVal))
1017:Generated_Source\PSoC4/TCPWM_1.c ****         {
1018:Generated_Source\PSoC4/TCPWM_1.c ****             regVal++;
1019:Generated_Source\PSoC4/TCPWM_1.c ****         }
ARM GAS  C:\Users\puria\AppData\Local\Temp\ccpsVPDq.s 			page 42


1020:Generated_Source\PSoC4/TCPWM_1.c ****         else
1021:Generated_Source\PSoC4/TCPWM_1.c ****         {
1022:Generated_Source\PSoC4/TCPWM_1.c ****         }
1023:Generated_Source\PSoC4/TCPWM_1.c **** 
1024:Generated_Source\PSoC4/TCPWM_1.c ****         return (regVal & TCPWM_1_16BIT_MASK);
1025:Generated_Source\PSoC4/TCPWM_1.c ****     #else
1026:Generated_Source\PSoC4/TCPWM_1.c ****         return (TCPWM_1_COMP_CAP_BUF_REG & TCPWM_1_16BIT_MASK);
 1319              		.loc 1 1026 0
 1320 0004 034B     		ldr	r3, .L83
 1321 0006 1B68     		ldr	r3, [r3]
 1322 0008 1B04     		lsls	r3, r3, #16
 1323 000a 1B0C     		lsrs	r3, r3, #16
1027:Generated_Source\PSoC4/TCPWM_1.c ****     #endif /* (TCPWM_1_CY_TCPWM_4000) */
1028:Generated_Source\PSoC4/TCPWM_1.c **** }
 1324              		.loc 1 1028 0
 1325 000c 1800     		movs	r0, r3
 1326 000e BD46     		mov	sp, r7
 1327              		@ sp needed
 1328 0010 80BD     		pop	{r7, pc}
 1329              	.L84:
 1330 0012 C046     		.align	2
 1331              	.L83:
 1332 0014 10012040 		.word	1075839248
 1333              		.cfi_endproc
 1334              	.LFE27:
 1335              		.size	TCPWM_1_ReadCompareBuf, .-TCPWM_1_ReadCompareBuf
 1336              		.section	.text.TCPWM_1_ReadCapture,"ax",%progbits
 1337              		.align	2
 1338              		.global	TCPWM_1_ReadCapture
 1339              		.code	16
 1340              		.thumb_func
 1341              		.type	TCPWM_1_ReadCapture, %function
 1342              	TCPWM_1_ReadCapture:
 1343              	.LFB28:
1029:Generated_Source\PSoC4/TCPWM_1.c **** 
1030:Generated_Source\PSoC4/TCPWM_1.c **** 
1031:Generated_Source\PSoC4/TCPWM_1.c **** /*******************************************************************************
1032:Generated_Source\PSoC4/TCPWM_1.c **** * Function Name: TCPWM_1_ReadCapture
1033:Generated_Source\PSoC4/TCPWM_1.c **** ********************************************************************************
1034:Generated_Source\PSoC4/TCPWM_1.c **** *
1035:Generated_Source\PSoC4/TCPWM_1.c **** * Summary:
1036:Generated_Source\PSoC4/TCPWM_1.c **** *  Reads the captured counter value. This API is applicable only for
1037:Generated_Source\PSoC4/TCPWM_1.c **** *  Timer/Counter with the capture mode and Quadrature Decoder modes.
1038:Generated_Source\PSoC4/TCPWM_1.c **** *
1039:Generated_Source\PSoC4/TCPWM_1.c **** * Parameters:
1040:Generated_Source\PSoC4/TCPWM_1.c **** *  None
1041:Generated_Source\PSoC4/TCPWM_1.c **** *
1042:Generated_Source\PSoC4/TCPWM_1.c **** * Return:
1043:Generated_Source\PSoC4/TCPWM_1.c **** *  Capture value
1044:Generated_Source\PSoC4/TCPWM_1.c **** *
1045:Generated_Source\PSoC4/TCPWM_1.c **** *******************************************************************************/
1046:Generated_Source\PSoC4/TCPWM_1.c **** uint32 TCPWM_1_ReadCapture(void)
1047:Generated_Source\PSoC4/TCPWM_1.c **** {
 1344              		.loc 1 1047 0
 1345              		.cfi_startproc
 1346              		@ args = 0, pretend = 0, frame = 0
 1347              		@ frame_needed = 1, uses_anonymous_args = 0
ARM GAS  C:\Users\puria\AppData\Local\Temp\ccpsVPDq.s 			page 43


 1348 0000 80B5     		push	{r7, lr}
 1349              		.cfi_def_cfa_offset 8
 1350              		.cfi_offset 7, -8
 1351              		.cfi_offset 14, -4
 1352 0002 00AF     		add	r7, sp, #0
 1353              		.cfi_def_cfa_register 7
1048:Generated_Source\PSoC4/TCPWM_1.c ****     return (TCPWM_1_COMP_CAP_REG & TCPWM_1_16BIT_MASK);
 1354              		.loc 1 1048 0
 1355 0004 034B     		ldr	r3, .L87
 1356 0006 1B68     		ldr	r3, [r3]
 1357 0008 1B04     		lsls	r3, r3, #16
 1358 000a 1B0C     		lsrs	r3, r3, #16
1049:Generated_Source\PSoC4/TCPWM_1.c **** }
 1359              		.loc 1 1049 0
 1360 000c 1800     		movs	r0, r3
 1361 000e BD46     		mov	sp, r7
 1362              		@ sp needed
 1363 0010 80BD     		pop	{r7, pc}
 1364              	.L88:
 1365 0012 C046     		.align	2
 1366              	.L87:
 1367 0014 0C012040 		.word	1075839244
 1368              		.cfi_endproc
 1369              	.LFE28:
 1370              		.size	TCPWM_1_ReadCapture, .-TCPWM_1_ReadCapture
 1371              		.section	.text.TCPWM_1_ReadCaptureBuf,"ax",%progbits
 1372              		.align	2
 1373              		.global	TCPWM_1_ReadCaptureBuf
 1374              		.code	16
 1375              		.thumb_func
 1376              		.type	TCPWM_1_ReadCaptureBuf, %function
 1377              	TCPWM_1_ReadCaptureBuf:
 1378              	.LFB29:
1050:Generated_Source\PSoC4/TCPWM_1.c **** 
1051:Generated_Source\PSoC4/TCPWM_1.c **** 
1052:Generated_Source\PSoC4/TCPWM_1.c **** /*******************************************************************************
1053:Generated_Source\PSoC4/TCPWM_1.c **** * Function Name: TCPWM_1_ReadCaptureBuf
1054:Generated_Source\PSoC4/TCPWM_1.c **** ********************************************************************************
1055:Generated_Source\PSoC4/TCPWM_1.c **** *
1056:Generated_Source\PSoC4/TCPWM_1.c **** * Summary:
1057:Generated_Source\PSoC4/TCPWM_1.c **** *  Reads the capture buffer register. This API is applicable only for
1058:Generated_Source\PSoC4/TCPWM_1.c **** *  Timer/Counter with the capture mode and Quadrature Decoder modes.
1059:Generated_Source\PSoC4/TCPWM_1.c **** *
1060:Generated_Source\PSoC4/TCPWM_1.c **** * Parameters:
1061:Generated_Source\PSoC4/TCPWM_1.c **** *  None
1062:Generated_Source\PSoC4/TCPWM_1.c **** *
1063:Generated_Source\PSoC4/TCPWM_1.c **** * Return:
1064:Generated_Source\PSoC4/TCPWM_1.c **** *  Capture buffer value
1065:Generated_Source\PSoC4/TCPWM_1.c **** *
1066:Generated_Source\PSoC4/TCPWM_1.c **** *******************************************************************************/
1067:Generated_Source\PSoC4/TCPWM_1.c **** uint32 TCPWM_1_ReadCaptureBuf(void)
1068:Generated_Source\PSoC4/TCPWM_1.c **** {
 1379              		.loc 1 1068 0
 1380              		.cfi_startproc
 1381              		@ args = 0, pretend = 0, frame = 0
 1382              		@ frame_needed = 1, uses_anonymous_args = 0
 1383 0000 80B5     		push	{r7, lr}
ARM GAS  C:\Users\puria\AppData\Local\Temp\ccpsVPDq.s 			page 44


 1384              		.cfi_def_cfa_offset 8
 1385              		.cfi_offset 7, -8
 1386              		.cfi_offset 14, -4
 1387 0002 00AF     		add	r7, sp, #0
 1388              		.cfi_def_cfa_register 7
1069:Generated_Source\PSoC4/TCPWM_1.c ****     return (TCPWM_1_COMP_CAP_BUF_REG & TCPWM_1_16BIT_MASK);
 1389              		.loc 1 1069 0
 1390 0004 034B     		ldr	r3, .L91
 1391 0006 1B68     		ldr	r3, [r3]
 1392 0008 1B04     		lsls	r3, r3, #16
 1393 000a 1B0C     		lsrs	r3, r3, #16
1070:Generated_Source\PSoC4/TCPWM_1.c **** }
 1394              		.loc 1 1070 0
 1395 000c 1800     		movs	r0, r3
 1396 000e BD46     		mov	sp, r7
 1397              		@ sp needed
 1398 0010 80BD     		pop	{r7, pc}
 1399              	.L92:
 1400 0012 C046     		.align	2
 1401              	.L91:
 1402 0014 10012040 		.word	1075839248
 1403              		.cfi_endproc
 1404              	.LFE29:
 1405              		.size	TCPWM_1_ReadCaptureBuf, .-TCPWM_1_ReadCaptureBuf
 1406              		.section	.text.TCPWM_1_SetCaptureMode,"ax",%progbits
 1407              		.align	2
 1408              		.global	TCPWM_1_SetCaptureMode
 1409              		.code	16
 1410              		.thumb_func
 1411              		.type	TCPWM_1_SetCaptureMode, %function
 1412              	TCPWM_1_SetCaptureMode:
 1413              	.LFB30:
1071:Generated_Source\PSoC4/TCPWM_1.c **** 
1072:Generated_Source\PSoC4/TCPWM_1.c **** 
1073:Generated_Source\PSoC4/TCPWM_1.c **** /*******************************************************************************
1074:Generated_Source\PSoC4/TCPWM_1.c **** * Function Name: TCPWM_1_SetCaptureMode
1075:Generated_Source\PSoC4/TCPWM_1.c **** ********************************************************************************
1076:Generated_Source\PSoC4/TCPWM_1.c **** *
1077:Generated_Source\PSoC4/TCPWM_1.c **** * Summary:
1078:Generated_Source\PSoC4/TCPWM_1.c **** *  Sets the capture trigger mode. For PWM mode this is the switch input.
1079:Generated_Source\PSoC4/TCPWM_1.c **** *  This input is not applicable to the Timer/Counter without Capture and
1080:Generated_Source\PSoC4/TCPWM_1.c **** *  Quadrature Decoder modes.
1081:Generated_Source\PSoC4/TCPWM_1.c **** *
1082:Generated_Source\PSoC4/TCPWM_1.c **** * Parameters:
1083:Generated_Source\PSoC4/TCPWM_1.c **** *  triggerMode: Enumerated trigger mode value
1084:Generated_Source\PSoC4/TCPWM_1.c **** *   Values:
1085:Generated_Source\PSoC4/TCPWM_1.c **** *     - TCPWM_1_TRIG_LEVEL     - Level
1086:Generated_Source\PSoC4/TCPWM_1.c **** *     - TCPWM_1_TRIG_RISING    - Rising edge
1087:Generated_Source\PSoC4/TCPWM_1.c **** *     - TCPWM_1_TRIG_FALLING   - Falling edge
1088:Generated_Source\PSoC4/TCPWM_1.c **** *     - TCPWM_1_TRIG_BOTH      - Both rising and falling edge
1089:Generated_Source\PSoC4/TCPWM_1.c **** *
1090:Generated_Source\PSoC4/TCPWM_1.c **** * Return:
1091:Generated_Source\PSoC4/TCPWM_1.c **** *  None
1092:Generated_Source\PSoC4/TCPWM_1.c **** *
1093:Generated_Source\PSoC4/TCPWM_1.c **** *******************************************************************************/
1094:Generated_Source\PSoC4/TCPWM_1.c **** void TCPWM_1_SetCaptureMode(uint32 triggerMode)
1095:Generated_Source\PSoC4/TCPWM_1.c **** {
ARM GAS  C:\Users\puria\AppData\Local\Temp\ccpsVPDq.s 			page 45


 1414              		.loc 1 1095 0
 1415              		.cfi_startproc
 1416              		@ args = 0, pretend = 0, frame = 16
 1417              		@ frame_needed = 1, uses_anonymous_args = 0
 1418 0000 90B5     		push	{r4, r7, lr}
 1419              		.cfi_def_cfa_offset 12
 1420              		.cfi_offset 4, -12
 1421              		.cfi_offset 7, -8
 1422              		.cfi_offset 14, -4
 1423 0002 85B0     		sub	sp, sp, #20
 1424              		.cfi_def_cfa_offset 32
 1425 0004 00AF     		add	r7, sp, #0
 1426              		.cfi_def_cfa_register 7
 1427 0006 7860     		str	r0, [r7, #4]
1096:Generated_Source\PSoC4/TCPWM_1.c ****     uint8 enableInterrupts;
1097:Generated_Source\PSoC4/TCPWM_1.c **** 
1098:Generated_Source\PSoC4/TCPWM_1.c ****     enableInterrupts = CyEnterCriticalSection();
 1428              		.loc 1 1098 0
 1429 0008 0F23     		movs	r3, #15
 1430 000a FC18     		adds	r4, r7, r3
 1431 000c FFF7FEFF 		bl	CyEnterCriticalSection
 1432 0010 0300     		movs	r3, r0
 1433 0012 2370     		strb	r3, [r4]
1099:Generated_Source\PSoC4/TCPWM_1.c **** 
1100:Generated_Source\PSoC4/TCPWM_1.c ****     TCPWM_1_TRIG_CONTROL1_REG &= (uint32)~TCPWM_1_CAPTURE_MASK;
 1434              		.loc 1 1100 0
 1435 0014 0A4B     		ldr	r3, .L94
 1436 0016 0A4A     		ldr	r2, .L94
 1437 0018 1268     		ldr	r2, [r2]
 1438 001a 0321     		movs	r1, #3
 1439 001c 8A43     		bics	r2, r1
 1440 001e 1A60     		str	r2, [r3]
1101:Generated_Source\PSoC4/TCPWM_1.c ****     TCPWM_1_TRIG_CONTROL1_REG |= triggerMode;
 1441              		.loc 1 1101 0
 1442 0020 074B     		ldr	r3, .L94
 1443 0022 074A     		ldr	r2, .L94
 1444 0024 1168     		ldr	r1, [r2]
 1445 0026 7A68     		ldr	r2, [r7, #4]
 1446 0028 0A43     		orrs	r2, r1
 1447 002a 1A60     		str	r2, [r3]
1102:Generated_Source\PSoC4/TCPWM_1.c **** 
1103:Generated_Source\PSoC4/TCPWM_1.c ****     CyExitCriticalSection(enableInterrupts);
 1448              		.loc 1 1103 0
 1449 002c 0F23     		movs	r3, #15
 1450 002e FB18     		adds	r3, r7, r3
 1451 0030 1B78     		ldrb	r3, [r3]
 1452 0032 1800     		movs	r0, r3
 1453 0034 FFF7FEFF 		bl	CyExitCriticalSection
1104:Generated_Source\PSoC4/TCPWM_1.c **** }
 1454              		.loc 1 1104 0
 1455 0038 C046     		nop
 1456 003a BD46     		mov	sp, r7
 1457 003c 05B0     		add	sp, sp, #20
 1458              		@ sp needed
 1459 003e 90BD     		pop	{r4, r7, pc}
 1460              	.L95:
 1461              		.align	2
ARM GAS  C:\Users\puria\AppData\Local\Temp\ccpsVPDq.s 			page 46


 1462              	.L94:
 1463 0040 24012040 		.word	1075839268
 1464              		.cfi_endproc
 1465              	.LFE30:
 1466              		.size	TCPWM_1_SetCaptureMode, .-TCPWM_1_SetCaptureMode
 1467              		.section	.text.TCPWM_1_SetReloadMode,"ax",%progbits
 1468              		.align	2
 1469              		.global	TCPWM_1_SetReloadMode
 1470              		.code	16
 1471              		.thumb_func
 1472              		.type	TCPWM_1_SetReloadMode, %function
 1473              	TCPWM_1_SetReloadMode:
 1474              	.LFB31:
1105:Generated_Source\PSoC4/TCPWM_1.c **** 
1106:Generated_Source\PSoC4/TCPWM_1.c **** 
1107:Generated_Source\PSoC4/TCPWM_1.c **** /*******************************************************************************
1108:Generated_Source\PSoC4/TCPWM_1.c **** * Function Name: TCPWM_1_SetReloadMode
1109:Generated_Source\PSoC4/TCPWM_1.c **** ********************************************************************************
1110:Generated_Source\PSoC4/TCPWM_1.c **** *
1111:Generated_Source\PSoC4/TCPWM_1.c **** * Summary:
1112:Generated_Source\PSoC4/TCPWM_1.c **** *  Sets the reload trigger mode. For Quadrature Decoder mode this is the index
1113:Generated_Source\PSoC4/TCPWM_1.c **** *  input.
1114:Generated_Source\PSoC4/TCPWM_1.c **** *
1115:Generated_Source\PSoC4/TCPWM_1.c **** * Parameters:
1116:Generated_Source\PSoC4/TCPWM_1.c **** *  triggerMode: Enumerated trigger mode value
1117:Generated_Source\PSoC4/TCPWM_1.c **** *   Values:
1118:Generated_Source\PSoC4/TCPWM_1.c **** *     - TCPWM_1_TRIG_LEVEL     - Level
1119:Generated_Source\PSoC4/TCPWM_1.c **** *     - TCPWM_1_TRIG_RISING    - Rising edge
1120:Generated_Source\PSoC4/TCPWM_1.c **** *     - TCPWM_1_TRIG_FALLING   - Falling edge
1121:Generated_Source\PSoC4/TCPWM_1.c **** *     - TCPWM_1_TRIG_BOTH      - Both rising and falling edge
1122:Generated_Source\PSoC4/TCPWM_1.c **** *
1123:Generated_Source\PSoC4/TCPWM_1.c **** * Return:
1124:Generated_Source\PSoC4/TCPWM_1.c **** *  None
1125:Generated_Source\PSoC4/TCPWM_1.c **** *
1126:Generated_Source\PSoC4/TCPWM_1.c **** *******************************************************************************/
1127:Generated_Source\PSoC4/TCPWM_1.c **** void TCPWM_1_SetReloadMode(uint32 triggerMode)
1128:Generated_Source\PSoC4/TCPWM_1.c **** {
 1475              		.loc 1 1128 0
 1476              		.cfi_startproc
 1477              		@ args = 0, pretend = 0, frame = 16
 1478              		@ frame_needed = 1, uses_anonymous_args = 0
 1479 0000 90B5     		push	{r4, r7, lr}
 1480              		.cfi_def_cfa_offset 12
 1481              		.cfi_offset 4, -12
 1482              		.cfi_offset 7, -8
 1483              		.cfi_offset 14, -4
 1484 0002 85B0     		sub	sp, sp, #20
 1485              		.cfi_def_cfa_offset 32
 1486 0004 00AF     		add	r7, sp, #0
 1487              		.cfi_def_cfa_register 7
 1488 0006 7860     		str	r0, [r7, #4]
1129:Generated_Source\PSoC4/TCPWM_1.c ****     uint8 enableInterrupts;
1130:Generated_Source\PSoC4/TCPWM_1.c **** 
1131:Generated_Source\PSoC4/TCPWM_1.c ****     enableInterrupts = CyEnterCriticalSection();
 1489              		.loc 1 1131 0
 1490 0008 0F23     		movs	r3, #15
 1491 000a FC18     		adds	r4, r7, r3
ARM GAS  C:\Users\puria\AppData\Local\Temp\ccpsVPDq.s 			page 47


 1492 000c FFF7FEFF 		bl	CyEnterCriticalSection
 1493 0010 0300     		movs	r3, r0
 1494 0012 2370     		strb	r3, [r4]
1132:Generated_Source\PSoC4/TCPWM_1.c **** 
1133:Generated_Source\PSoC4/TCPWM_1.c ****     TCPWM_1_TRIG_CONTROL1_REG &= (uint32)~TCPWM_1_RELOAD_MASK;
 1495              		.loc 1 1133 0
 1496 0014 0B4B     		ldr	r3, .L97
 1497 0016 0B4A     		ldr	r2, .L97
 1498 0018 1268     		ldr	r2, [r2]
 1499 001a 3021     		movs	r1, #48
 1500 001c 8A43     		bics	r2, r1
 1501 001e 1A60     		str	r2, [r3]
1134:Generated_Source\PSoC4/TCPWM_1.c ****     TCPWM_1_TRIG_CONTROL1_REG |= ((uint32)(triggerMode << TCPWM_1_RELOAD_SHIFT));
 1502              		.loc 1 1134 0
 1503 0020 084B     		ldr	r3, .L97
 1504 0022 084A     		ldr	r2, .L97
 1505 0024 1168     		ldr	r1, [r2]
 1506 0026 7A68     		ldr	r2, [r7, #4]
 1507 0028 1201     		lsls	r2, r2, #4
 1508 002a 0A43     		orrs	r2, r1
 1509 002c 1A60     		str	r2, [r3]
1135:Generated_Source\PSoC4/TCPWM_1.c **** 
1136:Generated_Source\PSoC4/TCPWM_1.c ****     CyExitCriticalSection(enableInterrupts);
 1510              		.loc 1 1136 0
 1511 002e 0F23     		movs	r3, #15
 1512 0030 FB18     		adds	r3, r7, r3
 1513 0032 1B78     		ldrb	r3, [r3]
 1514 0034 1800     		movs	r0, r3
 1515 0036 FFF7FEFF 		bl	CyExitCriticalSection
1137:Generated_Source\PSoC4/TCPWM_1.c **** }
 1516              		.loc 1 1137 0
 1517 003a C046     		nop
 1518 003c BD46     		mov	sp, r7
 1519 003e 05B0     		add	sp, sp, #20
 1520              		@ sp needed
 1521 0040 90BD     		pop	{r4, r7, pc}
 1522              	.L98:
 1523 0042 C046     		.align	2
 1524              	.L97:
 1525 0044 24012040 		.word	1075839268
 1526              		.cfi_endproc
 1527              	.LFE31:
 1528              		.size	TCPWM_1_SetReloadMode, .-TCPWM_1_SetReloadMode
 1529              		.section	.text.TCPWM_1_SetStartMode,"ax",%progbits
 1530              		.align	2
 1531              		.global	TCPWM_1_SetStartMode
 1532              		.code	16
 1533              		.thumb_func
 1534              		.type	TCPWM_1_SetStartMode, %function
 1535              	TCPWM_1_SetStartMode:
 1536              	.LFB32:
1138:Generated_Source\PSoC4/TCPWM_1.c **** 
1139:Generated_Source\PSoC4/TCPWM_1.c **** 
1140:Generated_Source\PSoC4/TCPWM_1.c **** /*******************************************************************************
1141:Generated_Source\PSoC4/TCPWM_1.c **** * Function Name: TCPWM_1_SetStartMode
1142:Generated_Source\PSoC4/TCPWM_1.c **** ********************************************************************************
1143:Generated_Source\PSoC4/TCPWM_1.c **** *
ARM GAS  C:\Users\puria\AppData\Local\Temp\ccpsVPDq.s 			page 48


1144:Generated_Source\PSoC4/TCPWM_1.c **** * Summary:
1145:Generated_Source\PSoC4/TCPWM_1.c **** *  Sets the start trigger mode. For Quadrature Decoder mode this is the
1146:Generated_Source\PSoC4/TCPWM_1.c **** *  phiB input.
1147:Generated_Source\PSoC4/TCPWM_1.c **** *
1148:Generated_Source\PSoC4/TCPWM_1.c **** * Parameters:
1149:Generated_Source\PSoC4/TCPWM_1.c **** *  triggerMode: Enumerated trigger mode value
1150:Generated_Source\PSoC4/TCPWM_1.c **** *   Values:
1151:Generated_Source\PSoC4/TCPWM_1.c **** *     - TCPWM_1_TRIG_LEVEL     - Level
1152:Generated_Source\PSoC4/TCPWM_1.c **** *     - TCPWM_1_TRIG_RISING    - Rising edge
1153:Generated_Source\PSoC4/TCPWM_1.c **** *     - TCPWM_1_TRIG_FALLING   - Falling edge
1154:Generated_Source\PSoC4/TCPWM_1.c **** *     - TCPWM_1_TRIG_BOTH      - Both rising and falling edge
1155:Generated_Source\PSoC4/TCPWM_1.c **** *
1156:Generated_Source\PSoC4/TCPWM_1.c **** * Return:
1157:Generated_Source\PSoC4/TCPWM_1.c **** *  None
1158:Generated_Source\PSoC4/TCPWM_1.c **** *
1159:Generated_Source\PSoC4/TCPWM_1.c **** *******************************************************************************/
1160:Generated_Source\PSoC4/TCPWM_1.c **** void TCPWM_1_SetStartMode(uint32 triggerMode)
1161:Generated_Source\PSoC4/TCPWM_1.c **** {
 1537              		.loc 1 1161 0
 1538              		.cfi_startproc
 1539              		@ args = 0, pretend = 0, frame = 16
 1540              		@ frame_needed = 1, uses_anonymous_args = 0
 1541 0000 90B5     		push	{r4, r7, lr}
 1542              		.cfi_def_cfa_offset 12
 1543              		.cfi_offset 4, -12
 1544              		.cfi_offset 7, -8
 1545              		.cfi_offset 14, -4
 1546 0002 85B0     		sub	sp, sp, #20
 1547              		.cfi_def_cfa_offset 32
 1548 0004 00AF     		add	r7, sp, #0
 1549              		.cfi_def_cfa_register 7
 1550 0006 7860     		str	r0, [r7, #4]
1162:Generated_Source\PSoC4/TCPWM_1.c ****     uint8 enableInterrupts;
1163:Generated_Source\PSoC4/TCPWM_1.c **** 
1164:Generated_Source\PSoC4/TCPWM_1.c ****     enableInterrupts = CyEnterCriticalSection();
 1551              		.loc 1 1164 0
 1552 0008 0F23     		movs	r3, #15
 1553 000a FC18     		adds	r4, r7, r3
 1554 000c FFF7FEFF 		bl	CyEnterCriticalSection
 1555 0010 0300     		movs	r3, r0
 1556 0012 2370     		strb	r3, [r4]
1165:Generated_Source\PSoC4/TCPWM_1.c **** 
1166:Generated_Source\PSoC4/TCPWM_1.c ****     TCPWM_1_TRIG_CONTROL1_REG &= (uint32)~TCPWM_1_START_MASK;
 1557              		.loc 1 1166 0
 1558 0014 0B4B     		ldr	r3, .L100
 1559 0016 0B4A     		ldr	r2, .L100
 1560 0018 1268     		ldr	r2, [r2]
 1561 001a 0B49     		ldr	r1, .L100+4
 1562 001c 0A40     		ands	r2, r1
 1563 001e 1A60     		str	r2, [r3]
1167:Generated_Source\PSoC4/TCPWM_1.c ****     TCPWM_1_TRIG_CONTROL1_REG |= ((uint32)(triggerMode << TCPWM_1_START_SHIFT));
 1564              		.loc 1 1167 0
 1565 0020 084B     		ldr	r3, .L100
 1566 0022 084A     		ldr	r2, .L100
 1567 0024 1168     		ldr	r1, [r2]
 1568 0026 7A68     		ldr	r2, [r7, #4]
 1569 0028 1202     		lsls	r2, r2, #8
ARM GAS  C:\Users\puria\AppData\Local\Temp\ccpsVPDq.s 			page 49


 1570 002a 0A43     		orrs	r2, r1
 1571 002c 1A60     		str	r2, [r3]
1168:Generated_Source\PSoC4/TCPWM_1.c **** 
1169:Generated_Source\PSoC4/TCPWM_1.c ****     CyExitCriticalSection(enableInterrupts);
 1572              		.loc 1 1169 0
 1573 002e 0F23     		movs	r3, #15
 1574 0030 FB18     		adds	r3, r7, r3
 1575 0032 1B78     		ldrb	r3, [r3]
 1576 0034 1800     		movs	r0, r3
 1577 0036 FFF7FEFF 		bl	CyExitCriticalSection
1170:Generated_Source\PSoC4/TCPWM_1.c **** }
 1578              		.loc 1 1170 0
 1579 003a C046     		nop
 1580 003c BD46     		mov	sp, r7
 1581 003e 05B0     		add	sp, sp, #20
 1582              		@ sp needed
 1583 0040 90BD     		pop	{r4, r7, pc}
 1584              	.L101:
 1585 0042 C046     		.align	2
 1586              	.L100:
 1587 0044 24012040 		.word	1075839268
 1588 0048 FFFCFFFF 		.word	-769
 1589              		.cfi_endproc
 1590              	.LFE32:
 1591              		.size	TCPWM_1_SetStartMode, .-TCPWM_1_SetStartMode
 1592              		.section	.text.TCPWM_1_SetStopMode,"ax",%progbits
 1593              		.align	2
 1594              		.global	TCPWM_1_SetStopMode
 1595              		.code	16
 1596              		.thumb_func
 1597              		.type	TCPWM_1_SetStopMode, %function
 1598              	TCPWM_1_SetStopMode:
 1599              	.LFB33:
1171:Generated_Source\PSoC4/TCPWM_1.c **** 
1172:Generated_Source\PSoC4/TCPWM_1.c **** 
1173:Generated_Source\PSoC4/TCPWM_1.c **** /*******************************************************************************
1174:Generated_Source\PSoC4/TCPWM_1.c **** * Function Name: TCPWM_1_SetStopMode
1175:Generated_Source\PSoC4/TCPWM_1.c **** ********************************************************************************
1176:Generated_Source\PSoC4/TCPWM_1.c **** *
1177:Generated_Source\PSoC4/TCPWM_1.c **** * Summary:
1178:Generated_Source\PSoC4/TCPWM_1.c **** *  Sets the stop trigger mode. For PWM mode this is the kill input.
1179:Generated_Source\PSoC4/TCPWM_1.c **** *
1180:Generated_Source\PSoC4/TCPWM_1.c **** * Parameters:
1181:Generated_Source\PSoC4/TCPWM_1.c **** *  triggerMode: Enumerated trigger mode value
1182:Generated_Source\PSoC4/TCPWM_1.c **** *   Values:
1183:Generated_Source\PSoC4/TCPWM_1.c **** *     - TCPWM_1_TRIG_LEVEL     - Level
1184:Generated_Source\PSoC4/TCPWM_1.c **** *     - TCPWM_1_TRIG_RISING    - Rising edge
1185:Generated_Source\PSoC4/TCPWM_1.c **** *     - TCPWM_1_TRIG_FALLING   - Falling edge
1186:Generated_Source\PSoC4/TCPWM_1.c **** *     - TCPWM_1_TRIG_BOTH      - Both rising and falling edge
1187:Generated_Source\PSoC4/TCPWM_1.c **** *
1188:Generated_Source\PSoC4/TCPWM_1.c **** * Return:
1189:Generated_Source\PSoC4/TCPWM_1.c **** *  None
1190:Generated_Source\PSoC4/TCPWM_1.c **** *
1191:Generated_Source\PSoC4/TCPWM_1.c **** *******************************************************************************/
1192:Generated_Source\PSoC4/TCPWM_1.c **** void TCPWM_1_SetStopMode(uint32 triggerMode)
1193:Generated_Source\PSoC4/TCPWM_1.c **** {
 1600              		.loc 1 1193 0
ARM GAS  C:\Users\puria\AppData\Local\Temp\ccpsVPDq.s 			page 50


 1601              		.cfi_startproc
 1602              		@ args = 0, pretend = 0, frame = 16
 1603              		@ frame_needed = 1, uses_anonymous_args = 0
 1604 0000 90B5     		push	{r4, r7, lr}
 1605              		.cfi_def_cfa_offset 12
 1606              		.cfi_offset 4, -12
 1607              		.cfi_offset 7, -8
 1608              		.cfi_offset 14, -4
 1609 0002 85B0     		sub	sp, sp, #20
 1610              		.cfi_def_cfa_offset 32
 1611 0004 00AF     		add	r7, sp, #0
 1612              		.cfi_def_cfa_register 7
 1613 0006 7860     		str	r0, [r7, #4]
1194:Generated_Source\PSoC4/TCPWM_1.c ****     uint8 enableInterrupts;
1195:Generated_Source\PSoC4/TCPWM_1.c **** 
1196:Generated_Source\PSoC4/TCPWM_1.c ****     enableInterrupts = CyEnterCriticalSection();
 1614              		.loc 1 1196 0
 1615 0008 0F23     		movs	r3, #15
 1616 000a FC18     		adds	r4, r7, r3
 1617 000c FFF7FEFF 		bl	CyEnterCriticalSection
 1618 0010 0300     		movs	r3, r0
 1619 0012 2370     		strb	r3, [r4]
1197:Generated_Source\PSoC4/TCPWM_1.c **** 
1198:Generated_Source\PSoC4/TCPWM_1.c ****     TCPWM_1_TRIG_CONTROL1_REG &= (uint32)~TCPWM_1_STOP_MASK;
 1620              		.loc 1 1198 0
 1621 0014 0B4B     		ldr	r3, .L103
 1622 0016 0B4A     		ldr	r2, .L103
 1623 0018 1268     		ldr	r2, [r2]
 1624 001a C021     		movs	r1, #192
 1625 001c 8A43     		bics	r2, r1
 1626 001e 1A60     		str	r2, [r3]
1199:Generated_Source\PSoC4/TCPWM_1.c ****     TCPWM_1_TRIG_CONTROL1_REG |= ((uint32)(triggerMode << TCPWM_1_STOP_SHIFT));
 1627              		.loc 1 1199 0
 1628 0020 084B     		ldr	r3, .L103
 1629 0022 084A     		ldr	r2, .L103
 1630 0024 1168     		ldr	r1, [r2]
 1631 0026 7A68     		ldr	r2, [r7, #4]
 1632 0028 9201     		lsls	r2, r2, #6
 1633 002a 0A43     		orrs	r2, r1
 1634 002c 1A60     		str	r2, [r3]
1200:Generated_Source\PSoC4/TCPWM_1.c **** 
1201:Generated_Source\PSoC4/TCPWM_1.c ****     CyExitCriticalSection(enableInterrupts);
 1635              		.loc 1 1201 0
 1636 002e 0F23     		movs	r3, #15
 1637 0030 FB18     		adds	r3, r7, r3
 1638 0032 1B78     		ldrb	r3, [r3]
 1639 0034 1800     		movs	r0, r3
 1640 0036 FFF7FEFF 		bl	CyExitCriticalSection
1202:Generated_Source\PSoC4/TCPWM_1.c **** }
 1641              		.loc 1 1202 0
 1642 003a C046     		nop
 1643 003c BD46     		mov	sp, r7
 1644 003e 05B0     		add	sp, sp, #20
 1645              		@ sp needed
 1646 0040 90BD     		pop	{r4, r7, pc}
 1647              	.L104:
 1648 0042 C046     		.align	2
ARM GAS  C:\Users\puria\AppData\Local\Temp\ccpsVPDq.s 			page 51


 1649              	.L103:
 1650 0044 24012040 		.word	1075839268
 1651              		.cfi_endproc
 1652              	.LFE33:
 1653              		.size	TCPWM_1_SetStopMode, .-TCPWM_1_SetStopMode
 1654              		.section	.text.TCPWM_1_SetCountMode,"ax",%progbits
 1655              		.align	2
 1656              		.global	TCPWM_1_SetCountMode
 1657              		.code	16
 1658              		.thumb_func
 1659              		.type	TCPWM_1_SetCountMode, %function
 1660              	TCPWM_1_SetCountMode:
 1661              	.LFB34:
1203:Generated_Source\PSoC4/TCPWM_1.c **** 
1204:Generated_Source\PSoC4/TCPWM_1.c **** 
1205:Generated_Source\PSoC4/TCPWM_1.c **** /*******************************************************************************
1206:Generated_Source\PSoC4/TCPWM_1.c **** * Function Name: TCPWM_1_SetCountMode
1207:Generated_Source\PSoC4/TCPWM_1.c **** ********************************************************************************
1208:Generated_Source\PSoC4/TCPWM_1.c **** *
1209:Generated_Source\PSoC4/TCPWM_1.c **** * Summary:
1210:Generated_Source\PSoC4/TCPWM_1.c **** *  Sets the count trigger mode. For Quadrature Decoder mode this is the phiA
1211:Generated_Source\PSoC4/TCPWM_1.c **** *  input.
1212:Generated_Source\PSoC4/TCPWM_1.c **** *
1213:Generated_Source\PSoC4/TCPWM_1.c **** * Parameters:
1214:Generated_Source\PSoC4/TCPWM_1.c **** *  triggerMode: Enumerated trigger mode value
1215:Generated_Source\PSoC4/TCPWM_1.c **** *   Values:
1216:Generated_Source\PSoC4/TCPWM_1.c **** *     - TCPWM_1_TRIG_LEVEL     - Level
1217:Generated_Source\PSoC4/TCPWM_1.c **** *     - TCPWM_1_TRIG_RISING    - Rising edge
1218:Generated_Source\PSoC4/TCPWM_1.c **** *     - TCPWM_1_TRIG_FALLING   - Falling edge
1219:Generated_Source\PSoC4/TCPWM_1.c **** *     - TCPWM_1_TRIG_BOTH      - Both rising and falling edge
1220:Generated_Source\PSoC4/TCPWM_1.c **** *
1221:Generated_Source\PSoC4/TCPWM_1.c **** * Return:
1222:Generated_Source\PSoC4/TCPWM_1.c **** *  None
1223:Generated_Source\PSoC4/TCPWM_1.c **** *
1224:Generated_Source\PSoC4/TCPWM_1.c **** *******************************************************************************/
1225:Generated_Source\PSoC4/TCPWM_1.c **** void TCPWM_1_SetCountMode(uint32 triggerMode)
1226:Generated_Source\PSoC4/TCPWM_1.c **** {
 1662              		.loc 1 1226 0
 1663              		.cfi_startproc
 1664              		@ args = 0, pretend = 0, frame = 16
 1665              		@ frame_needed = 1, uses_anonymous_args = 0
 1666 0000 90B5     		push	{r4, r7, lr}
 1667              		.cfi_def_cfa_offset 12
 1668              		.cfi_offset 4, -12
 1669              		.cfi_offset 7, -8
 1670              		.cfi_offset 14, -4
 1671 0002 85B0     		sub	sp, sp, #20
 1672              		.cfi_def_cfa_offset 32
 1673 0004 00AF     		add	r7, sp, #0
 1674              		.cfi_def_cfa_register 7
 1675 0006 7860     		str	r0, [r7, #4]
1227:Generated_Source\PSoC4/TCPWM_1.c ****     uint8 enableInterrupts;
1228:Generated_Source\PSoC4/TCPWM_1.c **** 
1229:Generated_Source\PSoC4/TCPWM_1.c ****     enableInterrupts = CyEnterCriticalSection();
 1676              		.loc 1 1229 0
 1677 0008 0F23     		movs	r3, #15
 1678 000a FC18     		adds	r4, r7, r3
ARM GAS  C:\Users\puria\AppData\Local\Temp\ccpsVPDq.s 			page 52


 1679 000c FFF7FEFF 		bl	CyEnterCriticalSection
 1680 0010 0300     		movs	r3, r0
 1681 0012 2370     		strb	r3, [r4]
1230:Generated_Source\PSoC4/TCPWM_1.c **** 
1231:Generated_Source\PSoC4/TCPWM_1.c ****     TCPWM_1_TRIG_CONTROL1_REG &= (uint32)~TCPWM_1_COUNT_MASK;
 1682              		.loc 1 1231 0
 1683 0014 0B4B     		ldr	r3, .L106
 1684 0016 0B4A     		ldr	r2, .L106
 1685 0018 1268     		ldr	r2, [r2]
 1686 001a 0C21     		movs	r1, #12
 1687 001c 8A43     		bics	r2, r1
 1688 001e 1A60     		str	r2, [r3]
1232:Generated_Source\PSoC4/TCPWM_1.c ****     TCPWM_1_TRIG_CONTROL1_REG |= ((uint32)(triggerMode << TCPWM_1_COUNT_SHIFT));
 1689              		.loc 1 1232 0
 1690 0020 084B     		ldr	r3, .L106
 1691 0022 084A     		ldr	r2, .L106
 1692 0024 1168     		ldr	r1, [r2]
 1693 0026 7A68     		ldr	r2, [r7, #4]
 1694 0028 9200     		lsls	r2, r2, #2
 1695 002a 0A43     		orrs	r2, r1
 1696 002c 1A60     		str	r2, [r3]
1233:Generated_Source\PSoC4/TCPWM_1.c **** 
1234:Generated_Source\PSoC4/TCPWM_1.c ****     CyExitCriticalSection(enableInterrupts);
 1697              		.loc 1 1234 0
 1698 002e 0F23     		movs	r3, #15
 1699 0030 FB18     		adds	r3, r7, r3
 1700 0032 1B78     		ldrb	r3, [r3]
 1701 0034 1800     		movs	r0, r3
 1702 0036 FFF7FEFF 		bl	CyExitCriticalSection
1235:Generated_Source\PSoC4/TCPWM_1.c **** }
 1703              		.loc 1 1235 0
 1704 003a C046     		nop
 1705 003c BD46     		mov	sp, r7
 1706 003e 05B0     		add	sp, sp, #20
 1707              		@ sp needed
 1708 0040 90BD     		pop	{r4, r7, pc}
 1709              	.L107:
 1710 0042 C046     		.align	2
 1711              	.L106:
 1712 0044 24012040 		.word	1075839268
 1713              		.cfi_endproc
 1714              	.LFE34:
 1715              		.size	TCPWM_1_SetCountMode, .-TCPWM_1_SetCountMode
 1716              		.section	.text.TCPWM_1_TriggerCommand,"ax",%progbits
 1717              		.align	2
 1718              		.global	TCPWM_1_TriggerCommand
 1719              		.code	16
 1720              		.thumb_func
 1721              		.type	TCPWM_1_TriggerCommand, %function
 1722              	TCPWM_1_TriggerCommand:
 1723              	.LFB35:
1236:Generated_Source\PSoC4/TCPWM_1.c **** 
1237:Generated_Source\PSoC4/TCPWM_1.c **** 
1238:Generated_Source\PSoC4/TCPWM_1.c **** /*******************************************************************************
1239:Generated_Source\PSoC4/TCPWM_1.c **** * Function Name: TCPWM_1_TriggerCommand
1240:Generated_Source\PSoC4/TCPWM_1.c **** ********************************************************************************
1241:Generated_Source\PSoC4/TCPWM_1.c **** *
ARM GAS  C:\Users\puria\AppData\Local\Temp\ccpsVPDq.s 			page 53


1242:Generated_Source\PSoC4/TCPWM_1.c **** * Summary:
1243:Generated_Source\PSoC4/TCPWM_1.c **** *  Triggers the designated command to occur on the designated TCPWM instances.
1244:Generated_Source\PSoC4/TCPWM_1.c **** *  The mask can be used to apply this command simultaneously to more than one
1245:Generated_Source\PSoC4/TCPWM_1.c **** *  instance.  This allows multiple TCPWM instances to be synchronized.
1246:Generated_Source\PSoC4/TCPWM_1.c **** *
1247:Generated_Source\PSoC4/TCPWM_1.c **** * Parameters:
1248:Generated_Source\PSoC4/TCPWM_1.c **** *  mask: A combination of mask bits for each instance of the TCPWM that the
1249:Generated_Source\PSoC4/TCPWM_1.c **** *        command should apply to.  This function from one instance can be used
1250:Generated_Source\PSoC4/TCPWM_1.c **** *        to apply the command to any of the instances in the design.
1251:Generated_Source\PSoC4/TCPWM_1.c **** *        The mask value for a specific instance is available with the MASK
1252:Generated_Source\PSoC4/TCPWM_1.c **** *        define.
1253:Generated_Source\PSoC4/TCPWM_1.c **** *  command: Enumerated command values. Capture command only applicable for
1254:Generated_Source\PSoC4/TCPWM_1.c **** *           Timer/Counter with Capture and PWM modes.
1255:Generated_Source\PSoC4/TCPWM_1.c **** *   Values:
1256:Generated_Source\PSoC4/TCPWM_1.c **** *     - TCPWM_1_CMD_CAPTURE    - Trigger Capture/Switch command
1257:Generated_Source\PSoC4/TCPWM_1.c **** *     - TCPWM_1_CMD_RELOAD     - Trigger Reload/Index command
1258:Generated_Source\PSoC4/TCPWM_1.c **** *     - TCPWM_1_CMD_STOP       - Trigger Stop/Kill command
1259:Generated_Source\PSoC4/TCPWM_1.c **** *     - TCPWM_1_CMD_START      - Trigger Start/phiB command
1260:Generated_Source\PSoC4/TCPWM_1.c **** *
1261:Generated_Source\PSoC4/TCPWM_1.c **** * Return:
1262:Generated_Source\PSoC4/TCPWM_1.c **** *  None
1263:Generated_Source\PSoC4/TCPWM_1.c **** *
1264:Generated_Source\PSoC4/TCPWM_1.c **** *******************************************************************************/
1265:Generated_Source\PSoC4/TCPWM_1.c **** void TCPWM_1_TriggerCommand(uint32 mask, uint32 command)
1266:Generated_Source\PSoC4/TCPWM_1.c **** {
 1724              		.loc 1 1266 0
 1725              		.cfi_startproc
 1726              		@ args = 0, pretend = 0, frame = 16
 1727              		@ frame_needed = 1, uses_anonymous_args = 0
 1728 0000 90B5     		push	{r4, r7, lr}
 1729              		.cfi_def_cfa_offset 12
 1730              		.cfi_offset 4, -12
 1731              		.cfi_offset 7, -8
 1732              		.cfi_offset 14, -4
 1733 0002 85B0     		sub	sp, sp, #20
 1734              		.cfi_def_cfa_offset 32
 1735 0004 00AF     		add	r7, sp, #0
 1736              		.cfi_def_cfa_register 7
 1737 0006 7860     		str	r0, [r7, #4]
 1738 0008 3960     		str	r1, [r7]
1267:Generated_Source\PSoC4/TCPWM_1.c ****     uint8 enableInterrupts;
1268:Generated_Source\PSoC4/TCPWM_1.c **** 
1269:Generated_Source\PSoC4/TCPWM_1.c ****     enableInterrupts = CyEnterCriticalSection();
 1739              		.loc 1 1269 0
 1740 000a 0F23     		movs	r3, #15
 1741 000c FC18     		adds	r4, r7, r3
 1742 000e FFF7FEFF 		bl	CyEnterCriticalSection
 1743 0012 0300     		movs	r3, r0
 1744 0014 2370     		strb	r3, [r4]
1270:Generated_Source\PSoC4/TCPWM_1.c **** 
1271:Generated_Source\PSoC4/TCPWM_1.c ****     TCPWM_1_COMMAND_REG = ((uint32)(mask << command));
 1745              		.loc 1 1271 0
 1746 0016 084B     		ldr	r3, .L109
 1747 0018 7968     		ldr	r1, [r7, #4]
 1748 001a 3A68     		ldr	r2, [r7]
 1749 001c 9140     		lsls	r1, r1, r2
 1750 001e 0A00     		movs	r2, r1
ARM GAS  C:\Users\puria\AppData\Local\Temp\ccpsVPDq.s 			page 54


 1751 0020 1A60     		str	r2, [r3]
1272:Generated_Source\PSoC4/TCPWM_1.c **** 
1273:Generated_Source\PSoC4/TCPWM_1.c ****     CyExitCriticalSection(enableInterrupts);
 1752              		.loc 1 1273 0
 1753 0022 0F23     		movs	r3, #15
 1754 0024 FB18     		adds	r3, r7, r3
 1755 0026 1B78     		ldrb	r3, [r3]
 1756 0028 1800     		movs	r0, r3
 1757 002a FFF7FEFF 		bl	CyExitCriticalSection
1274:Generated_Source\PSoC4/TCPWM_1.c **** }
 1758              		.loc 1 1274 0
 1759 002e C046     		nop
 1760 0030 BD46     		mov	sp, r7
 1761 0032 05B0     		add	sp, sp, #20
 1762              		@ sp needed
 1763 0034 90BD     		pop	{r4, r7, pc}
 1764              	.L110:
 1765 0036 C046     		.align	2
 1766              	.L109:
 1767 0038 08002040 		.word	1075838984
 1768              		.cfi_endproc
 1769              	.LFE35:
 1770              		.size	TCPWM_1_TriggerCommand, .-TCPWM_1_TriggerCommand
 1771              		.section	.text.TCPWM_1_ReadStatus,"ax",%progbits
 1772              		.align	2
 1773              		.global	TCPWM_1_ReadStatus
 1774              		.code	16
 1775              		.thumb_func
 1776              		.type	TCPWM_1_ReadStatus, %function
 1777              	TCPWM_1_ReadStatus:
 1778              	.LFB36:
1275:Generated_Source\PSoC4/TCPWM_1.c **** 
1276:Generated_Source\PSoC4/TCPWM_1.c **** 
1277:Generated_Source\PSoC4/TCPWM_1.c **** /*******************************************************************************
1278:Generated_Source\PSoC4/TCPWM_1.c **** * Function Name: TCPWM_1_ReadStatus
1279:Generated_Source\PSoC4/TCPWM_1.c **** ********************************************************************************
1280:Generated_Source\PSoC4/TCPWM_1.c **** *
1281:Generated_Source\PSoC4/TCPWM_1.c **** * Summary:
1282:Generated_Source\PSoC4/TCPWM_1.c **** *  Reads the status of the TCPWM_1.
1283:Generated_Source\PSoC4/TCPWM_1.c **** *
1284:Generated_Source\PSoC4/TCPWM_1.c **** * Parameters:
1285:Generated_Source\PSoC4/TCPWM_1.c **** *  None
1286:Generated_Source\PSoC4/TCPWM_1.c **** *
1287:Generated_Source\PSoC4/TCPWM_1.c **** * Return:
1288:Generated_Source\PSoC4/TCPWM_1.c **** *  Status
1289:Generated_Source\PSoC4/TCPWM_1.c **** *   Values:
1290:Generated_Source\PSoC4/TCPWM_1.c **** *     - TCPWM_1_STATUS_DOWN    - Set if counting down
1291:Generated_Source\PSoC4/TCPWM_1.c **** *     - TCPWM_1_STATUS_RUNNING - Set if counter is running
1292:Generated_Source\PSoC4/TCPWM_1.c **** *
1293:Generated_Source\PSoC4/TCPWM_1.c **** *******************************************************************************/
1294:Generated_Source\PSoC4/TCPWM_1.c **** uint32 TCPWM_1_ReadStatus(void)
1295:Generated_Source\PSoC4/TCPWM_1.c **** {
 1779              		.loc 1 1295 0
 1780              		.cfi_startproc
 1781              		@ args = 0, pretend = 0, frame = 0
 1782              		@ frame_needed = 1, uses_anonymous_args = 0
 1783 0000 80B5     		push	{r7, lr}
ARM GAS  C:\Users\puria\AppData\Local\Temp\ccpsVPDq.s 			page 55


 1784              		.cfi_def_cfa_offset 8
 1785              		.cfi_offset 7, -8
 1786              		.cfi_offset 14, -4
 1787 0002 00AF     		add	r7, sp, #0
 1788              		.cfi_def_cfa_register 7
1296:Generated_Source\PSoC4/TCPWM_1.c ****     return ((TCPWM_1_STATUS_REG >> TCPWM_1_RUNNING_STATUS_SHIFT) |
 1789              		.loc 1 1296 0
 1790 0004 054B     		ldr	r3, .L113
 1791 0006 1B68     		ldr	r3, [r3]
 1792 0008 9A0F     		lsrs	r2, r3, #30
1297:Generated_Source\PSoC4/TCPWM_1.c ****             (TCPWM_1_STATUS_REG & TCPWM_1_STATUS_DOWN));
 1793              		.loc 1 1297 0
 1794 000a 044B     		ldr	r3, .L113
 1795 000c 1B68     		ldr	r3, [r3]
 1796 000e 0121     		movs	r1, #1
 1797 0010 0B40     		ands	r3, r1
1296:Generated_Source\PSoC4/TCPWM_1.c ****     return ((TCPWM_1_STATUS_REG >> TCPWM_1_RUNNING_STATUS_SHIFT) |
 1798              		.loc 1 1296 0
 1799 0012 1343     		orrs	r3, r2
1298:Generated_Source\PSoC4/TCPWM_1.c **** }
 1800              		.loc 1 1298 0
 1801 0014 1800     		movs	r0, r3
 1802 0016 BD46     		mov	sp, r7
 1803              		@ sp needed
 1804 0018 80BD     		pop	{r7, pc}
 1805              	.L114:
 1806 001a C046     		.align	2
 1807              	.L113:
 1808 001c 04012040 		.word	1075839236
 1809              		.cfi_endproc
 1810              	.LFE36:
 1811              		.size	TCPWM_1_ReadStatus, .-TCPWM_1_ReadStatus
 1812              		.section	.text.TCPWM_1_SetInterruptMode,"ax",%progbits
 1813              		.align	2
 1814              		.global	TCPWM_1_SetInterruptMode
 1815              		.code	16
 1816              		.thumb_func
 1817              		.type	TCPWM_1_SetInterruptMode, %function
 1818              	TCPWM_1_SetInterruptMode:
 1819              	.LFB37:
1299:Generated_Source\PSoC4/TCPWM_1.c **** 
1300:Generated_Source\PSoC4/TCPWM_1.c **** 
1301:Generated_Source\PSoC4/TCPWM_1.c **** /*******************************************************************************
1302:Generated_Source\PSoC4/TCPWM_1.c **** * Function Name: TCPWM_1_SetInterruptMode
1303:Generated_Source\PSoC4/TCPWM_1.c **** ********************************************************************************
1304:Generated_Source\PSoC4/TCPWM_1.c **** *
1305:Generated_Source\PSoC4/TCPWM_1.c **** * Summary:
1306:Generated_Source\PSoC4/TCPWM_1.c **** *  Sets the interrupt mask to control which interrupt
1307:Generated_Source\PSoC4/TCPWM_1.c **** *  requests generate the interrupt signal.
1308:Generated_Source\PSoC4/TCPWM_1.c **** *
1309:Generated_Source\PSoC4/TCPWM_1.c **** * Parameters:
1310:Generated_Source\PSoC4/TCPWM_1.c **** *   interruptMask: Mask of bits to be enabled
1311:Generated_Source\PSoC4/TCPWM_1.c **** *   Values:
1312:Generated_Source\PSoC4/TCPWM_1.c **** *     - TCPWM_1_INTR_MASK_TC       - Terminal count mask
1313:Generated_Source\PSoC4/TCPWM_1.c **** *     - TCPWM_1_INTR_MASK_CC_MATCH - Compare count / capture mask
1314:Generated_Source\PSoC4/TCPWM_1.c **** *
1315:Generated_Source\PSoC4/TCPWM_1.c **** * Return:
ARM GAS  C:\Users\puria\AppData\Local\Temp\ccpsVPDq.s 			page 56


1316:Generated_Source\PSoC4/TCPWM_1.c **** *  None
1317:Generated_Source\PSoC4/TCPWM_1.c **** *
1318:Generated_Source\PSoC4/TCPWM_1.c **** *******************************************************************************/
1319:Generated_Source\PSoC4/TCPWM_1.c **** void TCPWM_1_SetInterruptMode(uint32 interruptMask)
1320:Generated_Source\PSoC4/TCPWM_1.c **** {
 1820              		.loc 1 1320 0
 1821              		.cfi_startproc
 1822              		@ args = 0, pretend = 0, frame = 8
 1823              		@ frame_needed = 1, uses_anonymous_args = 0
 1824 0000 80B5     		push	{r7, lr}
 1825              		.cfi_def_cfa_offset 8
 1826              		.cfi_offset 7, -8
 1827              		.cfi_offset 14, -4
 1828 0002 82B0     		sub	sp, sp, #8
 1829              		.cfi_def_cfa_offset 16
 1830 0004 00AF     		add	r7, sp, #0
 1831              		.cfi_def_cfa_register 7
 1832 0006 7860     		str	r0, [r7, #4]
1321:Generated_Source\PSoC4/TCPWM_1.c ****     TCPWM_1_INTERRUPT_MASK_REG =  interruptMask;
 1833              		.loc 1 1321 0
 1834 0008 034B     		ldr	r3, .L116
 1835 000a 7A68     		ldr	r2, [r7, #4]
 1836 000c 1A60     		str	r2, [r3]
1322:Generated_Source\PSoC4/TCPWM_1.c **** }
 1837              		.loc 1 1322 0
 1838 000e C046     		nop
 1839 0010 BD46     		mov	sp, r7
 1840 0012 02B0     		add	sp, sp, #8
 1841              		@ sp needed
 1842 0014 80BD     		pop	{r7, pc}
 1843              	.L117:
 1844 0016 C046     		.align	2
 1845              	.L116:
 1846 0018 38012040 		.word	1075839288
 1847              		.cfi_endproc
 1848              	.LFE37:
 1849              		.size	TCPWM_1_SetInterruptMode, .-TCPWM_1_SetInterruptMode
 1850              		.section	.text.TCPWM_1_GetInterruptSourceMasked,"ax",%progbits
 1851              		.align	2
 1852              		.global	TCPWM_1_GetInterruptSourceMasked
 1853              		.code	16
 1854              		.thumb_func
 1855              		.type	TCPWM_1_GetInterruptSourceMasked, %function
 1856              	TCPWM_1_GetInterruptSourceMasked:
 1857              	.LFB38:
1323:Generated_Source\PSoC4/TCPWM_1.c **** 
1324:Generated_Source\PSoC4/TCPWM_1.c **** 
1325:Generated_Source\PSoC4/TCPWM_1.c **** /*******************************************************************************
1326:Generated_Source\PSoC4/TCPWM_1.c **** * Function Name: TCPWM_1_GetInterruptSourceMasked
1327:Generated_Source\PSoC4/TCPWM_1.c **** ********************************************************************************
1328:Generated_Source\PSoC4/TCPWM_1.c **** *
1329:Generated_Source\PSoC4/TCPWM_1.c **** * Summary:
1330:Generated_Source\PSoC4/TCPWM_1.c **** *  Gets the interrupt requests masked by the interrupt mask.
1331:Generated_Source\PSoC4/TCPWM_1.c **** *
1332:Generated_Source\PSoC4/TCPWM_1.c **** * Parameters:
1333:Generated_Source\PSoC4/TCPWM_1.c **** *   None
1334:Generated_Source\PSoC4/TCPWM_1.c **** *
ARM GAS  C:\Users\puria\AppData\Local\Temp\ccpsVPDq.s 			page 57


1335:Generated_Source\PSoC4/TCPWM_1.c **** * Return:
1336:Generated_Source\PSoC4/TCPWM_1.c **** *  Masked interrupt source
1337:Generated_Source\PSoC4/TCPWM_1.c **** *   Values:
1338:Generated_Source\PSoC4/TCPWM_1.c **** *     - TCPWM_1_INTR_MASK_TC       - Terminal count mask
1339:Generated_Source\PSoC4/TCPWM_1.c **** *     - TCPWM_1_INTR_MASK_CC_MATCH - Compare count / capture mask
1340:Generated_Source\PSoC4/TCPWM_1.c **** *
1341:Generated_Source\PSoC4/TCPWM_1.c **** *******************************************************************************/
1342:Generated_Source\PSoC4/TCPWM_1.c **** uint32 TCPWM_1_GetInterruptSourceMasked(void)
1343:Generated_Source\PSoC4/TCPWM_1.c **** {
 1858              		.loc 1 1343 0
 1859              		.cfi_startproc
 1860              		@ args = 0, pretend = 0, frame = 0
 1861              		@ frame_needed = 1, uses_anonymous_args = 0
 1862 0000 80B5     		push	{r7, lr}
 1863              		.cfi_def_cfa_offset 8
 1864              		.cfi_offset 7, -8
 1865              		.cfi_offset 14, -4
 1866 0002 00AF     		add	r7, sp, #0
 1867              		.cfi_def_cfa_register 7
1344:Generated_Source\PSoC4/TCPWM_1.c ****     return (TCPWM_1_INTERRUPT_MASKED_REG);
 1868              		.loc 1 1344 0
 1869 0004 024B     		ldr	r3, .L120
 1870 0006 1B68     		ldr	r3, [r3]
1345:Generated_Source\PSoC4/TCPWM_1.c **** }
 1871              		.loc 1 1345 0
 1872 0008 1800     		movs	r0, r3
 1873 000a BD46     		mov	sp, r7
 1874              		@ sp needed
 1875 000c 80BD     		pop	{r7, pc}
 1876              	.L121:
 1877 000e C046     		.align	2
 1878              	.L120:
 1879 0010 3C012040 		.word	1075839292
 1880              		.cfi_endproc
 1881              	.LFE38:
 1882              		.size	TCPWM_1_GetInterruptSourceMasked, .-TCPWM_1_GetInterruptSourceMasked
 1883              		.section	.text.TCPWM_1_GetInterruptSource,"ax",%progbits
 1884              		.align	2
 1885              		.global	TCPWM_1_GetInterruptSource
 1886              		.code	16
 1887              		.thumb_func
 1888              		.type	TCPWM_1_GetInterruptSource, %function
 1889              	TCPWM_1_GetInterruptSource:
 1890              	.LFB39:
1346:Generated_Source\PSoC4/TCPWM_1.c **** 
1347:Generated_Source\PSoC4/TCPWM_1.c **** 
1348:Generated_Source\PSoC4/TCPWM_1.c **** /*******************************************************************************
1349:Generated_Source\PSoC4/TCPWM_1.c **** * Function Name: TCPWM_1_GetInterruptSource
1350:Generated_Source\PSoC4/TCPWM_1.c **** ********************************************************************************
1351:Generated_Source\PSoC4/TCPWM_1.c **** *
1352:Generated_Source\PSoC4/TCPWM_1.c **** * Summary:
1353:Generated_Source\PSoC4/TCPWM_1.c **** *  Gets the interrupt requests (without masking).
1354:Generated_Source\PSoC4/TCPWM_1.c **** *
1355:Generated_Source\PSoC4/TCPWM_1.c **** * Parameters:
1356:Generated_Source\PSoC4/TCPWM_1.c **** *  None
1357:Generated_Source\PSoC4/TCPWM_1.c **** *
1358:Generated_Source\PSoC4/TCPWM_1.c **** * Return:
ARM GAS  C:\Users\puria\AppData\Local\Temp\ccpsVPDq.s 			page 58


1359:Generated_Source\PSoC4/TCPWM_1.c **** *  Interrupt request value
1360:Generated_Source\PSoC4/TCPWM_1.c **** *   Values:
1361:Generated_Source\PSoC4/TCPWM_1.c **** *     - TCPWM_1_INTR_MASK_TC       - Terminal count mask
1362:Generated_Source\PSoC4/TCPWM_1.c **** *     - TCPWM_1_INTR_MASK_CC_MATCH - Compare count / capture mask
1363:Generated_Source\PSoC4/TCPWM_1.c **** *
1364:Generated_Source\PSoC4/TCPWM_1.c **** *******************************************************************************/
1365:Generated_Source\PSoC4/TCPWM_1.c **** uint32 TCPWM_1_GetInterruptSource(void)
1366:Generated_Source\PSoC4/TCPWM_1.c **** {
 1891              		.loc 1 1366 0
 1892              		.cfi_startproc
 1893              		@ args = 0, pretend = 0, frame = 0
 1894              		@ frame_needed = 1, uses_anonymous_args = 0
 1895 0000 80B5     		push	{r7, lr}
 1896              		.cfi_def_cfa_offset 8
 1897              		.cfi_offset 7, -8
 1898              		.cfi_offset 14, -4
 1899 0002 00AF     		add	r7, sp, #0
 1900              		.cfi_def_cfa_register 7
1367:Generated_Source\PSoC4/TCPWM_1.c ****     return (TCPWM_1_INTERRUPT_REQ_REG);
 1901              		.loc 1 1367 0
 1902 0004 024B     		ldr	r3, .L124
 1903 0006 1B68     		ldr	r3, [r3]
1368:Generated_Source\PSoC4/TCPWM_1.c **** }
 1904              		.loc 1 1368 0
 1905 0008 1800     		movs	r0, r3
 1906 000a BD46     		mov	sp, r7
 1907              		@ sp needed
 1908 000c 80BD     		pop	{r7, pc}
 1909              	.L125:
 1910 000e C046     		.align	2
 1911              	.L124:
 1912 0010 30012040 		.word	1075839280
 1913              		.cfi_endproc
 1914              	.LFE39:
 1915              		.size	TCPWM_1_GetInterruptSource, .-TCPWM_1_GetInterruptSource
 1916              		.section	.text.TCPWM_1_ClearInterrupt,"ax",%progbits
 1917              		.align	2
 1918              		.global	TCPWM_1_ClearInterrupt
 1919              		.code	16
 1920              		.thumb_func
 1921              		.type	TCPWM_1_ClearInterrupt, %function
 1922              	TCPWM_1_ClearInterrupt:
 1923              	.LFB40:
1369:Generated_Source\PSoC4/TCPWM_1.c **** 
1370:Generated_Source\PSoC4/TCPWM_1.c **** 
1371:Generated_Source\PSoC4/TCPWM_1.c **** /*******************************************************************************
1372:Generated_Source\PSoC4/TCPWM_1.c **** * Function Name: TCPWM_1_ClearInterrupt
1373:Generated_Source\PSoC4/TCPWM_1.c **** ********************************************************************************
1374:Generated_Source\PSoC4/TCPWM_1.c **** *
1375:Generated_Source\PSoC4/TCPWM_1.c **** * Summary:
1376:Generated_Source\PSoC4/TCPWM_1.c **** *  Clears the interrupt request.
1377:Generated_Source\PSoC4/TCPWM_1.c **** *
1378:Generated_Source\PSoC4/TCPWM_1.c **** * Parameters:
1379:Generated_Source\PSoC4/TCPWM_1.c **** *   interruptMask: Mask of interrupts to clear
1380:Generated_Source\PSoC4/TCPWM_1.c **** *   Values:
1381:Generated_Source\PSoC4/TCPWM_1.c **** *     - TCPWM_1_INTR_MASK_TC       - Terminal count mask
1382:Generated_Source\PSoC4/TCPWM_1.c **** *     - TCPWM_1_INTR_MASK_CC_MATCH - Compare count / capture mask
ARM GAS  C:\Users\puria\AppData\Local\Temp\ccpsVPDq.s 			page 59


1383:Generated_Source\PSoC4/TCPWM_1.c **** *
1384:Generated_Source\PSoC4/TCPWM_1.c **** * Return:
1385:Generated_Source\PSoC4/TCPWM_1.c **** *  None
1386:Generated_Source\PSoC4/TCPWM_1.c **** *
1387:Generated_Source\PSoC4/TCPWM_1.c **** *******************************************************************************/
1388:Generated_Source\PSoC4/TCPWM_1.c **** void TCPWM_1_ClearInterrupt(uint32 interruptMask)
1389:Generated_Source\PSoC4/TCPWM_1.c **** {
 1924              		.loc 1 1389 0
 1925              		.cfi_startproc
 1926              		@ args = 0, pretend = 0, frame = 8
 1927              		@ frame_needed = 1, uses_anonymous_args = 0
 1928 0000 80B5     		push	{r7, lr}
 1929              		.cfi_def_cfa_offset 8
 1930              		.cfi_offset 7, -8
 1931              		.cfi_offset 14, -4
 1932 0002 82B0     		sub	sp, sp, #8
 1933              		.cfi_def_cfa_offset 16
 1934 0004 00AF     		add	r7, sp, #0
 1935              		.cfi_def_cfa_register 7
 1936 0006 7860     		str	r0, [r7, #4]
1390:Generated_Source\PSoC4/TCPWM_1.c ****     TCPWM_1_INTERRUPT_REQ_REG = interruptMask;
 1937              		.loc 1 1390 0
 1938 0008 034B     		ldr	r3, .L127
 1939 000a 7A68     		ldr	r2, [r7, #4]
 1940 000c 1A60     		str	r2, [r3]
1391:Generated_Source\PSoC4/TCPWM_1.c **** }
 1941              		.loc 1 1391 0
 1942 000e C046     		nop
 1943 0010 BD46     		mov	sp, r7
 1944 0012 02B0     		add	sp, sp, #8
 1945              		@ sp needed
 1946 0014 80BD     		pop	{r7, pc}
 1947              	.L128:
 1948 0016 C046     		.align	2
 1949              	.L127:
 1950 0018 30012040 		.word	1075839280
 1951              		.cfi_endproc
 1952              	.LFE40:
 1953              		.size	TCPWM_1_ClearInterrupt, .-TCPWM_1_ClearInterrupt
 1954              		.section	.text.TCPWM_1_SetInterrupt,"ax",%progbits
 1955              		.align	2
 1956              		.global	TCPWM_1_SetInterrupt
 1957              		.code	16
 1958              		.thumb_func
 1959              		.type	TCPWM_1_SetInterrupt, %function
 1960              	TCPWM_1_SetInterrupt:
 1961              	.LFB41:
1392:Generated_Source\PSoC4/TCPWM_1.c **** 
1393:Generated_Source\PSoC4/TCPWM_1.c **** 
1394:Generated_Source\PSoC4/TCPWM_1.c **** /*******************************************************************************
1395:Generated_Source\PSoC4/TCPWM_1.c **** * Function Name: TCPWM_1_SetInterrupt
1396:Generated_Source\PSoC4/TCPWM_1.c **** ********************************************************************************
1397:Generated_Source\PSoC4/TCPWM_1.c **** *
1398:Generated_Source\PSoC4/TCPWM_1.c **** * Summary:
1399:Generated_Source\PSoC4/TCPWM_1.c **** *  Sets a software interrupt request.
1400:Generated_Source\PSoC4/TCPWM_1.c **** *
1401:Generated_Source\PSoC4/TCPWM_1.c **** * Parameters:
ARM GAS  C:\Users\puria\AppData\Local\Temp\ccpsVPDq.s 			page 60


1402:Generated_Source\PSoC4/TCPWM_1.c **** *   interruptMask: Mask of interrupts to set
1403:Generated_Source\PSoC4/TCPWM_1.c **** *   Values:
1404:Generated_Source\PSoC4/TCPWM_1.c **** *     - TCPWM_1_INTR_MASK_TC       - Terminal count mask
1405:Generated_Source\PSoC4/TCPWM_1.c **** *     - TCPWM_1_INTR_MASK_CC_MATCH - Compare count / capture mask
1406:Generated_Source\PSoC4/TCPWM_1.c **** *
1407:Generated_Source\PSoC4/TCPWM_1.c **** * Return:
1408:Generated_Source\PSoC4/TCPWM_1.c **** *  None
1409:Generated_Source\PSoC4/TCPWM_1.c **** *
1410:Generated_Source\PSoC4/TCPWM_1.c **** *******************************************************************************/
1411:Generated_Source\PSoC4/TCPWM_1.c **** void TCPWM_1_SetInterrupt(uint32 interruptMask)
1412:Generated_Source\PSoC4/TCPWM_1.c **** {
 1962              		.loc 1 1412 0
 1963              		.cfi_startproc
 1964              		@ args = 0, pretend = 0, frame = 8
 1965              		@ frame_needed = 1, uses_anonymous_args = 0
 1966 0000 80B5     		push	{r7, lr}
 1967              		.cfi_def_cfa_offset 8
 1968              		.cfi_offset 7, -8
 1969              		.cfi_offset 14, -4
 1970 0002 82B0     		sub	sp, sp, #8
 1971              		.cfi_def_cfa_offset 16
 1972 0004 00AF     		add	r7, sp, #0
 1973              		.cfi_def_cfa_register 7
 1974 0006 7860     		str	r0, [r7, #4]
1413:Generated_Source\PSoC4/TCPWM_1.c ****     TCPWM_1_INTERRUPT_SET_REG = interruptMask;
 1975              		.loc 1 1413 0
 1976 0008 034B     		ldr	r3, .L130
 1977 000a 7A68     		ldr	r2, [r7, #4]
 1978 000c 1A60     		str	r2, [r3]
1414:Generated_Source\PSoC4/TCPWM_1.c **** }
 1979              		.loc 1 1414 0
 1980 000e C046     		nop
 1981 0010 BD46     		mov	sp, r7
 1982 0012 02B0     		add	sp, sp, #8
 1983              		@ sp needed
 1984 0014 80BD     		pop	{r7, pc}
 1985              	.L131:
 1986 0016 C046     		.align	2
 1987              	.L130:
 1988 0018 34012040 		.word	1075839284
 1989              		.cfi_endproc
 1990              	.LFE41:
 1991              		.size	TCPWM_1_SetInterrupt, .-TCPWM_1_SetInterrupt
 1992              		.text
 1993              	.Letext0:
 1994              		.file 2 "Generated_Source\\PSoC4\\cytypes.h"