ARM GAS  C:\Users\puria\AppData\Local\Temp\cce1WE2c.s 			page 1


   1              		.syntax unified
   2              		.cpu cortex-m0
   3              		.fpu softvfp
   4              		.eabi_attribute 20, 1
   5              		.eabi_attribute 21, 1
   6              		.eabi_attribute 23, 3
   7              		.eabi_attribute 24, 1
   8              		.eabi_attribute 25, 1
   9              		.eabi_attribute 26, 1
  10              		.eabi_attribute 30, 6
  11              		.eabi_attribute 34, 0
  12              		.eabi_attribute 18, 4
  13              		.thumb
  14              		.syntax unified
  15              		.file	"UARTControl.c"
  16              		.text
  17              	.Ltext0:
  18              		.cfi_sections	.debug_frame
  19              		.section	.text.LEDRainbow,"ax",%progbits
  20              		.align	2
  21              		.global	LEDRainbow
  22              		.code	16
  23              		.thumb_func
  24              		.type	LEDRainbow, %function
  25              	LEDRainbow:
  26              	.LFB35:
  27              		.file 1 "UARTControl.c"
   1:UARTControl.c **** /* ========================================
   2:UARTControl.c ****  *
   3:UARTControl.c ****  * Copyright YOUR COMPANY, THE YEAR
   4:UARTControl.c ****  * All Rights Reserved
   5:UARTControl.c ****  * UNPUBLISHED, LICENSED SOFTWARE.
   6:UARTControl.c ****  *
   7:UARTControl.c ****  * CONFIDENTIAL AND PROPRIETARY INFORMATION
   8:UARTControl.c ****  * WHICH IS THE PROPERTY OF your company.
   9:UARTControl.c ****  *
  10:UARTControl.c ****  * ========================================
  11:UARTControl.c **** */
  12:UARTControl.c **** #include "UARTControl.h"
  13:UARTControl.c **** 
  14:UARTControl.c **** void LEDRainbow(){
  28              		.loc 1 14 0
  29              		.cfi_startproc
  30              		@ args = 0, pretend = 0, frame = 0
  31              		@ frame_needed = 1, uses_anonymous_args = 0
  32 0000 80B5     		push	{r7, lr}
  33              		.cfi_def_cfa_offset 8
  34              		.cfi_offset 7, -8
  35              		.cfi_offset 14, -4
  36 0002 00AF     		add	r7, sp, #0
  37              		.cfi_def_cfa_register 7
  15:UARTControl.c ****     UART_UartPutChar(0u);
  38              		.loc 1 15 0
  39 0004 0020     		movs	r0, #0
  40 0006 FFF7FEFF 		bl	UART_SpiUartWriteTxData
  16:UARTControl.c ****     LED_ON();
  41              		.loc 1 16 0
ARM GAS  C:\Users\puria\AppData\Local\Temp\cce1WE2c.s 			page 2


  42 000a FFF7FEFF 		bl	LED_ON
  17:UARTControl.c ****     delay();
  43              		.loc 1 17 0
  44 000e FFF7FEFF 		bl	delay
  18:UARTControl.c ****     UART_UartPutChar(1u);
  45              		.loc 1 18 0
  46 0012 0120     		movs	r0, #1
  47 0014 FFF7FEFF 		bl	UART_SpiUartWriteTxData
  19:UARTControl.c ****     LED_OFF();
  48              		.loc 1 19 0
  49 0018 FFF7FEFF 		bl	LED_OFF
  20:UARTControl.c ****     delay();
  50              		.loc 1 20 0
  51 001c FFF7FEFF 		bl	delay
  21:UARTControl.c ****     UART_UartPutChar(2u);
  52              		.loc 1 21 0
  53 0020 0220     		movs	r0, #2
  54 0022 FFF7FEFF 		bl	UART_SpiUartWriteTxData
  22:UARTControl.c ****     LED_OFF();
  55              		.loc 1 22 0
  56 0026 FFF7FEFF 		bl	LED_OFF
  23:UARTControl.c ****     delay();
  57              		.loc 1 23 0
  58 002a FFF7FEFF 		bl	delay
  24:UARTControl.c ****     UART_UartPutChar(3u);
  59              		.loc 1 24 0
  60 002e 0320     		movs	r0, #3
  61 0030 FFF7FEFF 		bl	UART_SpiUartWriteTxData
  25:UARTControl.c ****     LED_OFF();
  62              		.loc 1 25 0
  63 0034 FFF7FEFF 		bl	LED_OFF
  26:UARTControl.c ****     delay();
  64              		.loc 1 26 0
  65 0038 FFF7FEFF 		bl	delay
  27:UARTControl.c **** }
  66              		.loc 1 27 0
  67 003c C046     		nop
  68 003e BD46     		mov	sp, r7
  69              		@ sp needed
  70 0040 80BD     		pop	{r7, pc}
  71              		.cfi_endproc
  72              	.LFE35:
  73              		.size	LEDRainbow, .-LEDRainbow
  74 0042 C046     		.section	.text.testListen,"ax",%progbits
  75              		.align	2
  76              		.global	testListen
  77              		.code	16
  78              		.thumb_func
  79              		.type	testListen, %function
  80              	testListen:
  81              	.LFB36:
  28:UARTControl.c **** 
  29:UARTControl.c **** void testListen(){
  82              		.loc 1 29 0
  83              		.cfi_startproc
  84              		@ args = 0, pretend = 0, frame = 8
  85              		@ frame_needed = 1, uses_anonymous_args = 0
ARM GAS  C:\Users\puria\AppData\Local\Temp\cce1WE2c.s 			page 3


  86 0000 80B5     		push	{r7, lr}
  87              		.cfi_def_cfa_offset 8
  88              		.cfi_offset 7, -8
  89              		.cfi_offset 14, -4
  90 0002 82B0     		sub	sp, sp, #8
  91              		.cfi_def_cfa_offset 16
  92 0004 00AF     		add	r7, sp, #0
  93              		.cfi_def_cfa_register 7
  30:UARTControl.c ****     uint8_t data = UART_UartGetChar();
  94              		.loc 1 30 0
  95 0006 FFF7FEFF 		bl	UART_UartGetChar
  96 000a 0200     		movs	r2, r0
  97 000c FB1D     		adds	r3, r7, #7
  98 000e 1A70     		strb	r2, [r3]
  31:UARTControl.c ****     while(data != 'a'){
  99              		.loc 1 31 0
 100 0010 04E0     		b	.L3
 101              	.L4:
  32:UARTControl.c ****         data = UART_UartGetChar();
 102              		.loc 1 32 0
 103 0012 FFF7FEFF 		bl	UART_UartGetChar
 104 0016 0200     		movs	r2, r0
 105 0018 FB1D     		adds	r3, r7, #7
 106 001a 1A70     		strb	r2, [r3]
 107              	.L3:
  31:UARTControl.c ****     while(data != 'a'){
 108              		.loc 1 31 0
 109 001c FB1D     		adds	r3, r7, #7
 110 001e 1B78     		ldrb	r3, [r3]
 111 0020 612B     		cmp	r3, #97
 112 0022 F6D1     		bne	.L4
  33:UARTControl.c ****     }
  34:UARTControl.c ****     flashLED();
 113              		.loc 1 34 0
 114 0024 FFF7FEFF 		bl	flashLED
  35:UARTControl.c ****     
  36:UARTControl.c **** }
 115              		.loc 1 36 0
 116 0028 C046     		nop
 117 002a BD46     		mov	sp, r7
 118 002c 02B0     		add	sp, sp, #8
 119              		@ sp needed
 120 002e 80BD     		pop	{r7, pc}
 121              		.cfi_endproc
 122              	.LFE36:
 123              		.size	testListen, .-testListen
 124              		.text
 125              	.Letext0:
 126              		.file 2 "c:\\program files (x86)\\cypress\\psoc creator\\4.1\\psoc creator\\import\\gnu\\arm\\5.4.
 127              		.file 3 "c:\\program files (x86)\\cypress\\psoc creator\\4.1\\psoc creator\\import\\gnu\\arm\\5.4.
 128              		.file 4 "Generated_Source\\PSoC4/cytypes.h"