ARM GAS  C:\Users\puria\AppData\Local\Temp\ccYRkNAS.s 			page 1


   1              		.syntax unified
   2              		.cpu cortex-m0
   3              		.fpu softvfp
   4              		.eabi_attribute 20, 1
   5              		.eabi_attribute 21, 1
   6              		.eabi_attribute 23, 3
   7              		.eabi_attribute 24, 1
   8              		.eabi_attribute 25, 1
   9              		.eabi_attribute 26, 1
  10              		.eabi_attribute 30, 1
  11              		.eabi_attribute 34, 0
  12              		.eabi_attribute 18, 4
  13              		.thumb
  14              		.syntax unified
  15              		.file	"capsense.c"
  16              		.text
  17              	.Ltext0:
  18              		.cfi_sections	.debug_frame
  19              		.section	.text.capsense_CsdHwBlockInit,"ax",%progbits
  20              		.align	2
  21              		.global	capsense_CsdHwBlockInit
  22              		.code	16
  23              		.thumb_func
  24              		.type	capsense_CsdHwBlockInit, %function
  25              	capsense_CsdHwBlockInit:
  26              	.LFB35:
  27              		.file 1 "Generated_Source\\PSoC4\\capsense.c"
   1:Generated_Source\PSoC4/capsense.c **** /*******************************************************************************
   2:Generated_Source\PSoC4/capsense.c **** * File Name: capsense.c
   3:Generated_Source\PSoC4/capsense.c **** * Version 2.60
   4:Generated_Source\PSoC4/capsense.c **** *
   5:Generated_Source\PSoC4/capsense.c **** * Description:
   6:Generated_Source\PSoC4/capsense.c **** *  This file provides the source code for scanning APIs for the CapSense CSD
   7:Generated_Source\PSoC4/capsense.c **** *  component.
   8:Generated_Source\PSoC4/capsense.c **** *
   9:Generated_Source\PSoC4/capsense.c **** * Note:
  10:Generated_Source\PSoC4/capsense.c **** *
  11:Generated_Source\PSoC4/capsense.c **** ********************************************************************************
  12:Generated_Source\PSoC4/capsense.c **** * Copyright 2013-2016, Cypress Semiconductor Corporation.  All rights reserved.
  13:Generated_Source\PSoC4/capsense.c **** * You may use this file only in accordance with the license, terms, conditions,
  14:Generated_Source\PSoC4/capsense.c **** * disclaimers, and limitations in the end user license agreement accompanying
  15:Generated_Source\PSoC4/capsense.c **** * the software package with which this file was provided.
  16:Generated_Source\PSoC4/capsense.c **** *******************************************************************************/
  17:Generated_Source\PSoC4/capsense.c **** 
  18:Generated_Source\PSoC4/capsense.c **** #include "capsense.h"
  19:Generated_Source\PSoC4/capsense.c **** #include "capsense_PVT.h"
  20:Generated_Source\PSoC4/capsense.c **** #include "cypins.h"
  21:Generated_Source\PSoC4/capsense.c **** 
  22:Generated_Source\PSoC4/capsense.c **** 
  23:Generated_Source\PSoC4/capsense.c **** #if(0u != capsense_CSHL_API_GENERATE)
  24:Generated_Source\PSoC4/capsense.c ****     #include "capsense_CSHL.h"
  25:Generated_Source\PSoC4/capsense.c **** #endif /* (0u != capsense_CSHL_API_GENERATE) */
  26:Generated_Source\PSoC4/capsense.c **** 
  27:Generated_Source\PSoC4/capsense.c **** /* This definition is intended to prevent unexpected linker error.
  28:Generated_Source\PSoC4/capsense.c ****    For more details please see the IAR Technical Note 49981 */
  29:Generated_Source\PSoC4/capsense.c **** #if defined(__ICCARM__)
  30:Generated_Source\PSoC4/capsense.c ****     extern void capsense_EnableSensor(uint32 sensor);
ARM GAS  C:\Users\puria\AppData\Local\Temp\ccYRkNAS.s 			page 2


  31:Generated_Source\PSoC4/capsense.c ****     extern void capsense_DisableSensor(uint32 sensor);
  32:Generated_Source\PSoC4/capsense.c **** #endif /* (__ICCARM__) */
  33:Generated_Source\PSoC4/capsense.c **** 
  34:Generated_Source\PSoC4/capsense.c **** /* SmartSense functions */
  35:Generated_Source\PSoC4/capsense.c **** #if (capsense_TUNING_METHOD == capsense__TUNING_AUTO)
  36:Generated_Source\PSoC4/capsense.c ****     uint8 capsense_lowLevelTuningDone = 0u;
  37:Generated_Source\PSoC4/capsense.c ****     uint8 capsense_scanSpeedTbl[((capsense_TOTAL_SENSOR_COUNT - 1u) / 8u) + 1u];
  38:Generated_Source\PSoC4/capsense.c **** #endif /* (capsense_TUNING_METHOD == capsense__TUNING_AUTO) */
  39:Generated_Source\PSoC4/capsense.c **** 
  40:Generated_Source\PSoC4/capsense.c **** #if(capsense_PRS_OPTIONS != capsense__PRS_NONE)
  41:Generated_Source\PSoC4/capsense.c ****     uint8 capsense_prescalersTuningDone = 0u;
  42:Generated_Source\PSoC4/capsense.c **** #endif /* (capsense_PRS_OPTIONS == capsense__PRS_NONE) */
  43:Generated_Source\PSoC4/capsense.c **** 
  44:Generated_Source\PSoC4/capsense.c **** /* Global software variables */
  45:Generated_Source\PSoC4/capsense.c **** volatile uint8 capsense_csdStatusVar = 0u;   /* CapSense CSD status, variable */
  46:Generated_Source\PSoC4/capsense.c **** volatile uint8 capsense_sensorIndex = 0u;    /* Index of scannig sensor */
  47:Generated_Source\PSoC4/capsense.c **** 
  48:Generated_Source\PSoC4/capsense.c **** /* Global array of Raw Counts */
  49:Generated_Source\PSoC4/capsense.c **** uint16 capsense_sensorRaw[capsense_TOTAL_SENSOR_COUNT] = {0u};
  50:Generated_Source\PSoC4/capsense.c **** 
  51:Generated_Source\PSoC4/capsense.c **** /* Backup variables for trim registers*/
  52:Generated_Source\PSoC4/capsense.c **** #if (capsense_IDAC1_POLARITY == capsense__IDAC_SINK)
  53:Generated_Source\PSoC4/capsense.c ****     uint8 capsense_csdTrim2;
  54:Generated_Source\PSoC4/capsense.c **** #else
  55:Generated_Source\PSoC4/capsense.c ****     uint8 capsense_csdTrim1;
  56:Generated_Source\PSoC4/capsense.c **** #endif /* (capsense_IDAC1_POLARITY == capsense__IDAC_SINK) */
  57:Generated_Source\PSoC4/capsense.c **** 
  58:Generated_Source\PSoC4/capsense.c **** /* Global array of un-scanned sensors state */
  59:Generated_Source\PSoC4/capsense.c **** uint8 capsense_unscannedSnsDriveMode[capsense_PORT_PIN_CONFIG_TBL_ZISE];
  60:Generated_Source\PSoC4/capsense.c **** 
  61:Generated_Source\PSoC4/capsense.c **** /* Backup array for capsense_sensorEnableMask */
  62:Generated_Source\PSoC4/capsense.c **** uint8 capsense_sensorEnableMaskBackup[(((capsense_TOTAL_SENSOR_COUNT - 1u) / 8u) + 1u)];
  63:Generated_Source\PSoC4/capsense.c **** 
  64:Generated_Source\PSoC4/capsense.c **** /* Configured constants and arrays by Customizer */
  65:Generated_Source\PSoC4/capsense.c **** uint8 capsense_sensorEnableMask[(((capsense_TOTAL_SENSOR_COUNT - 1u) / 8u) + 1u)] = {
  66:Generated_Source\PSoC4/capsense.c **** 0x1Fu, };
  67:Generated_Source\PSoC4/capsense.c **** 
  68:Generated_Source\PSoC4/capsense.c **** reg32 * capsense_pcTable[] = {
  69:Generated_Source\PSoC4/capsense.c ****     (reg32 *)capsense_Sns__LinearSlider0_e0__LS__PC, 
  70:Generated_Source\PSoC4/capsense.c ****     (reg32 *)capsense_Sns__LinearSlider0_e1__LS__PC, 
  71:Generated_Source\PSoC4/capsense.c ****     (reg32 *)capsense_Sns__LinearSlider0_e2__LS__PC, 
  72:Generated_Source\PSoC4/capsense.c ****     (reg32 *)capsense_Sns__LinearSlider0_e3__LS__PC, 
  73:Generated_Source\PSoC4/capsense.c ****     (reg32 *)capsense_Sns__LinearSlider0_e4__LS__PC, 
  74:Generated_Source\PSoC4/capsense.c **** };
  75:Generated_Source\PSoC4/capsense.c **** 
  76:Generated_Source\PSoC4/capsense.c **** const uint8 capsense_portTable[] = {
  77:Generated_Source\PSoC4/capsense.c ****     capsense_Sns__LinearSlider0_e0__LS__PORT, 
  78:Generated_Source\PSoC4/capsense.c ****     capsense_Sns__LinearSlider0_e1__LS__PORT, 
  79:Generated_Source\PSoC4/capsense.c ****     capsense_Sns__LinearSlider0_e2__LS__PORT, 
  80:Generated_Source\PSoC4/capsense.c ****     capsense_Sns__LinearSlider0_e3__LS__PORT, 
  81:Generated_Source\PSoC4/capsense.c ****     capsense_Sns__LinearSlider0_e4__LS__PORT, 
  82:Generated_Source\PSoC4/capsense.c **** };
  83:Generated_Source\PSoC4/capsense.c **** 
  84:Generated_Source\PSoC4/capsense.c **** const uint32 capsense_maskTable[] = {
  85:Generated_Source\PSoC4/capsense.c ****     capsense_Sns__LinearSlider0_e0__LS__MASK, 
  86:Generated_Source\PSoC4/capsense.c ****     capsense_Sns__LinearSlider0_e1__LS__MASK, 
  87:Generated_Source\PSoC4/capsense.c ****     capsense_Sns__LinearSlider0_e2__LS__MASK, 
ARM GAS  C:\Users\puria\AppData\Local\Temp\ccYRkNAS.s 			page 3


  88:Generated_Source\PSoC4/capsense.c ****     capsense_Sns__LinearSlider0_e3__LS__MASK, 
  89:Generated_Source\PSoC4/capsense.c ****     capsense_Sns__LinearSlider0_e4__LS__MASK, 
  90:Generated_Source\PSoC4/capsense.c **** };
  91:Generated_Source\PSoC4/capsense.c **** 
  92:Generated_Source\PSoC4/capsense.c **** const uint8 capsense_pinShiftTbl[] = {
  93:Generated_Source\PSoC4/capsense.c ****     (uint8) capsense_Sns__LinearSlider0_e0__LS__SHIFT, 
  94:Generated_Source\PSoC4/capsense.c ****     (uint8) capsense_Sns__LinearSlider0_e1__LS__SHIFT, 
  95:Generated_Source\PSoC4/capsense.c ****     (uint8) capsense_Sns__LinearSlider0_e2__LS__SHIFT, 
  96:Generated_Source\PSoC4/capsense.c ****     (uint8) capsense_Sns__LinearSlider0_e3__LS__SHIFT, 
  97:Generated_Source\PSoC4/capsense.c ****     (uint8) capsense_Sns__LinearSlider0_e4__LS__SHIFT, 
  98:Generated_Source\PSoC4/capsense.c **** };
  99:Generated_Source\PSoC4/capsense.c **** 
 100:Generated_Source\PSoC4/capsense.c **** uint8 capsense_modulationIDAC[capsense_TOTAL_SENSOR_COUNT];
 101:Generated_Source\PSoC4/capsense.c **** uint8 capsense_compensationIDAC[capsense_TOTAL_SENSOR_COUNT];
 102:Generated_Source\PSoC4/capsense.c **** 
 103:Generated_Source\PSoC4/capsense.c **** uint32 capsense_widgetResolution[capsense_RESOLUTIONS_TBL_SIZE] = {
 104:Generated_Source\PSoC4/capsense.c ****     capsense_RESOLUTION_12_BITS,
 105:Generated_Source\PSoC4/capsense.c **** };
 106:Generated_Source\PSoC4/capsense.c **** 
 107:Generated_Source\PSoC4/capsense.c **** uint8 capsense_senseClkDividerVal[capsense_TOTAL_SCANSLOT_COUNT];
 108:Generated_Source\PSoC4/capsense.c **** uint8 capsense_sampleClkDividerVal[capsense_TOTAL_SCANSLOT_COUNT];
 109:Generated_Source\PSoC4/capsense.c **** 
 110:Generated_Source\PSoC4/capsense.c **** const uint8 capsense_widgetNumber[capsense_TOTAL_SENSOR_COUNT] = {
 111:Generated_Source\PSoC4/capsense.c ****     0u, 0u, 0u, 0u, 0u, /* LinearSlider0__LS */
 112:Generated_Source\PSoC4/capsense.c **** };
 113:Generated_Source\PSoC4/capsense.c **** 
 114:Generated_Source\PSoC4/capsense.c **** reg32* const capsense_prtSelTbl[capsense_CFG_REG_TBL_SIZE] = {
 115:Generated_Source\PSoC4/capsense.c ****     ((reg32 *) CYREG_HSIOM_PORT_SEL0),
 116:Generated_Source\PSoC4/capsense.c ****     ((reg32 *) CYREG_HSIOM_PORT_SEL1),
 117:Generated_Source\PSoC4/capsense.c ****     ((reg32 *) CYREG_HSIOM_PORT_SEL2),
 118:Generated_Source\PSoC4/capsense.c ****     ((reg32 *) CYREG_HSIOM_PORT_SEL3),
 119:Generated_Source\PSoC4/capsense.c ****     ((reg32 *) CYREG_HSIOM_PORT_SEL4),
 120:Generated_Source\PSoC4/capsense.c ****     ((reg32 *) CYREG_HSIOM_PORT_SEL5),
 121:Generated_Source\PSoC4/capsense.c ****     ((reg32 *) CYREG_HSIOM_PORT_SEL6),
 122:Generated_Source\PSoC4/capsense.c **** };
 123:Generated_Source\PSoC4/capsense.c **** 
 124:Generated_Source\PSoC4/capsense.c **** reg32* const capsense_prtCfgTbl[capsense_CFG_REG_TBL_SIZE] = {
 125:Generated_Source\PSoC4/capsense.c ****     ((reg32 *) CYREG_GPIO_PRT0_PC),
 126:Generated_Source\PSoC4/capsense.c ****     ((reg32 *) CYREG_GPIO_PRT1_PC),
 127:Generated_Source\PSoC4/capsense.c ****     ((reg32 *) CYREG_GPIO_PRT2_PC),
 128:Generated_Source\PSoC4/capsense.c ****     ((reg32 *) CYREG_GPIO_PRT3_PC),
 129:Generated_Source\PSoC4/capsense.c ****     ((reg32 *) CYREG_GPIO_PRT4_PC),
 130:Generated_Source\PSoC4/capsense.c ****     ((reg32 *) CYREG_GPIO_PRT5_PC),
 131:Generated_Source\PSoC4/capsense.c ****     ((reg32 *) CYREG_GPIO_PRT6_PC),
 132:Generated_Source\PSoC4/capsense.c **** };
 133:Generated_Source\PSoC4/capsense.c **** 
 134:Generated_Source\PSoC4/capsense.c **** reg32* const capsense_prtDRTbl[capsense_CFG_REG_TBL_SIZE] = {
 135:Generated_Source\PSoC4/capsense.c ****     ((reg32 *) CYREG_GPIO_PRT0_DR),
 136:Generated_Source\PSoC4/capsense.c ****     ((reg32 *) CYREG_GPIO_PRT1_DR),
 137:Generated_Source\PSoC4/capsense.c ****     ((reg32 *) CYREG_GPIO_PRT2_DR),
 138:Generated_Source\PSoC4/capsense.c ****     ((reg32 *) CYREG_GPIO_PRT3_DR),
 139:Generated_Source\PSoC4/capsense.c ****     ((reg32 *) CYREG_GPIO_PRT4_DR),
 140:Generated_Source\PSoC4/capsense.c ****     ((reg32 *) CYREG_GPIO_PRT5_DR),
 141:Generated_Source\PSoC4/capsense.c ****     ((reg32 *) CYREG_GPIO_PRT6_DR),
 142:Generated_Source\PSoC4/capsense.c **** };
 143:Generated_Source\PSoC4/capsense.c **** 
 144:Generated_Source\PSoC4/capsense.c **** 
ARM GAS  C:\Users\puria\AppData\Local\Temp\ccYRkNAS.s 			page 4


 145:Generated_Source\PSoC4/capsense.c **** 
 146:Generated_Source\PSoC4/capsense.c **** /*******************************************************************************
 147:Generated_Source\PSoC4/capsense.c **** * Function Name: capsense_Init
 148:Generated_Source\PSoC4/capsense.c **** ********************************************************************************
 149:Generated_Source\PSoC4/capsense.c **** *
 150:Generated_Source\PSoC4/capsense.c **** * Summary:
 151:Generated_Source\PSoC4/capsense.c **** *  API initializes default CapSense configuration provided by the customizer that defines
 152:Generated_Source\PSoC4/capsense.c **** *  the mode of component operations and resets all the sensors to an inactive state.
 153:Generated_Source\PSoC4/capsense.c **** *
 154:Generated_Source\PSoC4/capsense.c **** * Parameters:
 155:Generated_Source\PSoC4/capsense.c **** *  None
 156:Generated_Source\PSoC4/capsense.c **** *
 157:Generated_Source\PSoC4/capsense.c **** * Return:
 158:Generated_Source\PSoC4/capsense.c **** *  None
 159:Generated_Source\PSoC4/capsense.c **** *
 160:Generated_Source\PSoC4/capsense.c **** * Global Variables:
 161:Generated_Source\PSoC4/capsense.c **** *  capsense_immunityIndex - defines immunity level.
 162:Generated_Source\PSoC4/capsense.c **** *
 163:Generated_Source\PSoC4/capsense.c **** * Side Effects:
 164:Generated_Source\PSoC4/capsense.c **** *  None
 165:Generated_Source\PSoC4/capsense.c **** *
 166:Generated_Source\PSoC4/capsense.c **** *******************************************************************************/
 167:Generated_Source\PSoC4/capsense.c **** void capsense_Init(void)
 168:Generated_Source\PSoC4/capsense.c **** {
 169:Generated_Source\PSoC4/capsense.c ****     uint32 curSensor;
 170:Generated_Source\PSoC4/capsense.c **** 
 171:Generated_Source\PSoC4/capsense.c ****     #if(capsense_IS_SHIELD_ENABLE)
 172:Generated_Source\PSoC4/capsense.c **** 
 173:Generated_Source\PSoC4/capsense.c ****         #if((capsense_CSH_TANK_PREGARGE_OPTION == capsense__CAPPRIOBUF) || (0u != capsense_CSH_TANK
 174:Generated_Source\PSoC4/capsense.c ****             uint32 newRegValue;
 175:Generated_Source\PSoC4/capsense.c **** 
 176:Generated_Source\PSoC4/capsense.c ****             newRegValue = capsense_CTANK_CONNECTION_REG;
 177:Generated_Source\PSoC4/capsense.c ****             newRegValue &= ~(capsense_CSD_CTANK_CONNECTION_MASK);
 178:Generated_Source\PSoC4/capsense.c ****             newRegValue |= capsense_CSD_CTANK_TO_AMUXBUS_B;
 179:Generated_Source\PSoC4/capsense.c ****             capsense_CTANK_CONNECTION_REG = newRegValue;
 180:Generated_Source\PSoC4/capsense.c **** 
 181:Generated_Source\PSoC4/capsense.c ****             #if(capsense_CSH_TANK_PREGARGE_OPTION == capsense__CAPPRIOBUF)
 182:Generated_Source\PSoC4/capsense.c ****                 newRegValue = capsense_CTANK_PORT_PC_REG;
 183:Generated_Source\PSoC4/capsense.c ****                 newRegValue &= ~(capsense_CSD_CTANK_PC_MASK);
 184:Generated_Source\PSoC4/capsense.c ****                 newRegValue |= capsense_CTANK_PC_STRONG_MODE;
 185:Generated_Source\PSoC4/capsense.c ****                 capsense_CTANK_PORT_PC_REG = newRegValue;
 186:Generated_Source\PSoC4/capsense.c **** 
 187:Generated_Source\PSoC4/capsense.c ****                 newRegValue = capsense_CTANK_PORT_DR_REG;
 188:Generated_Source\PSoC4/capsense.c ****                 newRegValue &= ~(capsense_CTANK_DR_MASK);
 189:Generated_Source\PSoC4/capsense.c ****                 newRegValue |= capsense_CTANK_DR_CONFIG;
 190:Generated_Source\PSoC4/capsense.c ****                 capsense_CTANK_PORT_DR_REG = newRegValue;
 191:Generated_Source\PSoC4/capsense.c ****             #endif /* (capsense_CSH_TANK_PREGARGE_OPTION == capsense__CAPPRIOBUF) */
 192:Generated_Source\PSoC4/capsense.c **** 
 193:Generated_Source\PSoC4/capsense.c ****         #endif /* ((capsense_CSH_TANK_PREGARGE_OPTION == capsense__CAPPRIOBUF) || (capsense_CSH_TAN
 194:Generated_Source\PSoC4/capsense.c **** 
 195:Generated_Source\PSoC4/capsense.c ****         capsense_EnableShieldElectrode((uint32)capsense_SHIELD_PIN_NUMBER, (uint32)capsense_SHIELD_
 196:Generated_Source\PSoC4/capsense.c **** 
 197:Generated_Source\PSoC4/capsense.c ****     #endif /* (capsense_IS_SHIELD_ENABLE) */
 198:Generated_Source\PSoC4/capsense.c **** 
 199:Generated_Source\PSoC4/capsense.c ****     for(curSensor = 0u; curSensor < capsense_TOTAL_SENSOR_COUNT; curSensor++)
 200:Generated_Source\PSoC4/capsense.c ****     {
 201:Generated_Source\PSoC4/capsense.c ****         capsense_SetUnscannedSensorState(curSensor, capsense_CONNECT_INACTIVE_SNS);
ARM GAS  C:\Users\puria\AppData\Local\Temp\ccYRkNAS.s 			page 5


 202:Generated_Source\PSoC4/capsense.c ****     }
 203:Generated_Source\PSoC4/capsense.c **** 
 204:Generated_Source\PSoC4/capsense.c ****     capsense_CsdHwBlockInit();
 205:Generated_Source\PSoC4/capsense.c ****     capsense_SetShieldDelay(capsense_SHIELD_DELAY );
 206:Generated_Source\PSoC4/capsense.c **** 
 207:Generated_Source\PSoC4/capsense.c ****     /* Clear all sensors */
 208:Generated_Source\PSoC4/capsense.c ****     capsense_ClearSensors();
 209:Generated_Source\PSoC4/capsense.c **** }
 210:Generated_Source\PSoC4/capsense.c **** 
 211:Generated_Source\PSoC4/capsense.c **** /*******************************************************************************
 212:Generated_Source\PSoC4/capsense.c **** * Function Name: capsense_CsdHwBlockInit
 213:Generated_Source\PSoC4/capsense.c **** ********************************************************************************
 214:Generated_Source\PSoC4/capsense.c **** *
 215:Generated_Source\PSoC4/capsense.c **** * Summary:
 216:Generated_Source\PSoC4/capsense.c **** *  Initialises the hardware parameters of the CSD block
 217:Generated_Source\PSoC4/capsense.c **** *
 218:Generated_Source\PSoC4/capsense.c **** * Parameters:
 219:Generated_Source\PSoC4/capsense.c **** *  None
 220:Generated_Source\PSoC4/capsense.c **** *
 221:Generated_Source\PSoC4/capsense.c **** * Return:
 222:Generated_Source\PSoC4/capsense.c **** *  None
 223:Generated_Source\PSoC4/capsense.c **** *
 224:Generated_Source\PSoC4/capsense.c **** * Global Variables:
 225:Generated_Source\PSoC4/capsense.c **** *  capsense_csdTrim1 - Contains IDAC trim register value for Sourcing Mode.
 226:Generated_Source\PSoC4/capsense.c **** *  capsense_csdTrim2 - Contains IDAC trim register value for Sinking Mode.
 227:Generated_Source\PSoC4/capsense.c **** *
 228:Generated_Source\PSoC4/capsense.c **** * Side Effects:
 229:Generated_Source\PSoC4/capsense.c **** *  None
 230:Generated_Source\PSoC4/capsense.c **** *
 231:Generated_Source\PSoC4/capsense.c **** *******************************************************************************/
 232:Generated_Source\PSoC4/capsense.c **** void capsense_CsdHwBlockInit(void)
 233:Generated_Source\PSoC4/capsense.c **** {
  28              		.loc 1 233 0
  29              		.cfi_startproc
  30              		@ args = 0, pretend = 0, frame = 0
  31              		@ frame_needed = 0, uses_anonymous_args = 0
  32 0000 70B5     		push	{r4, r5, r6, lr}
  33              		.cfi_def_cfa_offset 16
  34              		.cfi_offset 4, -16
  35              		.cfi_offset 5, -12
  36              		.cfi_offset 6, -8
  37              		.cfi_offset 14, -4
 234:Generated_Source\PSoC4/capsense.c ****     uint32 newRegValue;
 235:Generated_Source\PSoC4/capsense.c **** 
 236:Generated_Source\PSoC4/capsense.c ****         /* Set trim registers for CSD Mode */
 237:Generated_Source\PSoC4/capsense.c ****     #if (capsense_IDAC1_POLARITY == capsense__IDAC_SINK)
 238:Generated_Source\PSoC4/capsense.c ****         /* iDAC1 Sinking Mode */
 239:Generated_Source\PSoC4/capsense.c ****         capsense_csdTrim2 = (uint8)capsense_CSD_TRIM2_REG;
 240:Generated_Source\PSoC4/capsense.c ****         newRegValue = capsense_csdTrim2;
 241:Generated_Source\PSoC4/capsense.c ****         newRegValue &= capsense_CSD_IDAC1_TRIM_MASK;
 242:Generated_Source\PSoC4/capsense.c ****         newRegValue |= (uint32)((uint32)capsense_SFLASH_CSD_TRIM2_REG & (uint32)capsense_CSFLASH_TR
 243:Generated_Source\PSoC4/capsense.c **** 
 244:Generated_Source\PSoC4/capsense.c ****         #if (capsense_IDAC_CNT == 2u)
 245:Generated_Source\PSoC4/capsense.c ****             /* iDAC2 Sinking Mode */
 246:Generated_Source\PSoC4/capsense.c ****             newRegValue &= capsense_CSD_IDAC2_TRIM_MASK;
 247:Generated_Source\PSoC4/capsense.c ****             newRegValue |= (uint32)((uint32)capsense_SFLASH_CSD_TRIM2_REG & (uint32)capsense_CSFLAS
 248:Generated_Source\PSoC4/capsense.c ****         #endif /* (capsense_IDAC_CNT == 2u) */
ARM GAS  C:\Users\puria\AppData\Local\Temp\ccYRkNAS.s 			page 6


 249:Generated_Source\PSoC4/capsense.c ****         capsense_CSD_TRIM2_REG = newRegValue;
 250:Generated_Source\PSoC4/capsense.c ****     #else
 251:Generated_Source\PSoC4/capsense.c ****         /* iDAC1 Sourcing Mode */
 252:Generated_Source\PSoC4/capsense.c ****         capsense_csdTrim1 = (uint8)capsense_CSD_TRIM1_REG;
  38              		.loc 1 252 0
  39 0002 154C     		ldr	r4, .L2
  40 0004 2368     		ldr	r3, [r4]
  41 0006 DBB2     		uxtb	r3, r3
  42 0008 144A     		ldr	r2, .L2+4
  43 000a 1370     		strb	r3, [r2]
  44              	.LVL0:
 253:Generated_Source\PSoC4/capsense.c ****         newRegValue = capsense_csdTrim1;
 254:Generated_Source\PSoC4/capsense.c ****         newRegValue &= capsense_CSD_IDAC1_TRIM_MASK;
  45              		.loc 1 254 0
  46 000c 0F20     		movs	r0, #15
  47 000e 8343     		bics	r3, r0
  48              	.LVL1:
  49 0010 1900     		movs	r1, r3
  50              	.LVL2:
 255:Generated_Source\PSoC4/capsense.c ****         newRegValue |= (uint32)((uint32)capsense_SFLASH_CSD_TRIM1_REG & (uint32)capsense_CSFLASH_TR
  51              		.loc 1 255 0
  52 0012 134D     		ldr	r5, .L2+8
  53 0014 2B78     		ldrb	r3, [r5]
  54 0016 0F22     		movs	r2, #15
  55 0018 1340     		ands	r3, r2
  56 001a 0B43     		orrs	r3, r1
  57              	.LVL3:
 256:Generated_Source\PSoC4/capsense.c ****         #if (capsense_IDAC_CNT == 2u)
 257:Generated_Source\PSoC4/capsense.c ****              /* iDAC2 Sourcing Mode */
 258:Generated_Source\PSoC4/capsense.c ****             newRegValue &= capsense_CSD_IDAC2_TRIM_MASK;
  58              		.loc 1 258 0
  59 001c E132     		adds	r2, r2, #225
  60 001e 9343     		bics	r3, r2
  61              	.LVL4:
 259:Generated_Source\PSoC4/capsense.c ****             newRegValue |= (uint32)((uint32)capsense_SFLASH_CSD_TRIM1_REG & (uint32)capsense_CSFLAS
  62              		.loc 1 259 0
  63 0020 2A78     		ldrb	r2, [r5]
  64 0022 8243     		bics	r2, r0
  65 0024 1343     		orrs	r3, r2
  66              	.LVL5:
 260:Generated_Source\PSoC4/capsense.c ****         #endif
 261:Generated_Source\PSoC4/capsense.c ****         capsense_CSD_TRIM1_REG = newRegValue;
  67              		.loc 1 261 0
  68 0026 2360     		str	r3, [r4]
 262:Generated_Source\PSoC4/capsense.c ****     #endif /* (capsense_IDAC1_POLARITY == capsense__IDAC_SINK) */
 263:Generated_Source\PSoC4/capsense.c **** 
 264:Generated_Source\PSoC4/capsense.c ****     /* Configure CSD and IDAC */
 265:Generated_Source\PSoC4/capsense.c ****     #if (capsense_IDAC_CNT > 1u)
 266:Generated_Source\PSoC4/capsense.c ****         capsense_CSD_IDAC_REG = capsense_DEFAULT_CSD_IDAC_CONFIG;
  69              		.loc 1 266 0
  70 0028 0E4A     		ldr	r2, .L2+12
  71 002a 0F4B     		ldr	r3, .L2+16
  72              	.LVL6:
  73 002c 1A60     		str	r2, [r3]
  74              	.LVL7:
 267:Generated_Source\PSoC4/capsense.c ****         capsense_CSD_CFG_REG = capsense_DEFAULT_CSD_CONFIG;
  75              		.loc 1 267 0
ARM GAS  C:\Users\puria\AppData\Local\Temp\ccYRkNAS.s 			page 7


  76 002e 0F4A     		ldr	r2, .L2+20
  77 0030 0F4B     		ldr	r3, .L2+24
  78 0032 1A60     		str	r2, [r3]
 268:Generated_Source\PSoC4/capsense.c ****     #else
 269:Generated_Source\PSoC4/capsense.c ****         capsense_CSD_IDAC_REG &= ~(capsense_CSD_IDAC1_MODE_MASK  | capsense_CSD_IDAC1_DATA_MASK);
 270:Generated_Source\PSoC4/capsense.c ****         capsense_CSD_IDAC_REG |= capsense_DEFAULT_CSD_IDAC_CONFIG;
 271:Generated_Source\PSoC4/capsense.c **** 
 272:Generated_Source\PSoC4/capsense.c ****         capsense_CSD_CFG_REG &= ~(capsense_CSD_CONFIG_MASK);
 273:Generated_Source\PSoC4/capsense.c ****         capsense_CSD_CFG_REG |= (capsense_DEFAULT_CSD_CONFIG);
 274:Generated_Source\PSoC4/capsense.c ****     #endif /* (capsense_IDAC_CNT > 1u) */
 275:Generated_Source\PSoC4/capsense.c **** 
 276:Generated_Source\PSoC4/capsense.c **** 
 277:Generated_Source\PSoC4/capsense.c ****     /* Connect Cmod to AMUX bus */
 278:Generated_Source\PSoC4/capsense.c ****     newRegValue = capsense_CMOD_CONNECTION_REG;
  79              		.loc 1 278 0
  80 0034 0F49     		ldr	r1, .L2+28
  81 0036 0B68     		ldr	r3, [r1]
  82              	.LVL8:
 279:Generated_Source\PSoC4/capsense.c ****     newRegValue &= ~(capsense_CSD_CMOD_CONNECTION_MASK);
  83              		.loc 1 279 0
  84 0038 8343     		bics	r3, r0
  85              	.LVL9:
 280:Generated_Source\PSoC4/capsense.c ****     newRegValue |= capsense_CSD_CMOD_TO_AMUXBUS_A;
  86              		.loc 1 280 0
  87 003a 0622     		movs	r2, #6
  88 003c 1343     		orrs	r3, r2
  89              	.LVL10:
 281:Generated_Source\PSoC4/capsense.c ****     capsense_CMOD_CONNECTION_REG = newRegValue;
  90              		.loc 1 281 0
  91 003e 0B60     		str	r3, [r1]
 282:Generated_Source\PSoC4/capsense.c **** 
 283:Generated_Source\PSoC4/capsense.c ****     /* Configure Dead Band PWM if it is enabled */
 284:Generated_Source\PSoC4/capsense.c ****     #if(capsense_CSD_4B_PWM_MODE != capsense__PWM_OFF)
 285:Generated_Source\PSoC4/capsense.c ****         capsense_CSD_4B_PWM_REG = capsense_DEFAULT_CSD_4B_PWM_CONFIG;
 286:Generated_Source\PSoC4/capsense.c ****     #endif /* (capsense_CSD_4B_PWM_MODE != capsense__PWM_OFF) */
 287:Generated_Source\PSoC4/capsense.c **** 
 288:Generated_Source\PSoC4/capsense.c ****     /* Setup ISR */
 289:Generated_Source\PSoC4/capsense.c ****     CyIntDisable(capsense_ISR_NUMBER);
  92              		.loc 1 289 0
  93 0040 0130     		adds	r0, r0, #1
  94 0042 FFF7FEFF 		bl	CyIntDisable
  95              	.LVL11:
 290:Generated_Source\PSoC4/capsense.c ****     #if !defined(CY_EXTERNAL_INTERRUPT_CONFIG)
 291:Generated_Source\PSoC4/capsense.c ****         (void)CyIntSetVector(capsense_ISR_NUMBER, &capsense_ISR);
  96              		.loc 1 291 0
  97 0046 0C49     		ldr	r1, .L2+32
  98 0048 1020     		movs	r0, #16
  99 004a FFF7FEFF 		bl	CyIntSetVector
 100              	.LVL12:
 292:Generated_Source\PSoC4/capsense.c ****         CyIntSetPriority(capsense_ISR_NUMBER, capsense_ISR_PRIORITY);
 101              		.loc 1 292 0
 102 004e 0321     		movs	r1, #3
 103 0050 1020     		movs	r0, #16
 104 0052 FFF7FEFF 		bl	CyIntSetPriority
 105              	.LVL13:
 293:Generated_Source\PSoC4/capsense.c ****     #endif /* (CY_EXTERNAL_INTERRUPT_CONFIG) */
 294:Generated_Source\PSoC4/capsense.c **** }
ARM GAS  C:\Users\puria\AppData\Local\Temp\ccYRkNAS.s 			page 8


 106              		.loc 1 294 0
 107              		@ sp needed
 108 0056 70BD     		pop	{r4, r5, r6, pc}
 109              	.L3:
 110              		.align	2
 111              	.L2:
 112 0058 00FF2840 		.word	1076428544
 113 005c 00000000 		.word	capsense_csdTrim1
 114 0060 62F1FF0F 		.word	268431714
 115 0064 00020001 		.word	16777728
 116 0068 08002840 		.word	1076363272
 117 006c 0008A001 		.word	27265024
 118 0070 04002840 		.word	1076363268
 119 0074 00040240 		.word	1073873920
 120 0078 00000000 		.word	capsense_ISR
 121              		.cfi_endproc
 122              	.LFE35:
 123              		.size	capsense_CsdHwBlockInit, .-capsense_CsdHwBlockInit
 124              		.section	.text.capsense_Enable,"ax",%progbits
 125              		.align	2
 126              		.global	capsense_Enable
 127              		.code	16
 128              		.thumb_func
 129              		.type	capsense_Enable, %function
 130              	capsense_Enable:
 131              	.LFB36:
 295:Generated_Source\PSoC4/capsense.c **** 
 296:Generated_Source\PSoC4/capsense.c **** 
 297:Generated_Source\PSoC4/capsense.c **** /*******************************************************************************
 298:Generated_Source\PSoC4/capsense.c **** * Function Name: capsense_Enable
 299:Generated_Source\PSoC4/capsense.c **** ********************************************************************************
 300:Generated_Source\PSoC4/capsense.c **** *
 301:Generated_Source\PSoC4/capsense.c **** * Summary:
 302:Generated_Source\PSoC4/capsense.c **** *  Enables the CSD block and related resources to an active mode.
 303:Generated_Source\PSoC4/capsense.c **** *
 304:Generated_Source\PSoC4/capsense.c **** * Parameters:
 305:Generated_Source\PSoC4/capsense.c **** *  None
 306:Generated_Source\PSoC4/capsense.c **** *
 307:Generated_Source\PSoC4/capsense.c **** * Return:
 308:Generated_Source\PSoC4/capsense.c **** *  None
 309:Generated_Source\PSoC4/capsense.c **** *
 310:Generated_Source\PSoC4/capsense.c **** * Global Variables:
 311:Generated_Source\PSoC4/capsense.c **** *  None.
 312:Generated_Source\PSoC4/capsense.c **** *
 313:Generated_Source\PSoC4/capsense.c **** * Side Effects:
 314:Generated_Source\PSoC4/capsense.c **** *  None
 315:Generated_Source\PSoC4/capsense.c **** *
 316:Generated_Source\PSoC4/capsense.c **** *******************************************************************************/
 317:Generated_Source\PSoC4/capsense.c **** void capsense_Enable(void)
 318:Generated_Source\PSoC4/capsense.c **** {
 132              		.loc 1 318 0
 133              		.cfi_startproc
 134              		@ args = 0, pretend = 0, frame = 0
 135              		@ frame_needed = 0, uses_anonymous_args = 0
 136 0000 10B5     		push	{r4, lr}
 137              		.cfi_def_cfa_offset 8
 138              		.cfi_offset 4, -8
ARM GAS  C:\Users\puria\AppData\Local\Temp\ccYRkNAS.s 			page 9


 139              		.cfi_offset 14, -4
 319:Generated_Source\PSoC4/capsense.c ****     uint32 newRegValue;
 320:Generated_Source\PSoC4/capsense.c **** 
 321:Generated_Source\PSoC4/capsense.c ****     /* Enable Clocks */
 322:Generated_Source\PSoC4/capsense.c ****     capsense_SenseClk_Stop();
 140              		.loc 1 322 0
 141 0002 FFF7FEFF 		bl	capsense_SenseClk_Stop
 142              	.LVL14:
 323:Generated_Source\PSoC4/capsense.c ****     capsense_SampleClk_Stop();
 143              		.loc 1 323 0
 144 0006 FFF7FEFF 		bl	capsense_SampleClk_Stop
 145              	.LVL15:
 324:Generated_Source\PSoC4/capsense.c **** 
 325:Generated_Source\PSoC4/capsense.c ****     capsense_SampleClk_SetDividerValue((uint16)capsense_INITIAL_CLK_DIVIDER);
 146              		.loc 1 325 0
 147 000a 0021     		movs	r1, #0
 148 000c 0020     		movs	r0, #0
 149 000e FFF7FEFF 		bl	capsense_SampleClk_SetFractionalDividerRegister
 150              	.LVL16:
 326:Generated_Source\PSoC4/capsense.c ****     capsense_SenseClk_SetDividerValue((uint16)capsense_INITIAL_CLK_DIVIDER);
 151              		.loc 1 326 0
 152 0012 0021     		movs	r1, #0
 153 0014 0020     		movs	r0, #0
 154 0016 FFF7FEFF 		bl	capsense_SenseClk_SetFractionalDividerRegister
 155              	.LVL17:
 327:Generated_Source\PSoC4/capsense.c **** 
 328:Generated_Source\PSoC4/capsense.c ****     #if (0u == capsense_IS_M0S8PERI_BLOCK)
 329:Generated_Source\PSoC4/capsense.c ****         capsense_SenseClk_Start();
 330:Generated_Source\PSoC4/capsense.c ****         capsense_SampleClk_Start();
 331:Generated_Source\PSoC4/capsense.c ****     #else
 332:Generated_Source\PSoC4/capsense.c ****         capsense_SampleClk_Start();
 156              		.loc 1 332 0
 157 001a FF20     		movs	r0, #255
 158 001c FFF7FEFF 		bl	capsense_SampleClk_StartEx
 159              	.LVL18:
 333:Generated_Source\PSoC4/capsense.c ****         capsense_SenseClk_StartEx(capsense_SampleClk__DIV_ID);
 160              		.loc 1 333 0
 161 0020 4020     		movs	r0, #64
 162 0022 FFF7FEFF 		bl	capsense_SenseClk_StartEx
 163              	.LVL19:
 334:Generated_Source\PSoC4/capsense.c ****     #endif /* (0u == capsense_IS_M0S8PERI_BLOCK) */
 335:Generated_Source\PSoC4/capsense.c **** 
 336:Generated_Source\PSoC4/capsense.c ****     /* Enable the CSD block */
 337:Generated_Source\PSoC4/capsense.c ****     newRegValue = capsense_CSD_CFG_REG;
 164              		.loc 1 337 0
 165 0026 044A     		ldr	r2, .L5
 166 0028 1368     		ldr	r3, [r2]
 167              	.LVL20:
 338:Generated_Source\PSoC4/capsense.c ****     newRegValue |= (capsense_CSD_CFG_ENABLE | capsense_CSD_CFG_SENSE_COMP_EN
 168              		.loc 1 338 0
 169 002a 0449     		ldr	r1, .L5+4
 170 002c 0B43     		orrs	r3, r1
 171              	.LVL21:
 339:Generated_Source\PSoC4/capsense.c ****                                                    | capsense_CSD_CFG_SENSE_EN);
 340:Generated_Source\PSoC4/capsense.c ****     capsense_CSD_CFG_REG = newRegValue;
 172              		.loc 1 340 0
 173 002e 1360     		str	r3, [r2]
ARM GAS  C:\Users\puria\AppData\Local\Temp\ccYRkNAS.s 			page 10


 341:Generated_Source\PSoC4/capsense.c **** 
 342:Generated_Source\PSoC4/capsense.c ****     /* Enable interrupt */
 343:Generated_Source\PSoC4/capsense.c ****     CyIntEnable(capsense_ISR_NUMBER);
 174              		.loc 1 343 0
 175 0030 1020     		movs	r0, #16
 176 0032 FFF7FEFF 		bl	CyIntEnable
 177              	.LVL22:
 344:Generated_Source\PSoC4/capsense.c **** }
 178              		.loc 1 344 0
 179              		@ sp needed
 180 0036 10BD     		pop	{r4, pc}
 181              	.L6:
 182              		.align	2
 183              	.L5:
 184 0038 04002840 		.word	1076363268
 185 003c 00100880 		.word	-2146955264
 186              		.cfi_endproc
 187              	.LFE36:
 188              		.size	capsense_Enable, .-capsense_Enable
 189              		.section	.text.capsense_Stop,"ax",%progbits
 190              		.align	2
 191              		.global	capsense_Stop
 192              		.code	16
 193              		.thumb_func
 194              		.type	capsense_Stop, %function
 195              	capsense_Stop:
 196              	.LFB38:
 345:Generated_Source\PSoC4/capsense.c **** 
 346:Generated_Source\PSoC4/capsense.c **** 
 347:Generated_Source\PSoC4/capsense.c **** /*******************************************************************************
 348:Generated_Source\PSoC4/capsense.c **** * Function Name: capsense_Start
 349:Generated_Source\PSoC4/capsense.c **** ********************************************************************************
 350:Generated_Source\PSoC4/capsense.c **** *
 351:Generated_Source\PSoC4/capsense.c **** * Summary:
 352:Generated_Source\PSoC4/capsense.c **** *  This is the preferred method to begin the component operation. CapSense_Start()
 353:Generated_Source\PSoC4/capsense.c **** *  calls the CapSense_Init() function, and then calls the CapSense_Enable()
 354:Generated_Source\PSoC4/capsense.c **** *  function. Initializes the registers and starts the CSD method of the CapSense
 355:Generated_Source\PSoC4/capsense.c **** *  component. Resets all the sensors to an inactive state. Enables interrupts for
 356:Generated_Source\PSoC4/capsense.c **** *  sensors scanning. When the SmartSense tuning mode is selected, the tuning procedure
 357:Generated_Source\PSoC4/capsense.c **** *  is applied for all the sensors. The CapSense_Start() routine must be called before
 358:Generated_Source\PSoC4/capsense.c **** *  any other API routines.
 359:Generated_Source\PSoC4/capsense.c **** *
 360:Generated_Source\PSoC4/capsense.c **** * Parameters:
 361:Generated_Source\PSoC4/capsense.c **** *  None
 362:Generated_Source\PSoC4/capsense.c **** *
 363:Generated_Source\PSoC4/capsense.c **** * Return:
 364:Generated_Source\PSoC4/capsense.c **** *  None
 365:Generated_Source\PSoC4/capsense.c **** *
 366:Generated_Source\PSoC4/capsense.c **** * Global Variables:
 367:Generated_Source\PSoC4/capsense.c **** *   capsense_initVar - used to check the initial configuration,
 368:Generated_Source\PSoC4/capsense.c **** *   modified on the first function call.
 369:Generated_Source\PSoC4/capsense.c **** *  capsense_lowLevelTuningDone - Used to notify the Tuner GUI that
 370:Generated_Source\PSoC4/capsense.c **** *   tuning of the scanning parameters is done.
 371:Generated_Source\PSoC4/capsense.c **** *
 372:Generated_Source\PSoC4/capsense.c **** * Side Effects:
 373:Generated_Source\PSoC4/capsense.c **** *  None
 374:Generated_Source\PSoC4/capsense.c **** *
ARM GAS  C:\Users\puria\AppData\Local\Temp\ccYRkNAS.s 			page 11


 375:Generated_Source\PSoC4/capsense.c **** *******************************************************************************/
 376:Generated_Source\PSoC4/capsense.c **** void capsense_Start(void)
 377:Generated_Source\PSoC4/capsense.c **** {
 378:Generated_Source\PSoC4/capsense.c **** 
 379:Generated_Source\PSoC4/capsense.c ****     static uint8 capsense_initVar = 0u;
 380:Generated_Source\PSoC4/capsense.c **** 
 381:Generated_Source\PSoC4/capsense.c ****     #if((0u != capsense_AUTOCALIBRATION_ENABLE) && (capsense_TUNING_METHOD != capsense__TUNING_AUTO
 382:Generated_Source\PSoC4/capsense.c ****         uint32 curSensor;
 383:Generated_Source\PSoC4/capsense.c ****         uint32 rawLevel;
 384:Generated_Source\PSoC4/capsense.c ****         uint32 widget;
 385:Generated_Source\PSoC4/capsense.c ****     #endif /* ((0u != capsense_AUTOCALIBRATION_ENABLE) && (capsense_TUNING_METHOD != capsense__TUNI
 386:Generated_Source\PSoC4/capsense.c **** 
 387:Generated_Source\PSoC4/capsense.c ****     if (capsense_initVar == 0u)
 388:Generated_Source\PSoC4/capsense.c ****     {
 389:Generated_Source\PSoC4/capsense.c ****         capsense_Init();
 390:Generated_Source\PSoC4/capsense.c ****         capsense_initVar = 1u;
 391:Generated_Source\PSoC4/capsense.c ****     }
 392:Generated_Source\PSoC4/capsense.c ****     capsense_Enable();
 393:Generated_Source\PSoC4/capsense.c **** 
 394:Generated_Source\PSoC4/capsense.c ****     /* AutoTunning start */
 395:Generated_Source\PSoC4/capsense.c ****     #if(capsense_TUNING_METHOD == capsense__TUNING_AUTO)
 396:Generated_Source\PSoC4/capsense.c ****         #if(0u != capsense_CSHL_API_GENERATE)
 397:Generated_Source\PSoC4/capsense.c ****             capsense_AutoTune();
 398:Generated_Source\PSoC4/capsense.c ****             capsense_lowLevelTuningDone = 1u;
 399:Generated_Source\PSoC4/capsense.c ****         #endif /* (0u != capsense_CSHL_API_GENERATE) */
 400:Generated_Source\PSoC4/capsense.c ****     #else
 401:Generated_Source\PSoC4/capsense.c ****         #if(0u != capsense_AUTOCALIBRATION_ENABLE)
 402:Generated_Source\PSoC4/capsense.c **** 
 403:Generated_Source\PSoC4/capsense.c ****             #if(capsense_IDAC_CNT > 1u)
 404:Generated_Source\PSoC4/capsense.c ****                 capsense_CSD_IDAC_REG &= ~(capsense_CSD_IDAC2_MODE_MASK);
 405:Generated_Source\PSoC4/capsense.c ****             #endif /* (capsense_IDAC_CNT > 1u) */
 406:Generated_Source\PSoC4/capsense.c **** 
 407:Generated_Source\PSoC4/capsense.c ****             for(curSensor = 0u; curSensor < capsense_TOTAL_SCANSLOT_COUNT; curSensor++)
 408:Generated_Source\PSoC4/capsense.c ****             {
 409:Generated_Source\PSoC4/capsense.c ****                 widget = capsense_widgetNumber[curSensor];
 410:Generated_Source\PSoC4/capsense.c ****                 rawLevel = capsense_widgetResolution[widget] >> capsense_RESOLUTION_OFFSET;
 411:Generated_Source\PSoC4/capsense.c **** 
 412:Generated_Source\PSoC4/capsense.c ****                 /* Calibration level should be equal to 85% from scanning resolution */
 413:Generated_Source\PSoC4/capsense.c ****                 rawLevel = (rawLevel * 85u) / 100u;
 414:Generated_Source\PSoC4/capsense.c **** 
 415:Generated_Source\PSoC4/capsense.c ****                 capsense_CalibrateSensor(curSensor, rawLevel, capsense_modulationIDAC);
 416:Generated_Source\PSoC4/capsense.c ****             }
 417:Generated_Source\PSoC4/capsense.c **** 
 418:Generated_Source\PSoC4/capsense.c ****             #if(0u != capsense_TOTAL_CENTROIDS_COUNT)
 419:Generated_Source\PSoC4/capsense.c ****                 capsense_NormalizeWidgets(capsense_END_OF_WIDGETS_INDEX, capsense_modulationIDAC);
 420:Generated_Source\PSoC4/capsense.c ****             #endif /* (0u != capsense_TOTAL_CENTROIDS_COUNT)  */
 421:Generated_Source\PSoC4/capsense.c **** 
 422:Generated_Source\PSoC4/capsense.c ****             #if(capsense_IDAC_CNT > 1u)
 423:Generated_Source\PSoC4/capsense.c ****                 for(curSensor = 0u; curSensor < capsense_TOTAL_SCANSLOT_COUNT; curSensor++)
 424:Generated_Source\PSoC4/capsense.c ****                 {
 425:Generated_Source\PSoC4/capsense.c ****                     capsense_compensationIDAC[curSensor] = capsense_modulationIDAC[curSensor] / 2u;
 426:Generated_Source\PSoC4/capsense.c ****                     capsense_modulationIDAC[curSensor] = (capsense_modulationIDAC[curSensor] + 1u) 
 427:Generated_Source\PSoC4/capsense.c ****                 }
 428:Generated_Source\PSoC4/capsense.c ****                 capsense_CSD_IDAC_REG |= capsense_CSD_IDAC2_MODE_FIXED;
 429:Generated_Source\PSoC4/capsense.c ****             #endif /* (capsense_IDAC_CNT > 1u) */
 430:Generated_Source\PSoC4/capsense.c **** 
 431:Generated_Source\PSoC4/capsense.c ****         #endif /* (0u != capsense_AUTOCALIBRATION_ENABLE) */
ARM GAS  C:\Users\puria\AppData\Local\Temp\ccYRkNAS.s 			page 12


 432:Generated_Source\PSoC4/capsense.c **** 
 433:Generated_Source\PSoC4/capsense.c ****     #endif /* ((capsense_TUNING_METHOD == capsense__TUNING_AUTO) */
 434:Generated_Source\PSoC4/capsense.c **** 
 435:Generated_Source\PSoC4/capsense.c ****     /* Initialize Advanced Centroid */
 436:Generated_Source\PSoC4/capsense.c ****     #if(capsense_TOTAL_TRACKPAD_GESTURES_COUNT > 0u)
 437:Generated_Source\PSoC4/capsense.c ****         capsense_AdvancedCentroidInit();
 438:Generated_Source\PSoC4/capsense.c ****     #endif /* (capsense_TOTAL_TRACKPAD_GESTURES_COUNT > 0u) */
 439:Generated_Source\PSoC4/capsense.c **** 
 440:Generated_Source\PSoC4/capsense.c ****     /* Connect sense comparator input to AMUXA */
 441:Generated_Source\PSoC4/capsense.c ****     capsense_CSD_CFG_REG |= capsense_CSD_CFG_SENSE_INSEL;
 442:Generated_Source\PSoC4/capsense.c **** }
 443:Generated_Source\PSoC4/capsense.c **** 
 444:Generated_Source\PSoC4/capsense.c **** 
 445:Generated_Source\PSoC4/capsense.c **** /*******************************************************************************
 446:Generated_Source\PSoC4/capsense.c **** * Function Name: capsense_Stop
 447:Generated_Source\PSoC4/capsense.c **** ********************************************************************************
 448:Generated_Source\PSoC4/capsense.c **** *
 449:Generated_Source\PSoC4/capsense.c **** * Summary:
 450:Generated_Source\PSoC4/capsense.c **** *  Stops the sensor scanning, disables component interrupts, and resets all the
 451:Generated_Source\PSoC4/capsense.c **** *  sensors to an inactive state. Disables the Active mode power template bits for
 452:Generated_Source\PSoC4/capsense.c **** *  the subcomponents used within CapSense.
 453:Generated_Source\PSoC4/capsense.c **** *
 454:Generated_Source\PSoC4/capsense.c **** * Parameters:
 455:Generated_Source\PSoC4/capsense.c **** *  None
 456:Generated_Source\PSoC4/capsense.c **** *
 457:Generated_Source\PSoC4/capsense.c **** * Return:
 458:Generated_Source\PSoC4/capsense.c **** *  None
 459:Generated_Source\PSoC4/capsense.c **** *
 460:Generated_Source\PSoC4/capsense.c **** * Global Variables:
 461:Generated_Source\PSoC4/capsense.c **** *  capsense_csdTrim1 - Contains the IDAC trim register value for the Sourcing Mode.
 462:Generated_Source\PSoC4/capsense.c **** *  capsense_csdTrim2 - Contains the IDAC trim register value for vSinking Mode.
 463:Generated_Source\PSoC4/capsense.c **** *
 464:Generated_Source\PSoC4/capsense.c **** * Side Effects:
 465:Generated_Source\PSoC4/capsense.c **** *  This function should be called after scans are completed.
 466:Generated_Source\PSoC4/capsense.c **** *
 467:Generated_Source\PSoC4/capsense.c **** *******************************************************************************/
 468:Generated_Source\PSoC4/capsense.c **** void capsense_Stop(void)
 469:Generated_Source\PSoC4/capsense.c **** {
 197              		.loc 1 469 0
 198              		.cfi_startproc
 199              		@ args = 0, pretend = 0, frame = 0
 200              		@ frame_needed = 0, uses_anonymous_args = 0
 201 0000 10B5     		push	{r4, lr}
 202              		.cfi_def_cfa_offset 8
 203              		.cfi_offset 4, -8
 204              		.cfi_offset 14, -4
 470:Generated_Source\PSoC4/capsense.c ****     /* Disable interrupt */
 471:Generated_Source\PSoC4/capsense.c ****     CyIntDisable(capsense_ISR_NUMBER);
 205              		.loc 1 471 0
 206 0002 1020     		movs	r0, #16
 207 0004 FFF7FEFF 		bl	CyIntDisable
 208              	.LVL23:
 472:Generated_Source\PSoC4/capsense.c **** 
 473:Generated_Source\PSoC4/capsense.c ****     capsense_CSD_CFG_REG &= ~(capsense_CSD_CFG_SENSE_COMP_EN | capsense_CSD_CFG_SENSE_EN);
 209              		.loc 1 473 0
 210 0008 064A     		ldr	r2, .L8
 211 000a 1168     		ldr	r1, [r2]
ARM GAS  C:\Users\puria\AppData\Local\Temp\ccYRkNAS.s 			page 13


 212 000c 064B     		ldr	r3, .L8+4
 213 000e 0B40     		ands	r3, r1
 214 0010 1360     		str	r3, [r2]
 474:Generated_Source\PSoC4/capsense.c **** 
 475:Generated_Source\PSoC4/capsense.c ****     #if(capsense_IDAC_CNT == 2u)
 476:Generated_Source\PSoC4/capsense.c ****         capsense_CSD_CFG_REG &= ~(capsense_CSD_CFG_ENABLE);
 215              		.loc 1 476 0
 216 0012 1368     		ldr	r3, [r2]
 217 0014 5B00     		lsls	r3, r3, #1
 218 0016 5B08     		lsrs	r3, r3, #1
 219 0018 1360     		str	r3, [r2]
 477:Generated_Source\PSoC4/capsense.c ****     #endif /* (capsense_IDAC_CNT == 2u) */
 478:Generated_Source\PSoC4/capsense.c **** 
 479:Generated_Source\PSoC4/capsense.c ****     /* Disable the Clocks */
 480:Generated_Source\PSoC4/capsense.c ****     capsense_SenseClk_Stop();
 220              		.loc 1 480 0
 221 001a FFF7FEFF 		bl	capsense_SenseClk_Stop
 222              	.LVL24:
 481:Generated_Source\PSoC4/capsense.c ****     capsense_SampleClk_Stop();
 223              		.loc 1 481 0
 224 001e FFF7FEFF 		bl	capsense_SampleClk_Stop
 225              	.LVL25:
 482:Generated_Source\PSoC4/capsense.c **** }
 226              		.loc 1 482 0
 227              		@ sp needed
 228 0022 10BD     		pop	{r4, pc}
 229              	.L9:
 230              		.align	2
 231              	.L8:
 232 0024 04002840 		.word	1076363268
 233 0028 FFEFF7FF 		.word	-528385
 234              		.cfi_endproc
 235              	.LFE38:
 236              		.size	capsense_Stop, .-capsense_Stop
 237              		.section	.text.capsense_IsBusy,"ax",%progbits
 238              		.align	2
 239              		.global	capsense_IsBusy
 240              		.code	16
 241              		.thumb_func
 242              		.type	capsense_IsBusy, %function
 243              	capsense_IsBusy:
 244              	.LFB43:
 483:Generated_Source\PSoC4/capsense.c **** 
 484:Generated_Source\PSoC4/capsense.c **** 
 485:Generated_Source\PSoC4/capsense.c **** /*******************************************************************************
 486:Generated_Source\PSoC4/capsense.c **** * Function Name: capsense_FindNextSensor
 487:Generated_Source\PSoC4/capsense.c **** ********************************************************************************
 488:Generated_Source\PSoC4/capsense.c **** *
 489:Generated_Source\PSoC4/capsense.c **** * Summary:
 490:Generated_Source\PSoC4/capsense.c **** *  Finds the next sensor to scan.
 491:Generated_Source\PSoC4/capsense.c **** *
 492:Generated_Source\PSoC4/capsense.c **** * Parameters:
 493:Generated_Source\PSoC4/capsense.c **** *  snsIndex:  Current index of sensor.
 494:Generated_Source\PSoC4/capsense.c **** *
 495:Generated_Source\PSoC4/capsense.c **** * Return:
 496:Generated_Source\PSoC4/capsense.c **** *  Returns the next sensor index to scan.
 497:Generated_Source\PSoC4/capsense.c **** *
ARM GAS  C:\Users\puria\AppData\Local\Temp\ccYRkNAS.s 			page 14


 498:Generated_Source\PSoC4/capsense.c **** * Global Variables:
 499:Generated_Source\PSoC4/capsense.c **** *  capsense_sensorEnableMask[] - used to store bit masks of the enabled sensors.
 500:Generated_Source\PSoC4/capsense.c **** *
 501:Generated_Source\PSoC4/capsense.c **** * Side Effects:
 502:Generated_Source\PSoC4/capsense.c **** *  This function affects the  current scanning and should not
 503:Generated_Source\PSoC4/capsense.c **** *  be used outside the component.
 504:Generated_Source\PSoC4/capsense.c **** *
 505:Generated_Source\PSoC4/capsense.c **** *******************************************************************************/
 506:Generated_Source\PSoC4/capsense.c **** uint8 capsense_FindNextSensor(uint8 snsIndex)
 507:Generated_Source\PSoC4/capsense.c **** {
 508:Generated_Source\PSoC4/capsense.c ****     uint32 enableFlag;
 509:Generated_Source\PSoC4/capsense.c **** 
 510:Generated_Source\PSoC4/capsense.c ****     /* Check if sensor enabled */
 511:Generated_Source\PSoC4/capsense.c ****     do
 512:Generated_Source\PSoC4/capsense.c ****     {
 513:Generated_Source\PSoC4/capsense.c ****         /* Proceed with next sensor */
 514:Generated_Source\PSoC4/capsense.c ****         snsIndex++;
 515:Generated_Source\PSoC4/capsense.c ****         if(snsIndex == capsense_TOTAL_SENSOR_COUNT)
 516:Generated_Source\PSoC4/capsense.c ****         {
 517:Generated_Source\PSoC4/capsense.c ****             break;
 518:Generated_Source\PSoC4/capsense.c ****         }
 519:Generated_Source\PSoC4/capsense.c ****         enableFlag = capsense_GetBitValue(capsense_sensorEnableMask, (uint32)snsIndex);
 520:Generated_Source\PSoC4/capsense.c ****     }
 521:Generated_Source\PSoC4/capsense.c ****     while(enableFlag == 0u);
 522:Generated_Source\PSoC4/capsense.c **** 
 523:Generated_Source\PSoC4/capsense.c ****     return ((uint8)snsIndex);
 524:Generated_Source\PSoC4/capsense.c **** }
 525:Generated_Source\PSoC4/capsense.c **** 
 526:Generated_Source\PSoC4/capsense.c **** 
 527:Generated_Source\PSoC4/capsense.c **** /*******************************************************************************
 528:Generated_Source\PSoC4/capsense.c **** * Function Name: capsense_ScanSensor
 529:Generated_Source\PSoC4/capsense.c **** ********************************************************************************
 530:Generated_Source\PSoC4/capsense.c **** *
 531:Generated_Source\PSoC4/capsense.c **** * Summary:
 532:Generated_Source\PSoC4/capsense.c **** *  Sets the scan settings and starts scanning a sensor. After scanning is complete,
 533:Generated_Source\PSoC4/capsense.c **** *  the ISR copies the measured sensor raw data to the global raw sensor array.
 534:Generated_Source\PSoC4/capsense.c **** *  Use of the ISR ensures this function is non-blocking.
 535:Generated_Source\PSoC4/capsense.c **** *  Each sensor has a unique number within the sensor array.
 536:Generated_Source\PSoC4/capsense.c **** *  This number is assigned by the CapSense customizer in sequence.
 537:Generated_Source\PSoC4/capsense.c **** *
 538:Generated_Source\PSoC4/capsense.c **** * Parameters:
 539:Generated_Source\PSoC4/capsense.c **** *  sensor:  Sensor number.
 540:Generated_Source\PSoC4/capsense.c **** *
 541:Generated_Source\PSoC4/capsense.c **** * Return:
 542:Generated_Source\PSoC4/capsense.c **** *  None
 543:Generated_Source\PSoC4/capsense.c **** *
 544:Generated_Source\PSoC4/capsense.c **** * Global Variables:
 545:Generated_Source\PSoC4/capsense.c **** *  capsense_csdStatusVar - used to provide the status and mode of the scanning process.
 546:Generated_Source\PSoC4/capsense.c **** *  Sets the busy status(scan in progress) and mode of scan as single scan.
 547:Generated_Source\PSoC4/capsense.c **** *  capsense_sensorIndex - used to store a sensor scanning sensor number.
 548:Generated_Source\PSoC4/capsense.c **** *  Sets to the provided sensor argument.
 549:Generated_Source\PSoC4/capsense.c **** *
 550:Generated_Source\PSoC4/capsense.c **** * Side Effects:
 551:Generated_Source\PSoC4/capsense.c **** *  None
 552:Generated_Source\PSoC4/capsense.c **** *
 553:Generated_Source\PSoC4/capsense.c **** *******************************************************************************/
 554:Generated_Source\PSoC4/capsense.c **** void capsense_ScanSensor(uint32 sensor)
ARM GAS  C:\Users\puria\AppData\Local\Temp\ccYRkNAS.s 			page 15


 555:Generated_Source\PSoC4/capsense.c **** {
 556:Generated_Source\PSoC4/capsense.c ****     /* Clears status/control variable and set sensorIndex */
 557:Generated_Source\PSoC4/capsense.c ****     capsense_csdStatusVar = 0u;
 558:Generated_Source\PSoC4/capsense.c ****     capsense_sensorIndex = (uint8)sensor;
 559:Generated_Source\PSoC4/capsense.c **** 
 560:Generated_Source\PSoC4/capsense.c ****     /* Start of sensor scan */
 561:Generated_Source\PSoC4/capsense.c ****     capsense_csdStatusVar = (capsense_SW_STS_BUSY | capsense_SW_CTRL_SINGLE_SCAN);
 562:Generated_Source\PSoC4/capsense.c ****     capsense_PreScan(sensor);
 563:Generated_Source\PSoC4/capsense.c **** }
 564:Generated_Source\PSoC4/capsense.c **** 
 565:Generated_Source\PSoC4/capsense.c **** 
 566:Generated_Source\PSoC4/capsense.c **** #if(0u != capsense_CSHL_API_GENERATE)
 567:Generated_Source\PSoC4/capsense.c **** /*******************************************************************************
 568:Generated_Source\PSoC4/capsense.c **** * Function Name: capsense_ScanWidget
 569:Generated_Source\PSoC4/capsense.c **** ********************************************************************************
 570:Generated_Source\PSoC4/capsense.c **** *
 571:Generated_Source\PSoC4/capsense.c **** * Summary:
 572:Generated_Source\PSoC4/capsense.c **** *  Sets the scan settings and starts scanning a widget.
 573:Generated_Source\PSoC4/capsense.c **** *
 574:Generated_Source\PSoC4/capsense.c **** * Parameters:
 575:Generated_Source\PSoC4/capsense.c **** *  uint32 widget: Widget number.
 576:Generated_Source\PSoC4/capsense.c **** *
 577:Generated_Source\PSoC4/capsense.c **** * Return:
 578:Generated_Source\PSoC4/capsense.c **** *  None
 579:Generated_Source\PSoC4/capsense.c **** *
 580:Generated_Source\PSoC4/capsense.c **** * Global Variables:
 581:Generated_Source\PSoC4/capsense.c **** *  capsense_csdStatusVar - used to provide the status and mode of the scanning process.
 582:Generated_Source\PSoC4/capsense.c **** *  Sets the busy status(scan in progress) and clears the single scan mode.
 583:Generated_Source\PSoC4/capsense.c **** *  capsense_sensorIndex - used to store a sensor scanning sensor number.
 584:Generated_Source\PSoC4/capsense.c **** *  Sets to 0xFF and provided to function capsense_FindNextSensor or
 585:Generated_Source\PSoC4/capsense.c **** *  capsense_sensorEnableMask[] - used to store bit masks of the enabled sensors.
 586:Generated_Source\PSoC4/capsense.c **** *  capsense_sensorEnableMaskBackup[] - used to backup bit masks of the enabled
 587:Generated_Source\PSoC4/capsense.c **** *   sensors.
 588:Generated_Source\PSoC4/capsense.c **** *
 589:Generated_Source\PSoC4/capsense.c **** * Side Effects:
 590:Generated_Source\PSoC4/capsense.c **** *  None
 591:Generated_Source\PSoC4/capsense.c **** *
 592:Generated_Source\PSoC4/capsense.c **** *******************************************************************************/
 593:Generated_Source\PSoC4/capsense.c **** void capsense_ScanWidget(uint32 widget)
 594:Generated_Source\PSoC4/capsense.c **** {
 595:Generated_Source\PSoC4/capsense.c ****     uint32 sensorsPerWidget;
 596:Generated_Source\PSoC4/capsense.c ****     uint32 lastSensor;
 597:Generated_Source\PSoC4/capsense.c ****     uint32 snsIndex;
 598:Generated_Source\PSoC4/capsense.c **** 
 599:Generated_Source\PSoC4/capsense.c ****     /* Get first sensor in widget */
 600:Generated_Source\PSoC4/capsense.c ****     capsense_sensorIndex = capsense_rawDataIndex[widget];
 601:Generated_Source\PSoC4/capsense.c **** 
 602:Generated_Source\PSoC4/capsense.c ****     /* Get number of sensors in widget */
 603:Generated_Source\PSoC4/capsense.c ****     sensorsPerWidget = capsense_numberOfSensors[widget];
 604:Generated_Source\PSoC4/capsense.c **** 
 605:Generated_Source\PSoC4/capsense.c ****     /* Check if generic Sensor */
 606:Generated_Source\PSoC4/capsense.c ****     if(sensorsPerWidget == 0u)
 607:Generated_Source\PSoC4/capsense.c ****     {
 608:Generated_Source\PSoC4/capsense.c ****         sensorsPerWidget = 1u;
 609:Generated_Source\PSoC4/capsense.c ****     }
 610:Generated_Source\PSoC4/capsense.c **** 
 611:Generated_Source\PSoC4/capsense.c ****     /* Get last sensor in widget */
ARM GAS  C:\Users\puria\AppData\Local\Temp\ccYRkNAS.s 			page 16


 612:Generated_Source\PSoC4/capsense.c ****     lastSensor = (capsense_rawDataIndex[widget] + sensorsPerWidget) - 1u;
 613:Generated_Source\PSoC4/capsense.c **** 
 614:Generated_Source\PSoC4/capsense.c ****     /* Backup sensorEnableMask array */
 615:Generated_Source\PSoC4/capsense.c ****     for(snsIndex = 0u; snsIndex < capsense_TOTAL_SENSOR_MASK; snsIndex++)
 616:Generated_Source\PSoC4/capsense.c ****     {
 617:Generated_Source\PSoC4/capsense.c ****         /* Backup sensorEnableMask array */
 618:Generated_Source\PSoC4/capsense.c ****         capsense_sensorEnableMaskBackup[snsIndex] = capsense_sensorEnableMask[snsIndex];
 619:Generated_Source\PSoC4/capsense.c ****     }
 620:Generated_Source\PSoC4/capsense.c **** 
 621:Generated_Source\PSoC4/capsense.c ****     /* Update sensorEnableMask to scan the sensors that belong to widget */
 622:Generated_Source\PSoC4/capsense.c ****     for(snsIndex = 0u; snsIndex < capsense_TOTAL_SENSOR_COUNT; snsIndex++)
 623:Generated_Source\PSoC4/capsense.c ****     {
 624:Generated_Source\PSoC4/capsense.c ****         /* Update sensorEnableMask array bits to scan the widget only */
 625:Generated_Source\PSoC4/capsense.c ****         if((snsIndex >= capsense_sensorIndex) && (snsIndex <= lastSensor))
 626:Generated_Source\PSoC4/capsense.c ****         {
 627:Generated_Source\PSoC4/capsense.c ****             /* Set sensor bit to scan */
 628:Generated_Source\PSoC4/capsense.c ****             capsense_SetBitValue(capsense_sensorEnableMask, snsIndex, 1u);
 629:Generated_Source\PSoC4/capsense.c ****         }
 630:Generated_Source\PSoC4/capsense.c ****         else
 631:Generated_Source\PSoC4/capsense.c ****         {
 632:Generated_Source\PSoC4/capsense.c ****             /* Reset sensor bit to do not scan */
 633:Generated_Source\PSoC4/capsense.c ****             capsense_SetBitValue(capsense_sensorEnableMask, snsIndex, 0u);
 634:Generated_Source\PSoC4/capsense.c ****         }
 635:Generated_Source\PSoC4/capsense.c ****     }
 636:Generated_Source\PSoC4/capsense.c **** 
 637:Generated_Source\PSoC4/capsense.c ****     /* Check end of scan condition */
 638:Generated_Source\PSoC4/capsense.c ****     if(capsense_sensorIndex < capsense_TOTAL_SENSOR_COUNT)
 639:Generated_Source\PSoC4/capsense.c ****     {
 640:Generated_Source\PSoC4/capsense.c ****         /* Set widget busy bit in status/control variable*/
 641:Generated_Source\PSoC4/capsense.c ****         capsense_csdStatusVar = (capsense_SW_STS_BUSY | capsense_SW_CTRL_WIDGET_SCAN);
 642:Generated_Source\PSoC4/capsense.c ****         /* Scan first sensor of widget*/
 643:Generated_Source\PSoC4/capsense.c ****         capsense_PreScan((uint32)capsense_sensorIndex);
 644:Generated_Source\PSoC4/capsense.c ****     }
 645:Generated_Source\PSoC4/capsense.c **** }
 646:Generated_Source\PSoC4/capsense.c **** #endif /* (0u != capsense_CSHL_API_GENERATE) */
 647:Generated_Source\PSoC4/capsense.c **** 
 648:Generated_Source\PSoC4/capsense.c **** 
 649:Generated_Source\PSoC4/capsense.c **** /*******************************************************************************
 650:Generated_Source\PSoC4/capsense.c **** * Function Name: capsense_ScanEnableWidgets
 651:Generated_Source\PSoC4/capsense.c **** ********************************************************************************
 652:Generated_Source\PSoC4/capsense.c **** *
 653:Generated_Source\PSoC4/capsense.c **** * Summary:
 654:Generated_Source\PSoC4/capsense.c **** *  This is the preferred method to scan all of the enabled widgets.
 655:Generated_Source\PSoC4/capsense.c **** *  The API starts scanning a sensor within the enabled widgets.
 656:Generated_Source\PSoC4/capsense.c **** *  The ISR continues scanning the sensors until all the enabled widgets are scanned.
 657:Generated_Source\PSoC4/capsense.c **** *  Use of the ISR ensures this function is non-blocking.
 658:Generated_Source\PSoC4/capsense.c **** *  All the widgets are enabled by default except proximity widgets.
 659:Generated_Source\PSoC4/capsense.c **** *  The proximity widgets must be manually enabled as their long scan time
 660:Generated_Source\PSoC4/capsense.c **** *  is incompatible with a fast response required of other widget types.
 661:Generated_Source\PSoC4/capsense.c **** *
 662:Generated_Source\PSoC4/capsense.c **** * Parameters:
 663:Generated_Source\PSoC4/capsense.c **** *  None
 664:Generated_Source\PSoC4/capsense.c **** *
 665:Generated_Source\PSoC4/capsense.c **** * Return:
 666:Generated_Source\PSoC4/capsense.c **** *  None
 667:Generated_Source\PSoC4/capsense.c **** *
 668:Generated_Source\PSoC4/capsense.c **** * Global Variables:
ARM GAS  C:\Users\puria\AppData\Local\Temp\ccYRkNAS.s 			page 17


 669:Generated_Source\PSoC4/capsense.c **** *  capsense_csdStatusVar - used to provide the status and mode of the scanning process.
 670:Generated_Source\PSoC4/capsense.c **** *  Sets the busy status(scan in progress) and clears the single scan mode.
 671:Generated_Source\PSoC4/capsense.c **** *  capsense_sensorIndex - used to store a sensor scanning sensor number.
 672:Generated_Source\PSoC4/capsense.c **** *  Sets to 0xFF and provided to function capsense_FindNextSensor or
 673:Generated_Source\PSoC4/capsense.c **** *
 674:Generated_Source\PSoC4/capsense.c **** * Side Effects:
 675:Generated_Source\PSoC4/capsense.c **** *  None
 676:Generated_Source\PSoC4/capsense.c **** *
 677:Generated_Source\PSoC4/capsense.c **** *******************************************************************************/
 678:Generated_Source\PSoC4/capsense.c **** void capsense_ScanEnabledWidgets(void)
 679:Generated_Source\PSoC4/capsense.c **** {
 680:Generated_Source\PSoC4/capsense.c ****     /* Clears status/control variable and set sensorIndex */
 681:Generated_Source\PSoC4/capsense.c ****     capsense_csdStatusVar = 0u;
 682:Generated_Source\PSoC4/capsense.c ****     capsense_sensorIndex = 0xFFu;
 683:Generated_Source\PSoC4/capsense.c **** 
 684:Generated_Source\PSoC4/capsense.c ****     /* Find next sensor */
 685:Generated_Source\PSoC4/capsense.c ****     capsense_sensorIndex = (uint8)capsense_FindNextSensor(capsense_sensorIndex);
 686:Generated_Source\PSoC4/capsense.c **** 
 687:Generated_Source\PSoC4/capsense.c ****     /* Check end of scan condition */
 688:Generated_Source\PSoC4/capsense.c ****     if(capsense_sensorIndex < capsense_TOTAL_SENSOR_COUNT)
 689:Generated_Source\PSoC4/capsense.c ****     {
 690:Generated_Source\PSoC4/capsense.c ****         capsense_csdStatusVar |= capsense_SW_STS_BUSY;
 691:Generated_Source\PSoC4/capsense.c ****         capsense_PreScan((uint32)capsense_sensorIndex);
 692:Generated_Source\PSoC4/capsense.c ****     }
 693:Generated_Source\PSoC4/capsense.c **** }
 694:Generated_Source\PSoC4/capsense.c **** 
 695:Generated_Source\PSoC4/capsense.c **** 
 696:Generated_Source\PSoC4/capsense.c **** /*******************************************************************************
 697:Generated_Source\PSoC4/capsense.c **** * Function Name: capsense_IsBusy
 698:Generated_Source\PSoC4/capsense.c **** ********************************************************************************
 699:Generated_Source\PSoC4/capsense.c **** *
 700:Generated_Source\PSoC4/capsense.c **** * Summary:
 701:Generated_Source\PSoC4/capsense.c **** *  Returns the state of the CapSense component. 1 means that scanning in
 702:Generated_Source\PSoC4/capsense.c **** *  progress and 0 means that scanning is complete.
 703:Generated_Source\PSoC4/capsense.c **** *
 704:Generated_Source\PSoC4/capsense.c **** * Parameters:
 705:Generated_Source\PSoC4/capsense.c **** *  None
 706:Generated_Source\PSoC4/capsense.c **** *
 707:Generated_Source\PSoC4/capsense.c **** * Return:
 708:Generated_Source\PSoC4/capsense.c **** *  Returns the state of scanning. 1 - scanning in progress, 0 - scanning
 709:Generated_Source\PSoC4/capsense.c **** *  completed.
 710:Generated_Source\PSoC4/capsense.c **** *
 711:Generated_Source\PSoC4/capsense.c **** * Global Variables:
 712:Generated_Source\PSoC4/capsense.c **** *  capsense_csdStatusVar - used to provide the status and mode of the scanning process.
 713:Generated_Source\PSoC4/capsense.c **** *  Checks the busy status.
 714:Generated_Source\PSoC4/capsense.c **** *
 715:Generated_Source\PSoC4/capsense.c **** * Side Effects:
 716:Generated_Source\PSoC4/capsense.c **** *  None
 717:Generated_Source\PSoC4/capsense.c **** *
 718:Generated_Source\PSoC4/capsense.c **** *******************************************************************************/
 719:Generated_Source\PSoC4/capsense.c **** uint32 capsense_IsBusy(void)
 720:Generated_Source\PSoC4/capsense.c **** {
 245              		.loc 1 720 0
 246              		.cfi_startproc
 247              		@ args = 0, pretend = 0, frame = 0
 248              		@ frame_needed = 0, uses_anonymous_args = 0
 249              		@ link register save eliminated.
ARM GAS  C:\Users\puria\AppData\Local\Temp\ccYRkNAS.s 			page 18


 721:Generated_Source\PSoC4/capsense.c ****     return ((uint32)((0u != (capsense_csdStatusVar & capsense_SW_STS_BUSY)) ? 1u : 0u));
 250              		.loc 1 721 0
 251 0000 024B     		ldr	r3, .L11
 252 0002 1878     		ldrb	r0, [r3]
 253 0004 0123     		movs	r3, #1
 254 0006 1840     		ands	r0, r3
 722:Generated_Source\PSoC4/capsense.c **** }
 255              		.loc 1 722 0
 256              		@ sp needed
 257 0008 7047     		bx	lr
 258              	.L12:
 259 000a C046     		.align	2
 260              	.L11:
 261 000c 00000000 		.word	.LANCHOR0
 262              		.cfi_endproc
 263              	.LFE43:
 264              		.size	capsense_IsBusy, .-capsense_IsBusy
 265              		.section	.text.capsense_ReadSensorRaw,"ax",%progbits
 266              		.align	2
 267              		.global	capsense_ReadSensorRaw
 268              		.code	16
 269              		.thumb_func
 270              		.type	capsense_ReadSensorRaw, %function
 271              	capsense_ReadSensorRaw:
 272              	.LFB44:
 723:Generated_Source\PSoC4/capsense.c **** 
 724:Generated_Source\PSoC4/capsense.c **** 
 725:Generated_Source\PSoC4/capsense.c **** /*******************************************************************************
 726:Generated_Source\PSoC4/capsense.c **** * Function Name: capsense_ReadSensorRaw
 727:Generated_Source\PSoC4/capsense.c **** ********************************************************************************
 728:Generated_Source\PSoC4/capsense.c **** *
 729:Generated_Source\PSoC4/capsense.c **** * Summary:
 730:Generated_Source\PSoC4/capsense.c **** *  Returns sensor raw data from the global CapSense_sensorRaw[ ] array.
 731:Generated_Source\PSoC4/capsense.c **** *  Each scan sensor has a unique number within the sensor array.
 732:Generated_Source\PSoC4/capsense.c **** *  This number is assigned by the CapSense customizer in sequence.
 733:Generated_Source\PSoC4/capsense.c **** *  Raw data can be used to perform calculations outside of the CapSense
 734:Generated_Source\PSoC4/capsense.c **** *  provided framework.
 735:Generated_Source\PSoC4/capsense.c **** *
 736:Generated_Source\PSoC4/capsense.c **** * Parameters:
 737:Generated_Source\PSoC4/capsense.c **** *  sensor:  Sensor number.
 738:Generated_Source\PSoC4/capsense.c **** *
 739:Generated_Source\PSoC4/capsense.c **** * Return:
 740:Generated_Source\PSoC4/capsense.c **** *  Returns the current raw data value for a defined sensor number.
 741:Generated_Source\PSoC4/capsense.c **** *
 742:Generated_Source\PSoC4/capsense.c **** * Global Variables:
 743:Generated_Source\PSoC4/capsense.c **** *  capsense_sensorRaw[] - used to store sensors raw data.
 744:Generated_Source\PSoC4/capsense.c **** *
 745:Generated_Source\PSoC4/capsense.c **** * Side Effects:
 746:Generated_Source\PSoC4/capsense.c **** *  None
 747:Generated_Source\PSoC4/capsense.c **** *
 748:Generated_Source\PSoC4/capsense.c **** *******************************************************************************/
 749:Generated_Source\PSoC4/capsense.c **** uint16 capsense_ReadSensorRaw(uint32 sensor)
 750:Generated_Source\PSoC4/capsense.c **** {
 273              		.loc 1 750 0
 274              		.cfi_startproc
 275              		@ args = 0, pretend = 0, frame = 0
 276              		@ frame_needed = 0, uses_anonymous_args = 0
ARM GAS  C:\Users\puria\AppData\Local\Temp\ccYRkNAS.s 			page 19


 277              		@ link register save eliminated.
 278              	.LVL26:
 751:Generated_Source\PSoC4/capsense.c ****     return capsense_sensorRaw[sensor];
 279              		.loc 1 751 0
 280 0000 4000     		lsls	r0, r0, #1
 281              	.LVL27:
 282 0002 024B     		ldr	r3, .L14
 283 0004 1818     		adds	r0, r3, r0
 284 0006 8088     		ldrh	r0, [r0, #4]
 752:Generated_Source\PSoC4/capsense.c **** }
 285              		.loc 1 752 0
 286              		@ sp needed
 287 0008 7047     		bx	lr
 288              	.L15:
 289 000a C046     		.align	2
 290              	.L14:
 291 000c 00000000 		.word	.LANCHOR0
 292              		.cfi_endproc
 293              	.LFE44:
 294              		.size	capsense_ReadSensorRaw, .-capsense_ReadSensorRaw
 295              		.section	.text.capsense_WriteSensorRaw,"ax",%progbits
 296              		.align	2
 297              		.global	capsense_WriteSensorRaw
 298              		.code	16
 299              		.thumb_func
 300              		.type	capsense_WriteSensorRaw, %function
 301              	capsense_WriteSensorRaw:
 302              	.LFB45:
 753:Generated_Source\PSoC4/capsense.c **** 
 754:Generated_Source\PSoC4/capsense.c **** 
 755:Generated_Source\PSoC4/capsense.c **** /*******************************************************************************
 756:Generated_Source\PSoC4/capsense.c **** * Function Name: capsense_WriteSensorRaw
 757:Generated_Source\PSoC4/capsense.c **** ********************************************************************************
 758:Generated_Source\PSoC4/capsense.c **** *
 759:Generated_Source\PSoC4/capsense.c **** * Summary:
 760:Generated_Source\PSoC4/capsense.c **** *  This API writes the raw count value passed as an argument to the sensor Raw count array.
 761:Generated_Source\PSoC4/capsense.c **** *
 762:Generated_Source\PSoC4/capsense.c **** * Parameters:
 763:Generated_Source\PSoC4/capsense.c **** *  sensor:  Sensor number.
 764:Generated_Source\PSoC4/capsense.c **** *  value: Raw count value.
 765:Generated_Source\PSoC4/capsense.c **** *
 766:Generated_Source\PSoC4/capsense.c **** * Global Variables:
 767:Generated_Source\PSoC4/capsense.c **** *  capsense_sensorRaw[] - used to store sensors raw data.
 768:Generated_Source\PSoC4/capsense.c **** *
 769:Generated_Source\PSoC4/capsense.c **** * Return:
 770:Generated_Source\PSoC4/capsense.c **** *  None
 771:Generated_Source\PSoC4/capsense.c **** *
 772:Generated_Source\PSoC4/capsense.c **** * Side Effects:
 773:Generated_Source\PSoC4/capsense.c **** *  None
 774:Generated_Source\PSoC4/capsense.c **** *
 775:Generated_Source\PSoC4/capsense.c **** *******************************************************************************/
 776:Generated_Source\PSoC4/capsense.c **** void capsense_WriteSensorRaw(uint32 sensor, uint16 value)
 777:Generated_Source\PSoC4/capsense.c **** {
 303              		.loc 1 777 0
 304              		.cfi_startproc
 305              		@ args = 0, pretend = 0, frame = 0
 306              		@ frame_needed = 0, uses_anonymous_args = 0
ARM GAS  C:\Users\puria\AppData\Local\Temp\ccYRkNAS.s 			page 20


 307              		@ link register save eliminated.
 308              	.LVL28:
 778:Generated_Source\PSoC4/capsense.c ****     capsense_sensorRaw[sensor] = value;
 309              		.loc 1 778 0
 310 0000 4000     		lsls	r0, r0, #1
 311              	.LVL29:
 312 0002 024B     		ldr	r3, .L17
 313 0004 1818     		adds	r0, r3, r0
 314 0006 8180     		strh	r1, [r0, #4]
 779:Generated_Source\PSoC4/capsense.c **** }
 315              		.loc 1 779 0
 316              		@ sp needed
 317 0008 7047     		bx	lr
 318              	.L18:
 319 000a C046     		.align	2
 320              	.L17:
 321 000c 00000000 		.word	.LANCHOR0
 322              		.cfi_endproc
 323              	.LFE45:
 324              		.size	capsense_WriteSensorRaw, .-capsense_WriteSensorRaw
 325              		.section	.text.capsense_SetScanResolution,"ax",%progbits
 326              		.align	2
 327              		.global	capsense_SetScanResolution
 328              		.code	16
 329              		.thumb_func
 330              		.type	capsense_SetScanResolution, %function
 331              	capsense_SetScanResolution:
 332              	.LFB46:
 780:Generated_Source\PSoC4/capsense.c **** 
 781:Generated_Source\PSoC4/capsense.c **** 
 782:Generated_Source\PSoC4/capsense.c **** #if (capsense_TUNING_METHOD != capsense__TUNING_NONE)
 783:Generated_Source\PSoC4/capsense.c ****     /*******************************************************************************
 784:Generated_Source\PSoC4/capsense.c ****     * Function Name: capsense_SetScanResolution
 785:Generated_Source\PSoC4/capsense.c ****     ********************************************************************************
 786:Generated_Source\PSoC4/capsense.c ****     *
 787:Generated_Source\PSoC4/capsense.c ****     * Summary:
 788:Generated_Source\PSoC4/capsense.c ****     *  Sets a value of the sensor scan resolution for a widget.
 789:Generated_Source\PSoC4/capsense.c ****     *  The MIN resolution can be set 8-bit. The MAX Resolution can be set 16 bit.
 790:Generated_Source\PSoC4/capsense.c ****     *  This function is not available for the tuning mode "None".
 791:Generated_Source\PSoC4/capsense.c ****     *
 792:Generated_Source\PSoC4/capsense.c ****     * Parameters:
 793:Generated_Source\PSoC4/capsense.c ****     *  widget:     Widget index.
 794:Generated_Source\PSoC4/capsense.c ****     *  resolution: Represents the resolution value. The following defines which are available in th
 795:Generated_Source\PSoC4/capsense.c ****     *              capsense.h file should be used:
 796:Generated_Source\PSoC4/capsense.c ****     *              capsense_RESOLUTION_6_BITS
 797:Generated_Source\PSoC4/capsense.c ****     *              capsense_RESOLUTION_7_BITS
 798:Generated_Source\PSoC4/capsense.c ****     *              capsense_RESOLUTION_8_BITS
 799:Generated_Source\PSoC4/capsense.c ****     *              capsense_RESOLUTION_9_BITS
 800:Generated_Source\PSoC4/capsense.c ****     *              capsense_RESOLUTION_10_BITS
 801:Generated_Source\PSoC4/capsense.c ****     *              capsense_RESOLUTION_11_BITS
 802:Generated_Source\PSoC4/capsense.c ****     *              capsense_RESOLUTION_12_BITS
 803:Generated_Source\PSoC4/capsense.c ****     *              capsense_RESOLUTION_13_BITS
 804:Generated_Source\PSoC4/capsense.c ****     *              capsense_RESOLUTION_14_BITS
 805:Generated_Source\PSoC4/capsense.c ****     *              capsense_RESOLUTION_15_BITS
 806:Generated_Source\PSoC4/capsense.c ****     *              capsense_RESOLUTION_16_BITS
 807:Generated_Source\PSoC4/capsense.c ****     *
 808:Generated_Source\PSoC4/capsense.c ****     * Return:
ARM GAS  C:\Users\puria\AppData\Local\Temp\ccYRkNAS.s 			page 21


 809:Generated_Source\PSoC4/capsense.c ****     *  None
 810:Generated_Source\PSoC4/capsense.c ****     *
 811:Generated_Source\PSoC4/capsense.c ****     * Global Variables:
 812:Generated_Source\PSoC4/capsense.c ****     *  capsense_widgetResolution[] - used to store scan resolution of each widget.
 813:Generated_Source\PSoC4/capsense.c ****     *
 814:Generated_Source\PSoC4/capsense.c ****     * Side Effects:
 815:Generated_Source\PSoC4/capsense.c ****     *  None
 816:Generated_Source\PSoC4/capsense.c ****     *
 817:Generated_Source\PSoC4/capsense.c ****     *******************************************************************************/
 818:Generated_Source\PSoC4/capsense.c ****     void capsense_SetScanResolution(uint32 widget, uint32 resolution)
 819:Generated_Source\PSoC4/capsense.c ****     {
 333              		.loc 1 819 0
 334              		.cfi_startproc
 335              		@ args = 0, pretend = 0, frame = 0
 336              		@ frame_needed = 0, uses_anonymous_args = 0
 337              		@ link register save eliminated.
 338              	.LVL30:
 820:Generated_Source\PSoC4/capsense.c ****         capsense_widgetResolution[widget] = resolution;
 339              		.loc 1 820 0
 340 0000 8000     		lsls	r0, r0, #2
 341              	.LVL31:
 342 0002 014B     		ldr	r3, .L20
 343 0004 C150     		str	r1, [r0, r3]
 821:Generated_Source\PSoC4/capsense.c ****     }
 344              		.loc 1 821 0
 345              		@ sp needed
 346 0006 7047     		bx	lr
 347              	.L21:
 348              		.align	2
 349              	.L20:
 350 0008 00000000 		.word	.LANCHOR1
 351              		.cfi_endproc
 352              	.LFE46:
 353              		.size	capsense_SetScanResolution, .-capsense_SetScanResolution
 354              		.section	.text.capsense_GetScanResolution,"ax",%progbits
 355              		.align	2
 356              		.global	capsense_GetScanResolution
 357              		.code	16
 358              		.thumb_func
 359              		.type	capsense_GetScanResolution, %function
 360              	capsense_GetScanResolution:
 361              	.LFB47:
 822:Generated_Source\PSoC4/capsense.c **** #endif /* (capsense_TUNING_METHOD != capsense__TUNING_NONE) */
 823:Generated_Source\PSoC4/capsense.c **** 
 824:Generated_Source\PSoC4/capsense.c **** 
 825:Generated_Source\PSoC4/capsense.c **** /*******************************************************************************
 826:Generated_Source\PSoC4/capsense.c **** * Function Name: capsense_GetScanResolution
 827:Generated_Source\PSoC4/capsense.c **** ********************************************************************************
 828:Generated_Source\PSoC4/capsense.c **** *
 829:Generated_Source\PSoC4/capsense.c **** * Summary:
 830:Generated_Source\PSoC4/capsense.c **** *  Returns the resolution value for the appropriate sensor.
 831:Generated_Source\PSoC4/capsense.c **** *  This function is not available for tuning mode "None".
 832:Generated_Source\PSoC4/capsense.c **** *
 833:Generated_Source\PSoC4/capsense.c **** * Parameters:
 834:Generated_Source\PSoC4/capsense.c **** *  widget:     Widget index.
 835:Generated_Source\PSoC4/capsense.c **** *
 836:Generated_Source\PSoC4/capsense.c **** * Return:
ARM GAS  C:\Users\puria\AppData\Local\Temp\ccYRkNAS.s 			page 22


 837:Generated_Source\PSoC4/capsense.c **** *  resolution: Returns the resolution value for the appropriate sensor.
 838:Generated_Source\PSoC4/capsense.c **** *              The resolution values are defined in the capsense.h file
 839:Generated_Source\PSoC4/capsense.c **** *              The defines are encountered below:
 840:Generated_Source\PSoC4/capsense.c **** *              capsense_RESOLUTION_6_BITS
 841:Generated_Source\PSoC4/capsense.c **** *              capsense_RESOLUTION_7_BITS
 842:Generated_Source\PSoC4/capsense.c **** *              capsense_RESOLUTION_8_BITS
 843:Generated_Source\PSoC4/capsense.c **** *              capsense_RESOLUTION_9_BITS
 844:Generated_Source\PSoC4/capsense.c **** *              capsense_RESOLUTION_10_BITS
 845:Generated_Source\PSoC4/capsense.c **** *              capsense_RESOLUTION_11_BITS
 846:Generated_Source\PSoC4/capsense.c **** *              capsense_RESOLUTION_12_BITS
 847:Generated_Source\PSoC4/capsense.c **** *              capsense_RESOLUTION_13_BITS
 848:Generated_Source\PSoC4/capsense.c **** *              capsense_RESOLUTION_14_BITS
 849:Generated_Source\PSoC4/capsense.c **** *              capsense_RESOLUTION_15_BITS
 850:Generated_Source\PSoC4/capsense.c **** *              capsense_RESOLUTION_16_BITS
 851:Generated_Source\PSoC4/capsense.c **** *
 852:Generated_Source\PSoC4/capsense.c **** * Global Variables:
 853:Generated_Source\PSoC4/capsense.c **** *  capsense_widgetResolution[] - used to store scan resolution of every widget.
 854:Generated_Source\PSoC4/capsense.c **** *
 855:Generated_Source\PSoC4/capsense.c **** * Side Effects:
 856:Generated_Source\PSoC4/capsense.c **** *  None
 857:Generated_Source\PSoC4/capsense.c **** *
 858:Generated_Source\PSoC4/capsense.c **** *******************************************************************************/
 859:Generated_Source\PSoC4/capsense.c **** uint32 capsense_GetScanResolution(uint32 widget)
 860:Generated_Source\PSoC4/capsense.c **** {
 362              		.loc 1 860 0
 363              		.cfi_startproc
 364              		@ args = 0, pretend = 0, frame = 0
 365              		@ frame_needed = 0, uses_anonymous_args = 0
 366              		@ link register save eliminated.
 367              	.LVL32:
 861:Generated_Source\PSoC4/capsense.c ****     return(capsense_widgetResolution[widget]);
 368              		.loc 1 861 0
 369 0000 8000     		lsls	r0, r0, #2
 370              	.LVL33:
 371 0002 014B     		ldr	r3, .L23
 372 0004 C058     		ldr	r0, [r0, r3]
 862:Generated_Source\PSoC4/capsense.c **** }
 373              		.loc 1 862 0
 374              		@ sp needed
 375 0006 7047     		bx	lr
 376              	.L24:
 377              		.align	2
 378              	.L23:
 379 0008 00000000 		.word	.LANCHOR1
 380              		.cfi_endproc
 381              	.LFE47:
 382              		.size	capsense_GetScanResolution, .-capsense_GetScanResolution
 383              		.section	.text.capsense_EnableSensor,"ax",%progbits
 384              		.align	2
 385              		.global	capsense_EnableSensor
 386              		.code	16
 387              		.thumb_func
 388              		.type	capsense_EnableSensor, %function
 389              	capsense_EnableSensor:
 390              	.LFB49:
 863:Generated_Source\PSoC4/capsense.c **** 
 864:Generated_Source\PSoC4/capsense.c **** 
ARM GAS  C:\Users\puria\AppData\Local\Temp\ccYRkNAS.s 			page 23


 865:Generated_Source\PSoC4/capsense.c **** /*******************************************************************************
 866:Generated_Source\PSoC4/capsense.c **** * Function Name: capsense_ClearSensors
 867:Generated_Source\PSoC4/capsense.c **** ********************************************************************************
 868:Generated_Source\PSoC4/capsense.c **** *
 869:Generated_Source\PSoC4/capsense.c **** * Summary:
 870:Generated_Source\PSoC4/capsense.c **** *  Resets all the sensors to the non-sampling state by sequentially disconnecting
 871:Generated_Source\PSoC4/capsense.c **** *  all the sensors from Analog MUX Bus and putting them to an inactive state.
 872:Generated_Source\PSoC4/capsense.c **** *
 873:Generated_Source\PSoC4/capsense.c **** * Parameters:
 874:Generated_Source\PSoC4/capsense.c **** *  None
 875:Generated_Source\PSoC4/capsense.c **** *
 876:Generated_Source\PSoC4/capsense.c **** * Return:
 877:Generated_Source\PSoC4/capsense.c **** *  None
 878:Generated_Source\PSoC4/capsense.c **** *
 879:Generated_Source\PSoC4/capsense.c **** * Global Variables:
 880:Generated_Source\PSoC4/capsense.c **** *  None
 881:Generated_Source\PSoC4/capsense.c **** *
 882:Generated_Source\PSoC4/capsense.c **** * Side Effects:
 883:Generated_Source\PSoC4/capsense.c **** *  None
 884:Generated_Source\PSoC4/capsense.c **** *
 885:Generated_Source\PSoC4/capsense.c **** *******************************************************************************/
 886:Generated_Source\PSoC4/capsense.c **** void capsense_ClearSensors(void)
 887:Generated_Source\PSoC4/capsense.c **** {
 888:Generated_Source\PSoC4/capsense.c ****     uint32 snsIndex;
 889:Generated_Source\PSoC4/capsense.c **** 
 890:Generated_Source\PSoC4/capsense.c ****     for (snsIndex = 0u; snsIndex < capsense_TOTAL_SENSOR_COUNT; snsIndex++)
 891:Generated_Source\PSoC4/capsense.c ****     {
 892:Generated_Source\PSoC4/capsense.c ****         capsense_DisableScanSlot(snsIndex);
 893:Generated_Source\PSoC4/capsense.c ****     }
 894:Generated_Source\PSoC4/capsense.c **** }
 895:Generated_Source\PSoC4/capsense.c **** 
 896:Generated_Source\PSoC4/capsense.c **** 
 897:Generated_Source\PSoC4/capsense.c **** #if (capsense_IS_COMPLEX_SCANSLOTS)
 898:Generated_Source\PSoC4/capsense.c ****     /*******************************************************************************
 899:Generated_Source\PSoC4/capsense.c ****     * Function Name: capsense_EnableScanSlot
 900:Generated_Source\PSoC4/capsense.c ****     ********************************************************************************
 901:Generated_Source\PSoC4/capsense.c ****     *
 902:Generated_Source\PSoC4/capsense.c ****     * Summary:
 903:Generated_Source\PSoC4/capsense.c ****     *  Configures the selected slot to measure during the next measurement
 904:Generated_Source\PSoC4/capsense.c ****     *  cycle. The corresponding pin/pins are set to Analog High-Z mode and
 905:Generated_Source\PSoC4/capsense.c ****     *  connected to the Analog Mux Bus. This also enables the comparator function.
 906:Generated_Source\PSoC4/capsense.c ****     *
 907:Generated_Source\PSoC4/capsense.c ****     * Parameters:
 908:Generated_Source\PSoC4/capsense.c ****     *  slot:  Slot number.
 909:Generated_Source\PSoC4/capsense.c ****     *
 910:Generated_Source\PSoC4/capsense.c ****     * Return:
 911:Generated_Source\PSoC4/capsense.c ****     *  None
 912:Generated_Source\PSoC4/capsense.c ****     *
 913:Generated_Source\PSoC4/capsense.c ****     * Global Constants:
 914:Generated_Source\PSoC4/capsense.c ****     *  capsense_portTable[]  - used to store the port number that pin
 915:Generated_Source\PSoC4/capsense.c ****     *  belongs to for each sensor.
 916:Generated_Source\PSoC4/capsense.c ****     *  capsense_maskTable[]  - used to store the pin within the port for
 917:Generated_Source\PSoC4/capsense.c ****     *  each sensor.
 918:Generated_Source\PSoC4/capsense.c ****     *  capsense_indexTable[] - used to store indexes of complex sensors.
 919:Generated_Source\PSoC4/capsense.c ****     *  The offset and position in this array are stored in a port and mask table for
 920:Generated_Source\PSoC4/capsense.c ****     *  complex sensors.
 921:Generated_Source\PSoC4/capsense.c ****     *  Bit 7 (msb) is used to define the sensor type: single or complex.
ARM GAS  C:\Users\puria\AppData\Local\Temp\ccYRkNAS.s 			page 24


 922:Generated_Source\PSoC4/capsense.c ****     *
 923:Generated_Source\PSoC4/capsense.c ****     * Side Effects:
 924:Generated_Source\PSoC4/capsense.c ****     *  None
 925:Generated_Source\PSoC4/capsense.c ****     *
 926:Generated_Source\PSoC4/capsense.c ****     *******************************************************************************/
 927:Generated_Source\PSoC4/capsense.c ****     void capsense_EnableScanSlot(uint32 slot)
 928:Generated_Source\PSoC4/capsense.c ****     {
 929:Generated_Source\PSoC4/capsense.c ****         uint8 j;
 930:Generated_Source\PSoC4/capsense.c ****         uint8 snsNumber;
 931:Generated_Source\PSoC4/capsense.c ****         const uint8 *index;
 932:Generated_Source\PSoC4/capsense.c ****         /* Read sensor type: single or complex */
 933:Generated_Source\PSoC4/capsense.c ****         uint8 snsType = capsense_portTable[slot];
 934:Generated_Source\PSoC4/capsense.c **** 
 935:Generated_Source\PSoC4/capsense.c ****         /* Check if sensor is complex */
 936:Generated_Source\PSoC4/capsense.c ****         if ((snsType & capsense_COMPLEX_SS_FLAG) == 0u)
 937:Generated_Source\PSoC4/capsense.c ****         {
 938:Generated_Source\PSoC4/capsense.c ****             /* Enable sensor (single) */
 939:Generated_Source\PSoC4/capsense.c ****             capsense_EnableSensor(slot);
 940:Generated_Source\PSoC4/capsense.c ****         }
 941:Generated_Source\PSoC4/capsense.c ****         else
 942:Generated_Source\PSoC4/capsense.c ****         {
 943:Generated_Source\PSoC4/capsense.c ****             /* Enable complex sensor */
 944:Generated_Source\PSoC4/capsense.c ****             snsType &= ~capsense_COMPLEX_SS_FLAG;
 945:Generated_Source\PSoC4/capsense.c ****             index = &capsense_indexTable[snsType];
 946:Generated_Source\PSoC4/capsense.c ****             snsNumber = capsense_maskTable[slot];
 947:Generated_Source\PSoC4/capsense.c **** 
 948:Generated_Source\PSoC4/capsense.c ****             for (j = 0u; j < snsNumber; j++)
 949:Generated_Source\PSoC4/capsense.c ****             {
 950:Generated_Source\PSoC4/capsense.c ****                 capsense_EnableSensor(index[j]);
 951:Generated_Source\PSoC4/capsense.c ****             }
 952:Generated_Source\PSoC4/capsense.c ****         }
 953:Generated_Source\PSoC4/capsense.c ****     }
 954:Generated_Source\PSoC4/capsense.c **** 
 955:Generated_Source\PSoC4/capsense.c **** 
 956:Generated_Source\PSoC4/capsense.c ****     /*******************************************************************************
 957:Generated_Source\PSoC4/capsense.c ****     * Function Name: capsense_DisableScanSlot
 958:Generated_Source\PSoC4/capsense.c ****     ********************************************************************************
 959:Generated_Source\PSoC4/capsense.c ****     *
 960:Generated_Source\PSoC4/capsense.c ****     * Summary:
 961:Generated_Source\PSoC4/capsense.c ****     *  Disables the selected slot. The corresponding pin/pins is/are disconnected
 962:Generated_Source\PSoC4/capsense.c ****     *  from the Analog Mux Bus and connected to GND, High_Z or Shield electrode.
 963:Generated_Source\PSoC4/capsense.c ****     *
 964:Generated_Source\PSoC4/capsense.c ****     * Parameters:
 965:Generated_Source\PSoC4/capsense.c ****     *  slot:  Slot number.
 966:Generated_Source\PSoC4/capsense.c ****     *
 967:Generated_Source\PSoC4/capsense.c ****     * Return:
 968:Generated_Source\PSoC4/capsense.c ****     *  None
 969:Generated_Source\PSoC4/capsense.c ****     *
 970:Generated_Source\PSoC4/capsense.c ****     * Global Variables:
 971:Generated_Source\PSoC4/capsense.c ****     *  capsense_portTable[]  - used to store the port number that pin
 972:Generated_Source\PSoC4/capsense.c ****     *  belongs to for each sensor.
 973:Generated_Source\PSoC4/capsense.c ****     *  capsense_maskTable[]  - used to store the pin within the port for
 974:Generated_Source\PSoC4/capsense.c ****     *  each sensor.
 975:Generated_Source\PSoC4/capsense.c ****     *  capsense_indexTable[] - used to store indexes of complex sensors.
 976:Generated_Source\PSoC4/capsense.c ****     *  The offset and position in this array are stored in a port and mask table for
 977:Generated_Source\PSoC4/capsense.c ****     *  complex sensors.
 978:Generated_Source\PSoC4/capsense.c ****     *  7bit(msb) is used to define the sensor type: single or complex.
ARM GAS  C:\Users\puria\AppData\Local\Temp\ccYRkNAS.s 			page 25


 979:Generated_Source\PSoC4/capsense.c ****     *
 980:Generated_Source\PSoC4/capsense.c ****     * Side Effects:
 981:Generated_Source\PSoC4/capsense.c ****     *  None
 982:Generated_Source\PSoC4/capsense.c ****     *
 983:Generated_Source\PSoC4/capsense.c ****     *******************************************************************************/
 984:Generated_Source\PSoC4/capsense.c ****     void capsense_DisableScanSlot(uint32 slot)
 985:Generated_Source\PSoC4/capsense.c ****     {
 986:Generated_Source\PSoC4/capsense.c ****         uint8 j;
 987:Generated_Source\PSoC4/capsense.c ****         uint8 snsNumber;
 988:Generated_Source\PSoC4/capsense.c ****         const uint8 *index;
 989:Generated_Source\PSoC4/capsense.c **** 
 990:Generated_Source\PSoC4/capsense.c ****         /* Read sensor type: single or complex */
 991:Generated_Source\PSoC4/capsense.c ****         uint8 snsType = capsense_portTable[slot];
 992:Generated_Source\PSoC4/capsense.c **** 
 993:Generated_Source\PSoC4/capsense.c ****         /* Check if sensor is complex */
 994:Generated_Source\PSoC4/capsense.c ****         if ((snsType & capsense_COMPLEX_SS_FLAG) == 0u)
 995:Generated_Source\PSoC4/capsense.c ****         {
 996:Generated_Source\PSoC4/capsense.c ****             /* Disable sensor (single) */
 997:Generated_Source\PSoC4/capsense.c ****             capsense_DisableSensor(slot);
 998:Generated_Source\PSoC4/capsense.c ****         }
 999:Generated_Source\PSoC4/capsense.c ****         else
1000:Generated_Source\PSoC4/capsense.c ****         {
1001:Generated_Source\PSoC4/capsense.c ****             /* Disable complex sensor */
1002:Generated_Source\PSoC4/capsense.c ****             snsType &= ~capsense_COMPLEX_SS_FLAG;
1003:Generated_Source\PSoC4/capsense.c ****             index = &capsense_indexTable[snsType];
1004:Generated_Source\PSoC4/capsense.c ****             snsNumber = capsense_maskTable[slot];
1005:Generated_Source\PSoC4/capsense.c **** 
1006:Generated_Source\PSoC4/capsense.c ****             for (j=0; j < snsNumber; j++)
1007:Generated_Source\PSoC4/capsense.c ****             {
1008:Generated_Source\PSoC4/capsense.c ****                 capsense_DisableSensor(index[j]);
1009:Generated_Source\PSoC4/capsense.c ****             }
1010:Generated_Source\PSoC4/capsense.c ****         }
1011:Generated_Source\PSoC4/capsense.c ****     }
1012:Generated_Source\PSoC4/capsense.c **** #endif  /* capsense_IS_COMPLEX_SCANSLOTS */
1013:Generated_Source\PSoC4/capsense.c **** 
1014:Generated_Source\PSoC4/capsense.c **** 
1015:Generated_Source\PSoC4/capsense.c **** /*******************************************************************************
1016:Generated_Source\PSoC4/capsense.c **** * Function Name: capsense_EnableSensor
1017:Generated_Source\PSoC4/capsense.c **** ********************************************************************************
1018:Generated_Source\PSoC4/capsense.c **** *
1019:Generated_Source\PSoC4/capsense.c **** * Summary:
1020:Generated_Source\PSoC4/capsense.c **** *  Configures the selected sensor to measure during the next measurement cycle.
1021:Generated_Source\PSoC4/capsense.c **** *  The corresponding pins are set to Analog High-Z mode and connected to the
1022:Generated_Source\PSoC4/capsense.c **** *  Analog Mux Bus. This also enables the comparator function.
1023:Generated_Source\PSoC4/capsense.c **** *
1024:Generated_Source\PSoC4/capsense.c **** * Parameters:
1025:Generated_Source\PSoC4/capsense.c **** *  sensor:  Sensor number.
1026:Generated_Source\PSoC4/capsense.c **** *
1027:Generated_Source\PSoC4/capsense.c **** * Return:
1028:Generated_Source\PSoC4/capsense.c **** *  None
1029:Generated_Source\PSoC4/capsense.c **** *
1030:Generated_Source\PSoC4/capsense.c **** * Global Variables:
1031:Generated_Source\PSoC4/capsense.c **** *  capsense_portTable[] - used to store the port number that pin
1032:Generated_Source\PSoC4/capsense.c **** *  belongs to for each sensor.
1033:Generated_Source\PSoC4/capsense.c **** *  capsense_pinShiftTbl[] - used to store position of pin that
1034:Generated_Source\PSoC4/capsense.c **** *  configured as sensor in port.
1035:Generated_Source\PSoC4/capsense.c **** *  capsense_prtSelTbl[] - Contains pointers to the HSIOM
ARM GAS  C:\Users\puria\AppData\Local\Temp\ccYRkNAS.s 			page 26


1036:Generated_Source\PSoC4/capsense.c **** *  registers for each port.
1037:Generated_Source\PSoC4/capsense.c **** *  capsense_PrtCfgTb[] - Contains pointers to the port config
1038:Generated_Source\PSoC4/capsense.c **** *  registers for each port.
1039:Generated_Source\PSoC4/capsense.c **** *
1040:Generated_Source\PSoC4/capsense.c **** * Side Effects:
1041:Generated_Source\PSoC4/capsense.c **** *  None
1042:Generated_Source\PSoC4/capsense.c **** *
1043:Generated_Source\PSoC4/capsense.c **** *******************************************************************************/
1044:Generated_Source\PSoC4/capsense.c **** void capsense_EnableSensor(uint32 sensor)
1045:Generated_Source\PSoC4/capsense.c **** {
 391              		.loc 1 1045 0
 392              		.cfi_startproc
 393              		@ args = 0, pretend = 0, frame = 0
 394              		@ frame_needed = 0, uses_anonymous_args = 0
 395              	.LVL34:
 396 0000 F8B5     		push	{r3, r4, r5, r6, r7, lr}
 397              		.cfi_def_cfa_offset 24
 398              		.cfi_offset 3, -24
 399              		.cfi_offset 4, -20
 400              		.cfi_offset 5, -16
 401              		.cfi_offset 6, -12
 402              		.cfi_offset 7, -8
 403              		.cfi_offset 14, -4
1046:Generated_Source\PSoC4/capsense.c ****     uint8  pinModeShift;
1047:Generated_Source\PSoC4/capsense.c ****     uint8  pinHSIOMShift;
1048:Generated_Source\PSoC4/capsense.c ****     uint8 interruptState;
1049:Generated_Source\PSoC4/capsense.c ****     uint32 newRegisterValue;
1050:Generated_Source\PSoC4/capsense.c ****     uint32 port;
1051:Generated_Source\PSoC4/capsense.c **** 
1052:Generated_Source\PSoC4/capsense.c ****     port = (uint32) capsense_portTable[sensor];
 404              		.loc 1 1052 0
 405 0002 104F     		ldr	r7, .L26
 406 0004 3E5C     		ldrb	r6, [r7, r0]
 407              	.LVL35:
1053:Generated_Source\PSoC4/capsense.c ****     pinModeShift = capsense_pinShiftTbl[sensor]  * capsense_PC_PIN_CFG_SIZE;
 408              		.loc 1 1053 0
 409 0006 3818     		adds	r0, r7, r0
 410              	.LVL36:
 411 0008 037A     		ldrb	r3, [r0, #8]
 412 000a 5D00     		lsls	r5, r3, #1
 413 000c 5D19     		adds	r5, r3, r5
 414 000e EDB2     		uxtb	r5, r5
 415              	.LVL37:
1054:Generated_Source\PSoC4/capsense.c ****     pinHSIOMShift = capsense_pinShiftTbl[sensor] * capsense_HSIOM_PIN_CFG_SIZE;
 416              		.loc 1 1054 0
 417 0010 9B00     		lsls	r3, r3, #2
 418 0012 DCB2     		uxtb	r4, r3
 419              	.LVL38:
1055:Generated_Source\PSoC4/capsense.c **** 
1056:Generated_Source\PSoC4/capsense.c ****     interruptState = CyEnterCriticalSection();
 420              		.loc 1 1056 0
 421 0014 FFF7FEFF 		bl	CyEnterCriticalSection
 422              	.LVL39:
1057:Generated_Source\PSoC4/capsense.c **** 
1058:Generated_Source\PSoC4/capsense.c ****     newRegisterValue = *capsense_prtSelTbl[port];
 423              		.loc 1 1058 0
 424 0018 B300     		lsls	r3, r6, #2
ARM GAS  C:\Users\puria\AppData\Local\Temp\ccYRkNAS.s 			page 27


 425 001a FB18     		adds	r3, r7, r3
 426 001c 1E69     		ldr	r6, [r3, #16]
 427              	.LVL40:
 428 001e 3268     		ldr	r2, [r6]
 429              	.LVL41:
1059:Generated_Source\PSoC4/capsense.c ****     newRegisterValue &= ~(capsense_CSD_HSIOM_MASK << pinHSIOMShift);
 430              		.loc 1 1059 0
 431 0020 0F21     		movs	r1, #15
 432 0022 A140     		lsls	r1, r1, r4
 433 0024 8A43     		bics	r2, r1
 434              	.LVL42:
 435 0026 1100     		movs	r1, r2
 436              	.LVL43:
1060:Generated_Source\PSoC4/capsense.c ****     newRegisterValue |= (uint32)((uint32)capsense_CSD_SENSE_PORT_MODE << pinHSIOMShift);
 437              		.loc 1 1060 0
 438 0028 0422     		movs	r2, #4
 439 002a A240     		lsls	r2, r2, r4
 440 002c 0A43     		orrs	r2, r1
 441              	.LVL44:
1061:Generated_Source\PSoC4/capsense.c **** 
1062:Generated_Source\PSoC4/capsense.c ****     *capsense_prtCfgTbl[port] &= (uint32)~((uint32)capsense_CSD_PIN_MODE_MASK << pinModeShift);
 442              		.loc 1 1062 0
 443 002e DC6A     		ldr	r4, [r3, #44]
 444              	.LVL45:
 445 0030 2368     		ldr	r3, [r4]
 446 0032 0721     		movs	r1, #7
 447 0034 A940     		lsls	r1, r1, r5
 448 0036 8B43     		bics	r3, r1
 449 0038 2360     		str	r3, [r4]
1063:Generated_Source\PSoC4/capsense.c ****     *capsense_prtSelTbl[port] = newRegisterValue;
 450              		.loc 1 1063 0
 451 003a 3260     		str	r2, [r6]
1064:Generated_Source\PSoC4/capsense.c **** 
1065:Generated_Source\PSoC4/capsense.c ****     CyExitCriticalSection(interruptState);
 452              		.loc 1 1065 0
 453 003c FFF7FEFF 		bl	CyExitCriticalSection
 454              	.LVL46:
1066:Generated_Source\PSoC4/capsense.c **** }
 455              		.loc 1 1066 0
 456              		@ sp needed
 457              	.LVL47:
 458              	.LVL48:
 459 0040 F8BD     		pop	{r3, r4, r5, r6, r7, pc}
 460              	.L27:
 461 0042 C046     		.align	2
 462              	.L26:
 463 0044 00000000 		.word	.LANCHOR2
 464              		.cfi_endproc
 465              	.LFE49:
 466              		.size	capsense_EnableSensor, .-capsense_EnableSensor
 467              		.section	.text.capsense_DisableSensor,"ax",%progbits
 468              		.align	2
 469              		.global	capsense_DisableSensor
 470              		.code	16
 471              		.thumb_func
 472              		.type	capsense_DisableSensor, %function
 473              	capsense_DisableSensor:
ARM GAS  C:\Users\puria\AppData\Local\Temp\ccYRkNAS.s 			page 28


 474              	.LFB50:
1067:Generated_Source\PSoC4/capsense.c **** 
1068:Generated_Source\PSoC4/capsense.c **** 
1069:Generated_Source\PSoC4/capsense.c **** /*******************************************************************************
1070:Generated_Source\PSoC4/capsense.c **** * Function Name: capsense_DisableSensor
1071:Generated_Source\PSoC4/capsense.c **** ********************************************************************************
1072:Generated_Source\PSoC4/capsense.c **** *
1073:Generated_Source\PSoC4/capsense.c **** * Summary:
1074:Generated_Source\PSoC4/capsense.c **** *  Disables the selected sensor. The corresponding pin is disconnected from the
1075:Generated_Source\PSoC4/capsense.c **** *  Analog Mux Bus and connected to GND, High_Z or Shield electrode.
1076:Generated_Source\PSoC4/capsense.c **** *
1077:Generated_Source\PSoC4/capsense.c **** * Parameters:
1078:Generated_Source\PSoC4/capsense.c **** *  sensor:  Sensor number
1079:Generated_Source\PSoC4/capsense.c **** *
1080:Generated_Source\PSoC4/capsense.c **** * Return:
1081:Generated_Source\PSoC4/capsense.c **** *  None
1082:Generated_Source\PSoC4/capsense.c **** *
1083:Generated_Source\PSoC4/capsense.c **** * Global Variables:
1084:Generated_Source\PSoC4/capsense.c **** *  capsense_portTable[] - used to store the port number that pin
1085:Generated_Source\PSoC4/capsense.c **** *  belongs to for each sensor.
1086:Generated_Source\PSoC4/capsense.c **** *  capsense_pinShiftTbl[] - used to store position of pin that
1087:Generated_Source\PSoC4/capsense.c **** *  configured as a sensor in the port.
1088:Generated_Source\PSoC4/capsense.c **** *  capsense_prtSelTbl[] - Contains pointers to the HSIOM
1089:Generated_Source\PSoC4/capsense.c **** *  registers for each port.
1090:Generated_Source\PSoC4/capsense.c **** *  capsense_PrtCfgTb[] - Contains pointers to the port config
1091:Generated_Source\PSoC4/capsense.c **** *  registers for each port.
1092:Generated_Source\PSoC4/capsense.c **** *
1093:Generated_Source\PSoC4/capsense.c **** * Side Effects:
1094:Generated_Source\PSoC4/capsense.c **** *  None
1095:Generated_Source\PSoC4/capsense.c **** *
1096:Generated_Source\PSoC4/capsense.c **** *******************************************************************************/
1097:Generated_Source\PSoC4/capsense.c **** void capsense_DisableSensor(uint32 sensor)
1098:Generated_Source\PSoC4/capsense.c **** {
 475              		.loc 1 1098 0
 476              		.cfi_startproc
 477              		@ args = 0, pretend = 0, frame = 0
 478              		@ frame_needed = 0, uses_anonymous_args = 0
 479              	.LVL49:
 480 0000 F8B5     		push	{r3, r4, r5, r6, r7, lr}
 481              		.cfi_def_cfa_offset 24
 482              		.cfi_offset 3, -24
 483              		.cfi_offset 4, -20
 484              		.cfi_offset 5, -16
 485              		.cfi_offset 6, -12
 486              		.cfi_offset 7, -8
 487              		.cfi_offset 14, -4
1099:Generated_Source\PSoC4/capsense.c ****     uint8 interruptState;
1100:Generated_Source\PSoC4/capsense.c ****     uint32 newRegisterValue;
1101:Generated_Source\PSoC4/capsense.c **** 
1102:Generated_Source\PSoC4/capsense.c ****     uint32 port = (uint32) capsense_portTable[sensor];
 488              		.loc 1 1102 0
 489 0002 194A     		ldr	r2, .L33
 490 0004 145C     		ldrb	r4, [r2, r0]
 491              	.LVL50:
1103:Generated_Source\PSoC4/capsense.c ****     uint8  pinHSIOMShift = capsense_pinShiftTbl[sensor] * capsense_HSIOM_PIN_CFG_SIZE;
 492              		.loc 1 1103 0
 493 0006 1318     		adds	r3, r2, r0
ARM GAS  C:\Users\puria\AppData\Local\Temp\ccYRkNAS.s 			page 29


 494 0008 1F7A     		ldrb	r7, [r3, #8]
 495 000a B900     		lsls	r1, r7, #2
 496 000c C9B2     		uxtb	r1, r1
 497              	.LVL51:
1104:Generated_Source\PSoC4/capsense.c ****     uint8  pinModeShift = capsense_pinShiftTbl[sensor]  * capsense_PC_PIN_CFG_SIZE;
 498              		.loc 1 1104 0
 499 000e 7D00     		lsls	r5, r7, #1
 500 0010 7D19     		adds	r5, r7, r5
 501 0012 EDB2     		uxtb	r5, r5
 502              	.LVL52:
1105:Generated_Source\PSoC4/capsense.c **** 
1106:Generated_Source\PSoC4/capsense.c ****     uint32 inactiveConnect = capsense_SNS_HIZANALOG_CONNECT;
1107:Generated_Source\PSoC4/capsense.c ****     uint32 sensorState = capsense_unscannedSnsDriveMode[sensor];
 503              		.loc 1 1107 0
 504 0014 154B     		ldr	r3, .L33+4
 505 0016 185C     		ldrb	r0, [r3, r0]
 506              	.LVL53:
1108:Generated_Source\PSoC4/capsense.c **** 
1109:Generated_Source\PSoC4/capsense.c ****     *capsense_prtSelTbl[port] &= ~(capsense_CSD_HSIOM_MASK << pinHSIOMShift);
 507              		.loc 1 1109 0
 508 0018 A300     		lsls	r3, r4, #2
 509 001a D318     		adds	r3, r2, r3
 510 001c 1E69     		ldr	r6, [r3, #16]
 511 001e 3368     		ldr	r3, [r6]
 512 0020 0F22     		movs	r2, #15
 513 0022 8A40     		lsls	r2, r2, r1
 514 0024 9343     		bics	r3, r2
 515 0026 3360     		str	r3, [r6]
1110:Generated_Source\PSoC4/capsense.c **** 
1111:Generated_Source\PSoC4/capsense.c ****     #if(capsense_IS_SHIELD_ENABLE != 0)
1112:Generated_Source\PSoC4/capsense.c ****     if(sensorState != (uint32)capsense__SHIELD)
1113:Generated_Source\PSoC4/capsense.c ****     {
1114:Generated_Source\PSoC4/capsense.c ****     #else
1115:Generated_Source\PSoC4/capsense.c ****         /* Connected to Ground if shield is disabled */
1116:Generated_Source\PSoC4/capsense.c ****         if(sensorState == (uint32)capsense__SHIELD)
 516              		.loc 1 1116 0
 517 0028 0228     		cmp	r0, #2
 518 002a 00D1     		bne	.L29
1117:Generated_Source\PSoC4/capsense.c ****         {
1118:Generated_Source\PSoC4/capsense.c ****             sensorState = (uint32)capsense__GROUND;
 519              		.loc 1 1118 0
 520 002c 0020     		movs	r0, #0
 521              	.LVL54:
 522              	.L29:
1119:Generated_Source\PSoC4/capsense.c ****         }
1120:Generated_Source\PSoC4/capsense.c ****     #endif /* (capsense_IS_SHIELD_ENABLE) */
1121:Generated_Source\PSoC4/capsense.c ****         if(sensorState != (uint32)capsense__HIZ_ANALOG)
 523              		.loc 1 1121 0
 524 002e 0128     		cmp	r0, #1
 525 0030 01D1     		bne	.L32
1106:Generated_Source\PSoC4/capsense.c ****     uint32 sensorState = capsense_unscannedSnsDriveMode[sensor];
 526              		.loc 1 1106 0
 527 0032 0026     		movs	r6, #0
 528 0034 00E0     		b	.L30
 529              	.L32:
1122:Generated_Source\PSoC4/capsense.c ****         {
1123:Generated_Source\PSoC4/capsense.c ****             /* Connected to Ground */
ARM GAS  C:\Users\puria\AppData\Local\Temp\ccYRkNAS.s 			page 30


1124:Generated_Source\PSoC4/capsense.c ****             inactiveConnect = (uint32)capsense_SNS_GROUND_CONNECT;
 530              		.loc 1 1124 0
 531 0036 0626     		movs	r6, #6
 532              	.L30:
 533              	.LVL55:
1125:Generated_Source\PSoC4/capsense.c ****         }
1126:Generated_Source\PSoC4/capsense.c **** 
1127:Generated_Source\PSoC4/capsense.c ****         interruptState = CyEnterCriticalSection();
 534              		.loc 1 1127 0
 535 0038 FFF7FEFF 		bl	CyEnterCriticalSection
 536              	.LVL56:
1128:Generated_Source\PSoC4/capsense.c **** 
1129:Generated_Source\PSoC4/capsense.c ****         /* Set drive mode */
1130:Generated_Source\PSoC4/capsense.c ****         newRegisterValue = *capsense_prtCfgTbl[port];
 537              		.loc 1 1130 0
 538 003c A400     		lsls	r4, r4, #2
 539              	.LVL57:
 540 003e 0A4B     		ldr	r3, .L33
 541              	.LVL58:
 542 0040 1C19     		adds	r4, r3, r4
 543 0042 E16A     		ldr	r1, [r4, #44]
 544 0044 0B68     		ldr	r3, [r1]
 545              	.LVL59:
1131:Generated_Source\PSoC4/capsense.c ****         newRegisterValue &= ~(capsense_CSD_PIN_MODE_MASK << pinModeShift);
 546              		.loc 1 1131 0
 547 0046 0722     		movs	r2, #7
 548 0048 AA40     		lsls	r2, r2, r5
 549 004a 9343     		bics	r3, r2
 550              	.LVL60:
 551 004c 1A00     		movs	r2, r3
 552              	.LVL61:
1132:Generated_Source\PSoC4/capsense.c ****         newRegisterValue |=  (uint32)(inactiveConnect << pinModeShift);
 553              		.loc 1 1132 0
 554 004e 3300     		movs	r3, r6
 555 0050 AB40     		lsls	r3, r3, r5
 556 0052 1343     		orrs	r3, r2
 557              	.LVL62:
1133:Generated_Source\PSoC4/capsense.c ****         *capsense_prtCfgTbl[port] =  newRegisterValue;
 558              		.loc 1 1133 0
 559 0054 0B60     		str	r3, [r1]
1134:Generated_Source\PSoC4/capsense.c **** 
1135:Generated_Source\PSoC4/capsense.c ****         CyExitCriticalSection(interruptState);
 560              		.loc 1 1135 0
 561 0056 FFF7FEFF 		bl	CyExitCriticalSection
 562              	.LVL63:
1136:Generated_Source\PSoC4/capsense.c **** 
1137:Generated_Source\PSoC4/capsense.c ****         *capsense_prtDRTbl[port]  &=  (uint32)~(uint32)((uint32)1u << capsense_pinShiftTbl[sensor])
 563              		.loc 1 1137 0
 564 005a A16C     		ldr	r1, [r4, #72]
 565 005c 0B68     		ldr	r3, [r1]
 566 005e 0122     		movs	r2, #1
 567 0060 BA40     		lsls	r2, r2, r7
 568 0062 9343     		bics	r3, r2
 569 0064 0B60     		str	r3, [r1]
1138:Generated_Source\PSoC4/capsense.c ****     #if(capsense_IS_SHIELD_ENABLE != 0)
1139:Generated_Source\PSoC4/capsense.c ****     }
1140:Generated_Source\PSoC4/capsense.c ****     else
ARM GAS  C:\Users\puria\AppData\Local\Temp\ccYRkNAS.s 			page 31


1141:Generated_Source\PSoC4/capsense.c ****     {
1142:Generated_Source\PSoC4/capsense.c ****         /* Connect to Shield */
1143:Generated_Source\PSoC4/capsense.c ****         *capsense_prtSelTbl[port] |= (capsense_CSD_SHIELD_PORT_MODE << pinHSIOMShift);
1144:Generated_Source\PSoC4/capsense.c ****     }
1145:Generated_Source\PSoC4/capsense.c ****     #endif /* (capsense_IS_SHIELD_ENABLE) */
1146:Generated_Source\PSoC4/capsense.c **** }
 570              		.loc 1 1146 0
 571              		@ sp needed
 572              	.LVL64:
 573              	.LVL65:
 574              	.LVL66:
 575 0066 F8BD     		pop	{r3, r4, r5, r6, r7, pc}
 576              	.L34:
 577              		.align	2
 578              	.L33:
 579 0068 00000000 		.word	.LANCHOR2
 580 006c 00000000 		.word	capsense_unscannedSnsDriveMode
 581              		.cfi_endproc
 582              	.LFE50:
 583              		.size	capsense_DisableSensor, .-capsense_DisableSensor
 584              		.section	.text.capsense_ClearSensors,"ax",%progbits
 585              		.align	2
 586              		.global	capsense_ClearSensors
 587              		.code	16
 588              		.thumb_func
 589              		.type	capsense_ClearSensors, %function
 590              	capsense_ClearSensors:
 591              	.LFB48:
 887:Generated_Source\PSoC4/capsense.c ****     uint32 snsIndex;
 592              		.loc 1 887 0
 593              		.cfi_startproc
 594              		@ args = 0, pretend = 0, frame = 0
 595              		@ frame_needed = 0, uses_anonymous_args = 0
 596 0000 10B5     		push	{r4, lr}
 597              		.cfi_def_cfa_offset 8
 598              		.cfi_offset 4, -8
 599              		.cfi_offset 14, -4
 600              	.LVL67:
 890:Generated_Source\PSoC4/capsense.c ****     {
 601              		.loc 1 890 0
 602 0002 0024     		movs	r4, #0
 603 0004 03E0     		b	.L36
 604              	.LVL68:
 605              	.L37:
 892:Generated_Source\PSoC4/capsense.c ****     }
 606              		.loc 1 892 0 discriminator 3
 607 0006 2000     		movs	r0, r4
 608 0008 FFF7FEFF 		bl	capsense_DisableSensor
 609              	.LVL69:
 890:Generated_Source\PSoC4/capsense.c ****     {
 610              		.loc 1 890 0 discriminator 3
 611 000c 0134     		adds	r4, r4, #1
 612              	.LVL70:
 613              	.L36:
 890:Generated_Source\PSoC4/capsense.c ****     {
 614              		.loc 1 890 0 is_stmt 0 discriminator 1
 615 000e 042C     		cmp	r4, #4
ARM GAS  C:\Users\puria\AppData\Local\Temp\ccYRkNAS.s 			page 32


 616 0010 F9D9     		bls	.L37
 894:Generated_Source\PSoC4/capsense.c **** 
 617              		.loc 1 894 0 is_stmt 1
 618              		@ sp needed
 619              	.LVL71:
 620 0012 10BD     		pop	{r4, pc}
 621              		.cfi_endproc
 622              	.LFE48:
 623              		.size	capsense_ClearSensors, .-capsense_ClearSensors
 624              		.section	.text.capsense_SetPinDriveMode,"ax",%progbits
 625              		.align	2
 626              		.global	capsense_SetPinDriveMode
 627              		.code	16
 628              		.thumb_func
 629              		.type	capsense_SetPinDriveMode, %function
 630              	capsense_SetPinDriveMode:
 631              	.LFB53:
1147:Generated_Source\PSoC4/capsense.c **** 
1148:Generated_Source\PSoC4/capsense.c **** 
1149:Generated_Source\PSoC4/capsense.c **** /*******************************************************************************
1150:Generated_Source\PSoC4/capsense.c **** * Function Name: capsense_SetDriveModeAllPins
1151:Generated_Source\PSoC4/capsense.c **** ********************************************************************************
1152:Generated_Source\PSoC4/capsense.c **** *
1153:Generated_Source\PSoC4/capsense.c **** * Summary:
1154:Generated_Source\PSoC4/capsense.c **** * This API sets the drive mode of port pins used by the CapSense
1155:Generated_Source\PSoC4/capsense.c **** * component (sensors, guard, shield, shield tank and Cmod) to drive the
1156:Generated_Source\PSoC4/capsense.c **** * mode specified by the argument.
1157:Generated_Source\PSoC4/capsense.c **** *
1158:Generated_Source\PSoC4/capsense.c **** * Parameters:
1159:Generated_Source\PSoC4/capsense.c **** *  driveMode:  Drive mode definition.
1160:Generated_Source\PSoC4/capsense.c **** *
1161:Generated_Source\PSoC4/capsense.c **** * Return:
1162:Generated_Source\PSoC4/capsense.c **** *  None
1163:Generated_Source\PSoC4/capsense.c **** *
1164:Generated_Source\PSoC4/capsense.c **** * Global Variables:
1165:Generated_Source\PSoC4/capsense.c **** *  capsense_portTable[] - used to store the port number that pin
1166:Generated_Source\PSoC4/capsense.c **** *  belongs to for each sensor.
1167:Generated_Source\PSoC4/capsense.c **** *  capsense_pinShiftTbl[] - used to store position of pin that
1168:Generated_Source\PSoC4/capsense.c **** *  configured as a sensor in the port.
1169:Generated_Source\PSoC4/capsense.c **** *
1170:Generated_Source\PSoC4/capsense.c **** * Side Effects:
1171:Generated_Source\PSoC4/capsense.c **** *  This API shall be called only after CapSense component is stopped.
1172:Generated_Source\PSoC4/capsense.c **** *
1173:Generated_Source\PSoC4/capsense.c **** *******************************************************************************/
1174:Generated_Source\PSoC4/capsense.c **** void capsense_SetDriveModeAllPins(uint32 driveMode)
1175:Generated_Source\PSoC4/capsense.c **** {
1176:Generated_Source\PSoC4/capsense.c ****     uint8 curSensor;
1177:Generated_Source\PSoC4/capsense.c ****     #if (capsense_IS_COMPLEX_SCANSLOTS)
1178:Generated_Source\PSoC4/capsense.c ****         uint8 snsNumber;
1179:Generated_Source\PSoC4/capsense.c ****         uint8 snsType;
1180:Generated_Source\PSoC4/capsense.c ****     #endif  /* capsense_IS_COMPLEX_SCANSLOTS */
1181:Generated_Source\PSoC4/capsense.c ****     uint32 prtNumberTmp;
1182:Generated_Source\PSoC4/capsense.c ****     uint32 pinNumberTmp;
1183:Generated_Source\PSoC4/capsense.c **** 
1184:Generated_Source\PSoC4/capsense.c ****     for(curSensor = 0u; curSensor < capsense_TOTAL_SENSOR_COUNT; curSensor++)
1185:Generated_Source\PSoC4/capsense.c ****     {
1186:Generated_Source\PSoC4/capsense.c ****         #if (capsense_IS_COMPLEX_SCANSLOTS)
ARM GAS  C:\Users\puria\AppData\Local\Temp\ccYRkNAS.s 			page 33


1187:Generated_Source\PSoC4/capsense.c ****             /* Read sensor type: single or complex */
1188:Generated_Source\PSoC4/capsense.c ****             snsType = capsense_portTable[curSensor];
1189:Generated_Source\PSoC4/capsense.c **** 
1190:Generated_Source\PSoC4/capsense.c ****             /* Check if sensor is complex */
1191:Generated_Source\PSoC4/capsense.c ****             if ((snsType & capsense_COMPLEX_SS_FLAG) == 0u)
1192:Generated_Source\PSoC4/capsense.c ****             {
1193:Generated_Source\PSoC4/capsense.c ****                 /* The sensor is not complex */
1194:Generated_Source\PSoC4/capsense.c ****                 snsNumber = curSensor;
1195:Generated_Source\PSoC4/capsense.c ****             }
1196:Generated_Source\PSoC4/capsense.c ****             else
1197:Generated_Source\PSoC4/capsense.c ****             {
1198:Generated_Source\PSoC4/capsense.c ****                 /* Get dedicated sensor ID of the complex sensor */
1199:Generated_Source\PSoC4/capsense.c ****                 snsType &= ~capsense_COMPLEX_SS_FLAG;
1200:Generated_Source\PSoC4/capsense.c ****                 snsNumber = capsense_indexTable[snsType];
1201:Generated_Source\PSoC4/capsense.c ****             }
1202:Generated_Source\PSoC4/capsense.c **** 
1203:Generated_Source\PSoC4/capsense.c ****             prtNumberTmp = capsense_portTable[snsNumber];
1204:Generated_Source\PSoC4/capsense.c ****             pinNumberTmp = capsense_pinShiftTbl[snsNumber];
1205:Generated_Source\PSoC4/capsense.c ****         #else
1206:Generated_Source\PSoC4/capsense.c ****             prtNumberTmp = capsense_portTable[curSensor];
1207:Generated_Source\PSoC4/capsense.c ****             pinNumberTmp = capsense_pinShiftTbl[curSensor];
1208:Generated_Source\PSoC4/capsense.c ****         #endif  /* capsense_IS_COMPLEX_SCANSLOTS */
1209:Generated_Source\PSoC4/capsense.c **** 
1210:Generated_Source\PSoC4/capsense.c ****         capsense_SetPinDriveMode(driveMode, pinNumberTmp, prtNumberTmp);
1211:Generated_Source\PSoC4/capsense.c ****     }
1212:Generated_Source\PSoC4/capsense.c **** 
1213:Generated_Source\PSoC4/capsense.c ****     capsense_SetPinDriveMode(driveMode, (uint32)capsense_CMOD_PIN_NUMBER, (uint32)capsense_CMOD_PRT
1214:Generated_Source\PSoC4/capsense.c **** 
1215:Generated_Source\PSoC4/capsense.c ****     #if(0u != capsense_CSH_TANK_ENABLE)
1216:Generated_Source\PSoC4/capsense.c ****         capsense_SetPinDriveMode(driveMode, (uint32)capsense_CTANK_PIN_NUMBER, (uint32)capsense_CTA
1217:Generated_Source\PSoC4/capsense.c ****     #endif /* (0u != capsense_CSH_TANK_ENABLE) */
1218:Generated_Source\PSoC4/capsense.c **** 
1219:Generated_Source\PSoC4/capsense.c ****     #if(0u != capsense_IS_SHIELD_ENABLE)
1220:Generated_Source\PSoC4/capsense.c ****         capsense_SetPinDriveMode(driveMode, (uint32)capsense_SHIELD_PIN_NUMBER, (uint32)capsense_SH
1221:Generated_Source\PSoC4/capsense.c ****     #endif /* (0u != capsense_IS_SHIELD_ENABLE) */
1222:Generated_Source\PSoC4/capsense.c **** }
1223:Generated_Source\PSoC4/capsense.c **** 
1224:Generated_Source\PSoC4/capsense.c **** 
1225:Generated_Source\PSoC4/capsense.c **** /*******************************************************************************
1226:Generated_Source\PSoC4/capsense.c **** * Function Name: capsense_RestoreDriveModeAllPins
1227:Generated_Source\PSoC4/capsense.c **** ********************************************************************************
1228:Generated_Source\PSoC4/capsense.c **** *
1229:Generated_Source\PSoC4/capsense.c **** * Summary:
1230:Generated_Source\PSoC4/capsense.c **** *  This API restores the drive for all the CapSense port pins to the original
1231:Generated_Source\PSoC4/capsense.c **** *  state.
1232:Generated_Source\PSoC4/capsense.c **** *
1233:Generated_Source\PSoC4/capsense.c **** * Parameters:
1234:Generated_Source\PSoC4/capsense.c **** *  None
1235:Generated_Source\PSoC4/capsense.c **** *
1236:Generated_Source\PSoC4/capsense.c **** * Return:
1237:Generated_Source\PSoC4/capsense.c **** *  None
1238:Generated_Source\PSoC4/capsense.c **** *
1239:Generated_Source\PSoC4/capsense.c **** * Global Variables:
1240:Generated_Source\PSoC4/capsense.c **** *  capsense_prtSelTbl[] - Contains pointers to the HSIOM
1241:Generated_Source\PSoC4/capsense.c **** *  registers for each port.
1242:Generated_Source\PSoC4/capsense.c **** *
1243:Generated_Source\PSoC4/capsense.c **** * Side Effects:
ARM GAS  C:\Users\puria\AppData\Local\Temp\ccYRkNAS.s 			page 34


1244:Generated_Source\PSoC4/capsense.c **** *  This API is called only after the CapSense component is stopped.
1245:Generated_Source\PSoC4/capsense.c **** *
1246:Generated_Source\PSoC4/capsense.c **** *******************************************************************************/
1247:Generated_Source\PSoC4/capsense.c **** void capsense_RestoreDriveModeAllPins(void)
1248:Generated_Source\PSoC4/capsense.c **** {
1249:Generated_Source\PSoC4/capsense.c ****     uint32 newRegisterValue;
1250:Generated_Source\PSoC4/capsense.c **** 
1251:Generated_Source\PSoC4/capsense.c ****     capsense_SetDriveModeAllPins(CY_SYS_PINS_DM_ALG_HIZ);
1252:Generated_Source\PSoC4/capsense.c **** 
1253:Generated_Source\PSoC4/capsense.c ****     newRegisterValue = capsense_CMOD_CONNECTION_REG;
1254:Generated_Source\PSoC4/capsense.c ****     newRegisterValue &= ~(capsense_CSD_CMOD_CONNECTION_MASK);
1255:Generated_Source\PSoC4/capsense.c ****     newRegisterValue |= capsense_CSD_CMOD_TO_AMUXBUS_A;
1256:Generated_Source\PSoC4/capsense.c ****     capsense_CMOD_CONNECTION_REG = newRegisterValue;
1257:Generated_Source\PSoC4/capsense.c **** 
1258:Generated_Source\PSoC4/capsense.c ****     #if(0u != capsense_CSH_TANK_ENABLE)
1259:Generated_Source\PSoC4/capsense.c ****         newRegisterValue = capsense_CTANK_CONNECTION_REG;
1260:Generated_Source\PSoC4/capsense.c ****         newRegisterValue &= ~(capsense_CSD_CTANK_CONNECTION_MASK);
1261:Generated_Source\PSoC4/capsense.c ****         newRegisterValue |= capsense_CSD_CTANK_TO_AMUXBUS_B;
1262:Generated_Source\PSoC4/capsense.c ****         capsense_CTANK_CONNECTION_REG = newRegisterValue;
1263:Generated_Source\PSoC4/capsense.c ****     #endif/* (0u != capsense_CSH_TANK_ENABLE) */
1264:Generated_Source\PSoC4/capsense.c **** 
1265:Generated_Source\PSoC4/capsense.c ****     #if(0u != capsense_IS_SHIELD_ENABLE)
1266:Generated_Source\PSoC4/capsense.c ****         newRegisterValue = *capsense_prtSelTbl[capsense_SHIELD_PORT_NUMBER];
1267:Generated_Source\PSoC4/capsense.c ****         newRegisterValue &= ~(capsense_CSD_HSIOM_MASK << ((uint32)capsense_SHIELD_PIN_NUMBER * caps
1268:Generated_Source\PSoC4/capsense.c ****         newRegisterValue |= (capsense_CSD_SHIELD_PORT_MODE << ((uint32)capsense_SHIELD_PIN_NUMBER *
1269:Generated_Source\PSoC4/capsense.c ****         *capsense_prtSelTbl[capsense_SHIELD_PORT_NUMBER] = newRegisterValue;
1270:Generated_Source\PSoC4/capsense.c ****     #endif /* (0u != capsense_IS_SHIELD_ENABLE) */
1271:Generated_Source\PSoC4/capsense.c **** }
1272:Generated_Source\PSoC4/capsense.c **** 
1273:Generated_Source\PSoC4/capsense.c **** 
1274:Generated_Source\PSoC4/capsense.c **** /*******************************************************************************
1275:Generated_Source\PSoC4/capsense.c **** * Function Name: capsense_SetPinDriveMode
1276:Generated_Source\PSoC4/capsense.c **** ********************************************************************************
1277:Generated_Source\PSoC4/capsense.c **** *
1278:Generated_Source\PSoC4/capsense.c **** * Summary:
1279:Generated_Source\PSoC4/capsense.c **** * This API sets the drive mode for the appropriate port/pin.
1280:Generated_Source\PSoC4/capsense.c **** *
1281:Generated_Source\PSoC4/capsense.c **** * Parameters:
1282:Generated_Source\PSoC4/capsense.c **** *  driveMode:  Drive mode definition.
1283:Generated_Source\PSoC4/capsense.c **** *  portNumber: contains port number (0, 1, 2).
1284:Generated_Source\PSoC4/capsense.c **** *  pinNumber: contains pin number (0, 1, 2, ... , 7).
1285:Generated_Source\PSoC4/capsense.c **** *
1286:Generated_Source\PSoC4/capsense.c **** * Return:
1287:Generated_Source\PSoC4/capsense.c **** *  None
1288:Generated_Source\PSoC4/capsense.c **** *
1289:Generated_Source\PSoC4/capsense.c **** * Global Variables:
1290:Generated_Source\PSoC4/capsense.c **** *  capsense_prtSelTbl[] - Contains pointers to the HSIOM
1291:Generated_Source\PSoC4/capsense.c **** *  registers for each port.
1292:Generated_Source\PSoC4/capsense.c **** *  capsense_prtCfgTb[] - Contains pointers to the port config
1293:Generated_Source\PSoC4/capsense.c **** *  registers for each port.
1294:Generated_Source\PSoC4/capsense.c **** *
1295:Generated_Source\PSoC4/capsense.c **** * Side Effects:
1296:Generated_Source\PSoC4/capsense.c **** *  This API is called only after CapSense component is stopped.
1297:Generated_Source\PSoC4/capsense.c **** *
1298:Generated_Source\PSoC4/capsense.c **** *******************************************************************************/
1299:Generated_Source\PSoC4/capsense.c **** void capsense_SetPinDriveMode(uint32 driveMode, uint32 pinNumber, uint32 portNumber)
1300:Generated_Source\PSoC4/capsense.c **** {
ARM GAS  C:\Users\puria\AppData\Local\Temp\ccYRkNAS.s 			page 35


 632              		.loc 1 1300 0
 633              		.cfi_startproc
 634              		@ args = 0, pretend = 0, frame = 0
 635              		@ frame_needed = 0, uses_anonymous_args = 0
 636              	.LVL72:
 637 0000 10B5     		push	{r4, lr}
 638              		.cfi_def_cfa_offset 8
 639              		.cfi_offset 4, -8
 640              		.cfi_offset 14, -4
1301:Generated_Source\PSoC4/capsense.c ****     uint32  pinModeShift;
1302:Generated_Source\PSoC4/capsense.c ****     uint32 newRegisterValue;
1303:Generated_Source\PSoC4/capsense.c **** 
1304:Generated_Source\PSoC4/capsense.c ****     pinModeShift  = pinNumber * capsense_PC_PIN_CFG_SIZE;
 641              		.loc 1 1304 0
 642 0002 4B00     		lsls	r3, r1, #1
 643 0004 5918     		adds	r1, r3, r1
 644              	.LVL73:
1305:Generated_Source\PSoC4/capsense.c **** 
1306:Generated_Source\PSoC4/capsense.c ****     newRegisterValue = *capsense_prtCfgTbl[portNumber];
 645              		.loc 1 1306 0
 646 0006 9200     		lsls	r2, r2, #2
 647              	.LVL74:
 648 0008 054B     		ldr	r3, .L39
 649 000a 9A18     		adds	r2, r3, r2
 650 000c D46A     		ldr	r4, [r2, #44]
 651 000e 2368     		ldr	r3, [r4]
 652              	.LVL75:
1307:Generated_Source\PSoC4/capsense.c ****     newRegisterValue &= ~(capsense_CSD_PIN_MODE_MASK << pinModeShift);
 653              		.loc 1 1307 0
 654 0010 0722     		movs	r2, #7
 655 0012 8A40     		lsls	r2, r2, r1
 656 0014 9343     		bics	r3, r2
 657              	.LVL76:
1308:Generated_Source\PSoC4/capsense.c ****     newRegisterValue |=  (uint32)((uint32)driveMode << pinModeShift);
 658              		.loc 1 1308 0
 659 0016 8840     		lsls	r0, r0, r1
 660              	.LVL77:
 661 0018 1843     		orrs	r0, r3
 662              	.LVL78:
1309:Generated_Source\PSoC4/capsense.c ****     *capsense_prtCfgTbl[portNumber] =  newRegisterValue;
 663              		.loc 1 1309 0
 664 001a 2060     		str	r0, [r4]
1310:Generated_Source\PSoC4/capsense.c **** }
 665              		.loc 1 1310 0
 666              		@ sp needed
 667 001c 10BD     		pop	{r4, pc}
 668              	.L40:
 669 001e C046     		.align	2
 670              	.L39:
 671 0020 00000000 		.word	.LANCHOR2
 672              		.cfi_endproc
 673              	.LFE53:
 674              		.size	capsense_SetPinDriveMode, .-capsense_SetPinDriveMode
 675              		.section	.text.capsense_SetDriveModeAllPins,"ax",%progbits
 676              		.align	2
 677              		.global	capsense_SetDriveModeAllPins
 678              		.code	16
ARM GAS  C:\Users\puria\AppData\Local\Temp\ccYRkNAS.s 			page 36


 679              		.thumb_func
 680              		.type	capsense_SetDriveModeAllPins, %function
 681              	capsense_SetDriveModeAllPins:
 682              	.LFB51:
1175:Generated_Source\PSoC4/capsense.c ****     uint8 curSensor;
 683              		.loc 1 1175 0
 684              		.cfi_startproc
 685              		@ args = 0, pretend = 0, frame = 0
 686              		@ frame_needed = 0, uses_anonymous_args = 0
 687              	.LVL79:
 688 0000 70B5     		push	{r4, r5, r6, lr}
 689              		.cfi_def_cfa_offset 16
 690              		.cfi_offset 4, -16
 691              		.cfi_offset 5, -12
 692              		.cfi_offset 6, -8
 693              		.cfi_offset 14, -4
 694 0002 0500     		movs	r5, r0
 695              	.LVL80:
1184:Generated_Source\PSoC4/capsense.c ****     {
 696              		.loc 1 1184 0
 697 0004 0024     		movs	r4, #0
 698 0006 08E0     		b	.L42
 699              	.LVL81:
 700              	.L43:
1206:Generated_Source\PSoC4/capsense.c ****             pinNumberTmp = capsense_pinShiftTbl[curSensor];
 701              		.loc 1 1206 0 discriminator 3
 702 0008 084B     		ldr	r3, .L44
 703 000a 1A5D     		ldrb	r2, [r3, r4]
 704              	.LVL82:
1207:Generated_Source\PSoC4/capsense.c ****         #endif  /* capsense_IS_COMPLEX_SCANSLOTS */
 705              		.loc 1 1207 0 discriminator 3
 706 000c 1B19     		adds	r3, r3, r4
 707 000e 197A     		ldrb	r1, [r3, #8]
 708              	.LVL83:
1210:Generated_Source\PSoC4/capsense.c ****     }
 709              		.loc 1 1210 0 discriminator 3
 710 0010 2800     		movs	r0, r5
 711 0012 FFF7FEFF 		bl	capsense_SetPinDriveMode
 712              	.LVL84:
1184:Generated_Source\PSoC4/capsense.c ****     {
 713              		.loc 1 1184 0 discriminator 3
 714 0016 0134     		adds	r4, r4, #1
 715              	.LVL85:
 716 0018 E4B2     		uxtb	r4, r4
 717              	.LVL86:
 718              	.L42:
1184:Generated_Source\PSoC4/capsense.c ****     {
 719              		.loc 1 1184 0 is_stmt 0 discriminator 1
 720 001a 042C     		cmp	r4, #4
 721 001c F4D9     		bls	.L43
1213:Generated_Source\PSoC4/capsense.c **** 
 722              		.loc 1 1213 0 is_stmt 1
 723 001e 0422     		movs	r2, #4
 724 0020 0021     		movs	r1, #0
 725 0022 2800     		movs	r0, r5
 726 0024 FFF7FEFF 		bl	capsense_SetPinDriveMode
 727              	.LVL87:
ARM GAS  C:\Users\puria\AppData\Local\Temp\ccYRkNAS.s 			page 37


1222:Generated_Source\PSoC4/capsense.c **** 
 728              		.loc 1 1222 0
 729              		@ sp needed
 730              	.LVL88:
 731              	.LVL89:
 732 0028 70BD     		pop	{r4, r5, r6, pc}
 733              	.L45:
 734 002a C046     		.align	2
 735              	.L44:
 736 002c 00000000 		.word	.LANCHOR2
 737              		.cfi_endproc
 738              	.LFE51:
 739              		.size	capsense_SetDriveModeAllPins, .-capsense_SetDriveModeAllPins
 740              		.section	.text.capsense_RestoreDriveModeAllPins,"ax",%progbits
 741              		.align	2
 742              		.global	capsense_RestoreDriveModeAllPins
 743              		.code	16
 744              		.thumb_func
 745              		.type	capsense_RestoreDriveModeAllPins, %function
 746              	capsense_RestoreDriveModeAllPins:
 747              	.LFB52:
1248:Generated_Source\PSoC4/capsense.c ****     uint32 newRegisterValue;
 748              		.loc 1 1248 0
 749              		.cfi_startproc
 750              		@ args = 0, pretend = 0, frame = 0
 751              		@ frame_needed = 0, uses_anonymous_args = 0
 752 0000 10B5     		push	{r4, lr}
 753              		.cfi_def_cfa_offset 8
 754              		.cfi_offset 4, -8
 755              		.cfi_offset 14, -4
1251:Generated_Source\PSoC4/capsense.c **** 
 756              		.loc 1 1251 0
 757 0002 0020     		movs	r0, #0
 758 0004 FFF7FEFF 		bl	capsense_SetDriveModeAllPins
 759              	.LVL90:
1253:Generated_Source\PSoC4/capsense.c ****     newRegisterValue &= ~(capsense_CSD_CMOD_CONNECTION_MASK);
 760              		.loc 1 1253 0
 761 0008 0349     		ldr	r1, .L47
 762 000a 0B68     		ldr	r3, [r1]
 763              	.LVL91:
1254:Generated_Source\PSoC4/capsense.c ****     newRegisterValue |= capsense_CSD_CMOD_TO_AMUXBUS_A;
 764              		.loc 1 1254 0
 765 000c 0F22     		movs	r2, #15
 766 000e 9343     		bics	r3, r2
 767              	.LVL92:
1255:Generated_Source\PSoC4/capsense.c ****     capsense_CMOD_CONNECTION_REG = newRegisterValue;
 768              		.loc 1 1255 0
 769 0010 093A     		subs	r2, r2, #9
 770 0012 1343     		orrs	r3, r2
 771              	.LVL93:
1256:Generated_Source\PSoC4/capsense.c **** 
 772              		.loc 1 1256 0
 773 0014 0B60     		str	r3, [r1]
1271:Generated_Source\PSoC4/capsense.c **** 
 774              		.loc 1 1271 0
 775              		@ sp needed
 776 0016 10BD     		pop	{r4, pc}
ARM GAS  C:\Users\puria\AppData\Local\Temp\ccYRkNAS.s 			page 38


 777              	.L48:
 778              		.align	2
 779              	.L47:
 780 0018 00040240 		.word	1073873920
 781              		.cfi_endproc
 782              	.LFE52:
 783              		.size	capsense_RestoreDriveModeAllPins, .-capsense_RestoreDriveModeAllPins
 784              		.section	.text.capsense_EnableShieldElectrode,"ax",%progbits
 785              		.align	2
 786              		.global	capsense_EnableShieldElectrode
 787              		.code	16
 788              		.thumb_func
 789              		.type	capsense_EnableShieldElectrode, %function
 790              	capsense_EnableShieldElectrode:
 791              	.LFB56:
1311:Generated_Source\PSoC4/capsense.c **** 
1312:Generated_Source\PSoC4/capsense.c **** 
1313:Generated_Source\PSoC4/capsense.c **** /*******************************************************************************
1314:Generated_Source\PSoC4/capsense.c **** * Function Name: capsense_PreScan
1315:Generated_Source\PSoC4/capsense.c **** ********************************************************************************
1316:Generated_Source\PSoC4/capsense.c **** *
1317:Generated_Source\PSoC4/capsense.c **** * Summary:
1318:Generated_Source\PSoC4/capsense.c **** *  Sets required settings, enables a sensor, removes Vref from AMUX and starts the
1319:Generated_Source\PSoC4/capsense.c **** *  scanning process of the sensor.
1320:Generated_Source\PSoC4/capsense.c **** *
1321:Generated_Source\PSoC4/capsense.c **** * Parameters:
1322:Generated_Source\PSoC4/capsense.c **** *  sensor:  Sensor number.
1323:Generated_Source\PSoC4/capsense.c **** *
1324:Generated_Source\PSoC4/capsense.c **** * Return:
1325:Generated_Source\PSoC4/capsense.c **** *  None
1326:Generated_Source\PSoC4/capsense.c **** *
1327:Generated_Source\PSoC4/capsense.c **** * Global Variables:
1328:Generated_Source\PSoC4/capsense.c **** * capsense_widgetNumber[] - This array contains numbers of widgets for each sensor.
1329:Generated_Source\PSoC4/capsense.c **** * capsense_widgetResolution[] - Contains the widget resolution.
1330:Generated_Source\PSoC4/capsense.c **** *
1331:Generated_Source\PSoC4/capsense.c **** * Side Effects:
1332:Generated_Source\PSoC4/capsense.c **** *  None
1333:Generated_Source\PSoC4/capsense.c **** *
1334:Generated_Source\PSoC4/capsense.c **** *******************************************************************************/
1335:Generated_Source\PSoC4/capsense.c **** void capsense_PreScan(uint32 sensor)
1336:Generated_Source\PSoC4/capsense.c **** {
1337:Generated_Source\PSoC4/capsense.c ****     uint8 widget;
1338:Generated_Source\PSoC4/capsense.c ****     uint8 interruptState;
1339:Generated_Source\PSoC4/capsense.c ****     uint32 newRegValue;
1340:Generated_Source\PSoC4/capsense.c ****     uint32 counterResolution;
1341:Generated_Source\PSoC4/capsense.c **** 
1342:Generated_Source\PSoC4/capsense.c ****     #if(capsense_PRS_OPTIONS == capsense__PRS_AUTO)
1343:Generated_Source\PSoC4/capsense.c ****         uint8 senseClkDivMath;
1344:Generated_Source\PSoC4/capsense.c ****         uint8 sampleClkDivMath;
1345:Generated_Source\PSoC4/capsense.c ****     #endif /* (capsense_PRS_OPTIONS == capsense__PRS_AUTO) */
1346:Generated_Source\PSoC4/capsense.c **** 
1347:Generated_Source\PSoC4/capsense.c ****     #if ((capsense_TUNING_METHOD == capsense__TUNING_AUTO) &&\
1348:Generated_Source\PSoC4/capsense.c ****          (0 != capsense_IS_OVERSAMPLING_EN))
1349:Generated_Source\PSoC4/capsense.c ****         uint32 oversamplingFactor;
1350:Generated_Source\PSoC4/capsense.c ****     #endif /* ((capsense_TUNING_METHOD == capsense__TUNING_AUTO) &&\
1351:Generated_Source\PSoC4/capsense.c ****                (0 != capsense_IS_OVERSAMPLING_EN)) */
1352:Generated_Source\PSoC4/capsense.c **** 
ARM GAS  C:\Users\puria\AppData\Local\Temp\ccYRkNAS.s 			page 39


1353:Generated_Source\PSoC4/capsense.c ****     /* Define widget sensor belongs to */
1354:Generated_Source\PSoC4/capsense.c ****     widget = capsense_widgetNumber[sensor];
1355:Generated_Source\PSoC4/capsense.c **** 
1356:Generated_Source\PSoC4/capsense.c ****     /* Recalculate Counter Resolution to MSB 16 bits */
1357:Generated_Source\PSoC4/capsense.c ****     counterResolution = capsense_widgetResolution[widget];
1358:Generated_Source\PSoC4/capsense.c **** 
1359:Generated_Source\PSoC4/capsense.c ****     #if ((capsense_TUNING_METHOD == capsense__TUNING_AUTO) &&\
1360:Generated_Source\PSoC4/capsense.c ****          (0 != capsense_IS_OVERSAMPLING_EN))
1361:Generated_Source\PSoC4/capsense.c ****         oversamplingFactor = capsense_GetBitValue(capsense_scanSpeedTbl, sensor);
1362:Generated_Source\PSoC4/capsense.c **** 
1363:Generated_Source\PSoC4/capsense.c ****         if(counterResolution < capsense_RESOLUTION_16_BITS)
1364:Generated_Source\PSoC4/capsense.c ****         {
1365:Generated_Source\PSoC4/capsense.c ****             counterResolution <<= oversamplingFactor;
1366:Generated_Source\PSoC4/capsense.c ****             counterResolution |= (uint32)(capsense_RESOLUTION_8_BITS);
1367:Generated_Source\PSoC4/capsense.c ****         }
1368:Generated_Source\PSoC4/capsense.c ****     #endif /* ((capsense_TUNING_METHOD == capsense__TUNING_AUTO) &&\
1369:Generated_Source\PSoC4/capsense.c ****                (0 != capsense_IS_OVERSAMPLING_EN)) */
1370:Generated_Source\PSoC4/capsense.c **** 
1371:Generated_Source\PSoC4/capsense.c ****     #if (0u != capsense_IS_M0S8PERI_BLOCK)
1372:Generated_Source\PSoC4/capsense.c ****         capsense_SenseClk_Stop();
1373:Generated_Source\PSoC4/capsense.c ****         capsense_SampleClk_Stop();
1374:Generated_Source\PSoC4/capsense.c ****     #endif /* (0u != capsense_IS_M0S8PERI_BLOCK) */
1375:Generated_Source\PSoC4/capsense.c **** 
1376:Generated_Source\PSoC4/capsense.c ****     #if (0u != capsense_MULTIPLE_FREQUENCY_SET)
1377:Generated_Source\PSoC4/capsense.c ****         capsense_SampleClk_SetDividerValue((uint16)capsense_sampleClkDividerVal[sensor]);
1378:Generated_Source\PSoC4/capsense.c ****         capsense_SenseClk_SetDividerValue((uint16)capsense_senseClkDividerVal[sensor]);
1379:Generated_Source\PSoC4/capsense.c ****     #else
1380:Generated_Source\PSoC4/capsense.c ****         capsense_SampleClk_SetDividerValue((uint16)capsense_sampleClkDividerVal);
1381:Generated_Source\PSoC4/capsense.c ****         capsense_SenseClk_SetDividerValue((uint16)capsense_senseClkDividerVal);
1382:Generated_Source\PSoC4/capsense.c ****     #endif /* (0u != capsense_MULTIPLE_FREQUENCY_SET) */
1383:Generated_Source\PSoC4/capsense.c **** 
1384:Generated_Source\PSoC4/capsense.c ****     #if (0u != capsense_IS_M0S8PERI_BLOCK)
1385:Generated_Source\PSoC4/capsense.c ****         capsense_SampleClk_Start();
1386:Generated_Source\PSoC4/capsense.c ****         capsense_SenseClk_StartEx(capsense_SampleClk__DIV_ID);
1387:Generated_Source\PSoC4/capsense.c **** 
1388:Generated_Source\PSoC4/capsense.c ****         #if(capsense_PRS_OPTIONS == capsense__PRS_NONE)
1389:Generated_Source\PSoC4/capsense.c ****             CyIntDisable(capsense_ISR_NUMBER);
1390:Generated_Source\PSoC4/capsense.c ****             capsense_CSD_CNT_REG = capsense_ONE_CYCLE;
1391:Generated_Source\PSoC4/capsense.c ****             while(0u != (capsense_CSD_CNT_REG & capsense_RESOLUTION_16_BITS))
1392:Generated_Source\PSoC4/capsense.c ****             {
1393:Generated_Source\PSoC4/capsense.c ****             /* Wait until scanning is complete */
1394:Generated_Source\PSoC4/capsense.c ****             }
1395:Generated_Source\PSoC4/capsense.c ****             capsense_CSD_INTR_REG = 1u;
1396:Generated_Source\PSoC4/capsense.c ****             CyIntClearPending(capsense_ISR_NUMBER);
1397:Generated_Source\PSoC4/capsense.c ****             CyIntEnable(capsense_ISR_NUMBER);
1398:Generated_Source\PSoC4/capsense.c ****         #endif /* capsense_PRS_OPTIONS == capsense__PRS_NONE */
1399:Generated_Source\PSoC4/capsense.c ****     #endif /* (0u != capsense_IS_M0S8PERI_BLOCK) */
1400:Generated_Source\PSoC4/capsense.c **** 
1401:Generated_Source\PSoC4/capsense.c **** #if(capsense_PRS_OPTIONS != capsense__PRS_NONE)
1402:Generated_Source\PSoC4/capsense.c **** 
1403:Generated_Source\PSoC4/capsense.c ****     #if(capsense_TUNING_METHOD == capsense__TUNING_AUTO)
1404:Generated_Source\PSoC4/capsense.c ****         if(capsense_prescalersTuningDone != 0u)
1405:Generated_Source\PSoC4/capsense.c ****         {
1406:Generated_Source\PSoC4/capsense.c ****     #endif /* (capsense_TUNING_METHOD == capsense__TUNING_AUTO) */
1407:Generated_Source\PSoC4/capsense.c **** 
1408:Generated_Source\PSoC4/capsense.c ****             CyIntDisable(capsense_ISR_NUMBER);
1409:Generated_Source\PSoC4/capsense.c **** 
ARM GAS  C:\Users\puria\AppData\Local\Temp\ccYRkNAS.s 			page 40


1410:Generated_Source\PSoC4/capsense.c ****             newRegValue = capsense_CSD_CFG_REG;
1411:Generated_Source\PSoC4/capsense.c ****             newRegValue |= capsense_CSD_CFG_PRS_SELECT;
1412:Generated_Source\PSoC4/capsense.c **** 
1413:Generated_Source\PSoC4/capsense.c ****             #if(capsense_PRS_OPTIONS == capsense__PRS_AUTO)
1414:Generated_Source\PSoC4/capsense.c **** 
1415:Generated_Source\PSoC4/capsense.c ****                 newRegValue &= ~(capsense_PRS_MODE_MASK);
1416:Generated_Source\PSoC4/capsense.c **** 
1417:Generated_Source\PSoC4/capsense.c ****                 #if (0u != capsense_MULTIPLE_FREQUENCY_SET)
1418:Generated_Source\PSoC4/capsense.c ****                     senseClkDivMath = capsense_senseClkDividerVal[sensor];
1419:Generated_Source\PSoC4/capsense.c ****                     sampleClkDivMath = capsense_sampleClkDividerVal[sensor];
1420:Generated_Source\PSoC4/capsense.c ****                 #else
1421:Generated_Source\PSoC4/capsense.c ****                     senseClkDivMath = capsense_senseClkDividerVal;
1422:Generated_Source\PSoC4/capsense.c ****                     sampleClkDivMath = capsense_sampleClkDividerVal;
1423:Generated_Source\PSoC4/capsense.c ****                 #endif /* ( capsense_MULTIPLE_FREQUENCY_SET) */
1424:Generated_Source\PSoC4/capsense.c **** 
1425:Generated_Source\PSoC4/capsense.c ****                 #if(0u == capsense_IS_M0S8PERI_BLOCK)
1426:Generated_Source\PSoC4/capsense.c ****                     senseClkDivMath *= sampleClkDivMath;
1427:Generated_Source\PSoC4/capsense.c ****                 #endif /* (0u == capsense_IS_M0S8PERI_BLOCK) */
1428:Generated_Source\PSoC4/capsense.c **** 
1429:Generated_Source\PSoC4/capsense.c ****                 if((senseClkDivMath * capsense_RESOLUTION_12_BITS) <
1430:Generated_Source\PSoC4/capsense.c ****                    (sampleClkDivMath * capsense_widgetResolution[widget]))
1431:Generated_Source\PSoC4/capsense.c ****                 {
1432:Generated_Source\PSoC4/capsense.c ****                     newRegValue |= capsense_CSD_PRS_12_BIT;
1433:Generated_Source\PSoC4/capsense.c ****                 }
1434:Generated_Source\PSoC4/capsense.c ****             #endif /* (capsense_PRS_OPTIONS == capsense__PRS_AUTO) */
1435:Generated_Source\PSoC4/capsense.c **** 
1436:Generated_Source\PSoC4/capsense.c ****             capsense_CSD_CFG_REG = newRegValue;
1437:Generated_Source\PSoC4/capsense.c **** 
1438:Generated_Source\PSoC4/capsense.c ****             CyIntEnable(capsense_ISR_NUMBER);
1439:Generated_Source\PSoC4/capsense.c **** 
1440:Generated_Source\PSoC4/capsense.c ****     #if(capsense_TUNING_METHOD == capsense__TUNING_AUTO)
1441:Generated_Source\PSoC4/capsense.c ****         }
1442:Generated_Source\PSoC4/capsense.c ****     #endif /* (capsense_PRS_OPTIONS != capsense__PRS_NONE) */
1443:Generated_Source\PSoC4/capsense.c **** 
1444:Generated_Source\PSoC4/capsense.c **** #endif /* (capsense_PRS_OPTIONS == capsense__PRS_NONE) */
1445:Generated_Source\PSoC4/capsense.c **** 
1446:Generated_Source\PSoC4/capsense.c ****     /* Set Idac Value */
1447:Generated_Source\PSoC4/capsense.c ****     CyIntDisable(capsense_ISR_NUMBER);
1448:Generated_Source\PSoC4/capsense.c ****     newRegValue = capsense_CSD_IDAC_REG;
1449:Generated_Source\PSoC4/capsense.c **** 
1450:Generated_Source\PSoC4/capsense.c **** #if (capsense_IDAC_CNT == 1u)
1451:Generated_Source\PSoC4/capsense.c ****     newRegValue &= ~(capsense_CSD_IDAC1_DATA_MASK);
1452:Generated_Source\PSoC4/capsense.c ****     newRegValue |= capsense_modulationIDAC[sensor];
1453:Generated_Source\PSoC4/capsense.c **** #else
1454:Generated_Source\PSoC4/capsense.c ****     newRegValue &= ~(capsense_CSD_IDAC1_DATA_MASK | capsense_CSD_IDAC2_DATA_MASK);
1455:Generated_Source\PSoC4/capsense.c ****     newRegValue |= (capsense_modulationIDAC[sensor] |
1456:Generated_Source\PSoC4/capsense.c ****                             (uint32)((uint32)capsense_compensationIDAC[sensor] <<
1457:Generated_Source\PSoC4/capsense.c ****                             capsense_CSD_IDAC2_DATA_OFFSET));
1458:Generated_Source\PSoC4/capsense.c **** #endif /* (capsense_IDAC_CNT == 1u) */
1459:Generated_Source\PSoC4/capsense.c **** 
1460:Generated_Source\PSoC4/capsense.c ****     capsense_CSD_IDAC_REG = newRegValue;
1461:Generated_Source\PSoC4/capsense.c **** 
1462:Generated_Source\PSoC4/capsense.c **** #if(capsense_CMOD_PREGARGE_OPTION == capsense__CAPPRIOBUF)
1463:Generated_Source\PSoC4/capsense.c ****     newRegValue = capsense_CMOD_CONNECTION_REG;
1464:Generated_Source\PSoC4/capsense.c ****     newRegValue &= ~(capsense_CSD_CMOD_CONNECTION_MASK);
1465:Generated_Source\PSoC4/capsense.c ****     newRegValue |= capsense_CSD_CMOD_TO_AMUXBUS_A;
1466:Generated_Source\PSoC4/capsense.c ****     capsense_CMOD_CONNECTION_REG = newRegValue;
ARM GAS  C:\Users\puria\AppData\Local\Temp\ccYRkNAS.s 			page 41


1467:Generated_Source\PSoC4/capsense.c **** 
1468:Generated_Source\PSoC4/capsense.c ****     newRegValue = capsense_CMOD_PORT_PC_REG;
1469:Generated_Source\PSoC4/capsense.c ****     newRegValue &= ~(capsense_CSD_CMOD_PC_MASK);
1470:Generated_Source\PSoC4/capsense.c ****     newRegValue |= capsense_CMOD_PC_HIGH_Z_MODE;
1471:Generated_Source\PSoC4/capsense.c ****     capsense_CMOD_PORT_PC_REG = newRegValue;
1472:Generated_Source\PSoC4/capsense.c **** #endif /* (capsense_CMOD_PREGARGE_OPTION == capsense__CAPPRIOBUF) */
1473:Generated_Source\PSoC4/capsense.c **** 
1474:Generated_Source\PSoC4/capsense.c ****     /* Disconnect Vref Buffer from AMUX */
1475:Generated_Source\PSoC4/capsense.c ****     newRegValue = capsense_CSD_CFG_REG;
1476:Generated_Source\PSoC4/capsense.c ****     newRegValue &= ~(capsense_PRECHARGE_CONFIG_MASK);
1477:Generated_Source\PSoC4/capsense.c ****     newRegValue |= capsense_CTANK_PRECHARGE_CONFIG;
1478:Generated_Source\PSoC4/capsense.c **** 
1479:Generated_Source\PSoC4/capsense.c ****     CyIntEnable(capsense_ISR_NUMBER);
1480:Generated_Source\PSoC4/capsense.c **** 
1481:Generated_Source\PSoC4/capsense.c ****     /* Enable Sensor */
1482:Generated_Source\PSoC4/capsense.c ****     capsense_EnableScanSlot(sensor);
1483:Generated_Source\PSoC4/capsense.c **** 
1484:Generated_Source\PSoC4/capsense.c ****     interruptState = CyEnterCriticalSection();
1485:Generated_Source\PSoC4/capsense.c ****     capsense_CSD_CFG_REG = newRegValue;
1486:Generated_Source\PSoC4/capsense.c **** 
1487:Generated_Source\PSoC4/capsense.c ****     /* `#START capsense_PreSettlingDelay_Debug` */
1488:Generated_Source\PSoC4/capsense.c **** 
1489:Generated_Source\PSoC4/capsense.c ****     /* `#END` */
1490:Generated_Source\PSoC4/capsense.c **** 
1491:Generated_Source\PSoC4/capsense.c **** #ifdef capsense_PRE_SCAN_PRE_SETTLING_DELAY_DEBUG_CALLBACK
1492:Generated_Source\PSoC4/capsense.c ****     capsense_PreScan_Pre_SettlingDelay_Debug_Callback();
1493:Generated_Source\PSoC4/capsense.c **** #endif /* capsense_PRE_SCAN_PRE_SETTLING_DELAY_DEBUG_CALLBACK */
1494:Generated_Source\PSoC4/capsense.c **** 
1495:Generated_Source\PSoC4/capsense.c ****     CyDelayCycles(capsense_GLITCH_ELIMINATION_CYCLES);
1496:Generated_Source\PSoC4/capsense.c **** 
1497:Generated_Source\PSoC4/capsense.c ****     /* `#START capsense_PreScan_Debug` */
1498:Generated_Source\PSoC4/capsense.c **** 
1499:Generated_Source\PSoC4/capsense.c ****     /* `#END` */
1500:Generated_Source\PSoC4/capsense.c **** 
1501:Generated_Source\PSoC4/capsense.c **** #ifdef capsense_PRE_SCAN_DEBUG_CALLBACK
1502:Generated_Source\PSoC4/capsense.c ****     capsense_PreScan_Debug_Callback();
1503:Generated_Source\PSoC4/capsense.c **** #endif /* capsense_PRE_SCAN_DEBUG_CALLBACK */
1504:Generated_Source\PSoC4/capsense.c **** 
1505:Generated_Source\PSoC4/capsense.c ****     capsense_CSD_CNT_REG = counterResolution;
1506:Generated_Source\PSoC4/capsense.c ****     CyExitCriticalSection(interruptState);
1507:Generated_Source\PSoC4/capsense.c **** }
1508:Generated_Source\PSoC4/capsense.c **** 
1509:Generated_Source\PSoC4/capsense.c **** 
1510:Generated_Source\PSoC4/capsense.c **** /*******************************************************************************
1511:Generated_Source\PSoC4/capsense.c **** * Function Name: capsense_PostScan
1512:Generated_Source\PSoC4/capsense.c **** ********************************************************************************
1513:Generated_Source\PSoC4/capsense.c **** *
1514:Generated_Source\PSoC4/capsense.c **** * Summary:
1515:Generated_Source\PSoC4/capsense.c **** *  Stores the results of measurement in the capsense_sensorRaw[] array,
1516:Generated_Source\PSoC4/capsense.c **** *  sets the scanning sensor in the non-sampling state, turns off Idac(Current Source IDAC),
1517:Generated_Source\PSoC4/capsense.c **** *  disconnects the IDAC(Sink mode), and applies Vref on AMUX.
1518:Generated_Source\PSoC4/capsense.c **** *
1519:Generated_Source\PSoC4/capsense.c **** * Parameters:
1520:Generated_Source\PSoC4/capsense.c **** *  sensor:  Sensor number.
1521:Generated_Source\PSoC4/capsense.c **** *
1522:Generated_Source\PSoC4/capsense.c **** * Return:
1523:Generated_Source\PSoC4/capsense.c **** *  None
ARM GAS  C:\Users\puria\AppData\Local\Temp\ccYRkNAS.s 			page 42


1524:Generated_Source\PSoC4/capsense.c **** *
1525:Generated_Source\PSoC4/capsense.c **** * Global Variables:
1526:Generated_Source\PSoC4/capsense.c **** *  capsense_sensorRaw[] - used to store sensors raw data.
1527:Generated_Source\PSoC4/capsense.c **** *
1528:Generated_Source\PSoC4/capsense.c **** * Side Effects:
1529:Generated_Source\PSoC4/capsense.c **** *  None
1530:Generated_Source\PSoC4/capsense.c **** *
1531:Generated_Source\PSoC4/capsense.c **** *******************************************************************************/
1532:Generated_Source\PSoC4/capsense.c **** void capsense_PostScan(uint32 sensor)
1533:Generated_Source\PSoC4/capsense.c **** {
1534:Generated_Source\PSoC4/capsense.c ****     uint32 newRegValue;
1535:Generated_Source\PSoC4/capsense.c **** #if ((capsense_TUNING_METHOD == capsense__TUNING_AUTO) &&\
1536:Generated_Source\PSoC4/capsense.c ****      (0 != capsense_IS_OVERSAMPLING_EN))
1537:Generated_Source\PSoC4/capsense.c ****     uint32 oversamplingFactor;
1538:Generated_Source\PSoC4/capsense.c ****     uint32 widget;
1539:Generated_Source\PSoC4/capsense.c **** #endif /* ((capsense_TUNING_METHOD == capsense__TUNING_AUTO) &&\
1540:Generated_Source\PSoC4/capsense.c ****            (0 != capsense_IS_OVERSAMPLING_EN)) */
1541:Generated_Source\PSoC4/capsense.c **** 
1542:Generated_Source\PSoC4/capsense.c ****     /* `#START capsense_PostScan_Debug` */
1543:Generated_Source\PSoC4/capsense.c **** 
1544:Generated_Source\PSoC4/capsense.c ****     /* `#END` */
1545:Generated_Source\PSoC4/capsense.c **** 
1546:Generated_Source\PSoC4/capsense.c **** #ifdef capsense_POST_SCAN_DEBUG_CALLBACK
1547:Generated_Source\PSoC4/capsense.c ****     capsense_PostScan_Debug_Callback();
1548:Generated_Source\PSoC4/capsense.c **** #endif /* capsense_POST_SCAN_DEBUG_Callback */
1549:Generated_Source\PSoC4/capsense.c **** 
1550:Generated_Source\PSoC4/capsense.c ****     /* Read SlotResult from Raw Counter */
1551:Generated_Source\PSoC4/capsense.c ****     capsense_sensorRaw[sensor]  = (uint16)capsense_CSD_CNT_REG;
1552:Generated_Source\PSoC4/capsense.c **** 
1553:Generated_Source\PSoC4/capsense.c **** #if ((capsense_TUNING_METHOD == capsense__TUNING_AUTO) &&\
1554:Generated_Source\PSoC4/capsense.c ****      (0 != capsense_IS_OVERSAMPLING_EN))
1555:Generated_Source\PSoC4/capsense.c ****     widget = capsense_widgetNumber[sensor];
1556:Generated_Source\PSoC4/capsense.c ****     if(capsense_widgetResolution[widget] < capsense_RESOLUTION_16_BITS)
1557:Generated_Source\PSoC4/capsense.c ****     {
1558:Generated_Source\PSoC4/capsense.c ****         oversamplingFactor = capsense_GetBitValue(capsense_scanSpeedTbl, sensor);
1559:Generated_Source\PSoC4/capsense.c ****         capsense_sensorRaw[sensor] >>= oversamplingFactor;
1560:Generated_Source\PSoC4/capsense.c ****     }
1561:Generated_Source\PSoC4/capsense.c **** #endif /* ((capsense_TUNING_METHOD == capsense__TUNING_AUTO) &&\
1562:Generated_Source\PSoC4/capsense.c ****            (0 != capsense_IS_OVERSAMPLING_EN)) */
1563:Generated_Source\PSoC4/capsense.c **** 
1564:Generated_Source\PSoC4/capsense.c ****     /* Disable Sensor */
1565:Generated_Source\PSoC4/capsense.c ****     capsense_DisableScanSlot(sensor);
1566:Generated_Source\PSoC4/capsense.c **** 
1567:Generated_Source\PSoC4/capsense.c ****     CyIntDisable(capsense_ISR_NUMBER);
1568:Generated_Source\PSoC4/capsense.c **** 
1569:Generated_Source\PSoC4/capsense.c **** #if(capsense_CMOD_PREGARGE_OPTION == capsense__CAPPRIOBUF)
1570:Generated_Source\PSoC4/capsense.c ****     newRegValue = capsense_CMOD_CONNECTION_REG;
1571:Generated_Source\PSoC4/capsense.c ****     newRegValue &= ~(capsense_CSD_CMOD_CONNECTION_MASK);
1572:Generated_Source\PSoC4/capsense.c ****     newRegValue |= capsense_CSD_CMOD_TO_AMUXBUS_B;
1573:Generated_Source\PSoC4/capsense.c ****     capsense_CMOD_CONNECTION_REG = newRegValue;
1574:Generated_Source\PSoC4/capsense.c **** 
1575:Generated_Source\PSoC4/capsense.c ****     newRegValue = capsense_CMOD_PORT_PC_REG;
1576:Generated_Source\PSoC4/capsense.c ****     newRegValue &= ~(capsense_CSD_CMOD_PC_MASK);
1577:Generated_Source\PSoC4/capsense.c ****     newRegValue |= capsense_CMOD_PC_STRONG_MODE;
1578:Generated_Source\PSoC4/capsense.c ****     capsense_CMOD_PORT_PC_REG = newRegValue;
1579:Generated_Source\PSoC4/capsense.c **** 
1580:Generated_Source\PSoC4/capsense.c ****     newRegValue = capsense_CMOD_PORT_DR_REG;
ARM GAS  C:\Users\puria\AppData\Local\Temp\ccYRkNAS.s 			page 43


1581:Generated_Source\PSoC4/capsense.c ****     newRegValue &= ~(capsense_CMOD_DR_MASK);
1582:Generated_Source\PSoC4/capsense.c ****     newRegValue |= capsense_CMOD_DR_CONFIG;
1583:Generated_Source\PSoC4/capsense.c ****     capsense_CMOD_PORT_DR_REG = newRegValue;
1584:Generated_Source\PSoC4/capsense.c **** #endif /* (capsense_CMOD_PREGARGE_OPTION == capsense__CAPPRIOBUF) */
1585:Generated_Source\PSoC4/capsense.c **** 
1586:Generated_Source\PSoC4/capsense.c ****     /* Connect Vref Buffer to AMUX bus  */
1587:Generated_Source\PSoC4/capsense.c ****     newRegValue = capsense_CSD_CFG_REG;
1588:Generated_Source\PSoC4/capsense.c ****     newRegValue &= ~(capsense_PRECHARGE_CONFIG_MASK);
1589:Generated_Source\PSoC4/capsense.c ****     newRegValue |= capsense_CMOD_PRECHARGE_CONFIG;
1590:Generated_Source\PSoC4/capsense.c ****     capsense_CSD_CFG_REG = newRegValue;
1591:Generated_Source\PSoC4/capsense.c **** 
1592:Generated_Source\PSoC4/capsense.c ****     /* Set Idac Value = 0 */
1593:Generated_Source\PSoC4/capsense.c **** #if (capsense_IDAC_CNT == 1u)
1594:Generated_Source\PSoC4/capsense.c ****     capsense_CSD_IDAC_REG &= ~(capsense_CSD_IDAC1_DATA_MASK);
1595:Generated_Source\PSoC4/capsense.c **** #else
1596:Generated_Source\PSoC4/capsense.c ****     capsense_CSD_IDAC_REG &= ~(capsense_CSD_IDAC1_DATA_MASK | capsense_CSD_IDAC2_DATA_MASK);
1597:Generated_Source\PSoC4/capsense.c **** #endif /* (capsense_IDAC_CNT == 1u) */
1598:Generated_Source\PSoC4/capsense.c **** 
1599:Generated_Source\PSoC4/capsense.c ****     CyIntEnable(capsense_ISR_NUMBER);
1600:Generated_Source\PSoC4/capsense.c **** }
1601:Generated_Source\PSoC4/capsense.c **** 
1602:Generated_Source\PSoC4/capsense.c **** 
1603:Generated_Source\PSoC4/capsense.c **** /*******************************************************************************
1604:Generated_Source\PSoC4/capsense.c **** * Function Name: capsense_EnableShieldElectrode
1605:Generated_Source\PSoC4/capsense.c **** ********************************************************************************
1606:Generated_Source\PSoC4/capsense.c **** *
1607:Generated_Source\PSoC4/capsense.c **** * Summary:
1608:Generated_Source\PSoC4/capsense.c **** *  This API enables or disables the shield electrode on a specified port pin.
1609:Generated_Source\PSoC4/capsense.c **** *
1610:Generated_Source\PSoC4/capsense.c **** * Parameters:
1611:Generated_Source\PSoC4/capsense.c **** *  portNumber: contains the shield electrode port number (0, 1, 2).
1612:Generated_Source\PSoC4/capsense.c **** *  pinNumber: contains the shield electrode pin number (0, 1, 2, ... , 7).
1613:Generated_Source\PSoC4/capsense.c **** *
1614:Generated_Source\PSoC4/capsense.c **** * Return:
1615:Generated_Source\PSoC4/capsense.c **** *  None
1616:Generated_Source\PSoC4/capsense.c **** *
1617:Generated_Source\PSoC4/capsense.c **** * Global Variables:
1618:Generated_Source\PSoC4/capsense.c **** *  capsense_prtCfgTbl[] - Contains pointers to the port config registers for each port.
1619:Generated_Source\PSoC4/capsense.c **** *  capsense_prtSelTbl[] - Contains pointers to the HSIOM registers for each port.
1620:Generated_Source\PSoC4/capsense.c **** *
1621:Generated_Source\PSoC4/capsense.c **** * Side Effects:
1622:Generated_Source\PSoC4/capsense.c **** *  None
1623:Generated_Source\PSoC4/capsense.c **** *
1624:Generated_Source\PSoC4/capsense.c **** *******************************************************************************/
1625:Generated_Source\PSoC4/capsense.c **** void capsense_EnableShieldElectrode(uint32 pinNumber, uint32 portNumber)
1626:Generated_Source\PSoC4/capsense.c **** {
 792              		.loc 1 1626 0
 793              		.cfi_startproc
 794              		@ args = 0, pretend = 0, frame = 0
 795              		@ frame_needed = 0, uses_anonymous_args = 0
 796              	.LVL94:
 797 0000 30B5     		push	{r4, r5, lr}
 798              		.cfi_def_cfa_offset 12
 799              		.cfi_offset 4, -12
 800              		.cfi_offset 5, -8
 801              		.cfi_offset 14, -4
1627:Generated_Source\PSoC4/capsense.c ****     uint32 newRegValue;
ARM GAS  C:\Users\puria\AppData\Local\Temp\ccYRkNAS.s 			page 44


1628:Generated_Source\PSoC4/capsense.c **** 
1629:Generated_Source\PSoC4/capsense.c ****     *capsense_prtCfgTbl[portNumber] &= ~(capsense_CSD_PIN_MODE_MASK << (pinNumber * capsense_PC_PIN
 802              		.loc 1 1629 0
 803 0002 8900     		lsls	r1, r1, #2
 804              	.LVL95:
 805 0004 0A4B     		ldr	r3, .L50
 806 0006 5918     		adds	r1, r3, r1
 807 0008 CD6A     		ldr	r5, [r1, #44]
 808 000a 2B68     		ldr	r3, [r5]
 809 000c 4400     		lsls	r4, r0, #1
 810 000e 2418     		adds	r4, r4, r0
 811 0010 0722     		movs	r2, #7
 812 0012 A240     		lsls	r2, r2, r4
 813 0014 9343     		bics	r3, r2
 814 0016 2B60     		str	r3, [r5]
1630:Generated_Source\PSoC4/capsense.c ****     newRegValue = *capsense_prtSelTbl[portNumber];
 815              		.loc 1 1630 0
 816 0018 0969     		ldr	r1, [r1, #16]
 817 001a 0B68     		ldr	r3, [r1]
 818              	.LVL96:
1631:Generated_Source\PSoC4/capsense.c ****     newRegValue &= ~(capsense_CSD_HSIOM_MASK << (pinNumber * capsense_HSIOM_PIN_CFG_SIZE));
 819              		.loc 1 1631 0
 820 001c 8000     		lsls	r0, r0, #2
 821              	.LVL97:
 822 001e 0F22     		movs	r2, #15
 823 0020 8240     		lsls	r2, r2, r0
 824 0022 9343     		bics	r3, r2
 825              	.LVL98:
 826 0024 1A00     		movs	r2, r3
 827              	.LVL99:
1632:Generated_Source\PSoC4/capsense.c ****     newRegValue |= (capsense_CSD_SHIELD_PORT_MODE << (pinNumber * capsense_HSIOM_PIN_CFG_SIZE));
 828              		.loc 1 1632 0
 829 0026 0523     		movs	r3, #5
 830 0028 8340     		lsls	r3, r3, r0
 831 002a 1343     		orrs	r3, r2
 832              	.LVL100:
1633:Generated_Source\PSoC4/capsense.c ****     *capsense_prtSelTbl[portNumber] = newRegValue;
 833              		.loc 1 1633 0
 834 002c 0B60     		str	r3, [r1]
1634:Generated_Source\PSoC4/capsense.c **** }
 835              		.loc 1 1634 0
 836              		@ sp needed
 837 002e 30BD     		pop	{r4, r5, pc}
 838              	.L51:
 839              		.align	2
 840              	.L50:
 841 0030 00000000 		.word	.LANCHOR2
 842              		.cfi_endproc
 843              	.LFE56:
 844              		.size	capsense_EnableShieldElectrode, .-capsense_EnableShieldElectrode
 845              		.section	.text.capsense_SetShieldDelay,"ax",%progbits
 846              		.align	2
 847              		.global	capsense_SetShieldDelay
 848              		.code	16
 849              		.thumb_func
 850              		.type	capsense_SetShieldDelay, %function
 851              	capsense_SetShieldDelay:
ARM GAS  C:\Users\puria\AppData\Local\Temp\ccYRkNAS.s 			page 45


 852              	.LFB57:
1635:Generated_Source\PSoC4/capsense.c **** 
1636:Generated_Source\PSoC4/capsense.c **** 
1637:Generated_Source\PSoC4/capsense.c **** /*******************************************************************************
1638:Generated_Source\PSoC4/capsense.c **** * Function Name: capsense_SetShieldDelay
1639:Generated_Source\PSoC4/capsense.c **** ********************************************************************************
1640:Generated_Source\PSoC4/capsense.c **** *
1641:Generated_Source\PSoC4/capsense.c **** * Summary:
1642:Generated_Source\PSoC4/capsense.c **** *  This API sets a shield delay.
1643:Generated_Source\PSoC4/capsense.c **** *
1644:Generated_Source\PSoC4/capsense.c **** * Parameters:
1645:Generated_Source\PSoC4/capsense.c **** *  delay:  shield delay value:
1646:Generated_Source\PSoC4/capsense.c **** *                               0 - no delay
1647:Generated_Source\PSoC4/capsense.c **** *                               1 - 1 cycle delay
1648:Generated_Source\PSoC4/capsense.c **** *                               2 - 2 cycles delay
1649:Generated_Source\PSoC4/capsense.c **** *
1650:Generated_Source\PSoC4/capsense.c **** * Return:
1651:Generated_Source\PSoC4/capsense.c **** *  None
1652:Generated_Source\PSoC4/capsense.c **** *
1653:Generated_Source\PSoC4/capsense.c **** * Global Variables:
1654:Generated_Source\PSoC4/capsense.c **** *  None
1655:Generated_Source\PSoC4/capsense.c **** *
1656:Generated_Source\PSoC4/capsense.c **** * Side Effects:
1657:Generated_Source\PSoC4/capsense.c **** *  None
1658:Generated_Source\PSoC4/capsense.c **** *
1659:Generated_Source\PSoC4/capsense.c **** *******************************************************************************/
1660:Generated_Source\PSoC4/capsense.c **** void capsense_SetShieldDelay(uint32 delay)
1661:Generated_Source\PSoC4/capsense.c **** {
 853              		.loc 1 1661 0
 854              		.cfi_startproc
 855              		@ args = 0, pretend = 0, frame = 0
 856              		@ frame_needed = 0, uses_anonymous_args = 0
 857              		@ link register save eliminated.
 858              	.LVL101:
1662:Generated_Source\PSoC4/capsense.c ****     uint32 newRegValue;
1663:Generated_Source\PSoC4/capsense.c **** 
1664:Generated_Source\PSoC4/capsense.c ****     delay &= 0x03u;
1665:Generated_Source\PSoC4/capsense.c **** 
1666:Generated_Source\PSoC4/capsense.c ****     newRegValue = capsense_CSD_CFG_REG;
 859              		.loc 1 1666 0
 860 0000 044A     		ldr	r2, .L53
 861 0002 1168     		ldr	r1, [r2]
 862              	.LVL102:
1667:Generated_Source\PSoC4/capsense.c ****     newRegValue &= (uint32)(~(uint32)capsense_SHIELD_DELAY);
1668:Generated_Source\PSoC4/capsense.c ****     newRegValue |= (delay << capsense_CSD_CFG_SHIELD_DELAY_POS);
 863              		.loc 1 1668 0
 864 0004 4002     		lsls	r0, r0, #9
 865              	.LVL103:
 866 0006 C023     		movs	r3, #192
 867 0008 DB00     		lsls	r3, r3, #3
 868 000a 1840     		ands	r0, r3
 869 000c 0843     		orrs	r0, r1
 870              	.LVL104:
1669:Generated_Source\PSoC4/capsense.c ****     capsense_CSD_CFG_REG = newRegValue;
 871              		.loc 1 1669 0
 872 000e 1060     		str	r0, [r2]
1670:Generated_Source\PSoC4/capsense.c **** }
ARM GAS  C:\Users\puria\AppData\Local\Temp\ccYRkNAS.s 			page 46


 873              		.loc 1 1670 0
 874              		@ sp needed
 875 0010 7047     		bx	lr
 876              	.L54:
 877 0012 C046     		.align	2
 878              	.L53:
 879 0014 04002840 		.word	1076363268
 880              		.cfi_endproc
 881              	.LFE57:
 882              		.size	capsense_SetShieldDelay, .-capsense_SetShieldDelay
 883              		.section	.text.capsense_ReadCurrentScanningSensor,"ax",%progbits
 884              		.align	2
 885              		.global	capsense_ReadCurrentScanningSensor
 886              		.code	16
 887              		.thumb_func
 888              		.type	capsense_ReadCurrentScanningSensor, %function
 889              	capsense_ReadCurrentScanningSensor:
 890              	.LFB58:
1671:Generated_Source\PSoC4/capsense.c **** 
1672:Generated_Source\PSoC4/capsense.c **** 
1673:Generated_Source\PSoC4/capsense.c **** /*******************************************************************************
1674:Generated_Source\PSoC4/capsense.c **** * Function Name: capsense_ReadCurrentScanningSensor
1675:Generated_Source\PSoC4/capsense.c **** ********************************************************************************
1676:Generated_Source\PSoC4/capsense.c **** *
1677:Generated_Source\PSoC4/capsense.c **** * Summary:
1678:Generated_Source\PSoC4/capsense.c **** *  This API returns scanning sensor number when sensor scan is in progress.
1679:Generated_Source\PSoC4/capsense.c **** *  When sensor scan is completed the API returns
1680:Generated_Source\PSoC4/capsense.c **** *  $INSTANCE_NAME`_NOT_SENSOR (0xFFFFFFFF) (when no sensor is scanned).
1681:Generated_Source\PSoC4/capsense.c **** *
1682:Generated_Source\PSoC4/capsense.c **** * Parameters:
1683:Generated_Source\PSoC4/capsense.c **** *   None.
1684:Generated_Source\PSoC4/capsense.c **** *
1685:Generated_Source\PSoC4/capsense.c **** * Return:
1686:Generated_Source\PSoC4/capsense.c **** *  Returns Sensor number if sensor is being scanned and
1687:Generated_Source\PSoC4/capsense.c **** *  $INSTANCE_NAME`_NOT_SENSOR (0xFFFFFFFF) if scanning is complete.
1688:Generated_Source\PSoC4/capsense.c **** *
1689:Generated_Source\PSoC4/capsense.c **** * Global Variables:
1690:Generated_Source\PSoC4/capsense.c **** *  capsense_sensorIndex - the sensor number is being scanned.
1691:Generated_Source\PSoC4/capsense.c **** *
1692:Generated_Source\PSoC4/capsense.c **** * Side Effects:
1693:Generated_Source\PSoC4/capsense.c **** *  None
1694:Generated_Source\PSoC4/capsense.c **** *
1695:Generated_Source\PSoC4/capsense.c **** *******************************************************************************/
1696:Generated_Source\PSoC4/capsense.c **** uint32 capsense_ReadCurrentScanningSensor(void)
1697:Generated_Source\PSoC4/capsense.c **** {
 891              		.loc 1 1697 0
 892              		.cfi_startproc
 893              		@ args = 0, pretend = 0, frame = 0
 894              		@ frame_needed = 0, uses_anonymous_args = 0
 895              		@ link register save eliminated.
1698:Generated_Source\PSoC4/capsense.c ****     return ((uint32)(( 0u != (capsense_csdStatusVar & capsense_SW_STS_BUSY)) ?
 896              		.loc 1 1698 0
 897 0000 054B     		ldr	r3, .L58
 898 0002 1B78     		ldrb	r3, [r3]
 899 0004 DB07     		lsls	r3, r3, #31
 900 0006 03D5     		bpl	.L57
 901              		.loc 1 1698 0 is_stmt 0 discriminator 1
ARM GAS  C:\Users\puria\AppData\Local\Temp\ccYRkNAS.s 			page 47


 902 0008 034B     		ldr	r3, .L58
 903 000a 987B     		ldrb	r0, [r3, #14]
 904 000c C0B2     		uxtb	r0, r0
 905 000e 01E0     		b	.L56
 906              	.L57:
 907              		.loc 1 1698 0
 908 0010 0120     		movs	r0, #1
 909 0012 4042     		rsbs	r0, r0, #0
 910              	.L56:
1699:Generated_Source\PSoC4/capsense.c ****                      capsense_sensorIndex : capsense_NOT_SENSOR));
1700:Generated_Source\PSoC4/capsense.c **** }
 911              		.loc 1 1700 0 is_stmt 1 discriminator 4
 912              		@ sp needed
 913 0014 7047     		bx	lr
 914              	.L59:
 915 0016 C046     		.align	2
 916              	.L58:
 917 0018 00000000 		.word	.LANCHOR0
 918              		.cfi_endproc
 919              	.LFE58:
 920              		.size	capsense_ReadCurrentScanningSensor, .-capsense_ReadCurrentScanningSensor
 921              		.section	.text.capsense_GetBitValue,"ax",%progbits
 922              		.align	2
 923              		.global	capsense_GetBitValue
 924              		.code	16
 925              		.thumb_func
 926              		.type	capsense_GetBitValue, %function
 927              	capsense_GetBitValue:
 928              	.LFB59:
1701:Generated_Source\PSoC4/capsense.c **** 
1702:Generated_Source\PSoC4/capsense.c **** 
1703:Generated_Source\PSoC4/capsense.c **** /*******************************************************************************
1704:Generated_Source\PSoC4/capsense.c **** * Function Name: capsense_GetBitValue
1705:Generated_Source\PSoC4/capsense.c **** ********************************************************************************
1706:Generated_Source\PSoC4/capsense.c **** *
1707:Generated_Source\PSoC4/capsense.c **** * Summary:
1708:Generated_Source\PSoC4/capsense.c **** *  The API returns a bit status of the bit in the table array which contains the masks.
1709:Generated_Source\PSoC4/capsense.c **** *
1710:Generated_Source\PSoC4/capsense.c **** * Parameters:
1711:Generated_Source\PSoC4/capsense.c **** *  table[] - array with bit masks.
1712:Generated_Source\PSoC4/capsense.c **** *  position - position of bit in the table[] array.
1713:Generated_Source\PSoC4/capsense.c **** *
1714:Generated_Source\PSoC4/capsense.c **** * Return:
1715:Generated_Source\PSoC4/capsense.c **** *  0 - bit is not set; 1 - bit is set.
1716:Generated_Source\PSoC4/capsense.c **** *
1717:Generated_Source\PSoC4/capsense.c **** * Global Variables:
1718:Generated_Source\PSoC4/capsense.c **** *  None
1719:Generated_Source\PSoC4/capsense.c **** *
1720:Generated_Source\PSoC4/capsense.c **** * Side Effects:
1721:Generated_Source\PSoC4/capsense.c **** *  None
1722:Generated_Source\PSoC4/capsense.c **** *
1723:Generated_Source\PSoC4/capsense.c **** *******************************************************************************/
1724:Generated_Source\PSoC4/capsense.c **** uint32 capsense_GetBitValue(const uint8 table[], uint32 position)
1725:Generated_Source\PSoC4/capsense.c **** {
 929              		.loc 1 1725 0
 930              		.cfi_startproc
 931              		@ args = 0, pretend = 0, frame = 0
ARM GAS  C:\Users\puria\AppData\Local\Temp\ccYRkNAS.s 			page 48


 932              		@ frame_needed = 0, uses_anonymous_args = 0
 933              		@ link register save eliminated.
 934              	.LVL105:
1726:Generated_Source\PSoC4/capsense.c ****     uint32 offset;
1727:Generated_Source\PSoC4/capsense.c ****     uint8 enMask;
1728:Generated_Source\PSoC4/capsense.c **** 
1729:Generated_Source\PSoC4/capsense.c ****     /* position is divided by 8 to calculate the element of the
1730:Generated_Source\PSoC4/capsense.c ****        table[] array that contains the enable bit
1731:Generated_Source\PSoC4/capsense.c ****        for an appropriate sensor.
1732:Generated_Source\PSoC4/capsense.c ****     */
1733:Generated_Source\PSoC4/capsense.c ****     offset = (position >> 3u);
 935              		.loc 1 1733 0
 936 0000 CA08     		lsrs	r2, r1, #3
 937              	.LVL106:
1734:Generated_Source\PSoC4/capsense.c **** 
1735:Generated_Source\PSoC4/capsense.c ****     /* The enMask calculation for the appropriate sensor. Operation (position & 0x07u)
1736:Generated_Source\PSoC4/capsense.c ****        intends to calculate the enable bit offset for the 8-bit element of the
1737:Generated_Source\PSoC4/capsense.c ****        table[] array.
1738:Generated_Source\PSoC4/capsense.c ****     */
1739:Generated_Source\PSoC4/capsense.c ****     enMask = 0x01u << (position & 0x07u);
 938              		.loc 1 1739 0
 939 0002 0723     		movs	r3, #7
 940 0004 1940     		ands	r1, r3
 941              	.LVL107:
 942 0006 063B     		subs	r3, r3, #6
 943 0008 8B40     		lsls	r3, r3, r1
 944              	.LVL108:
1740:Generated_Source\PSoC4/capsense.c **** 
1741:Generated_Source\PSoC4/capsense.c ****     return ((0u !=(table[offset] & enMask)) ? 1Lu : 0Lu);
 945              		.loc 1 1741 0
 946 000a 825C     		ldrb	r2, [r0, r2]
 947              	.LVL109:
 948 000c 1342     		tst	r3, r2
 949 000e 01D0     		beq	.L62
 950 0010 0120     		movs	r0, #1
 951              	.LVL110:
 952 0012 00E0     		b	.L61
 953              	.LVL111:
 954              	.L62:
 955 0014 0020     		movs	r0, #0
 956              	.LVL112:
 957              	.L61:
1742:Generated_Source\PSoC4/capsense.c **** }
 958              		.loc 1 1742 0 discriminator 4
 959              		@ sp needed
 960 0016 7047     		bx	lr
 961              		.cfi_endproc
 962              	.LFE59:
 963              		.size	capsense_GetBitValue, .-capsense_GetBitValue
 964              		.section	.text.capsense_FindNextSensor,"ax",%progbits
 965              		.align	2
 966              		.global	capsense_FindNextSensor
 967              		.code	16
 968              		.thumb_func
 969              		.type	capsense_FindNextSensor, %function
 970              	capsense_FindNextSensor:
 971              	.LFB39:
ARM GAS  C:\Users\puria\AppData\Local\Temp\ccYRkNAS.s 			page 49


 507:Generated_Source\PSoC4/capsense.c ****     uint32 enableFlag;
 972              		.loc 1 507 0
 973              		.cfi_startproc
 974              		@ args = 0, pretend = 0, frame = 0
 975              		@ frame_needed = 0, uses_anonymous_args = 0
 976              	.LVL113:
 977 0000 10B5     		push	{r4, lr}
 978              		.cfi_def_cfa_offset 8
 979              		.cfi_offset 4, -8
 980              		.cfi_offset 14, -4
 981 0002 0400     		movs	r4, r0
 982              	.LVL114:
 983              	.L65:
 514:Generated_Source\PSoC4/capsense.c ****         if(snsIndex == capsense_TOTAL_SENSOR_COUNT)
 984              		.loc 1 514 0
 985 0004 0134     		adds	r4, r4, #1
 986              	.LVL115:
 987 0006 E4B2     		uxtb	r4, r4
 988              	.LVL116:
 515:Generated_Source\PSoC4/capsense.c ****         {
 989              		.loc 1 515 0
 990 0008 052C     		cmp	r4, #5
 991 000a 06D0     		beq	.L64
 519:Generated_Source\PSoC4/capsense.c ****     }
 992              		.loc 1 519 0
 993 000c 2100     		movs	r1, r4
 994 000e 0448     		ldr	r0, .L66
 995 0010 0430     		adds	r0, r0, #4
 996 0012 FFF7FEFF 		bl	capsense_GetBitValue
 997              	.LVL117:
 521:Generated_Source\PSoC4/capsense.c **** 
 998              		.loc 1 521 0
 999 0016 0028     		cmp	r0, #0
 1000 0018 F4D0     		beq	.L65
 1001              	.LVL118:
 1002              	.L64:
 524:Generated_Source\PSoC4/capsense.c **** 
 1003              		.loc 1 524 0
 1004 001a 2000     		movs	r0, r4
 1005              		@ sp needed
 1006              	.LVL119:
 1007 001c 10BD     		pop	{r4, pc}
 1008              	.L67:
 1009 001e C046     		.align	2
 1010              	.L66:
 1011 0020 00000000 		.word	.LANCHOR1
 1012              		.cfi_endproc
 1013              	.LFE39:
 1014              		.size	capsense_FindNextSensor, .-capsense_FindNextSensor
 1015              		.section	.text.capsense_PreScan,"ax",%progbits
 1016              		.align	2
 1017              		.global	capsense_PreScan
 1018              		.code	16
 1019              		.thumb_func
 1020              		.type	capsense_PreScan, %function
 1021              	capsense_PreScan:
 1022              	.LFB54:
ARM GAS  C:\Users\puria\AppData\Local\Temp\ccYRkNAS.s 			page 50


1336:Generated_Source\PSoC4/capsense.c ****     uint8 widget;
 1023              		.loc 1 1336 0
 1024              		.cfi_startproc
 1025              		@ args = 0, pretend = 0, frame = 0
 1026              		@ frame_needed = 0, uses_anonymous_args = 0
 1027              	.LVL120:
 1028 0000 F8B5     		push	{r3, r4, r5, r6, r7, lr}
 1029              		.cfi_def_cfa_offset 24
 1030              		.cfi_offset 3, -24
 1031              		.cfi_offset 4, -20
 1032              		.cfi_offset 5, -16
 1033              		.cfi_offset 6, -12
 1034              		.cfi_offset 7, -8
 1035              		.cfi_offset 14, -4
 1036 0002 0400     		movs	r4, r0
1354:Generated_Source\PSoC4/capsense.c **** 
 1037              		.loc 1 1354 0
 1038 0004 324B     		ldr	r3, .L71
 1039 0006 1B18     		adds	r3, r3, r0
 1040 0008 6422     		movs	r2, #100
 1041 000a 9B5C     		ldrb	r3, [r3, r2]
 1042              	.LVL121:
1357:Generated_Source\PSoC4/capsense.c **** 
 1043              		.loc 1 1357 0
 1044 000c 9B00     		lsls	r3, r3, #2
 1045              	.LVL122:
 1046 000e 314A     		ldr	r2, .L71+4
 1047              	.LVL123:
 1048 0010 9D58     		ldr	r5, [r3, r2]
 1049              	.LVL124:
1361:Generated_Source\PSoC4/capsense.c **** 
 1050              		.loc 1 1361 0
 1051 0012 0100     		movs	r1, r0
 1052 0014 3048     		ldr	r0, .L71+8
 1053              	.LVL125:
 1054 0016 FFF7FEFF 		bl	capsense_GetBitValue
 1055              	.LVL126:
1363:Generated_Source\PSoC4/capsense.c ****         {
 1056              		.loc 1 1363 0
 1057 001a 304B     		ldr	r3, .L71+12
 1058 001c 9D42     		cmp	r5, r3
 1059 001e 03D8     		bhi	.L69
1365:Generated_Source\PSoC4/capsense.c ****             counterResolution |= (uint32)(capsense_RESOLUTION_8_BITS);
 1060              		.loc 1 1365 0
 1061 0020 8540     		lsls	r5, r5, r0
 1062              	.LVL127:
1366:Generated_Source\PSoC4/capsense.c ****         }
 1063              		.loc 1 1366 0
 1064 0022 FF23     		movs	r3, #255
 1065 0024 1B04     		lsls	r3, r3, #16
 1066 0026 1D43     		orrs	r5, r3
 1067              	.LVL128:
 1068              	.L69:
1372:Generated_Source\PSoC4/capsense.c ****         capsense_SampleClk_Stop();
 1069              		.loc 1 1372 0
 1070 0028 FFF7FEFF 		bl	capsense_SenseClk_Stop
 1071              	.LVL129:
ARM GAS  C:\Users\puria\AppData\Local\Temp\ccYRkNAS.s 			page 51


1373:Generated_Source\PSoC4/capsense.c ****     #endif /* (0u != capsense_IS_M0S8PERI_BLOCK) */
 1072              		.loc 1 1373 0
 1073 002c FFF7FEFF 		bl	capsense_SampleClk_Stop
 1074              	.LVL130:
1377:Generated_Source\PSoC4/capsense.c ****         capsense_SenseClk_SetDividerValue((uint16)capsense_senseClkDividerVal[sensor]);
 1075              		.loc 1 1377 0
 1076 0030 2B4B     		ldr	r3, .L71+16
 1077 0032 185D     		ldrb	r0, [r3, r4]
 1078 0034 0138     		subs	r0, r0, #1
 1079 0036 80B2     		uxth	r0, r0
 1080 0038 0021     		movs	r1, #0
 1081 003a FFF7FEFF 		bl	capsense_SampleClk_SetFractionalDividerRegister
 1082              	.LVL131:
1378:Generated_Source\PSoC4/capsense.c ****     #else
 1083              		.loc 1 1378 0
 1084 003e 294B     		ldr	r3, .L71+20
 1085 0040 185D     		ldrb	r0, [r3, r4]
 1086 0042 0138     		subs	r0, r0, #1
 1087 0044 80B2     		uxth	r0, r0
 1088 0046 0021     		movs	r1, #0
 1089 0048 FFF7FEFF 		bl	capsense_SenseClk_SetFractionalDividerRegister
 1090              	.LVL132:
1385:Generated_Source\PSoC4/capsense.c ****         capsense_SenseClk_StartEx(capsense_SampleClk__DIV_ID);
 1091              		.loc 1 1385 0
 1092 004c FF20     		movs	r0, #255
 1093 004e FFF7FEFF 		bl	capsense_SampleClk_StartEx
 1094              	.LVL133:
1386:Generated_Source\PSoC4/capsense.c **** 
 1095              		.loc 1 1386 0
 1096 0052 4020     		movs	r0, #64
 1097 0054 FFF7FEFF 		bl	capsense_SenseClk_StartEx
 1098              	.LVL134:
1389:Generated_Source\PSoC4/capsense.c ****             capsense_CSD_CNT_REG = capsense_ONE_CYCLE;
 1099              		.loc 1 1389 0
 1100 0058 1020     		movs	r0, #16
 1101 005a FFF7FEFF 		bl	CyIntDisable
 1102              	.LVL135:
1390:Generated_Source\PSoC4/capsense.c ****             while(0u != (capsense_CSD_CNT_REG & capsense_RESOLUTION_16_BITS))
 1103              		.loc 1 1390 0
 1104 005e 8022     		movs	r2, #128
 1105 0060 5202     		lsls	r2, r2, #9
 1106 0062 214B     		ldr	r3, .L71+24
 1107 0064 1A60     		str	r2, [r3]
 1108              	.L70:
1391:Generated_Source\PSoC4/capsense.c ****             {
 1109              		.loc 1 1391 0 discriminator 1
 1110 0066 204B     		ldr	r3, .L71+24
 1111 0068 1B68     		ldr	r3, [r3]
 1112 006a 1B0C     		lsrs	r3, r3, #16
 1113 006c FBD1     		bne	.L70
1395:Generated_Source\PSoC4/capsense.c ****             CyIntClearPending(capsense_ISR_NUMBER);
 1114              		.loc 1 1395 0
 1115 006e 0122     		movs	r2, #1
 1116 0070 1E4B     		ldr	r3, .L71+28
 1117 0072 1A60     		str	r2, [r3]
1396:Generated_Source\PSoC4/capsense.c ****             CyIntEnable(capsense_ISR_NUMBER);
 1118              		.loc 1 1396 0
ARM GAS  C:\Users\puria\AppData\Local\Temp\ccYRkNAS.s 			page 52


 1119 0074 1020     		movs	r0, #16
 1120 0076 FFF7FEFF 		bl	CyIntClearPending
 1121              	.LVL136:
1397:Generated_Source\PSoC4/capsense.c ****         #endif /* capsense_PRS_OPTIONS == capsense__PRS_NONE */
 1122              		.loc 1 1397 0
 1123 007a 1020     		movs	r0, #16
 1124 007c FFF7FEFF 		bl	CyIntEnable
 1125              	.LVL137:
1447:Generated_Source\PSoC4/capsense.c ****     newRegValue = capsense_CSD_IDAC_REG;
 1126              		.loc 1 1447 0
 1127 0080 1020     		movs	r0, #16
 1128 0082 FFF7FEFF 		bl	CyIntDisable
 1129              	.LVL138:
1448:Generated_Source\PSoC4/capsense.c **** 
 1130              		.loc 1 1448 0
 1131 0086 1A48     		ldr	r0, .L71+32
 1132 0088 0168     		ldr	r1, [r0]
 1133              	.LVL139:
1454:Generated_Source\PSoC4/capsense.c ****     newRegValue |= (capsense_modulationIDAC[sensor] |
 1134              		.loc 1 1454 0
 1135 008a 1A4B     		ldr	r3, .L71+36
 1136 008c 1940     		ands	r1, r3
 1137              	.LVL140:
1455:Generated_Source\PSoC4/capsense.c ****                             (uint32)((uint32)capsense_compensationIDAC[sensor] <<
 1138              		.loc 1 1455 0
 1139 008e 1A4B     		ldr	r3, .L71+40
 1140 0090 1B5D     		ldrb	r3, [r3, r4]
1456:Generated_Source\PSoC4/capsense.c ****                             capsense_CSD_IDAC2_DATA_OFFSET));
 1141              		.loc 1 1456 0
 1142 0092 1A4A     		ldr	r2, .L71+44
 1143 0094 125D     		ldrb	r2, [r2, r4]
 1144 0096 1204     		lsls	r2, r2, #16
1455:Generated_Source\PSoC4/capsense.c ****                             (uint32)((uint32)capsense_compensationIDAC[sensor] <<
 1145              		.loc 1 1455 0
 1146 0098 1343     		orrs	r3, r2
 1147 009a 0B43     		orrs	r3, r1
 1148              	.LVL141:
1460:Generated_Source\PSoC4/capsense.c **** 
 1149              		.loc 1 1460 0
 1150 009c 0360     		str	r3, [r0]
1475:Generated_Source\PSoC4/capsense.c ****     newRegValue &= ~(capsense_PRECHARGE_CONFIG_MASK);
 1151              		.loc 1 1475 0
 1152 009e 184F     		ldr	r7, .L71+48
 1153 00a0 3E68     		ldr	r6, [r7]
 1154              	.LVL142:
1476:Generated_Source\PSoC4/capsense.c ****     newRegValue |= capsense_CTANK_PRECHARGE_CONFIG;
 1155              		.loc 1 1476 0
 1156 00a2 184B     		ldr	r3, .L71+52
 1157 00a4 1E40     		ands	r6, r3
 1158              	.LVL143:
1477:Generated_Source\PSoC4/capsense.c **** 
 1159              		.loc 1 1477 0
 1160 00a6 184B     		ldr	r3, .L71+56
 1161 00a8 1E43     		orrs	r6, r3
 1162              	.LVL144:
1479:Generated_Source\PSoC4/capsense.c **** 
 1163              		.loc 1 1479 0
ARM GAS  C:\Users\puria\AppData\Local\Temp\ccYRkNAS.s 			page 53


 1164 00aa 1020     		movs	r0, #16
 1165 00ac FFF7FEFF 		bl	CyIntEnable
 1166              	.LVL145:
1482:Generated_Source\PSoC4/capsense.c **** 
 1167              		.loc 1 1482 0
 1168 00b0 2000     		movs	r0, r4
 1169 00b2 FFF7FEFF 		bl	capsense_EnableSensor
 1170              	.LVL146:
1484:Generated_Source\PSoC4/capsense.c ****     capsense_CSD_CFG_REG = newRegValue;
 1171              		.loc 1 1484 0
 1172 00b6 FFF7FEFF 		bl	CyEnterCriticalSection
 1173              	.LVL147:
 1174 00ba 0400     		movs	r4, r0
 1175              	.LVL148:
1485:Generated_Source\PSoC4/capsense.c **** 
 1176              		.loc 1 1485 0
 1177 00bc 3E60     		str	r6, [r7]
1495:Generated_Source\PSoC4/capsense.c **** 
 1178              		.loc 1 1495 0
 1179 00be 0020     		movs	r0, #0
 1180 00c0 FFF7FEFF 		bl	CyDelayCycles
 1181              	.LVL149:
1505:Generated_Source\PSoC4/capsense.c ****     CyExitCriticalSection(interruptState);
 1182              		.loc 1 1505 0
 1183 00c4 084B     		ldr	r3, .L71+24
 1184 00c6 1D60     		str	r5, [r3]
1506:Generated_Source\PSoC4/capsense.c **** }
 1185              		.loc 1 1506 0
 1186 00c8 2000     		movs	r0, r4
 1187 00ca FFF7FEFF 		bl	CyExitCriticalSection
 1188              	.LVL150:
1507:Generated_Source\PSoC4/capsense.c **** 
 1189              		.loc 1 1507 0
 1190              		@ sp needed
 1191              	.LVL151:
 1192              	.LVL152:
 1193              	.LVL153:
 1194 00ce F8BD     		pop	{r3, r4, r5, r6, r7, pc}
 1195              	.L72:
 1196              		.align	2
 1197              	.L71:
 1198 00d0 00000000 		.word	.LANCHOR2
 1199 00d4 00000000 		.word	.LANCHOR1
 1200 00d8 00000000 		.word	capsense_scanSpeedTbl
 1201 00dc FFFFFEFF 		.word	-65537
 1202 00e0 00000000 		.word	capsense_sampleClkDividerVal
 1203 00e4 00000000 		.word	capsense_senseClkDividerVal
 1204 00e8 0C002840 		.word	1076363276
 1205 00ec 14002840 		.word	1076363284
 1206 00f0 08002840 		.word	1076363272
 1207 00f4 00FF80FF 		.word	-8323328
 1208 00f8 00000000 		.word	capsense_modulationIDAC
 1209 00fc 00000000 		.word	capsense_compensationIDAC
 1210 0100 04002840 		.word	1076363268
 1211 0104 FF1FDFFF 		.word	-2154497
 1212 0108 20E02000 		.word	2154528
 1213              		.cfi_endproc
ARM GAS  C:\Users\puria\AppData\Local\Temp\ccYRkNAS.s 			page 54


 1214              	.LFE54:
 1215              		.size	capsense_PreScan, .-capsense_PreScan
 1216              		.section	.text.capsense_ScanSensor,"ax",%progbits
 1217              		.align	2
 1218              		.global	capsense_ScanSensor
 1219              		.code	16
 1220              		.thumb_func
 1221              		.type	capsense_ScanSensor, %function
 1222              	capsense_ScanSensor:
 1223              	.LFB40:
 555:Generated_Source\PSoC4/capsense.c ****     /* Clears status/control variable and set sensorIndex */
 1224              		.loc 1 555 0
 1225              		.cfi_startproc
 1226              		@ args = 0, pretend = 0, frame = 0
 1227              		@ frame_needed = 0, uses_anonymous_args = 0
 1228              	.LVL154:
 1229 0000 10B5     		push	{r4, lr}
 1230              		.cfi_def_cfa_offset 8
 1231              		.cfi_offset 4, -8
 1232              		.cfi_offset 14, -4
 557:Generated_Source\PSoC4/capsense.c ****     capsense_sensorIndex = (uint8)sensor;
 1233              		.loc 1 557 0
 1234 0002 054B     		ldr	r3, .L74
 1235 0004 0022     		movs	r2, #0
 1236 0006 1A70     		strb	r2, [r3]
 558:Generated_Source\PSoC4/capsense.c **** 
 1237              		.loc 1 558 0
 1238 0008 C2B2     		uxtb	r2, r0
 1239 000a 9A73     		strb	r2, [r3, #14]
 561:Generated_Source\PSoC4/capsense.c ****     capsense_PreScan(sensor);
 1240              		.loc 1 561 0
 1241 000c 8122     		movs	r2, #129
 1242 000e 1A70     		strb	r2, [r3]
 562:Generated_Source\PSoC4/capsense.c **** }
 1243              		.loc 1 562 0
 1244 0010 FFF7FEFF 		bl	capsense_PreScan
 1245              	.LVL155:
 563:Generated_Source\PSoC4/capsense.c **** 
 1246              		.loc 1 563 0
 1247              		@ sp needed
 1248 0014 10BD     		pop	{r4, pc}
 1249              	.L75:
 1250 0016 C046     		.align	2
 1251              	.L74:
 1252 0018 00000000 		.word	.LANCHOR0
 1253              		.cfi_endproc
 1254              	.LFE40:
 1255              		.size	capsense_ScanSensor, .-capsense_ScanSensor
 1256              		.section	.text.capsense_ScanEnabledWidgets,"ax",%progbits
 1257              		.align	2
 1258              		.global	capsense_ScanEnabledWidgets
 1259              		.code	16
 1260              		.thumb_func
 1261              		.type	capsense_ScanEnabledWidgets, %function
 1262              	capsense_ScanEnabledWidgets:
 1263              	.LFB42:
 679:Generated_Source\PSoC4/capsense.c ****     /* Clears status/control variable and set sensorIndex */
ARM GAS  C:\Users\puria\AppData\Local\Temp\ccYRkNAS.s 			page 55


 1264              		.loc 1 679 0
 1265              		.cfi_startproc
 1266              		@ args = 0, pretend = 0, frame = 0
 1267              		@ frame_needed = 0, uses_anonymous_args = 0
 1268 0000 10B5     		push	{r4, lr}
 1269              		.cfi_def_cfa_offset 8
 1270              		.cfi_offset 4, -8
 1271              		.cfi_offset 14, -4
 681:Generated_Source\PSoC4/capsense.c ****     capsense_sensorIndex = 0xFFu;
 1272              		.loc 1 681 0
 1273 0002 0C4C     		ldr	r4, .L78
 1274 0004 0023     		movs	r3, #0
 1275 0006 2370     		strb	r3, [r4]
 682:Generated_Source\PSoC4/capsense.c **** 
 1276              		.loc 1 682 0
 1277 0008 FF33     		adds	r3, r3, #255
 1278 000a A373     		strb	r3, [r4, #14]
 685:Generated_Source\PSoC4/capsense.c **** 
 1279              		.loc 1 685 0
 1280 000c A07B     		ldrb	r0, [r4, #14]
 1281 000e C0B2     		uxtb	r0, r0
 1282 0010 FFF7FEFF 		bl	capsense_FindNextSensor
 1283              	.LVL156:
 1284 0014 A073     		strb	r0, [r4, #14]
 688:Generated_Source\PSoC4/capsense.c ****     {
 1285              		.loc 1 688 0
 1286 0016 A37B     		ldrb	r3, [r4, #14]
 1287 0018 DBB2     		uxtb	r3, r3
 1288 001a 042B     		cmp	r3, #4
 1289 001c 08D8     		bhi	.L76
 690:Generated_Source\PSoC4/capsense.c ****         capsense_PreScan((uint32)capsense_sensorIndex);
 1290              		.loc 1 690 0
 1291 001e 2178     		ldrb	r1, [r4]
 1292 0020 0123     		movs	r3, #1
 1293 0022 0B43     		orrs	r3, r1
 1294 0024 DBB2     		uxtb	r3, r3
 1295 0026 2370     		strb	r3, [r4]
 691:Generated_Source\PSoC4/capsense.c ****     }
 1296              		.loc 1 691 0
 1297 0028 A07B     		ldrb	r0, [r4, #14]
 1298 002a C0B2     		uxtb	r0, r0
 1299 002c FFF7FEFF 		bl	capsense_PreScan
 1300              	.LVL157:
 1301              	.L76:
 693:Generated_Source\PSoC4/capsense.c **** 
 1302              		.loc 1 693 0
 1303              		@ sp needed
 1304 0030 10BD     		pop	{r4, pc}
 1305              	.L79:
 1306 0032 C046     		.align	2
 1307              	.L78:
 1308 0034 00000000 		.word	.LANCHOR0
 1309              		.cfi_endproc
 1310              	.LFE42:
 1311              		.size	capsense_ScanEnabledWidgets, .-capsense_ScanEnabledWidgets
 1312              		.section	.text.capsense_PostScan,"ax",%progbits
 1313              		.align	2
ARM GAS  C:\Users\puria\AppData\Local\Temp\ccYRkNAS.s 			page 56


 1314              		.global	capsense_PostScan
 1315              		.code	16
 1316              		.thumb_func
 1317              		.type	capsense_PostScan, %function
 1318              	capsense_PostScan:
 1319              	.LFB55:
1533:Generated_Source\PSoC4/capsense.c ****     uint32 newRegValue;
 1320              		.loc 1 1533 0
 1321              		.cfi_startproc
 1322              		@ args = 0, pretend = 0, frame = 0
 1323              		@ frame_needed = 0, uses_anonymous_args = 0
 1324              	.LVL158:
 1325 0000 70B5     		push	{r4, r5, r6, lr}
 1326              		.cfi_def_cfa_offset 16
 1327              		.cfi_offset 4, -16
 1328              		.cfi_offset 5, -12
 1329              		.cfi_offset 6, -8
 1330              		.cfi_offset 14, -4
 1331 0002 0500     		movs	r5, r0
1551:Generated_Source\PSoC4/capsense.c **** 
 1332              		.loc 1 1551 0
 1333 0004 184B     		ldr	r3, .L82
 1334 0006 1C68     		ldr	r4, [r3]
 1335 0008 A4B2     		uxth	r4, r4
 1336 000a 4300     		lsls	r3, r0, #1
 1337 000c 174A     		ldr	r2, .L82+4
 1338 000e D318     		adds	r3, r2, r3
 1339 0010 9C80     		strh	r4, [r3, #4]
1555:Generated_Source\PSoC4/capsense.c ****     if(capsense_widgetResolution[widget] < capsense_RESOLUTION_16_BITS)
 1340              		.loc 1 1555 0
 1341 0012 174B     		ldr	r3, .L82+8
 1342 0014 1B18     		adds	r3, r3, r0
 1343 0016 6422     		movs	r2, #100
 1344 0018 9B5C     		ldrb	r3, [r3, r2]
 1345              	.LVL159:
1556:Generated_Source\PSoC4/capsense.c ****     {
 1346              		.loc 1 1556 0
 1347 001a 9B00     		lsls	r3, r3, #2
 1348              	.LVL160:
 1349 001c 154A     		ldr	r2, .L82+12
 1350              	.LVL161:
 1351 001e 9A58     		ldr	r2, [r3, r2]
 1352 0020 154B     		ldr	r3, .L82+16
 1353 0022 9A42     		cmp	r2, r3
 1354 0024 08D8     		bhi	.L81
1558:Generated_Source\PSoC4/capsense.c ****         capsense_sensorRaw[sensor] >>= oversamplingFactor;
 1355              		.loc 1 1558 0
 1356 0026 0100     		movs	r1, r0
 1357 0028 1448     		ldr	r0, .L82+20
 1358              	.LVL162:
 1359 002a FFF7FEFF 		bl	capsense_GetBitValue
 1360              	.LVL163:
1559:Generated_Source\PSoC4/capsense.c ****     }
 1361              		.loc 1 1559 0
 1362 002e 6B00     		lsls	r3, r5, #1
 1363 0030 0E4A     		ldr	r2, .L82+4
 1364 0032 D318     		adds	r3, r2, r3
ARM GAS  C:\Users\puria\AppData\Local\Temp\ccYRkNAS.s 			page 57


 1365 0034 0441     		asrs	r4, r4, r0
 1366 0036 9C80     		strh	r4, [r3, #4]
 1367              	.LVL164:
 1368              	.L81:
1565:Generated_Source\PSoC4/capsense.c **** 
 1369              		.loc 1 1565 0
 1370 0038 2800     		movs	r0, r5
 1371 003a FFF7FEFF 		bl	capsense_DisableSensor
 1372              	.LVL165:
1567:Generated_Source\PSoC4/capsense.c **** 
 1373              		.loc 1 1567 0
 1374 003e 1020     		movs	r0, #16
 1375 0040 FFF7FEFF 		bl	CyIntDisable
 1376              	.LVL166:
1587:Generated_Source\PSoC4/capsense.c ****     newRegValue &= ~(capsense_PRECHARGE_CONFIG_MASK);
 1377              		.loc 1 1587 0
 1378 0044 0E4A     		ldr	r2, .L82+24
 1379 0046 1168     		ldr	r1, [r2]
 1380              	.LVL167:
1588:Generated_Source\PSoC4/capsense.c ****     newRegValue |= capsense_CMOD_PRECHARGE_CONFIG;
 1381              		.loc 1 1588 0
 1382 0048 0E4B     		ldr	r3, .L82+28
 1383 004a 0B40     		ands	r3, r1
 1384              	.LVL168:
1589:Generated_Source\PSoC4/capsense.c ****     capsense_CSD_CFG_REG = newRegValue;
 1385              		.loc 1 1589 0
 1386 004c A021     		movs	r1, #160
 1387 004e 0902     		lsls	r1, r1, #8
 1388 0050 0B43     		orrs	r3, r1
 1389              	.LVL169:
1590:Generated_Source\PSoC4/capsense.c **** 
 1390              		.loc 1 1590 0
 1391 0052 1360     		str	r3, [r2]
1596:Generated_Source\PSoC4/capsense.c **** #endif /* (capsense_IDAC_CNT == 1u) */
 1392              		.loc 1 1596 0
 1393 0054 0C4A     		ldr	r2, .L82+32
 1394 0056 1168     		ldr	r1, [r2]
 1395 0058 0C4B     		ldr	r3, .L82+36
 1396              	.LVL170:
 1397 005a 0B40     		ands	r3, r1
 1398 005c 1360     		str	r3, [r2]
 1399              	.LVL171:
1599:Generated_Source\PSoC4/capsense.c **** }
 1400              		.loc 1 1599 0
 1401 005e 1020     		movs	r0, #16
 1402 0060 FFF7FEFF 		bl	CyIntEnable
 1403              	.LVL172:
1600:Generated_Source\PSoC4/capsense.c **** 
 1404              		.loc 1 1600 0
 1405              		@ sp needed
 1406              	.LVL173:
 1407 0064 70BD     		pop	{r4, r5, r6, pc}
 1408              	.L83:
 1409 0066 C046     		.align	2
 1410              	.L82:
 1411 0068 0C002840 		.word	1076363276
 1412 006c 00000000 		.word	.LANCHOR0
ARM GAS  C:\Users\puria\AppData\Local\Temp\ccYRkNAS.s 			page 58


 1413 0070 00000000 		.word	.LANCHOR2
 1414 0074 00000000 		.word	.LANCHOR1
 1415 0078 FFFFFEFF 		.word	-65537
 1416 007c 00000000 		.word	capsense_scanSpeedTbl
 1417 0080 04002840 		.word	1076363268
 1418 0084 FF1FDFFF 		.word	-2154497
 1419 0088 08002840 		.word	1076363272
 1420 008c 00FF80FF 		.word	-8323328
 1421              		.cfi_endproc
 1422              	.LFE55:
 1423              		.size	capsense_PostScan, .-capsense_PostScan
 1424              		.section	.text.capsense_SetBitValue,"ax",%progbits
 1425              		.align	2
 1426              		.global	capsense_SetBitValue
 1427              		.code	16
 1428              		.thumb_func
 1429              		.type	capsense_SetBitValue, %function
 1430              	capsense_SetBitValue:
 1431              	.LFB60:
1743:Generated_Source\PSoC4/capsense.c **** 
1744:Generated_Source\PSoC4/capsense.c **** 
1745:Generated_Source\PSoC4/capsense.c **** /*******************************************************************************
1746:Generated_Source\PSoC4/capsense.c **** * Function Name: capsense_SetBitValue
1747:Generated_Source\PSoC4/capsense.c **** ********************************************************************************
1748:Generated_Source\PSoC4/capsense.c **** *
1749:Generated_Source\PSoC4/capsense.c **** * Summary:
1750:Generated_Source\PSoC4/capsense.c **** *  The API sets a bit status of the bit in the table array which contains masks.
1751:Generated_Source\PSoC4/capsense.c **** *
1752:Generated_Source\PSoC4/capsense.c **** * Parameters:
1753:Generated_Source\PSoC4/capsense.c **** *  table[] - array with bit masks.
1754:Generated_Source\PSoC4/capsense.c **** *  position - position of bit in the table[] array.
1755:Generated_Source\PSoC4/capsense.c **** *  value: 0 - bit is not set; 1 - bit is set.
1756:Generated_Source\PSoC4/capsense.c **** *
1757:Generated_Source\PSoC4/capsense.c **** * Return:
1758:Generated_Source\PSoC4/capsense.c **** *  None
1759:Generated_Source\PSoC4/capsense.c **** *
1760:Generated_Source\PSoC4/capsense.c **** * Global Variables:
1761:Generated_Source\PSoC4/capsense.c **** *  None
1762:Generated_Source\PSoC4/capsense.c **** *
1763:Generated_Source\PSoC4/capsense.c **** * Side Effects:
1764:Generated_Source\PSoC4/capsense.c **** *  None
1765:Generated_Source\PSoC4/capsense.c **** *
1766:Generated_Source\PSoC4/capsense.c **** *******************************************************************************/
1767:Generated_Source\PSoC4/capsense.c **** void capsense_SetBitValue(uint8 table[], uint32 position, uint32 value)
1768:Generated_Source\PSoC4/capsense.c **** {
 1432              		.loc 1 1768 0
 1433              		.cfi_startproc
 1434              		@ args = 0, pretend = 0, frame = 0
 1435              		@ frame_needed = 0, uses_anonymous_args = 0
 1436              	.LVL174:
 1437 0000 10B5     		push	{r4, lr}
 1438              		.cfi_def_cfa_offset 8
 1439              		.cfi_offset 4, -8
 1440              		.cfi_offset 14, -4
1769:Generated_Source\PSoC4/capsense.c ****     uint32 offset;
1770:Generated_Source\PSoC4/capsense.c ****     uint8 enMask;
1771:Generated_Source\PSoC4/capsense.c **** 
ARM GAS  C:\Users\puria\AppData\Local\Temp\ccYRkNAS.s 			page 59


1772:Generated_Source\PSoC4/capsense.c ****     /* position is divided by 8 to calculate the element of the
1773:Generated_Source\PSoC4/capsense.c ****        table[] array that contains the enable bit
1774:Generated_Source\PSoC4/capsense.c ****        for an appropriate sensor.
1775:Generated_Source\PSoC4/capsense.c ****     */
1776:Generated_Source\PSoC4/capsense.c ****     offset = (position >> 3u);
 1441              		.loc 1 1776 0
 1442 0002 CC08     		lsrs	r4, r1, #3
 1443              	.LVL175:
1777:Generated_Source\PSoC4/capsense.c **** 
1778:Generated_Source\PSoC4/capsense.c ****     /* The enMask calculation for the appropriate sensor. Operation (position & 0x07u)
1779:Generated_Source\PSoC4/capsense.c ****        intends to calculate the enable bit offset for the 8-bit element of the
1780:Generated_Source\PSoC4/capsense.c ****        table[] array.
1781:Generated_Source\PSoC4/capsense.c ****     */
1782:Generated_Source\PSoC4/capsense.c ****     enMask = 0x01u << (position & 0x07u);
 1444              		.loc 1 1782 0
 1445 0004 0723     		movs	r3, #7
 1446 0006 1940     		ands	r1, r3
 1447              	.LVL176:
 1448 0008 063B     		subs	r3, r3, #6
 1449 000a 8B40     		lsls	r3, r3, r1
 1450 000c DBB2     		uxtb	r3, r3
 1451              	.LVL177:
1783:Generated_Source\PSoC4/capsense.c **** 
1784:Generated_Source\PSoC4/capsense.c ****     if(0u != value)
 1452              		.loc 1 1784 0
 1453 000e 002A     		cmp	r2, #0
 1454 0010 04D0     		beq	.L85
1785:Generated_Source\PSoC4/capsense.c ****     {
1786:Generated_Source\PSoC4/capsense.c ****         table[offset] |= enMask;
 1455              		.loc 1 1786 0
 1456 0012 0419     		adds	r4, r0, r4
 1457              	.LVL178:
 1458 0014 2278     		ldrb	r2, [r4]
 1459              	.LVL179:
 1460 0016 1343     		orrs	r3, r2
 1461              	.LVL180:
 1462 0018 2370     		strb	r3, [r4]
 1463 001a 03E0     		b	.L84
 1464              	.LVL181:
 1465              	.L85:
1787:Generated_Source\PSoC4/capsense.c ****     }
1788:Generated_Source\PSoC4/capsense.c ****     else
1789:Generated_Source\PSoC4/capsense.c ****     {
1790:Generated_Source\PSoC4/capsense.c ****         table[offset] &= (uint8)~(enMask);
 1466              		.loc 1 1790 0
 1467 001c 0419     		adds	r4, r0, r4
 1468              	.LVL182:
 1469 001e 2278     		ldrb	r2, [r4]
 1470              	.LVL183:
 1471 0020 9A43     		bics	r2, r3
 1472 0022 2270     		strb	r2, [r4]
 1473              	.LVL184:
 1474              	.L84:
1791:Generated_Source\PSoC4/capsense.c ****     }
1792:Generated_Source\PSoC4/capsense.c **** }
 1475              		.loc 1 1792 0
 1476              		@ sp needed
ARM GAS  C:\Users\puria\AppData\Local\Temp\ccYRkNAS.s 			page 60


 1477 0024 10BD     		pop	{r4, pc}
 1478              		.cfi_endproc
 1479              	.LFE60:
 1480              		.size	capsense_SetBitValue, .-capsense_SetBitValue
 1481 0026 C046     		.section	.text.capsense_ScanWidget,"ax",%progbits
 1482              		.align	2
 1483              		.global	capsense_ScanWidget
 1484              		.code	16
 1485              		.thumb_func
 1486              		.type	capsense_ScanWidget, %function
 1487              	capsense_ScanWidget:
 1488              	.LFB41:
 594:Generated_Source\PSoC4/capsense.c ****     uint32 sensorsPerWidget;
 1489              		.loc 1 594 0
 1490              		.cfi_startproc
 1491              		@ args = 0, pretend = 0, frame = 0
 1492              		@ frame_needed = 0, uses_anonymous_args = 0
 1493              	.LVL185:
 1494 0000 70B5     		push	{r4, r5, r6, lr}
 1495              		.cfi_def_cfa_offset 16
 1496              		.cfi_offset 4, -16
 1497              		.cfi_offset 5, -12
 1498              		.cfi_offset 6, -8
 1499              		.cfi_offset 14, -4
 600:Generated_Source\PSoC4/capsense.c **** 
 1500              		.loc 1 600 0
 1501 0002 1D4B     		ldr	r3, .L97
 1502 0004 1B5C     		ldrb	r3, [r3, r0]
 1503 0006 1D4A     		ldr	r2, .L97+4
 1504 0008 9373     		strb	r3, [r2, #14]
 603:Generated_Source\PSoC4/capsense.c **** 
 1505              		.loc 1 603 0
 1506 000a 1D4A     		ldr	r2, .L97+8
 1507 000c 155C     		ldrb	r5, [r2, r0]
 1508              	.LVL186:
 606:Generated_Source\PSoC4/capsense.c ****     {
 1509              		.loc 1 606 0
 1510 000e 002D     		cmp	r5, #0
 1511 0010 00D1     		bne	.L88
 608:Generated_Source\PSoC4/capsense.c ****     }
 1512              		.loc 1 608 0
 1513 0012 0135     		adds	r5, r5, #1
 1514              	.LVL187:
 1515              	.L88:
 612:Generated_Source\PSoC4/capsense.c **** 
 1516              		.loc 1 612 0
 1517 0014 5D19     		adds	r5, r3, r5
 1518              	.LVL188:
 1519 0016 013D     		subs	r5, r5, #1
 1520              	.LVL189:
 615:Generated_Source\PSoC4/capsense.c ****     {
 1521              		.loc 1 615 0
 1522 0018 0023     		movs	r3, #0
 1523 001a 05E0     		b	.L89
 1524              	.LVL190:
 1525              	.L90:
 618:Generated_Source\PSoC4/capsense.c ****     }
ARM GAS  C:\Users\puria\AppData\Local\Temp\ccYRkNAS.s 			page 61


 1526              		.loc 1 618 0 discriminator 3
 1527 001c 194A     		ldr	r2, .L97+12
 1528 001e D218     		adds	r2, r2, r3
 1529 0020 1179     		ldrb	r1, [r2, #4]
 1530 0022 194A     		ldr	r2, .L97+16
 1531 0024 D154     		strb	r1, [r2, r3]
 615:Generated_Source\PSoC4/capsense.c ****     {
 1532              		.loc 1 615 0 discriminator 3
 1533 0026 0133     		adds	r3, r3, #1
 1534              	.LVL191:
 1535              	.L89:
 615:Generated_Source\PSoC4/capsense.c ****     {
 1536              		.loc 1 615 0 is_stmt 0 discriminator 1
 1537 0028 002B     		cmp	r3, #0
 1538 002a F7D0     		beq	.L90
 1539 002c 0024     		movs	r4, #0
 1540 002e 14E0     		b	.L91
 1541              	.LVL192:
 1542              	.L94:
 625:Generated_Source\PSoC4/capsense.c ****         {
 1543              		.loc 1 625 0 is_stmt 1
 1544 0030 124B     		ldr	r3, .L97+4
 1545 0032 9B7B     		ldrb	r3, [r3, #14]
 1546 0034 DBB2     		uxtb	r3, r3
 1547 0036 9C42     		cmp	r4, r3
 1548 0038 08D3     		bcc	.L92
 625:Generated_Source\PSoC4/capsense.c ****         {
 1549              		.loc 1 625 0 is_stmt 0 discriminator 1
 1550 003a AC42     		cmp	r4, r5
 1551 003c 06D8     		bhi	.L92
 628:Generated_Source\PSoC4/capsense.c ****         }
 1552              		.loc 1 628 0 is_stmt 1
 1553 003e 0122     		movs	r2, #1
 1554 0040 2100     		movs	r1, r4
 1555 0042 1048     		ldr	r0, .L97+12
 1556 0044 0430     		adds	r0, r0, #4
 1557 0046 FFF7FEFF 		bl	capsense_SetBitValue
 1558              	.LVL193:
 1559 004a 05E0     		b	.L93
 1560              	.L92:
 633:Generated_Source\PSoC4/capsense.c ****         }
 1561              		.loc 1 633 0
 1562 004c 0022     		movs	r2, #0
 1563 004e 2100     		movs	r1, r4
 1564 0050 0C48     		ldr	r0, .L97+12
 1565 0052 0430     		adds	r0, r0, #4
 1566 0054 FFF7FEFF 		bl	capsense_SetBitValue
 1567              	.LVL194:
 1568              	.L93:
 622:Generated_Source\PSoC4/capsense.c ****     {
 1569              		.loc 1 622 0 discriminator 2
 1570 0058 0134     		adds	r4, r4, #1
 1571              	.LVL195:
 1572              	.L91:
 622:Generated_Source\PSoC4/capsense.c ****     {
 1573              		.loc 1 622 0 is_stmt 0 discriminator 1
 1574 005a 042C     		cmp	r4, #4
ARM GAS  C:\Users\puria\AppData\Local\Temp\ccYRkNAS.s 			page 62


 1575 005c E8D9     		bls	.L94
 638:Generated_Source\PSoC4/capsense.c ****     {
 1576              		.loc 1 638 0 is_stmt 1
 1577 005e 074B     		ldr	r3, .L97+4
 1578 0060 9B7B     		ldrb	r3, [r3, #14]
 1579 0062 DBB2     		uxtb	r3, r3
 1580 0064 042B     		cmp	r3, #4
 1581 0066 06D8     		bhi	.L87
 641:Generated_Source\PSoC4/capsense.c ****         /* Scan first sensor of widget*/
 1582              		.loc 1 641 0
 1583 0068 044B     		ldr	r3, .L97+4
 1584 006a 4122     		movs	r2, #65
 1585 006c 1A70     		strb	r2, [r3]
 643:Generated_Source\PSoC4/capsense.c ****     }
 1586              		.loc 1 643 0
 1587 006e 987B     		ldrb	r0, [r3, #14]
 1588 0070 C0B2     		uxtb	r0, r0
 1589 0072 FFF7FEFF 		bl	capsense_PreScan
 1590              	.LVL196:
 1591              	.L87:
 645:Generated_Source\PSoC4/capsense.c **** #endif /* (0u != capsense_CSHL_API_GENERATE) */
 1592              		.loc 1 645 0
 1593              		@ sp needed
 1594              	.LVL197:
 1595              	.LVL198:
 1596 0076 70BD     		pop	{r4, r5, r6, pc}
 1597              	.L98:
 1598              		.align	2
 1599              	.L97:
 1600 0078 00000000 		.word	capsense_rawDataIndex
 1601 007c 00000000 		.word	.LANCHOR0
 1602 0080 00000000 		.word	capsense_numberOfSensors
 1603 0084 00000000 		.word	.LANCHOR1
 1604 0088 00000000 		.word	capsense_sensorEnableMaskBackup
 1605              		.cfi_endproc
 1606              	.LFE41:
 1607              		.size	capsense_ScanWidget, .-capsense_ScanWidget
 1608              		.section	.text.capsense_GetSenseClkDivider,"ax",%progbits
 1609              		.align	2
 1610              		.global	capsense_GetSenseClkDivider
 1611              		.code	16
 1612              		.thumb_func
 1613              		.type	capsense_GetSenseClkDivider, %function
 1614              	capsense_GetSenseClkDivider:
 1615              	.LFB61:
1793:Generated_Source\PSoC4/capsense.c **** 
1794:Generated_Source\PSoC4/capsense.c **** 
1795:Generated_Source\PSoC4/capsense.c **** 
1796:Generated_Source\PSoC4/capsense.c **** /*******************************************************************************
1797:Generated_Source\PSoC4/capsense.c **** * Function Name: capsense_GetSenseClkDivider
1798:Generated_Source\PSoC4/capsense.c **** ********************************************************************************
1799:Generated_Source\PSoC4/capsense.c **** *
1800:Generated_Source\PSoC4/capsense.c **** * Summary:
1801:Generated_Source\PSoC4/capsense.c **** *  This API returns a value of the sense clock divider for the  sensor.
1802:Generated_Source\PSoC4/capsense.c **** *
1803:Generated_Source\PSoC4/capsense.c **** * Parameters:
1804:Generated_Source\PSoC4/capsense.c **** *  sensor: sensor index. The index value can be
ARM GAS  C:\Users\puria\AppData\Local\Temp\ccYRkNAS.s 			page 63


1805:Generated_Source\PSoC4/capsense.c **** *  from 0 to (capsense_TOTAL_SENSOR_COUNT-1).
1806:Generated_Source\PSoC4/capsense.c **** *
1807:Generated_Source\PSoC4/capsense.c **** * Return:
1808:Generated_Source\PSoC4/capsense.c **** *  This API returns the sense clock divider of the sensor.
1809:Generated_Source\PSoC4/capsense.c **** *
1810:Generated_Source\PSoC4/capsense.c **** * Global Variables:
1811:Generated_Source\PSoC4/capsense.c **** *  capsense_senseClkDividerVal[] - stores the sense clock divider values.
1812:Generated_Source\PSoC4/capsense.c **** *
1813:Generated_Source\PSoC4/capsense.c **** * Side Effects:
1814:Generated_Source\PSoC4/capsense.c **** *  None
1815:Generated_Source\PSoC4/capsense.c **** *
1816:Generated_Source\PSoC4/capsense.c **** *******************************************************************************/
1817:Generated_Source\PSoC4/capsense.c **** uint32 capsense_GetSenseClkDivider(uint32 sensor)
1818:Generated_Source\PSoC4/capsense.c **** {
 1616              		.loc 1 1818 0
 1617              		.cfi_startproc
 1618              		@ args = 0, pretend = 0, frame = 0
 1619              		@ frame_needed = 0, uses_anonymous_args = 0
 1620              		@ link register save eliminated.
 1621              	.LVL199:
1819:Generated_Source\PSoC4/capsense.c ****     #if(0u != capsense_MULTIPLE_FREQUENCY_SET)
1820:Generated_Source\PSoC4/capsense.c ****         return((uint32)capsense_senseClkDividerVal[sensor]);
 1622              		.loc 1 1820 0
 1623 0000 014B     		ldr	r3, .L100
 1624 0002 185C     		ldrb	r0, [r3, r0]
 1625              	.LVL200:
1821:Generated_Source\PSoC4/capsense.c ****     #else
1822:Generated_Source\PSoC4/capsense.c ****         return((uint32)capsense_senseClkDividerVal);
1823:Generated_Source\PSoC4/capsense.c ****     #endif /* (0u != capsense_MULTIPLE_FREQUENCY_SET) */
1824:Generated_Source\PSoC4/capsense.c **** }
 1626              		.loc 1 1824 0
 1627              		@ sp needed
 1628 0004 7047     		bx	lr
 1629              	.L101:
 1630 0006 C046     		.align	2
 1631              	.L100:
 1632 0008 00000000 		.word	capsense_senseClkDividerVal
 1633              		.cfi_endproc
 1634              	.LFE61:
 1635              		.size	capsense_GetSenseClkDivider, .-capsense_GetSenseClkDivider
 1636              		.section	.text.capsense_SetSenseClkDivider,"ax",%progbits
 1637              		.align	2
 1638              		.global	capsense_SetSenseClkDivider
 1639              		.code	16
 1640              		.thumb_func
 1641              		.type	capsense_SetSenseClkDivider, %function
 1642              	capsense_SetSenseClkDivider:
 1643              	.LFB62:
1825:Generated_Source\PSoC4/capsense.c **** 
1826:Generated_Source\PSoC4/capsense.c **** #if (capsense_TUNING_METHOD != capsense__TUNING_NONE)
1827:Generated_Source\PSoC4/capsense.c ****     /*******************************************************************************
1828:Generated_Source\PSoC4/capsense.c ****     * Function Name: capsense_SetSenseClkDivider
1829:Generated_Source\PSoC4/capsense.c ****     ********************************************************************************
1830:Generated_Source\PSoC4/capsense.c ****     *
1831:Generated_Source\PSoC4/capsense.c ****     * Summary:
1832:Generated_Source\PSoC4/capsense.c ****     *  This API sets a value of the sense clock divider for the  sensor.
1833:Generated_Source\PSoC4/capsense.c ****     *
ARM GAS  C:\Users\puria\AppData\Local\Temp\ccYRkNAS.s 			page 64


1834:Generated_Source\PSoC4/capsense.c ****     * Parameters:
1835:Generated_Source\PSoC4/capsense.c ****     *  sensor:  Sensor index.
1836:Generated_Source\PSoC4/capsense.c ****     *  senseClk: represents the sense clock value.
1837:Generated_Source\PSoC4/capsense.c ****     *
1838:Generated_Source\PSoC4/capsense.c ****     * Return:
1839:Generated_Source\PSoC4/capsense.c ****     *  None.
1840:Generated_Source\PSoC4/capsense.c ****     *
1841:Generated_Source\PSoC4/capsense.c ****     * Global Variables:
1842:Generated_Source\PSoC4/capsense.c ****     *  capsense_senseClkDividerVal[] - stores the sense clock divider values.
1843:Generated_Source\PSoC4/capsense.c ****     *
1844:Generated_Source\PSoC4/capsense.c ****     * Side Effects:
1845:Generated_Source\PSoC4/capsense.c ****     *  None
1846:Generated_Source\PSoC4/capsense.c ****     *
1847:Generated_Source\PSoC4/capsense.c ****     *******************************************************************************/
1848:Generated_Source\PSoC4/capsense.c ****     void capsense_SetSenseClkDivider(uint32 sensor, uint32 senseClk)
1849:Generated_Source\PSoC4/capsense.c ****     {
 1644              		.loc 1 1849 0
 1645              		.cfi_startproc
 1646              		@ args = 0, pretend = 0, frame = 0
 1647              		@ frame_needed = 0, uses_anonymous_args = 0
 1648              		@ link register save eliminated.
 1649              	.LVL201:
1850:Generated_Source\PSoC4/capsense.c ****         #if(0u != capsense_MULTIPLE_FREQUENCY_SET)
1851:Generated_Source\PSoC4/capsense.c ****             capsense_senseClkDividerVal[sensor] = (uint8)senseClk;
 1650              		.loc 1 1851 0
 1651 0000 014B     		ldr	r3, .L103
 1652 0002 1954     		strb	r1, [r3, r0]
1852:Generated_Source\PSoC4/capsense.c ****         #else
1853:Generated_Source\PSoC4/capsense.c ****             capsense_senseClkDividerVal = (uint8)senseClk;
1854:Generated_Source\PSoC4/capsense.c ****         #endif /* (0u != capsense_MULTIPLE_FREQUENCY_SET) */
1855:Generated_Source\PSoC4/capsense.c ****     }
 1653              		.loc 1 1855 0
 1654              		@ sp needed
 1655 0004 7047     		bx	lr
 1656              	.L104:
 1657 0006 C046     		.align	2
 1658              	.L103:
 1659 0008 00000000 		.word	capsense_senseClkDividerVal
 1660              		.cfi_endproc
 1661              	.LFE62:
 1662              		.size	capsense_SetSenseClkDivider, .-capsense_SetSenseClkDivider
 1663              		.section	.text.capsense_GetModulatorClkDivider,"ax",%progbits
 1664              		.align	2
 1665              		.global	capsense_GetModulatorClkDivider
 1666              		.code	16
 1667              		.thumb_func
 1668              		.type	capsense_GetModulatorClkDivider, %function
 1669              	capsense_GetModulatorClkDivider:
 1670              	.LFB63:
1856:Generated_Source\PSoC4/capsense.c **** #endif /* (capsense_TUNING_METHOD != capsense__TUNING_NONE) */
1857:Generated_Source\PSoC4/capsense.c **** 
1858:Generated_Source\PSoC4/capsense.c **** 
1859:Generated_Source\PSoC4/capsense.c **** /*******************************************************************************
1860:Generated_Source\PSoC4/capsense.c **** * Function Name: capsense_GetModulatorClkDivider
1861:Generated_Source\PSoC4/capsense.c **** ********************************************************************************
1862:Generated_Source\PSoC4/capsense.c **** *
1863:Generated_Source\PSoC4/capsense.c **** * Summary:
ARM GAS  C:\Users\puria\AppData\Local\Temp\ccYRkNAS.s 			page 65


1864:Generated_Source\PSoC4/capsense.c **** *  This API returns a value of the modulator sample clock divider for the  sensor.
1865:Generated_Source\PSoC4/capsense.c **** *
1866:Generated_Source\PSoC4/capsense.c **** * Parameters:
1867:Generated_Source\PSoC4/capsense.c **** *  sensor: sensor index. The value of index can be
1868:Generated_Source\PSoC4/capsense.c **** *  from 0 to (capsense_TOTAL_SENSOR_COUNT-1).
1869:Generated_Source\PSoC4/capsense.c **** *
1870:Generated_Source\PSoC4/capsense.c **** * Return:
1871:Generated_Source\PSoC4/capsense.c **** *  This API returns the modulator sample clock divider for the  sensor.
1872:Generated_Source\PSoC4/capsense.c **** *
1873:Generated_Source\PSoC4/capsense.c **** * Global Variables:
1874:Generated_Source\PSoC4/capsense.c **** *  capsense_sampleClkDividerVal[] - stores the modulator sample divider values.
1875:Generated_Source\PSoC4/capsense.c **** *
1876:Generated_Source\PSoC4/capsense.c **** * Side Effects:
1877:Generated_Source\PSoC4/capsense.c **** *  None
1878:Generated_Source\PSoC4/capsense.c **** *
1879:Generated_Source\PSoC4/capsense.c **** *******************************************************************************/
1880:Generated_Source\PSoC4/capsense.c **** uint32 capsense_GetModulatorClkDivider(uint32 sensor)
1881:Generated_Source\PSoC4/capsense.c **** {
 1671              		.loc 1 1881 0
 1672              		.cfi_startproc
 1673              		@ args = 0, pretend = 0, frame = 0
 1674              		@ frame_needed = 0, uses_anonymous_args = 0
 1675              		@ link register save eliminated.
 1676              	.LVL202:
1882:Generated_Source\PSoC4/capsense.c ****     #if(0u != capsense_MULTIPLE_FREQUENCY_SET)
1883:Generated_Source\PSoC4/capsense.c ****         return((uint32)capsense_sampleClkDividerVal[sensor]);
 1677              		.loc 1 1883 0
 1678 0000 014B     		ldr	r3, .L106
 1679 0002 185C     		ldrb	r0, [r3, r0]
 1680              	.LVL203:
1884:Generated_Source\PSoC4/capsense.c ****     #else
1885:Generated_Source\PSoC4/capsense.c ****         return((uint32)capsense_sampleClkDividerVal);
1886:Generated_Source\PSoC4/capsense.c ****     #endif /* (0u != capsense_MULTIPLE_FREQUENCY_SET) */
1887:Generated_Source\PSoC4/capsense.c **** }
 1681              		.loc 1 1887 0
 1682              		@ sp needed
 1683 0004 7047     		bx	lr
 1684              	.L107:
 1685 0006 C046     		.align	2
 1686              	.L106:
 1687 0008 00000000 		.word	capsense_sampleClkDividerVal
 1688              		.cfi_endproc
 1689              	.LFE63:
 1690              		.size	capsense_GetModulatorClkDivider, .-capsense_GetModulatorClkDivider
 1691              		.section	.text.capsense_SetModulatorClkDivider,"ax",%progbits
 1692              		.align	2
 1693              		.global	capsense_SetModulatorClkDivider
 1694              		.code	16
 1695              		.thumb_func
 1696              		.type	capsense_SetModulatorClkDivider, %function
 1697              	capsense_SetModulatorClkDivider:
 1698              	.LFB64:
1888:Generated_Source\PSoC4/capsense.c **** 
1889:Generated_Source\PSoC4/capsense.c **** #if (capsense_TUNING_METHOD != capsense__TUNING_NONE)
1890:Generated_Source\PSoC4/capsense.c ****     /*******************************************************************************
1891:Generated_Source\PSoC4/capsense.c ****     * Function Name: capsense_SetModulatorClkDivider
1892:Generated_Source\PSoC4/capsense.c ****     ********************************************************************************
ARM GAS  C:\Users\puria\AppData\Local\Temp\ccYRkNAS.s 			page 66


1893:Generated_Source\PSoC4/capsense.c ****     *
1894:Generated_Source\PSoC4/capsense.c ****     * Summary:
1895:Generated_Source\PSoC4/capsense.c ****     *  This API sets a value of the modulator sample clock divider for the  sensor.
1896:Generated_Source\PSoC4/capsense.c ****     *
1897:Generated_Source\PSoC4/capsense.c ****     * Parameters:
1898:Generated_Source\PSoC4/capsense.c ****     *  sensor:  Sensor index.
1899:Generated_Source\PSoC4/capsense.c ****     *  modulatorClk: represents the modulator sample clock value.
1900:Generated_Source\PSoC4/capsense.c ****     *
1901:Generated_Source\PSoC4/capsense.c ****     * Return:
1902:Generated_Source\PSoC4/capsense.c ****     *  None.
1903:Generated_Source\PSoC4/capsense.c ****     *
1904:Generated_Source\PSoC4/capsense.c ****     * Global Variables:
1905:Generated_Source\PSoC4/capsense.c ****     *  capsense_sampleClkDividerVal[] - stores the modulator sample divider values.
1906:Generated_Source\PSoC4/capsense.c ****     *
1907:Generated_Source\PSoC4/capsense.c ****     * Side Effects:
1908:Generated_Source\PSoC4/capsense.c ****     *  None
1909:Generated_Source\PSoC4/capsense.c ****     *
1910:Generated_Source\PSoC4/capsense.c ****     *******************************************************************************/
1911:Generated_Source\PSoC4/capsense.c ****     void capsense_SetModulatorClkDivider(uint32 sensor, uint32 modulatorClk)
1912:Generated_Source\PSoC4/capsense.c ****     {
 1699              		.loc 1 1912 0
 1700              		.cfi_startproc
 1701              		@ args = 0, pretend = 0, frame = 0
 1702              		@ frame_needed = 0, uses_anonymous_args = 0
 1703              		@ link register save eliminated.
 1704              	.LVL204:
1913:Generated_Source\PSoC4/capsense.c ****         #if(0u != capsense_MULTIPLE_FREQUENCY_SET)
1914:Generated_Source\PSoC4/capsense.c ****             capsense_sampleClkDividerVal[sensor] = (uint8)modulatorClk;
 1705              		.loc 1 1914 0
 1706 0000 014B     		ldr	r3, .L109
 1707 0002 1954     		strb	r1, [r3, r0]
1915:Generated_Source\PSoC4/capsense.c ****         #else
1916:Generated_Source\PSoC4/capsense.c ****             capsense_sampleClkDividerVal = (uint8)modulatorClk;
1917:Generated_Source\PSoC4/capsense.c ****         #endif /* (0u != capsense_MULTIPLE_FREQUENCY_SET) */
1918:Generated_Source\PSoC4/capsense.c ****     }
 1708              		.loc 1 1918 0
 1709              		@ sp needed
 1710 0004 7047     		bx	lr
 1711              	.L110:
 1712 0006 C046     		.align	2
 1713              	.L109:
 1714 0008 00000000 		.word	capsense_sampleClkDividerVal
 1715              		.cfi_endproc
 1716              	.LFE64:
 1717              		.size	capsense_SetModulatorClkDivider, .-capsense_SetModulatorClkDivider
 1718              		.section	.text.capsense_GetModulationIDAC,"ax",%progbits
 1719              		.align	2
 1720              		.global	capsense_GetModulationIDAC
 1721              		.code	16
 1722              		.thumb_func
 1723              		.type	capsense_GetModulationIDAC, %function
 1724              	capsense_GetModulationIDAC:
 1725              	.LFB65:
1919:Generated_Source\PSoC4/capsense.c **** #endif /* (capsense_TUNING_METHOD != capsense__TUNING_NONE) */
1920:Generated_Source\PSoC4/capsense.c **** 
1921:Generated_Source\PSoC4/capsense.c **** /*******************************************************************************
1922:Generated_Source\PSoC4/capsense.c **** * Function Name: capsense_GetModulationIDAC
ARM GAS  C:\Users\puria\AppData\Local\Temp\ccYRkNAS.s 			page 67


1923:Generated_Source\PSoC4/capsense.c **** ********************************************************************************
1924:Generated_Source\PSoC4/capsense.c **** *
1925:Generated_Source\PSoC4/capsense.c **** * Summary:
1926:Generated_Source\PSoC4/capsense.c **** *  This API returns a value of the modulation IDAC for the  sensor.
1927:Generated_Source\PSoC4/capsense.c **** *
1928:Generated_Source\PSoC4/capsense.c **** * Parameters:
1929:Generated_Source\PSoC4/capsense.c **** *  sensor: sensor index. The index value can be
1930:Generated_Source\PSoC4/capsense.c **** *  from 0 to (capsense_TOTAL_SENSOR_COUNT-1).
1931:Generated_Source\PSoC4/capsense.c **** *
1932:Generated_Source\PSoC4/capsense.c **** * Return:
1933:Generated_Source\PSoC4/capsense.c **** *  This API returns the modulation IDAC of the sensor.
1934:Generated_Source\PSoC4/capsense.c **** *
1935:Generated_Source\PSoC4/capsense.c **** * Global Variables:
1936:Generated_Source\PSoC4/capsense.c **** *  capsense_modulationIDAC[] - stores modulation IDAC values.
1937:Generated_Source\PSoC4/capsense.c **** *
1938:Generated_Source\PSoC4/capsense.c **** * Side Effects:
1939:Generated_Source\PSoC4/capsense.c **** *  None
1940:Generated_Source\PSoC4/capsense.c **** *
1941:Generated_Source\PSoC4/capsense.c **** *******************************************************************************/
1942:Generated_Source\PSoC4/capsense.c **** uint32 capsense_GetModulationIDAC(uint32 sensor)
1943:Generated_Source\PSoC4/capsense.c **** {
 1726              		.loc 1 1943 0
 1727              		.cfi_startproc
 1728              		@ args = 0, pretend = 0, frame = 0
 1729              		@ frame_needed = 0, uses_anonymous_args = 0
 1730              		@ link register save eliminated.
 1731              	.LVL205:
1944:Generated_Source\PSoC4/capsense.c ****         return((uint32)capsense_modulationIDAC[sensor]);
 1732              		.loc 1 1944 0
 1733 0000 014B     		ldr	r3, .L112
 1734 0002 185C     		ldrb	r0, [r3, r0]
 1735              	.LVL206:
1945:Generated_Source\PSoC4/capsense.c **** }
 1736              		.loc 1 1945 0
 1737              		@ sp needed
 1738 0004 7047     		bx	lr
 1739              	.L113:
 1740 0006 C046     		.align	2
 1741              	.L112:
 1742 0008 00000000 		.word	capsense_modulationIDAC
 1743              		.cfi_endproc
 1744              	.LFE65:
 1745              		.size	capsense_GetModulationIDAC, .-capsense_GetModulationIDAC
 1746              		.section	.text.capsense_SetModulationIDAC,"ax",%progbits
 1747              		.align	2
 1748              		.global	capsense_SetModulationIDAC
 1749              		.code	16
 1750              		.thumb_func
 1751              		.type	capsense_SetModulationIDAC, %function
 1752              	capsense_SetModulationIDAC:
 1753              	.LFB66:
1946:Generated_Source\PSoC4/capsense.c **** 
1947:Generated_Source\PSoC4/capsense.c **** #if (capsense_TUNING_METHOD != capsense__TUNING_NONE)
1948:Generated_Source\PSoC4/capsense.c ****     /*******************************************************************************
1949:Generated_Source\PSoC4/capsense.c ****     * Function Name: capsense_SetModulationIDAC
1950:Generated_Source\PSoC4/capsense.c ****     ********************************************************************************
1951:Generated_Source\PSoC4/capsense.c ****     *
ARM GAS  C:\Users\puria\AppData\Local\Temp\ccYRkNAS.s 			page 68


1952:Generated_Source\PSoC4/capsense.c ****     * Summary:
1953:Generated_Source\PSoC4/capsense.c ****     *  This API sets a value of the modulation IDAC for the  sensor.
1954:Generated_Source\PSoC4/capsense.c ****     *
1955:Generated_Source\PSoC4/capsense.c ****     * Parameters:
1956:Generated_Source\PSoC4/capsense.c ****     *  sensor:  Sensor index.
1957:Generated_Source\PSoC4/capsense.c ****     *  compIdacValue: represents the modulation IDAC data register value.
1958:Generated_Source\PSoC4/capsense.c ****     *
1959:Generated_Source\PSoC4/capsense.c ****     * Return:
1960:Generated_Source\PSoC4/capsense.c ****     *  None.
1961:Generated_Source\PSoC4/capsense.c ****     *
1962:Generated_Source\PSoC4/capsense.c ****     * Global Variables:
1963:Generated_Source\PSoC4/capsense.c ****     *  capsense_modulationIDAC[] - array with modulation IDAC values
1964:Generated_Source\PSoC4/capsense.c ****     *
1965:Generated_Source\PSoC4/capsense.c ****     * Side Effects:
1966:Generated_Source\PSoC4/capsense.c ****     *  None
1967:Generated_Source\PSoC4/capsense.c ****     *
1968:Generated_Source\PSoC4/capsense.c ****     *******************************************************************************/
1969:Generated_Source\PSoC4/capsense.c ****     void capsense_SetModulationIDAC(uint32 sensor, uint32 modIdacValue)
1970:Generated_Source\PSoC4/capsense.c ****     {
 1754              		.loc 1 1970 0
 1755              		.cfi_startproc
 1756              		@ args = 0, pretend = 0, frame = 0
 1757              		@ frame_needed = 0, uses_anonymous_args = 0
 1758              		@ link register save eliminated.
 1759              	.LVL207:
1971:Generated_Source\PSoC4/capsense.c ****         capsense_modulationIDAC[sensor] = (uint8)modIdacValue;
 1760              		.loc 1 1971 0
 1761 0000 014B     		ldr	r3, .L115
 1762 0002 1954     		strb	r1, [r3, r0]
1972:Generated_Source\PSoC4/capsense.c ****     }
 1763              		.loc 1 1972 0
 1764              		@ sp needed
 1765 0004 7047     		bx	lr
 1766              	.L116:
 1767 0006 C046     		.align	2
 1768              	.L115:
 1769 0008 00000000 		.word	capsense_modulationIDAC
 1770              		.cfi_endproc
 1771              	.LFE66:
 1772              		.size	capsense_SetModulationIDAC, .-capsense_SetModulationIDAC
 1773              		.section	.text.capsense_GetCompensationIDAC,"ax",%progbits
 1774              		.align	2
 1775              		.global	capsense_GetCompensationIDAC
 1776              		.code	16
 1777              		.thumb_func
 1778              		.type	capsense_GetCompensationIDAC, %function
 1779              	capsense_GetCompensationIDAC:
 1780              	.LFB67:
1973:Generated_Source\PSoC4/capsense.c **** #endif /* (capsense_TUNING_METHOD != capsense__TUNING_NONE) */
1974:Generated_Source\PSoC4/capsense.c **** 
1975:Generated_Source\PSoC4/capsense.c **** 
1976:Generated_Source\PSoC4/capsense.c **** #if(capsense_IDAC_CNT > 1u)
1977:Generated_Source\PSoC4/capsense.c ****     /*******************************************************************************
1978:Generated_Source\PSoC4/capsense.c ****     * Function Name: capsense_GetCompensationIDAC
1979:Generated_Source\PSoC4/capsense.c ****     ********************************************************************************
1980:Generated_Source\PSoC4/capsense.c ****     *
1981:Generated_Source\PSoC4/capsense.c ****     * Summary:
ARM GAS  C:\Users\puria\AppData\Local\Temp\ccYRkNAS.s 			page 69


1982:Generated_Source\PSoC4/capsense.c ****     *  This API returns a value of the compensation IDAC for the  sensor.
1983:Generated_Source\PSoC4/capsense.c ****     *
1984:Generated_Source\PSoC4/capsense.c ****     * Parameters:
1985:Generated_Source\PSoC4/capsense.c ****     *  sensor: sensor index. The index value can be
1986:Generated_Source\PSoC4/capsense.c ****     *  from 0 to (capsense_TOTAL_SENSOR_COUNT-1).
1987:Generated_Source\PSoC4/capsense.c ****     *
1988:Generated_Source\PSoC4/capsense.c ****     * Return:
1989:Generated_Source\PSoC4/capsense.c ****     *  This API returns the compensation IDAC of the sensor.
1990:Generated_Source\PSoC4/capsense.c ****     *
1991:Generated_Source\PSoC4/capsense.c ****     * Global Variables:
1992:Generated_Source\PSoC4/capsense.c ****     *  capsense_compensationIDAC[] - stores the compensation IDAC values.
1993:Generated_Source\PSoC4/capsense.c ****     *
1994:Generated_Source\PSoC4/capsense.c ****     * Side Effects:
1995:Generated_Source\PSoC4/capsense.c ****     *  None
1996:Generated_Source\PSoC4/capsense.c ****     *
1997:Generated_Source\PSoC4/capsense.c ****     *******************************************************************************/
1998:Generated_Source\PSoC4/capsense.c ****     uint32 capsense_GetCompensationIDAC(uint32 sensor)
1999:Generated_Source\PSoC4/capsense.c ****     {
 1781              		.loc 1 1999 0
 1782              		.cfi_startproc
 1783              		@ args = 0, pretend = 0, frame = 0
 1784              		@ frame_needed = 0, uses_anonymous_args = 0
 1785              		@ link register save eliminated.
 1786              	.LVL208:
2000:Generated_Source\PSoC4/capsense.c ****         return((uint32)capsense_compensationIDAC[sensor]);
 1787              		.loc 1 2000 0
 1788 0000 014B     		ldr	r3, .L118
 1789 0002 185C     		ldrb	r0, [r3, r0]
 1790              	.LVL209:
2001:Generated_Source\PSoC4/capsense.c ****     }
 1791              		.loc 1 2001 0
 1792              		@ sp needed
 1793 0004 7047     		bx	lr
 1794              	.L119:
 1795 0006 C046     		.align	2
 1796              	.L118:
 1797 0008 00000000 		.word	capsense_compensationIDAC
 1798              		.cfi_endproc
 1799              	.LFE67:
 1800              		.size	capsense_GetCompensationIDAC, .-capsense_GetCompensationIDAC
 1801              		.section	.text.capsense_SetCompensationIDAC,"ax",%progbits
 1802              		.align	2
 1803              		.global	capsense_SetCompensationIDAC
 1804              		.code	16
 1805              		.thumb_func
 1806              		.type	capsense_SetCompensationIDAC, %function
 1807              	capsense_SetCompensationIDAC:
 1808              	.LFB68:
2002:Generated_Source\PSoC4/capsense.c **** #endif /* (capsense_IDAC_CNT > 1u) */
2003:Generated_Source\PSoC4/capsense.c **** 
2004:Generated_Source\PSoC4/capsense.c **** 
2005:Generated_Source\PSoC4/capsense.c **** #if((capsense_TUNING_METHOD != capsense__TUNING_NONE) && (capsense_IDAC_CNT > 1u))
2006:Generated_Source\PSoC4/capsense.c ****     /*******************************************************************************
2007:Generated_Source\PSoC4/capsense.c ****     * Function Name: capsense_SetCompensationIDAC
2008:Generated_Source\PSoC4/capsense.c ****     ********************************************************************************
2009:Generated_Source\PSoC4/capsense.c ****     *
2010:Generated_Source\PSoC4/capsense.c ****     * Summary:
ARM GAS  C:\Users\puria\AppData\Local\Temp\ccYRkNAS.s 			page 70


2011:Generated_Source\PSoC4/capsense.c ****     *  This API sets a value of compensation IDAC for the  sensor.
2012:Generated_Source\PSoC4/capsense.c ****     *
2013:Generated_Source\PSoC4/capsense.c ****     * Parameters:
2014:Generated_Source\PSoC4/capsense.c ****     *  sensor:  Sensor index.
2015:Generated_Source\PSoC4/capsense.c ****     *  compIdacValue: represents the compensation IDAC data register value.
2016:Generated_Source\PSoC4/capsense.c ****     *
2017:Generated_Source\PSoC4/capsense.c ****     * Return:
2018:Generated_Source\PSoC4/capsense.c ****     *  None.
2019:Generated_Source\PSoC4/capsense.c ****     *
2020:Generated_Source\PSoC4/capsense.c ****     * Global Variables:
2021:Generated_Source\PSoC4/capsense.c ****     *  capsense_compensationIDAC[] - an array with compensation IDAC values
2022:Generated_Source\PSoC4/capsense.c ****     *
2023:Generated_Source\PSoC4/capsense.c ****     * Side Effects:
2024:Generated_Source\PSoC4/capsense.c ****     *  None
2025:Generated_Source\PSoC4/capsense.c ****     *
2026:Generated_Source\PSoC4/capsense.c ****     *******************************************************************************/
2027:Generated_Source\PSoC4/capsense.c ****     void capsense_SetCompensationIDAC(uint32 sensor, uint32 compIdacValue)
2028:Generated_Source\PSoC4/capsense.c ****     {
 1809              		.loc 1 2028 0
 1810              		.cfi_startproc
 1811              		@ args = 0, pretend = 0, frame = 0
 1812              		@ frame_needed = 0, uses_anonymous_args = 0
 1813              		@ link register save eliminated.
 1814              	.LVL210:
2029:Generated_Source\PSoC4/capsense.c ****         capsense_compensationIDAC[sensor] = (uint8)compIdacValue;
 1815              		.loc 1 2029 0
 1816 0000 014B     		ldr	r3, .L121
 1817 0002 1954     		strb	r1, [r3, r0]
2030:Generated_Source\PSoC4/capsense.c ****     }
 1818              		.loc 1 2030 0
 1819              		@ sp needed
 1820 0004 7047     		bx	lr
 1821              	.L122:
 1822 0006 C046     		.align	2
 1823              	.L121:
 1824 0008 00000000 		.word	capsense_compensationIDAC
 1825              		.cfi_endproc
 1826              	.LFE68:
 1827              		.size	capsense_SetCompensationIDAC, .-capsense_SetCompensationIDAC
 1828              		.section	.text.capsense_GetIDACRange,"ax",%progbits
 1829              		.align	2
 1830              		.global	capsense_GetIDACRange
 1831              		.code	16
 1832              		.thumb_func
 1833              		.type	capsense_GetIDACRange, %function
 1834              	capsense_GetIDACRange:
 1835              	.LFB69:
2031:Generated_Source\PSoC4/capsense.c **** #endif /* ((capsense_TUNING_METHOD != capsense__TUNING_NONE) && (capsense_IDAC_CNT > 1u)) */
2032:Generated_Source\PSoC4/capsense.c **** 
2033:Generated_Source\PSoC4/capsense.c **** /*******************************************************************************
2034:Generated_Source\PSoC4/capsense.c **** * Function Name: capsense_GetIDACRange
2035:Generated_Source\PSoC4/capsense.c **** ********************************************************************************
2036:Generated_Source\PSoC4/capsense.c **** *
2037:Generated_Source\PSoC4/capsense.c **** * Summary:
2038:Generated_Source\PSoC4/capsense.c **** *  This API returns a value that indicates the IDAC range used by the
2039:Generated_Source\PSoC4/capsense.c **** *  component to scan sensors. The IDAC range is common for all the sensors.
2040:Generated_Source\PSoC4/capsense.c **** *
ARM GAS  C:\Users\puria\AppData\Local\Temp\ccYRkNAS.s 			page 71


2041:Generated_Source\PSoC4/capsense.c **** * Parameters:
2042:Generated_Source\PSoC4/capsense.c **** *  None
2043:Generated_Source\PSoC4/capsense.c **** *
2044:Generated_Source\PSoC4/capsense.c **** * Return:
2045:Generated_Source\PSoC4/capsense.c **** *  This API Returns a value that indicates the IDAC range:
2046:Generated_Source\PSoC4/capsense.c **** *      0 - IDAC range set to 4x
2047:Generated_Source\PSoC4/capsense.c **** *      1 - IDAC range set to 8x
2048:Generated_Source\PSoC4/capsense.c **** *
2049:Generated_Source\PSoC4/capsense.c **** * Global Variables:
2050:Generated_Source\PSoC4/capsense.c **** *  None
2051:Generated_Source\PSoC4/capsense.c **** *
2052:Generated_Source\PSoC4/capsense.c **** * Side Effects:
2053:Generated_Source\PSoC4/capsense.c **** *  None
2054:Generated_Source\PSoC4/capsense.c **** *
2055:Generated_Source\PSoC4/capsense.c **** *******************************************************************************/
2056:Generated_Source\PSoC4/capsense.c **** uint32 capsense_GetIDACRange(void)
2057:Generated_Source\PSoC4/capsense.c **** {
 1836              		.loc 1 2057 0
 1837              		.cfi_startproc
 1838              		@ args = 0, pretend = 0, frame = 0
 1839              		@ frame_needed = 0, uses_anonymous_args = 0
 1840              		@ link register save eliminated.
2058:Generated_Source\PSoC4/capsense.c ****     return((0u != (capsense_CSD_IDAC_REG & capsense_CSD_IDAC1_RANGE_8X)) ? 1uL : 0uL);
 1841              		.loc 1 2058 0
 1842 0000 034B     		ldr	r3, .L125
 1843 0002 1868     		ldr	r0, [r3]
 1844 0004 8023     		movs	r3, #128
 1845 0006 DB00     		lsls	r3, r3, #3
 1846 0008 1840     		ands	r0, r3
 1847 000a 00D0     		beq	.L124
 1848 000c 0120     		movs	r0, #1
 1849              	.L124:
2059:Generated_Source\PSoC4/capsense.c **** }
 1850              		.loc 1 2059 0 discriminator 4
 1851              		@ sp needed
 1852 000e 7047     		bx	lr
 1853              	.L126:
 1854              		.align	2
 1855              	.L125:
 1856 0010 08002840 		.word	1076363272
 1857              		.cfi_endproc
 1858              	.LFE69:
 1859              		.size	capsense_GetIDACRange, .-capsense_GetIDACRange
 1860              		.section	.text.capsense_SetIDACRange,"ax",%progbits
 1861              		.align	2
 1862              		.global	capsense_SetIDACRange
 1863              		.code	16
 1864              		.thumb_func
 1865              		.type	capsense_SetIDACRange, %function
 1866              	capsense_SetIDACRange:
 1867              	.LFB70:
2060:Generated_Source\PSoC4/capsense.c **** 
2061:Generated_Source\PSoC4/capsense.c **** #if (capsense_TUNING_METHOD != capsense__TUNING_NONE)
2062:Generated_Source\PSoC4/capsense.c ****     /*******************************************************************************
2063:Generated_Source\PSoC4/capsense.c ****     * Function Name: capsense_SetIDACRange
2064:Generated_Source\PSoC4/capsense.c ****     ********************************************************************************
2065:Generated_Source\PSoC4/capsense.c ****     *
ARM GAS  C:\Users\puria\AppData\Local\Temp\ccYRkNAS.s 			page 72


2066:Generated_Source\PSoC4/capsense.c ****     * Summary:
2067:Generated_Source\PSoC4/capsense.c ****     *  This API sets the IDAC range to the 4x (1.2uA/bit) or 8x (2.4uA/bit) mode.
2068:Generated_Source\PSoC4/capsense.c ****     *  The IDAC range is common for all the sensors and common for the modulation and
2069:Generated_Source\PSoC4/capsense.c ****     *  compensation IDACs.
2070:Generated_Source\PSoC4/capsense.c ****     *
2071:Generated_Source\PSoC4/capsense.c ****     * Parameters:
2072:Generated_Source\PSoC4/capsense.c ****     *  iDacRange:  represents value for IDAC range
2073:Generated_Source\PSoC4/capsense.c ****     *  0 -  IDAC range set to 4x (1.2uA/bit)
2074:Generated_Source\PSoC4/capsense.c ****     *  1 or >1 - IDAC range set to 8x (2.4uA/bit)
2075:Generated_Source\PSoC4/capsense.c ****     *
2076:Generated_Source\PSoC4/capsense.c ****     * Return:
2077:Generated_Source\PSoC4/capsense.c ****     *  None.
2078:Generated_Source\PSoC4/capsense.c ****     *
2079:Generated_Source\PSoC4/capsense.c ****     * Global Variables:
2080:Generated_Source\PSoC4/capsense.c ****     *  None
2081:Generated_Source\PSoC4/capsense.c ****     *
2082:Generated_Source\PSoC4/capsense.c ****     * Side Effects:
2083:Generated_Source\PSoC4/capsense.c ****     *  None
2084:Generated_Source\PSoC4/capsense.c ****     *
2085:Generated_Source\PSoC4/capsense.c ****     *******************************************************************************/
2086:Generated_Source\PSoC4/capsense.c ****     void capsense_SetIDACRange(uint32 iDacRange)
2087:Generated_Source\PSoC4/capsense.c ****     {
 1868              		.loc 1 2087 0
 1869              		.cfi_startproc
 1870              		@ args = 0, pretend = 0, frame = 0
 1871              		@ frame_needed = 0, uses_anonymous_args = 0
 1872              		@ link register save eliminated.
 1873              	.LVL211:
2088:Generated_Source\PSoC4/capsense.c ****         if(iDacRange != 0u)
 1874              		.loc 1 2088 0
 1875 0000 0028     		cmp	r0, #0
 1876 0002 05D0     		beq	.L128
2089:Generated_Source\PSoC4/capsense.c ****         {
2090:Generated_Source\PSoC4/capsense.c ****             /*  IDAC range = 8x (2.4uA/bit) */
2091:Generated_Source\PSoC4/capsense.c ****             capsense_CSD_IDAC_REG |= (capsense_CSD_IDAC1_RANGE_8X |\
 1877              		.loc 1 2091 0
 1878 0004 054A     		ldr	r2, .L130
 1879 0006 1368     		ldr	r3, [r2]
 1880 0008 0549     		ldr	r1, .L130+4
 1881 000a 0B43     		orrs	r3, r1
 1882 000c 1360     		str	r3, [r2]
 1883 000e 04E0     		b	.L127
 1884              	.L128:
2092:Generated_Source\PSoC4/capsense.c ****                                               capsense_CSD_IDAC2_RANGE_8X);
2093:Generated_Source\PSoC4/capsense.c ****         }
2094:Generated_Source\PSoC4/capsense.c ****         else
2095:Generated_Source\PSoC4/capsense.c ****         {
2096:Generated_Source\PSoC4/capsense.c ****             /*  IDAC range = 4x (1.2uA/bit) */
2097:Generated_Source\PSoC4/capsense.c ****             /*  IDAC range = 8x (2.4uA/bit) */
2098:Generated_Source\PSoC4/capsense.c ****             capsense_CSD_IDAC_REG &= ~(capsense_CSD_IDAC1_RANGE_8X |\
 1885              		.loc 1 2098 0
 1886 0010 024A     		ldr	r2, .L130
 1887 0012 1168     		ldr	r1, [r2]
 1888 0014 034B     		ldr	r3, .L130+8
 1889 0016 0B40     		ands	r3, r1
 1890 0018 1360     		str	r3, [r2]
 1891              	.L127:
ARM GAS  C:\Users\puria\AppData\Local\Temp\ccYRkNAS.s 			page 73


2099:Generated_Source\PSoC4/capsense.c ****                                                capsense_CSD_IDAC2_RANGE_8X);
2100:Generated_Source\PSoC4/capsense.c ****         }
2101:Generated_Source\PSoC4/capsense.c ****     }
 1892              		.loc 1 2101 0
 1893              		@ sp needed
 1894 001a 7047     		bx	lr
 1895              	.L131:
 1896              		.align	2
 1897              	.L130:
 1898 001c 08002840 		.word	1076363272
 1899 0020 00040004 		.word	67109888
 1900 0024 FFFBFFFB 		.word	-67109889
 1901              		.cfi_endproc
 1902              	.LFE70:
 1903              		.size	capsense_SetIDACRange, .-capsense_SetIDACRange
 1904              		.section	.text.capsense_GetSensorRaw,"ax",%progbits
 1905              		.align	2
 1906              		.global	capsense_GetSensorRaw
 1907              		.code	16
 1908              		.thumb_func
 1909              		.type	capsense_GetSensorRaw, %function
 1910              	capsense_GetSensorRaw:
 1911              	.LFB71:
2102:Generated_Source\PSoC4/capsense.c **** #endif /* (capsense_TUNING_METHOD != capsense__TUNING_NONE) */
2103:Generated_Source\PSoC4/capsense.c **** 
2104:Generated_Source\PSoC4/capsense.c **** 
2105:Generated_Source\PSoC4/capsense.c **** #if((0u != capsense_AUTOCALIBRATION_ENABLE) || (capsense_TUNING_METHOD == capsense__TUNING_AUTO))
2106:Generated_Source\PSoC4/capsense.c ****     /*******************************************************************************
2107:Generated_Source\PSoC4/capsense.c ****     * Function Name: capsense_GetSensorRaw
2108:Generated_Source\PSoC4/capsense.c ****     ********************************************************************************
2109:Generated_Source\PSoC4/capsense.c ****     *
2110:Generated_Source\PSoC4/capsense.c ****     * Summary:
2111:Generated_Source\PSoC4/capsense.c ****     *  The API updates and gets uprated raw data from the sensor.
2112:Generated_Source\PSoC4/capsense.c ****     *
2113:Generated_Source\PSoC4/capsense.c ****     * Parameters:
2114:Generated_Source\PSoC4/capsense.c ****     *  sensor - Sensor number.
2115:Generated_Source\PSoC4/capsense.c ****     *
2116:Generated_Source\PSoC4/capsense.c ****     * Return:
2117:Generated_Source\PSoC4/capsense.c ****     *  Returns the current raw data value for a defined sensor number.
2118:Generated_Source\PSoC4/capsense.c ****     *
2119:Generated_Source\PSoC4/capsense.c ****     * Global Variables:
2120:Generated_Source\PSoC4/capsense.c ****     *  None
2121:Generated_Source\PSoC4/capsense.c ****     *
2122:Generated_Source\PSoC4/capsense.c ****     * Side Effects:
2123:Generated_Source\PSoC4/capsense.c ****     *  None
2124:Generated_Source\PSoC4/capsense.c ****     *
2125:Generated_Source\PSoC4/capsense.c ****     *******************************************************************************/
2126:Generated_Source\PSoC4/capsense.c ****     uint16  capsense_GetSensorRaw(uint32 sensor)
2127:Generated_Source\PSoC4/capsense.c ****     {
 1912              		.loc 1 2127 0
 1913              		.cfi_startproc
 1914              		@ args = 0, pretend = 0, frame = 0
 1915              		@ frame_needed = 0, uses_anonymous_args = 0
 1916              	.LVL212:
 1917 0000 70B5     		push	{r4, r5, r6, lr}
 1918              		.cfi_def_cfa_offset 16
