ARM GAS  C:\Users\puria\AppData\Local\Temp\ccYRkNAS.s 			page 1


   1              		.syntax unified
   2              		.cpu cortex-m0
   3              		.fpu softvfp
   4              		.eabi_attribute 20, 1
   5              		.eabi_attribute 21, 1
   6              		.eabi_attribute 23, 3
   7              		.eabi_attribute 24, 1
   8              		.eabi_attribute 25, 1
   9              		.eabi_attribute 26, 1
  10              		.eabi_attribute 30, 1
  11              		.eabi_attribute 34, 0
  12              		.eabi_attribute 18, 4
  13              		.thumb
  14              		.syntax unified
  15              		.file	"capsense.c"
  16              		.text
  17              	.Ltext0:
  18              		.cfi_sections	.debug_frame
  19              		.section	.text.capsense_CsdHwBlockInit,"ax",%progbits
  20              		.align	2
  21              		.global	capsense_CsdHwBlockInit
  22              		.code	16
  23              		.thumb_func
  24              		.type	capsense_CsdHwBlockInit, %function
  25              	capsense_CsdHwBlockInit:
  26              	.LFB35:
  27              		.file 1 "Generated_Source\\PSoC4\\capsense.c"
   1:Generated_Source\PSoC4/capsense.c **** /*******************************************************************************
   2:Generated_Source\PSoC4/capsense.c **** * File Name: capsense.c
   3:Generated_Source\PSoC4/capsense.c **** * Version 2.60
   4:Generated_Source\PSoC4/capsense.c **** *
   5:Generated_Source\PSoC4/capsense.c **** * Description:
   6:Generated_Source\PSoC4/capsense.c **** *  This file provides the source code for scanning APIs for the CapSense CSD
   7:Generated_Source\PSoC4/capsense.c **** *  component.
   8:Generated_Source\PSoC4/capsense.c **** *
   9:Generated_Source\PSoC4/capsense.c **** * Note:
  10:Generated_Source\PSoC4/capsense.c **** *
  11:Generated_Source\PSoC4/capsense.c **** ********************************************************************************
  12:Generated_Source\PSoC4/capsense.c **** * Copyright 2013-2016, Cypress Semiconductor Corporation.  All rights reserved.
  13:Generated_Source\PSoC4/capsense.c **** * You may use this file only in accordance with the license, terms, conditions,
  14:Generated_Source\PSoC4/capsense.c **** * disclaimers, and limitations in the end user license agreement accompanying
  15:Generated_Source\PSoC4/capsense.c **** * the software package with which this file was provided.
  16:Generated_Source\PSoC4/capsense.c **** *******************************************************************************/
  17:Generated_Source\PSoC4/capsense.c **** 
  18:Generated_Source\PSoC4/capsense.c **** #include "capsense.h"
  19:Generated_Source\PSoC4/capsense.c **** #include "capsense_PVT.h"
  20:Generated_Source\PSoC4/capsense.c **** #include "cypins.h"
  21:Generated_Source\PSoC4/capsense.c **** 
  22:Generated_Source\PSoC4/capsense.c **** 
  23:Generated_Source\PSoC4/capsense.c **** #if(0u != capsense_CSHL_API_GENERATE)
  24:Generated_Source\PSoC4/capsense.c ****     #include "capsense_CSHL.h"
  25:Generated_Source\PSoC4/capsense.c **** #endif /* (0u != capsense_CSHL_API_GENERATE) */
  26:Generated_Source\PSoC4/capsense.c **** 
  27:Generated_Source\PSoC4/capsense.c **** /* This definition is intended to prevent unexpected linker error.
  28:Generated_Source\PSoC4/capsense.c ****    For more details please see the IAR Technical Note 49981 */
  29:Generated_Source\PSoC4/capsense.c **** #if defined(__ICCARM__)
  30:Generated_Source\PSoC4/capsense.c ****     extern void capsense_EnableSensor(uint32 sensor);
ARM GAS  C:\Users\puria\AppData\Local\Temp\ccYRkNAS.s 			page 2


  31:Generated_Source\PSoC4/capsense.c ****     extern void capsense_DisableSensor(uint32 sensor);
  32:Generated_Source\PSoC4/capsense.c **** #endif /* (__ICCARM__) */
  33:Generated_Source\PSoC4/capsense.c **** 
  34:Generated_Source\PSoC4/capsense.c **** /* SmartSense functions */
  35:Generated_Source\PSoC4/capsense.c **** #if (capsense_TUNING_METHOD == capsense__TUNING_AUTO)
  36:Generated_Source\PSoC4/capsense.c ****     uint8 capsense_lowLevelTuningDone = 0u;
  37:Generated_Source\PSoC4/capsense.c ****     uint8 capsense_scanSpeedTbl[((capsense_TOTAL_SENSOR_COUNT - 1u) / 8u) + 1u];
  38:Generated_Source\PSoC4/capsense.c **** #endif /* (capsense_TUNING_METHOD == capsense__TUNING_AUTO) */
  39:Generated_Source\PSoC4/capsense.c **** 
  40:Generated_Source\PSoC4/capsense.c **** #if(capsense_PRS_OPTIONS != capsense__PRS_NONE)
  41:Generated_Source\PSoC4/capsense.c ****     uint8 capsense_prescalersTuningDone = 0u;
  42:Generated_Source\PSoC4/capsense.c **** #endif /* (capsense_PRS_OPTIONS == capsense__PRS_NONE) */
  43:Generated_Source\PSoC4/capsense.c **** 
  44:Generated_Source\PSoC4/capsense.c **** /* Global software variables */
  45:Generated_Source\PSoC4/capsense.c **** volatile uint8 capsense_csdStatusVar = 0u;   /* CapSense CSD status, variable */
  46:Generated_Source\PSoC4/capsense.c **** volatile uint8 capsense_sensorIndex = 0u;    /* Index of scannig sensor */
  47:Generated_Source\PSoC4/capsense.c **** 
  48:Generated_Source\PSoC4/capsense.c **** /* Global array of Raw Counts */
  49:Generated_Source\PSoC4/capsense.c **** uint16 capsense_sensorRaw[capsense_TOTAL_SENSOR_COUNT] = {0u};
  50:Generated_Source\PSoC4/capsense.c **** 
  51:Generated_Source\PSoC4/capsense.c **** /* Backup variables for trim registers*/
  52:Generated_Source\PSoC4/capsense.c **** #if (capsense_IDAC1_POLARITY == capsense__IDAC_SINK)
  53:Generated_Source\PSoC4/capsense.c ****     uint8 capsense_csdTrim2;
  54:Generated_Source\PSoC4/capsense.c **** #else
  55:Generated_Source\PSoC4/capsense.c ****     uint8 capsense_csdTrim1;
  56:Generated_Source\PSoC4/capsense.c **** #endif /* (capsense_IDAC1_POLARITY == capsense__IDAC_SINK) */
  57:Generated_Source\PSoC4/capsense.c **** 
  58:Generated_Source\PSoC4/capsense.c **** /* Global array of un-scanned sensors state */
  59:Generated_Source\PSoC4/capsense.c **** uint8 capsense_unscannedSnsDriveMode[capsense_PORT_PIN_CONFIG_TBL_ZISE];
  60:Generated_Source\PSoC4/capsense.c **** 
  61:Generated_Source\PSoC4/capsense.c **** /* Backup array for capsense_sensorEnableMask */
  62:Generated_Source\PSoC4/capsense.c **** uint8 capsense_sensorEnableMaskBackup[(((capsense_TOTAL_SENSOR_COUNT - 1u) / 8u) + 1u)];
  63:Generated_Source\PSoC4/capsense.c **** 
  64:Generated_Source\PSoC4/capsense.c **** /* Configured constants and arrays by Customizer */
  65:Generated_Source\PSoC4/capsense.c **** uint8 capsense_sensorEnableMask[(((capsense_TOTAL_SENSOR_COUNT - 1u) / 8u) + 1u)] = {
  66:Generated_Source\PSoC4/capsense.c **** 0x1Fu, };
  67:Generated_Source\PSoC4/capsense.c **** 
  68:Generated_Source\PSoC4/capsense.c **** reg32 * capsense_pcTable[] = {
  69:Generated_Source\PSoC4/capsense.c ****     (reg32 *)capsense_Sns__LinearSlider0_e0__LS__PC, 
  70:Generated_Source\PSoC4/capsense.c ****     (reg32 *)capsense_Sns__LinearSlider0_e1__LS__PC, 
  71:Generated_Source\PSoC4/capsense.c ****     (reg32 *)capsense_Sns__LinearSlider0_e2__LS__PC, 
  72:Generated_Source\PSoC4/capsense.c ****     (reg32 *)capsense_Sns__LinearSlider0_e3__LS__PC, 
  73:Generated_Source\PSoC4/capsense.c ****     (reg32 *)capsense_Sns__LinearSlider0_e4__LS__PC, 
  74:Generated_Source\PSoC4/capsense.c **** };
  75:Generated_Source\PSoC4/capsense.c **** 
  76:Generated_Source\PSoC4/capsense.c **** const uint8 capsense_portTable[] = {
  77:Generated_Source\PSoC4/capsense.c ****     capsense_Sns__LinearSlider0_e0__LS__PORT, 
  78:Generated_Source\PSoC4/capsense.c ****     capsense_Sns__LinearSlider0_e1__LS__PORT, 
  79:Generated_Source\PSoC4/capsense.c ****     capsense_Sns__LinearSlider0_e2__LS__PORT, 
  80:Generated_Source\PSoC4/capsense.c ****     capsense_Sns__LinearSlider0_e3__LS__PORT, 
  81:Generated_Source\PSoC4/capsense.c ****     capsense_Sns__LinearSlider0_e4__LS__PORT, 
  82:Generated_Source\PSoC4/capsense.c **** };
  83:Generated_Source\PSoC4/capsense.c **** 
  84:Generated_Source\PSoC4/capsense.c **** const uint32 capsense_maskTable[] = {
  85:Generated_Source\PSoC4/capsense.c ****     capsense_Sns__LinearSlider0_e0__LS__MASK, 
  86:Generated_Source\PSoC4/capsense.c ****     capsense_Sns__LinearSlider0_e1__LS__MASK, 
  87:Generated_Source\PSoC4/capsense.c ****     capsense_Sns__LinearSlider0_e2__LS__MASK, 
ARM GAS  C:\Users\puria\AppData\Local\Temp\ccYRkNAS.s 			page 3


  88:Generated_Source\PSoC4/capsense.c ****     capsense_Sns__LinearSlider0_e3__LS__MASK, 
  89:Generated_Source\PSoC4/capsense.c ****     capsense_Sns__LinearSlider0_e4__LS__MASK, 
  90:Generated_Source\PSoC4/capsense.c **** };
  91:Generated_Source\PSoC4/capsense.c **** 
  92:Generated_Source\PSoC4/capsense.c **** const uint8 capsense_pinShiftTbl[] = {
  93:Generated_Source\PSoC4/capsense.c ****     (uint8) capsense_Sns__LinearSlider0_e0__LS__SHIFT, 
  94:Generated_Source\PSoC4/capsense.c ****     (uint8) capsense_Sns__LinearSlider0_e1__LS__SHIFT, 
  95:Generated_Source\PSoC4/capsense.c ****     (uint8) capsense_Sns__LinearSlider0_e2__LS__SHIFT, 
  96:Generated_Source\PSoC4/capsense.c ****     (uint8) capsense_Sns__LinearSlider0_e3__LS__SHIFT, 
  97:Generated_Source\PSoC4/capsense.c ****     (uint8) capsense_Sns__LinearSlider0_e4__LS__SHIFT, 
  98:Generated_Source\PSoC4/capsense.c **** };
  99:Generated_Source\PSoC4/capsense.c **** 
 100:Generated_Source\PSoC4/capsense.c **** uint8 capsense_modulationIDAC[capsense_TOTAL_SENSOR_COUNT];
 101:Generated_Source\PSoC4/capsense.c **** uint8 capsense_compensationIDAC[capsense_TOTAL_SENSOR_COUNT];
 102:Generated_Source\PSoC4/capsense.c **** 
 103:Generated_Source\PSoC4/capsense.c **** uint32 capsense_widgetResolution[capsense_RESOLUTIONS_TBL_SIZE] = {
 104:Generated_Source\PSoC4/capsense.c ****     capsense_RESOLUTION_12_BITS,
 105:Generated_Source\PSoC4/capsense.c **** };
 106:Generated_Source\PSoC4/capsense.c **** 
 107:Generated_Source\PSoC4/capsense.c **** uint8 capsense_senseClkDividerVal[capsense_TOTAL_SCANSLOT_COUNT];
 108:Generated_Source\PSoC4/capsense.c **** uint8 capsense_sampleClkDividerVal[capsense_TOTAL_SCANSLOT_COUNT];
 109:Generated_Source\PSoC4/capsense.c **** 
 110:Generated_Source\PSoC4/capsense.c **** const uint8 capsense_widgetNumber[capsense_TOTAL_SENSOR_COUNT] = {
 111:Generated_Source\PSoC4/capsense.c ****     0u, 0u, 0u, 0u, 0u, /* LinearSlider0__LS */
 112:Generated_Source\PSoC4/capsense.c **** };
 113:Generated_Source\PSoC4/capsense.c **** 
 114:Generated_Source\PSoC4/capsense.c **** reg32* const capsense_prtSelTbl[capsense_CFG_REG_TBL_SIZE] = {
 115:Generated_Source\PSoC4/capsense.c ****     ((reg32 *) CYREG_HSIOM_PORT_SEL0),
 116:Generated_Source\PSoC4/capsense.c ****     ((reg32 *) CYREG_HSIOM_PORT_SEL1),
 117:Generated_Source\PSoC4/capsense.c ****     ((reg32 *) CYREG_HSIOM_PORT_SEL2),
 118:Generated_Source\PSoC4/capsense.c ****     ((reg32 *) CYREG_HSIOM_PORT_SEL3),
 119:Generated_Source\PSoC4/capsense.c ****     ((reg32 *) CYREG_HSIOM_PORT_SEL4),
 120:Generated_Source\PSoC4/capsense.c ****     ((reg32 *) CYREG_HSIOM_PORT_SEL5),
 121:Generated_Source\PSoC4/capsense.c ****     ((reg32 *) CYREG_HSIOM_PORT_SEL6),
 122:Generated_Source\PSoC4/capsense.c **** };
 123:Generated_Source\PSoC4/capsense.c **** 
 124:Generated_Source\PSoC4/capsense.c **** reg32* const capsense_prtCfgTbl[capsense_CFG_REG_TBL_SIZE] = {
 125:Generated_Source\PSoC4/capsense.c ****     ((reg32 *) CYREG_GPIO_PRT0_PC),
 126:Generated_Source\PSoC4/capsense.c ****     ((reg32 *) CYREG_GPIO_PRT1_PC),
 127:Generated_Source\PSoC4/capsense.c ****     ((reg32 *) CYREG_GPIO_PRT2_PC),
 128:Generated_Source\PSoC4/capsense.c ****     ((reg32 *) CYREG_GPIO_PRT3_PC),
 129:Generated_Source\PSoC4/capsense.c ****     ((reg32 *) CYREG_GPIO_PRT4_PC),
 130:Generated_Source\PSoC4/capsense.c ****     ((reg32 *) CYREG_GPIO_PRT5_PC),
 131:Generated_Source\PSoC4/capsense.c ****     ((reg32 *) CYREG_GPIO_PRT6_PC),
 132:Generated_Source\PSoC4/capsense.c **** };
 133:Generated_Source\PSoC4/capsense.c **** 
 134:Generated_Source\PSoC4/capsense.c **** reg32* const capsense_prtDRTbl[capsense_CFG_REG_TBL_SIZE] = {
 135:Generated_Source\PSoC4/capsense.c ****     ((reg32 *) CYREG_GPIO_PRT0_DR),
 136:Generated_Source\PSoC4/capsense.c ****     ((reg32 *) CYREG_GPIO_PRT1_DR),
 137:Generated_Source\PSoC4/capsense.c ****     ((reg32 *) CYREG_GPIO_PRT2_DR),
 138:Generated_Source\PSoC4/capsense.c ****     ((reg32 *) CYREG_GPIO_PRT3_DR),
 139:Generated_Source\PSoC4/capsense.c ****     ((reg32 *) CYREG_GPIO_PRT4_DR),
 140:Generated_Source\PSoC4/capsense.c ****     ((reg32 *) CYREG_GPIO_PRT5_DR),
 141:Generated_Source\PSoC4/capsense.c ****     ((reg32 *) CYREG_GPIO_PRT6_DR),
 142:Generated_Source\PSoC4/capsense.c **** };
 143:Generated_Source\PSoC4/capsense.c **** 
 144:Generated_Source\PSoC4/capsense.c **** 
ARM GAS  C:\Users\puria\AppData\Local\Temp\ccYRkNAS.s 			page 4


 145:Generated_Source\PSoC4/capsense.c **** 
 146:Generated_Source\PSoC4/capsense.c **** /*******************************************************************************
 147:Generated_Source\PSoC4/capsense.c **** * Function Name: capsense_Init
 148:Generated_Source\PSoC4/capsense.c **** ********************************************************************************
 149:Generated_Source\PSoC4/capsense.c **** *
 150:Generated_Source\PSoC4/capsense.c **** * Summary:
 151:Generated_Source\PSoC4/capsense.c **** *  API initializes default CapSense configuration provided by the customizer that defines
 152:Generated_Source\PSoC4/capsense.c **** *  the mode of component operations and resets all the sensors to an inactive state.
 153:Generated_Source\PSoC4/capsense.c **** *
 154:Generated_Source\PSoC4/capsense.c **** * Parameters:
 155:Generated_Source\PSoC4/capsense.c **** *  None
 156:Generated_Source\PSoC4/capsense.c **** *
 157:Generated_Source\PSoC4/capsense.c **** * Return:
 158:Generated_Source\PSoC4/capsense.c **** *  None
 159:Generated_Source\PSoC4/capsense.c **** *
 160:Generated_Source\PSoC4/capsense.c **** * Global Variables:
 161:Generated_Source\PSoC4/capsense.c **** *  capsense_immunityIndex - defines immunity level.
 162:Generated_Source\PSoC4/capsense.c **** *
 163:Generated_Source\PSoC4/capsense.c **** * Side Effects:
 164:Generated_Source\PSoC4/capsense.c **** *  None
 165:Generated_Source\PSoC4/capsense.c **** *
 166:Generated_Source\PSoC4/capsense.c **** *******************************************************************************/
 167:Generated_Source\PSoC4/capsense.c **** void capsense_Init(void)
 168:Generated_Source\PSoC4/capsense.c **** {
 169:Generated_Source\PSoC4/capsense.c ****     uint32 curSensor;
 170:Generated_Source\PSoC4/capsense.c **** 
 171:Generated_Source\PSoC4/capsense.c ****     #if(capsense_IS_SHIELD_ENABLE)
 172:Generated_Source\PSoC4/capsense.c **** 
 173:Generated_Source\PSoC4/capsense.c ****         #if((capsense_CSH_TANK_PREGARGE_OPTION == capsense__CAPPRIOBUF) || (0u != capsense_CSH_TANK
 174:Generated_Source\PSoC4/capsense.c ****             uint32 newRegValue;
 175:Generated_Source\PSoC4/capsense.c **** 
 176:Generated_Source\PSoC4/capsense.c ****             newRegValue = capsense_CTANK_CONNECTION_REG;
 177:Generated_Source\PSoC4/capsense.c ****             newRegValue &= ~(capsense_CSD_CTANK_CONNECTION_MASK);
 178:Generated_Source\PSoC4/capsense.c ****             newRegValue |= capsense_CSD_CTANK_TO_AMUXBUS_B;
 179:Generated_Source\PSoC4/capsense.c ****             capsense_CTANK_CONNECTION_REG = newRegValue;
 180:Generated_Source\PSoC4/capsense.c **** 
 181:Generated_Source\PSoC4/capsense.c ****             #if(capsense_CSH_TANK_PREGARGE_OPTION == capsense__CAPPRIOBUF)
 182:Generated_Source\PSoC4/capsense.c ****                 newRegValue = capsense_CTANK_PORT_PC_REG;
 183:Generated_Source\PSoC4/capsense.c ****                 newRegValue &= ~(capsense_CSD_CTANK_PC_MASK);
 184:Generated_Source\PSoC4/capsense.c ****                 newRegValue |= capsense_CTANK_PC_STRONG_MODE;
 185:Generated_Source\PSoC4/capsense.c ****                 capsense_CTANK_PORT_PC_REG = newRegValue;
 186:Generated_Source\PSoC4/capsense.c **** 
 187:Generated_Source\PSoC4/capsense.c ****                 newRegValue = capsense_CTANK_PORT_DR_REG;
 188:Generated_Source\PSoC4/capsense.c ****                 newRegValue &= ~(capsense_CTANK_DR_MASK);
 189:Generated_Source\PSoC4/capsense.c ****                 newRegValue |= capsense_CTANK_DR_CONFIG;
 190:Generated_Source\PSoC4/capsense.c ****                 capsense_CTANK_PORT_DR_REG = newRegValue;
 191:Generated_Source\PSoC4/capsense.c ****             #endif /* (capsense_CSH_TANK_PREGARGE_OPTION == capsense__CAPPRIOBUF) */
 192:Generated_Source\PSoC4/capsense.c **** 
 193:Generated_Source\PSoC4/capsense.c ****         #endif /* ((capsense_CSH_TANK_PREGARGE_OPTION == capsense__CAPPRIOBUF) || (capsense_CSH_TAN
 194:Generated_Source\PSoC4/capsense.c **** 
 195:Generated_Source\PSoC4/capsense.c ****         capsense_EnableShieldElectrode((uint32)capsense_SHIELD_PIN_NUMBER, (uint32)capsense_SHIELD_
 196:Generated_Source\PSoC4/capsense.c **** 
 197:Generated_Source\PSoC4/capsense.c ****     #endif /* (capsense_IS_SHIELD_ENABLE) */
 198:Generated_Source\PSoC4/capsense.c **** 
 199:Generated_Source\PSoC4/capsense.c ****     for(curSensor = 0u; curSensor < capsense_TOTAL_SENSOR_COUNT; curSensor++)
 200:Generated_Source\PSoC4/capsense.c ****     {
 201:Generated_Source\PSoC4/capsense.c ****         capsense_SetUnscannedSensorState(curSensor, capsense_CONNECT_INACTIVE_SNS);
ARM GAS  C:\Users\puria\AppData\Local\Temp\ccYRkNAS.s 			page 5


 202:Generated_Source\PSoC4/capsense.c ****     }
 203:Generated_Source\PSoC4/capsense.c **** 
 204:Generated_Source\PSoC4/capsense.c ****     capsense_CsdHwBlockInit();
 205:Generated_Source\PSoC4/capsense.c ****     capsense_SetShieldDelay(capsense_SHIELD_DELAY );
 206:Generated_Source\PSoC4/capsense.c **** 
 207:Generated_Source\PSoC4/capsense.c ****     /* Clear all sensors */
 208:Generated_Source\PSoC4/capsense.c ****     capsense_ClearSensors();
 209:Generated_Source\PSoC4/capsense.c **** }
 210:Generated_Source\PSoC4/capsense.c **** 
 211:Generated_Source\PSoC4/capsense.c **** /*******************************************************************************
 212:Generated_Source\PSoC4/capsense.c **** * Function Name: capsense_CsdHwBlockInit
 213:Generated_Source\PSoC4/capsense.c **** ********************************************************************************
 214:Generated_Source\PSoC4/capsense.c **** *
 215:Generated_Source\PSoC4/capsense.c **** * Summary:
 216:Generated_Source\PSoC4/capsense.c **** *  Initialises the hardware parameters of the CSD block
 217:Generated_Source\PSoC4/capsense.c **** *
 218:Generated_Source\PSoC4/capsense.c **** * Parameters:
 219:Generated_Source\PSoC4/capsense.c **** *  None
 220:Generated_Source\PSoC4/capsense.c **** *
 221:Generated_Source\PSoC4/capsense.c **** * Return:
 222:Generated_Source\PSoC4/capsense.c **** *  None
 223:Generated_Source\PSoC4/capsense.c **** *
 224:Generated_Source\PSoC4/capsense.c **** * Global Variables:
 225:Generated_Source\PSoC4/capsense.c **** *  capsense_csdTrim1 - Contains IDAC trim register value for Sourcing Mode.
 226:Generated_Source\PSoC4/capsense.c **** *  capsense_csdTrim2 - Contains IDAC trim register value for Sinking Mode.
 227:Generated_Source\PSoC4/capsense.c **** *
 228:Generated_Source\PSoC4/capsense.c **** * Side Effects:
 229:Generated_Source\PSoC4/capsense.c **** *  None
 230:Generated_Source\PSoC4/capsense.c **** *
 231:Generated_Source\PSoC4/capsense.c **** *******************************************************************************/
 232:Generated_Source\PSoC4/capsense.c **** void capsense_CsdHwBlockInit(void)
 233:Generated_Source\PSoC4/capsense.c **** {
  28              		.loc 1 233 0
  29              		.cfi_startproc
  30              		@ args = 0, pretend = 0, frame = 0
  31              		@ frame_needed = 0, uses_anonymous_args = 0
  32 0000 70B5     		push	{r4, r5, r6, lr}
  33              		.cfi_def_cfa_offset 16
  34              		.cfi_offset 4, -16
  35              		.cfi_offset 5, -12
  36              		.cfi_offset 6, -8
  37              		.cfi_offset 14, -4
 234:Generated_Source\PSoC4/capsense.c ****     uint32 newRegValue;
 235:Generated_Source\PSoC4/capsense.c **** 
 236:Generated_Source\PSoC4/capsense.c ****         /* Set trim registers for CSD Mode */
 237:Generated_Source\PSoC4/capsense.c ****     #if (capsense_IDAC1_POLARITY == capsense__IDAC_SINK)
 238:Generated_Source\PSoC4/capsense.c ****         /* iDAC1 Sinking Mode */
 239:Generated_Source\PSoC4/capsense.c ****         capsense_csdTrim2 = (uint8)capsense_CSD_TRIM2_REG;
 240:Generated_Source\PSoC4/capsense.c ****         newRegValue = capsense_csdTrim2;
 241:Generated_Source\PSoC4/capsense.c ****         newRegValue &= capsense_CSD_IDAC1_TRIM_MASK;
 242:Generated_Source\PSoC4/capsense.c ****         newRegValue |= (uint32)((uint32)capsense_SFLASH_CSD_TRIM2_REG & (uint32)capsense_CSFLASH_TR
 243:Generated_Source\PSoC4/capsense.c **** 
 244:Generated_Source\PSoC4/capsense.c ****         #if (capsense_IDAC_CNT == 2u)
 245:Generated_Source\PSoC4/capsense.c ****             /* iDAC2 Sinking Mode */
 246:Generated_Source\PSoC4/capsense.c ****             newRegValue &= capsense_CSD_IDAC2_TRIM_MASK;
 247:Generated_Source\PSoC4/capsense.c ****             newRegValue |= (uint32)((uint32)capsense_SFLASH_CSD_TRIM2_REG & (uint32)capsense_CSFLAS
 248:Generated_Source\PSoC4/capsense.c ****         #endif /* (capsense_IDAC_CNT == 2u) */
ARM GAS  C:\Users\puria\AppData\Local\Temp\ccYRkNAS.s 			page 6


 249:Generated_Source\PSoC4/capsense.c ****         capsense_CSD_TRIM2_REG = newRegValue;
 250:Generated_Source\PSoC4/capsense.c ****     #else
 251:Generated_Source\PSoC4/capsense.c ****         /* iDAC1 Sourcing Mode */
 252:Generated_Source\PSoC4/capsense.c ****         capsense_csdTrim1 = (uint8)capsense_CSD_TRIM1_REG;
  38              		.loc 1 252 0
  39 0002 154C     		ldr	r4, .L2
  40 0004 2368     		ldr	r3, [r4]
  41 0006 DBB2     		uxtb	r3, r3
  42 0008 144A     		ldr	r2, .L2+4
  43 000a 1370     		strb	r3, [r2]
  44              	.LVL0:
 253:Generated_Source\PSoC4/capsense.c ****         newRegValue = capsense_csdTrim1;
 254:Generated_Source\PSoC4/capsense.c ****         newRegValue &= capsense_CSD_IDAC1_TRIM_MASK;
  45              		.loc 1 254 0
  46 000c 0F20     		movs	r0, #15
  47 000e 8343     		bics	r3, r0
  48              	.LVL1:
  49 0010 1900     		movs	r1, r3
  50              	.LVL2:
 255:Generated_Source\PSoC4/capsense.c ****         newRegValue |= (uint32)((uint32)capsense_SFLASH_CSD_TRIM1_REG & (uint32)capsense_CSFLASH_TR
  51              		.loc 1 255 0
  52 0012 134D     		ldr	r5, .L2+8
  53 0014 2B78     		ldrb	r3, [r5]
  54 0016 0F22     		movs	r2, #15
  55 0018 1340     		ands	r3, r2
  56 001a 0B43     		orrs	r3, r1
  57              	.LVL3:
 256:Generated_Source\PSoC4/capsense.c ****         #if (capsense_IDAC_CNT == 2u)
 257:Generated_Source\PSoC4/capsense.c ****              /* iDAC2 Sourcing Mode */
 258:Generated_Source\PSoC4/capsense.c ****             newRegValue &= capsense_CSD_IDAC2_TRIM_MASK;
  58              		.loc 1 258 0
  59 001c E132     		adds	r2, r2, #225
  60 001e 9343     		bics	r3, r2
  61              	.LVL4:
 259:Generated_Source\PSoC4/capsense.c ****             newRegValue |= (uint32)((uint32)capsense_SFLASH_CSD_TRIM1_REG & (uint32)capsense_CSFLAS
  62              		.loc 1 259 0
  63 0020 2A78     		ldrb	r2, [r5]
  64 0022 8243     		bics	r2, r0
  65 0024 1343     		orrs	r3, r2
  66              	.LVL5:
 260:Generated_Source\PSoC4/capsense.c ****         #endif
 261:Generated_Source\PSoC4/capsense.c ****         capsense_CSD_TRIM1_REG = newRegValue;
  67              		.loc 1 261 0
  68 0026 2360     		str	r3, [r4]
 262:Generated_Source\PSoC4/capsense.c ****     #endif /* (capsense_IDAC1_POLARITY == capsense__IDAC_SINK) */
 263:Generated_Source\PSoC4/capsense.c **** 
 264:Generated_Source\PSoC4/capsense.c ****     /* Configure CSD and IDAC */
 265:Generated_Source\PSoC4/capsense.c ****     #if (capsense_IDAC_CNT > 1u)
 266:Generated_Source\PSoC4/capsense.c ****         capsense_CSD_IDAC_REG = capsense_DEFAULT_CSD_IDAC_CONFIG;
  69              		.loc 1 266 0
  70 0028 0E4A     		ldr	r2, .L2+12
  71 002a 0F4B     		ldr	r3, .L2+16
  72              	.LVL6:
  73 002c 1A60     		str	r2, [r3]
  74              	.LVL7:
 267:Generated_Source\PSoC4/capsense.c ****         capsense_CSD_CFG_REG = capsense_DEFAULT_CSD_CONFIG;
  75              		.loc 1 267 0
ARM GAS  C:\Users\puria\AppData\Local\Temp\ccYRkNAS.s 			page 7


  76 002e 0F4A     		ldr	r2, .L2+20
  77 0030 0F4B     		ldr	r3, .L2+24
  78 0032 1A60     		str	r2, [r3]
 268:Generated_Source\PSoC4/capsense.c ****     #else
 269:Generated_Source\PSoC4/capsense.c ****         capsense_CSD_IDAC_REG &= ~(capsense_CSD_IDAC1_MODE_MASK  | capsense_CSD_IDAC1_DATA_MASK);
 270:Generated_Source\PSoC4/capsense.c ****         capsense_CSD_IDAC_REG |= capsense_DEFAULT_CSD_IDAC_CONFIG;
 271:Generated_Source\PSoC4/capsense.c **** 
 272:Generated_Source\PSoC4/capsense.c ****         capsense_CSD_CFG_REG &= ~(capsense_CSD_CONFIG_MASK);
 273:Generated_Source\PSoC4/capsense.c ****         capsense_CSD_CFG_REG |= (capsense_DEFAULT_CSD_CONFIG);
 274:Generated_Source\PSoC4/capsense.c ****     #endif /* (capsense_IDAC_CNT > 1u) */
 275:Generated_Source\PSoC4/capsense.c **** 
 276:Generated_Source\PSoC4/capsense.c **** 
 277:Generated_Source\PSoC4/capsense.c ****     /* Connect Cmod to AMUX bus */
 278:Generated_Source\PSoC4/capsense.c ****     newRegValue = capsense_CMOD_CONNECTION_REG;
  79              		.loc 1 278 0
  80 0034 0F49     		ldr	r1, .L2+28
  81 0036 0B68     		ldr	r3, [r1]
  82              	.LVL8:
 279:Generated_Source\PSoC4/capsense.c ****     newRegValue &= ~(capsense_CSD_CMOD_CONNECTION_MASK);
  83              		.loc 1 279 0
  84 0038 8343     		bics	r3, r0
  85              	.LVL9:
 280:Generated_Source\PSoC4/capsense.c ****     newRegValue |= capsense_CSD_CMOD_TO_AMUXBUS_A;
  86              		.loc 1 280 0
  87 003a 0622     		movs	r2, #6
  88 003c 1343     		orrs	r3, r2
  89              	.LVL10:
 281:Generated_Source\PSoC4/capsense.c ****     capsense_CMOD_CONNECTION_REG = newRegValue;
  90              		.loc 1 281 0
  91 003e 0B60     		str	r3, [r1]
 282:Generated_Source\PSoC4/capsense.c **** 
 283:Generated_Source\PSoC4/capsense.c ****     /* Configure Dead Band PWM if it is enabled */
 284:Generated_Source\PSoC4/capsense.c ****     #if(capsense_CSD_4B_PWM_MODE != capsense__PWM_OFF)
 285:Generated_Source\PSoC4/capsense.c ****         capsense_CSD_4B_PWM_REG = capsense_DEFAULT_CSD_4B_PWM_CONFIG;
 286:Generated_Source\PSoC4/capsense.c ****     #endif /* (capsense_CSD_4B_PWM_MODE != capsense__PWM_OFF) */
 287:Generated_Source\PSoC4/capsense.c **** 
 288:Generated_Source\PSoC4/capsense.c ****     /* Setup ISR */
 289:Generated_Source\PSoC4/capsense.c ****     CyIntDisable(capsense_ISR_NUMBER);
  92              		.loc 1 289 0
  93 0040 0130     		adds	r0, r0, #1
  94 0042 FFF7FEFF 		bl	CyIntDisable
  95              	.LVL11:
 290:Generated_Source\PSoC4/capsense.c ****     #if !defined(CY_EXTERNAL_INTERRUPT_CONFIG)
 291:Generated_Source\PSoC4/capsense.c ****         (void)CyIntSetVector(capsense_ISR_NUMBER, &capsense_ISR);
  96              		.loc 1 291 0
  97 0046 0C49     		ldr	r1, .L2+32
  98 0048 1020     		movs	r0, #16
  99 004a FFF7FEFF 		bl	CyIntSetVector
 100              	.LVL12:
 292:Generated_Source\PSoC4/capsense.c ****         CyIntSetPriority(capsense_ISR_NUMBER, capsense_ISR_PRIORITY);
 101              		.loc 1 292 0
 102 004e 0321     		movs	r1, #3
 103 0050 1020     		movs	r0, #16
 104 0052 FFF7FEFF 		bl	CyIntSetPriority
 105              	.LVL13:
 293:Generated_Source\PSoC4/capsense.c ****     #endif /* (CY_EXTERNAL_INTERRUPT_CONFIG) */
 294:Generated_Source\PSoC4/capsense.c **** }
ARM GAS  C:\Users\puria\AppData\Local\Temp\ccYRkNAS.s 			page 8


 106              		.loc 1 294 0
 107              		@ sp needed
 108 0056 70BD     		pop	{r4, r5, r6, pc}
 109              	.L3:
 110              		.align	2
 111              	.L2:
 112 0058 00FF2840 		.word	1076428544
 113 005c 00000000 		.word	capsense_csdTrim1
 114 0060 62F1FF0F 		.word	268431714
 115 0064 00020001 		.word	16777728
 116 0068 08002840 		.word	1076363272
 117 006c 0008A001 		.word	27265024
 118 0070 04002840 		.word	1076363268
 119 0074 00040240 		.word	1073873920
 120 0078 00000000 		.word	capsense_ISR
 121              		.cfi_endproc
 122              	.LFE35:
 123              		.size	capsense_CsdHwBlockInit, .-capsense_CsdHwBlockInit
 124              		.section	.text.capsense_Enable,"ax",%progbits
 125              		.align	2
 126              		.global	capsense_Enable
 127              		.code	16
 128              		.thumb_func
 129              		.type	capsense_Enable, %function
 130              	capsense_Enable:
 131              	.LFB36:
 295:Generated_Source\PSoC4/capsense.c **** 
 296:Generated_Source\PSoC4/capsense.c **** 
 297:Generated_Source\PSoC4/capsense.c **** /*******************************************************************************
 298:Generated_Source\PSoC4/capsense.c **** * Function Name: capsense_Enable
 299:Generated_Source\PSoC4/capsense.c **** ********************************************************************************
 300:Generated_Source\PSoC4/capsense.c **** *
 301:Generated_Source\PSoC4/capsense.c **** * Summary:
 302:Generated_Source\PSoC4/capsense.c **** *  Enables the CSD block and related resources to an active mode.
 303:Generated_Source\PSoC4/capsense.c **** *
 304:Generated_Source\PSoC4/capsense.c **** * Parameters:
 305:Generated_Source\PSoC4/capsense.c **** *  None
 306:Generated_Source\PSoC4/capsense.c **** *
 307:Generated_Source\PSoC4/capsense.c **** * Return:
 308:Generated_Source\PSoC4/capsense.c **** *  None
 309:Generated_Source\PSoC4/capsense.c **** *
 310:Generated_Source\PSoC4/capsense.c **** * Global Variables:
 311:Generated_Source\PSoC4/capsense.c **** *  None.
 312:Generated_Source\PSoC4/capsense.c **** *
 313:Generated_Source\PSoC4/capsense.c **** * Side Effects:
 314:Generated_Source\PSoC4/capsense.c **** *  None
 315:Generated_Source\PSoC4/capsense.c **** *
 316:Generated_Source\PSoC4/capsense.c **** *******************************************************************************/
 317:Generated_Source\PSoC4/capsense.c **** void capsense_Enable(void)
 318:Generated_Source\PSoC4/capsense.c **** {
 132              		.loc 1 318 0
 133              		.cfi_startproc
 134              		@ args = 0, pretend = 0, frame = 0
 135              		@ frame_needed = 0, uses_anonymous_args = 0
 136 0000 10B5     		push	{r4, lr}
 137              		.cfi_def_cfa_offset 8
 138              		.cfi_offset 4, -8
ARM GAS  C:\Users\puria\AppData\Local\Temp\ccYRkNAS.s 			page 9


 139              		.cfi_offset 14, -4
 319:Generated_Source\PSoC4/capsense.c ****     uint32 newRegValue;
 320:Generated_Source\PSoC4/capsense.c **** 
 321:Generated_Source\PSoC4/capsense.c ****     /* Enable Clocks */
 322:Generated_Source\PSoC4/capsense.c ****     capsense_SenseClk_Stop();
 140              		.loc 1 322 0
 141 0002 FFF7FEFF 		bl	capsense_SenseClk_Stop
 142              	.LVL14:
 323:Generated_Source\PSoC4/capsense.c ****     capsense_SampleClk_Stop();
 143              		.loc 1 323 0
 144 0006 FFF7FEFF 		bl	capsense_SampleClk_Stop
 145              	.LVL15:
 324:Generated_Source\PSoC4/capsense.c **** 
 325:Generated_Source\PSoC4/capsense.c ****     capsense_SampleClk_SetDividerValue((uint16)capsense_INITIAL_CLK_DIVIDER);
 146              		.loc 1 325 0
 147 000a 0021     		movs	r1, #0
 148 000c 0020     		movs	r0, #0
 149 000e FFF7FEFF 		bl	capsense_SampleClk_SetFractionalDividerRegister
 150              	.LVL16:
 326:Generated_Source\PSoC4/capsense.c ****     capsense_SenseClk_SetDividerValue((uint16)capsense_INITIAL_CLK_DIVIDER);
 151              		.loc 1 326 0
 152 0012 0021     		movs	r1, #0
 153 0014 0020     		movs	r0, #0
 154 0016 FFF7FEFF 		bl	capsense_SenseClk_SetFractionalDividerRegister
 155              	.LVL17:
 327:Generated_Source\PSoC4/capsense.c **** 
 328:Generated_Source\PSoC4/capsense.c ****     #if (0u == capsense_IS_M0S8PERI_BLOCK)
 329:Generated_Source\PSoC4/capsense.c ****         capsense_SenseClk_Start();
 330:Generated_Source\PSoC4/capsense.c ****         capsense_SampleClk_Start();
 331:Generated_Source\PSoC4/capsense.c ****     #else
 332:Generated_Source\PSoC4/capsense.c ****         capsense_SampleClk_Start();
 156              		.loc 1 332 0
 157 001a FF20     		movs	r0, #255
 158 001c FFF7FEFF 		bl	capsense_SampleClk_StartEx
 159              	.LVL18:
 333:Generated_Source\PSoC4/capsense.c ****         capsense_SenseClk_StartEx(capsense_SampleClk__DIV_ID);
 160              		.loc 1 333 0
 161 0020 4020     		movs	r0, #64
 162 0022 FFF7FEFF 		bl	capsense_SenseClk_StartEx
 163              	.LVL19:
 334:Generated_Source\PSoC4/capsense.c ****     #endif /* (0u == capsense_IS_M0S8PERI_BLOCK) */
 335:Generated_Source\PSoC4/capsense.c **** 
 336:Generated_Source\PSoC4/capsense.c ****     /* Enable the CSD block */
 337:Generated_Source\PSoC4/capsense.c ****     newRegValue = capsense_CSD_CFG_REG;
 164              		.loc 1 337 0
 165 0026 044A     		ldr	r2, .L5
 166 0028 1368     		ldr	r3, [r2]
 167              	.LVL20:
 338:Generated_Source\PSoC4/capsense.c ****     newRegValue |= (capsense_CSD_CFG_ENABLE | capsense_CSD_CFG_SENSE_COMP_EN
 168              		.loc 1 338 0
 169 002a 0449     		ldr	r1, .L5+4
 170 002c 0B43     		orrs	r3, r1
 171              	.LVL21:
 339:Generated_Source\PSoC4/capsense.c ****                                                    | capsense_CSD_CFG_SENSE_EN);
 340:Generated_Source\PSoC4/capsense.c ****     capsense_CSD_CFG_REG = newRegValue;
 172              		.loc 1 340 0
 173 002e 1360     		str	r3, [r2]
ARM GAS  C:\Users\puria\AppData\Local\Temp\ccYRkNAS.s 			page 10


 341:Generated_Source\PSoC4/capsense.c **** 
 342:Generated_Source\PSoC4/capsense.c ****     /* Enable interrupt */
 343:Generated_Source\PSoC4/capsense.c ****     CyIntEnable(capsense_ISR_NUMBER);
 174              		.loc 1 343 0
 175 0030 1020     		movs	r0, #16
 176 0032 FFF7FEFF 		bl	CyIntEnable
 177              	.LVL22:
 344:Generated_Source\PSoC4/capsense.c **** }
 178              		.loc 1 344 0
 179              		@ sp needed
 180 0036 10BD     		pop	{r4, pc}
 181              	.L6:
 182              		.align	2
 183              	.L5:
 184 0038 04002840 		.word	1076363268
 185 003c 00100880 		.word	-2146955264
 186              		.cfi_endproc
 187              	.LFE36:
 188              		.size	capsense_Enable, .-capsense_Enable
 189              		.section	.text.capsense_Stop,"ax",%progbits
 190              		.align	2
 191              		.global	capsense_Stop
 192              		.code	16
 193              		.thumb_func
 194              		.type	capsense_Stop, %function
 195              	capsense_Stop:
 196              	.LFB38:
 345:Generated_Source\PSoC4/capsense.c **** 
 346:Generated_Source\PSoC4/capsense.c **** 
 347:Generated_Source\PSoC4/capsense.c **** /*******************************************************************************
 348:Generated_Source\PSoC4/capsense.c **** * Function Name: capsense_Start
 349:Generated_Source\PSoC4/capsense.c **** ********************************************************************************
 350:Generated_Source\PSoC4/capsense.c **** *
 351:Generated_Source\PSoC4/capsense.c **** * Summary:
 352:Generated_Source\PSoC4/capsense.c **** *  This is the preferred method to begin the component operation. CapSense_Start()
 353:Generated_Source\PSoC4/capsense.c **** *  calls the CapSense_Init() function, and then calls the CapSense_Enable()
 354:Generated_Source\PSoC4/capsense.c **** *  function. Initializes the registers and starts the CSD method of the CapSense
 355:Generated_Source\PSoC4/capsense.c **** *  component. Resets all the sensors to an inactive state. Enables interrupts for
 356:Generated_Source\PSoC4/capsense.c **** *  sensors scanning. When the SmartSense tuning mode is selected, the tuning procedure
 357:Generated_Source\PSoC4/capsense.c **** *  is applied for all the sensors. The CapSense_Start() routine must be called before
 358:Generated_Source\PSoC4/capsense.c **** *  any other API routines.
 359:Generated_Source\PSoC4/capsense.c **** *
 360:Generated_Source\PSoC4/capsense.c **** * Parameters:
 361:Generated_Source\PSoC4/capsense.c **** *  None
 362:Generated_Source\PSoC4/capsense.c **** *
 363:Generated_Source\PSoC4/capsense.c **** * Return:
 364:Generated_Source\PSoC4/capsense.c **** *  None
 365:Generated_Source\PSoC4/capsense.c **** *
 366:Generated_Source\PSoC4/capsense.c **** * Global Variables:
 367:Generated_Source\PSoC4/capsense.c **** *   capsense_initVar - used to check the initial configuration,
 368:Generated_Source\PSoC4/capsense.c **** *   modified on the first function call.
 369:Generated_Source\PSoC4/capsense.c **** *  capsense_lowLevelTuningDone - Used to notify the Tuner GUI that
 370:Generated_Source\PSoC4/capsense.c **** *   tuning of the scanning parameters is done.
 371:Generated_Source\PSoC4/capsense.c **** *
 372:Generated_Source\PSoC4/capsense.c **** * Side Effects:
 373:Generated_Source\PSoC4/capsense.c **** *  None
 374:Generated_Source\PSoC4/capsense.c **** *
ARM GAS  C:\Users\puria\AppData\Local\Temp\ccYRkNAS.s 			page 11


 375:Generated_Source\PSoC4/capsense.c **** *******************************************************************************/
 376:Generated_Source\PSoC4/capsense.c **** void capsense_Start(void)
 377:Generated_Source\PSoC4/capsense.c **** {
 378:Generated_Source\PSoC4/capsense.c **** 
 379:Generated_Source\PSoC4/capsense.c ****     static uint8 capsense_initVar = 0u;
 380:Generated_Source\PSoC4/capsense.c **** 
 381:Generated_Source\PSoC4/capsense.c ****     #if((0u != capsense_AUTOCALIBRATION_ENABLE) && (capsense_TUNING_METHOD != capsense__TUNING_AUTO
 382:Generated_Source\PSoC4/capsense.c ****         uint32 curSensor;
 383:Generated_Source\PSoC4/capsense.c ****         uint32 rawLevel;
 384:Generated_Source\PSoC4/capsense.c ****         uint32 widget;
 385:Generated_Source\PSoC4/capsense.c ****     #endif /* ((0u != capsense_AUTOCALIBRATION_ENABLE) && (capsense_TUNING_METHOD != capsense__TUNI
 386:Generated_Source\PSoC4/capsense.c **** 
 387:Generated_Source\PSoC4/capsense.c ****     if (capsense_initVar == 0u)
 388:Generated_Source\PSoC4/capsense.c ****     {
 389:Generated_Source\PSoC4/capsense.c ****         capsense_Init();
 390:Generated_Source\PSoC4/capsense.c ****         capsense_initVar = 1u;
 391:Generated_Source\PSoC4/capsense.c ****     }
 392:Generated_Source\PSoC4/capsense.c ****     capsense_Enable();
 393:Generated_Source\PSoC4/capsense.c **** 
 394:Generated_Source\PSoC4/capsense.c ****     /* AutoTunning start */
 395:Generated_Source\PSoC4/capsense.c ****     #if(capsense_TUNING_METHOD == capsense__TUNING_AUTO)
 396:Generated_Source\PSoC4/capsense.c ****         #if(0u != capsense_CSHL_API_GENERATE)
 397:Generated_Source\PSoC4/capsense.c ****             capsense_AutoTune();
 398:Generated_Source\PSoC4/capsense.c ****             capsense_lowLevelTuningDone = 1u;
 399:Generated_Source\PSoC4/capsense.c ****         #endif /* (0u != capsense_CSHL_API_GENERATE) */
 400:Generated_Source\PSoC4/capsense.c ****     #else
 401:Generated_Source\PSoC4/capsense.c ****         #if(0u != capsense_AUTOCALIBRATION_ENABLE)
 402:Generated_Source\PSoC4/capsense.c **** 
 403:Generated_Source\PSoC4/capsense.c ****             #if(capsense_IDAC_CNT > 1u)
 404:Generated_Source\PSoC4/capsense.c ****                 capsense_CSD_IDAC_REG &= ~(capsense_CSD_IDAC2_MODE_MASK);
 405:Generated_Source\PSoC4/capsense.c ****             #endif /* (capsense_IDAC_CNT > 1u) */
 406:Generated_Source\PSoC4/capsense.c **** 
 407:Generated_Source\PSoC4/capsense.c ****             for(curSensor = 0u; curSensor < capsense_TOTAL_SCANSLOT_COUNT; curSensor++)
 408:Generated_Source\PSoC4/capsense.c ****             {
 409:Generated_Source\PSoC4/capsense.c ****                 widget = capsense_widgetNumber[curSensor];
 410:Generated_Source\PSoC4/capsense.c ****                 rawLevel = capsense_widgetResolution[widget] >> capsense_RESOLUTION_OFFSET;
 411:Generated_Source\PSoC4/capsense.c **** 
 412:Generated_Source\PSoC4/capsense.c ****                 /* Calibration level should be equal to 85% from scanning resolution */
 413:Generated_Source\PSoC4/capsense.c ****                 rawLevel = (rawLevel * 85u) / 100u;
 414:Generated_Source\PSoC4/capsense.c **** 
 415:Generated_Source\PSoC4/capsense.c ****                 capsense_CalibrateSensor(curSensor, rawLevel, capsense_modulationIDAC);
 416:Generated_Source\PSoC4/capsense.c ****             }
 417:Generated_Source\PSoC4/capsense.c **** 
 418:Generated_Source\PSoC4/capsense.c ****             #if(0u != capsense_TOTAL_CENTROIDS_COUNT)
 419:Generated_Source\PSoC4/capsense.c ****                 capsense_NormalizeWidgets(capsense_END_OF_WIDGETS_INDEX, capsense_modulationIDAC);
 420:Generated_Source\PSoC4/capsense.c ****             #endif /* (0u != capsense_TOTAL_CENTROIDS_COUNT)  */
 421:Generated_Source\PSoC4/capsense.c **** 
 422:Generated_Source\PSoC4/capsense.c ****             #if(capsense_IDAC_CNT > 1u)
 423:Generated_Source\PSoC4/capsense.c ****                 for(curSensor = 0u; curSensor < capsense_TOTAL_SCANSLOT_COUNT; curSensor++)
 424:Generated_Source\PSoC4/capsense.c ****                 {
 425:Generated_Source\PSoC4/capsense.c ****                     capsense_compensationIDAC[curSensor] = capsense_modulationIDAC[curSensor] / 2u;
 426:Generated_Source\PSoC4/capsense.c ****                     capsense_modulationIDAC[curSensor] = (capsense_modulationIDAC[curSensor] + 1u) 
 427:Generated_Source\PSoC4/capsense.c ****                 }
 428:Generated_Source\PSoC4/capsense.c ****                 capsense_CSD_IDAC_REG |= capsense_CSD_IDAC2_MODE_FIXED;
 429:Generated_Source\PSoC4/capsense.c ****             #endif /* (capsense_IDAC_CNT > 1u) */
 430:Generated_Source\PSoC4/capsense.c **** 
 431:Generated_Source\PSoC4/capsense.c ****         #endif /* (0u != capsense_AUTOCALIBRATION_ENABLE) */
ARM GAS  C:\Users\puria\AppData\Local\Temp\ccYRkNAS.s 			page 12


 432:Generated_Source\PSoC4/capsense.c **** 
 433:Generated_Source\PSoC4/capsense.c ****     #endif /* ((capsense_TUNING_METHOD == capsense__TUNING_AUTO) */
 434:Generated_Source\PSoC4/capsense.c **** 
 435:Generated_Source\PSoC4/capsense.c ****     /* Initialize Advanced Centroid */
 436:Generated_Source\PSoC4/capsense.c ****     #if(capsense_TOTAL_TRACKPAD_GESTURES_COUNT > 0u)
 437:Generated_Source\PSoC4/capsense.c ****         capsense_AdvancedCentroidInit();
 438:Generated_Source\PSoC4/capsense.c ****     #endif /* (capsense_TOTAL_TRACKPAD_GESTURES_COUNT > 0u) */
 439:Generated_Source\PSoC4/capsense.c **** 
 440:Generated_Source\PSoC4/capsense.c ****     /* Connect sense comparator input to AMUXA */
 441:Generated_Source\PSoC4/capsense.c ****     capsense_CSD_CFG_REG |= capsense_CSD_CFG_SENSE_INSEL;
 442:Generated_Source\PSoC4/capsense.c **** }
 443:Generated_Source\PSoC4/capsense.c **** 
 444:Generated_Source\PSoC4/capsense.c **** 
 445:Generated_Source\PSoC4/capsense.c **** /*******************************************************************************
 446:Generated_Source\PSoC4/capsense.c **** * Function Name: capsense_Stop
 447:Generated_Source\PSoC4/capsense.c **** ********************************************************************************
 448:Generated_Source\PSoC4/capsense.c **** *
 449:Generated_Source\PSoC4/capsense.c **** * Summary:
 450:Generated_Source\PSoC4/capsense.c **** *  Stops the sensor scanning, disables component interrupts, and resets all the
 451:Generated_Source\PSoC4/capsense.c **** *  sensors to an inactive state. Disables the Active mode power template bits for
 452:Generated_Source\PSoC4/capsense.c **** *  the subcomponents used within CapSense.
 453:Generated_Source\PSoC4/capsense.c **** *
 454:Generated_Source\PSoC4/capsense.c **** * Parameters:
 455:Generated_Source\PSoC4/capsense.c **** *  None
 456:Generated_Source\PSoC4/capsense.c **** *
 457:Generated_Source\PSoC4/capsense.c **** * Return:
 458:Generated_Source\PSoC4/capsense.c **** *  None
 459:Generated_Source\PSoC4/capsense.c **** *
 460:Generated_Source\PSoC4/capsense.c **** * Global Variables:
 461:Generated_Source\PSoC4/capsense.c **** *  capsense_csdTrim1 - Contains the IDAC trim register value for the Sourcing Mode.
 462:Generated_Source\PSoC4/capsense.c **** *  capsense_csdTrim2 - Contains the IDAC trim register value for vSinking Mode.
 463:Generated_Source\PSoC4/capsense.c **** *
 464:Generated_Source\PSoC4/capsense.c **** * Side Effects:
 465:Generated_Source\PSoC4/capsense.c **** *  This function should be called after scans are completed.
 466:Generated_Source\PSoC4/capsense.c **** *
 467:Generated_Source\PSoC4/capsense.c **** *******************************************************************************/
 468:Generated_Source\PSoC4/capsense.c **** void capsense_Stop(void)
 469:Generated_Source\PSoC4/capsense.c **** {
 197              		.loc 1 469 0
 198              		.cfi_startproc
 199              		@ args = 0, pretend = 0, frame = 0
 200              		@ frame_needed = 0, uses_anonymous_args = 0
 201 0000 10B5     		push	{r4, lr}
 202              		.cfi_def_cfa_offset 8
 203              		.cfi_offset 4, -8
 204              		.cfi_offset 14, -4
 470:Generated_Source\PSoC4/capsense.c ****     /* Disable interrupt */
 471:Generated_Source\PSoC4/capsense.c ****     CyIntDisable(capsense_ISR_NUMBER);
 205              		.loc 1 471 0
 206 0002 1020     		movs	r0, #16
 207 0004 FFF7FEFF 		bl	CyIntDisable
 208              	.LVL23:
 472:Generated_Source\PSoC4/capsense.c **** 
 473:Generated_Source\PSoC4/capsense.c ****     capsense_CSD_CFG_REG &= ~(capsense_CSD_CFG_SENSE_COMP_EN | capsense_CSD_CFG_SENSE_EN);
 209              		.loc 1 473 0
 210 0008 064A     		ldr	r2, .L8
 211 000a 1168     		ldr	r1, [r2]
ARM GAS  C:\Users\puria\AppData\Local\Temp\ccYRkNAS.s 			page 13


 212 000c 064B     		ldr	r3, .L8+4
 213 000e 0B40     		ands	r3, r1
 214 0010 1360     		str	r3, [r2]
 474:Generated_Source\PSoC4/capsense.c **** 
 475:Generated_Source\PSoC4/capsense.c ****     #if(capsense_IDAC_CNT == 2u)
 476:Generated_Source\PSoC4/capsense.c ****         capsense_CSD_CFG_REG &= ~(capsense_CSD_CFG_ENABLE);
 215              		.loc 1 476 0
 216 0012 1368     		ldr	r3, [r2]
 217 0014 5B00     		lsls	r3, r3, #1
 218 0016 5B08     		lsrs	r3, r3, #1
 219 0018 1360     		str	r3, [r2]
 477:Generated_Source\PSoC4/capsense.c ****     #endif /* (capsense_IDAC_CNT == 2u) */
 478:Generated_Source\PSoC4/capsense.c **** 
 479:Generated_Source\PSoC4/capsense.c ****     /* Disable the Clocks */
 480:Generated_Source\PSoC4/capsense.c ****     capsense_SenseClk_Stop();
 220              		.loc 1 480 0
 221 001a FFF7FEFF 		bl	capsense_SenseClk_Stop
 222              	.LVL24:
 481:Generated_Source\PSoC4/capsense.c ****     capsense_SampleClk_Stop();
 223              		.loc 1 481 0
 224 001e FFF7FEFF 		bl	capsense_SampleClk_Stop
 225              	.LVL25:
 482:Generated_Source\PSoC4/capsense.c **** }
 226              		.loc 1 482 0
 227              		@ sp needed
 228 0022 10BD     		pop	{r4, pc}
 229              	.L9:
 230              		.align	2
 231              	.L8:
 232 0024 04002840 		.word	1076363268
 233 0028 FFEFF7FF 		.word	-528385
 234              		.cfi_endproc
 235              	.LFE38:
 236              		.size	capsense_Stop, .-capsense_Stop
 237              		.section	.text.capsense_IsBusy,"ax",%progbits
 238              		.align	2
 239              		.global	capsense_IsBusy
 240              		.code	16
 241              		.thumb_func
 242              		.type	capsense_IsBusy, %function
 243              	capsense_IsBusy:
 244              	.LFB43:
 483:Generated_Source\PSoC4/capsense.c **** 
 484:Generated_Source\PSoC4/capsense.c **** 
 485:Generated_Source\PSoC4/capsense.c **** /*******************************************************************************
 486:Generated_Source\PSoC4/capsense.c **** * Function Name: capsense_FindNextSensor
 487:Generated_Source\PSoC4/capsense.c **** ********************************************************************************
 488:Generated_Source\PSoC4/capsense.c **** *
 489:Generated_Source\PSoC4/capsense.c **** * Summary:
 490:Generated_Source\PSoC4/capsense.c **** *  Finds the next sensor to scan.
 491:Generated_Source\PSoC4/capsense.c **** *
 492:Generated_Source\PSoC4/capsense.c **** * Parameters:
 493:Generated_Source\PSoC4/capsense.c **** *  snsIndex:  Current index of sensor.
 494:Generated_Source\PSoC4/capsense.c **** *
 495:Generated_Source\PSoC4/capsense.c **** * Return:
 496:Generated_Source\PSoC4/capsense.c **** *  Returns the next sensor index to scan.
 497:Generated_Source\PSoC4/capsense.c **** *
ARM GAS  C:\Users\puria\AppData\Local\Temp\ccYRkNAS.s 			page 14


 498:Generated_Source\PSoC4/capsense.c **** * Global Variables:
 499:Generated_Source\PSoC4/capsense.c **** *  capsense_sensorEnableMask[] - used to store bit masks of the enabled sensors.
 500:Generated_Source\PSoC4/capsense.c **** *
 501:Generated_Source\PSoC4/capsense.c **** * Side Effects:
 502:Generated_Source\PSoC4/capsense.c **** *  This function affects the  current scanning and should not
 503:Generated_Source\PSoC4/capsense.c **** *  be used outside the component.
 504:Generated_Source\PSoC4/capsense.c **** *
 505:Generated_Source\PSoC4/capsense.c **** *******************************************************************************/
 506:Generated_Source\PSoC4/capsense.c **** uint8 capsense_FindNextSensor(uint8 snsIndex)
 507:Generated_Source\PSoC4/capsense.c **** {
 508:Generated_Source\PSoC4/capsense.c ****     uint32 enableFlag;
 509:Generated_Source\PSoC4/capsense.c **** 
 510:Generated_Source\PSoC4/capsense.c ****     /* Check if sensor enabled */
 511:Generated_Source\PSoC4/capsense.c ****     do
 512:Generated_Source\PSoC4/capsense.c ****     {
 513:Generated_Source\PSoC4/capsense.c ****         /* Proceed with next sensor */
 514:Generated_Source\PSoC4/capsense.c ****         snsIndex++;
 515:Generated_Source\PSoC4/capsense.c ****         if(snsIndex == capsense_TOTAL_SENSOR_COUNT)
 516:Generated_Source\PSoC4/capsense.c ****         {
 517:Generated_Source\PSoC4/capsense.c ****             break;
 518:Generated_Source\PSoC4/capsense.c ****         }
 519:Generated_Source\PSoC4/capsense.c ****         enableFlag = capsense_GetBitValue(capsense_sensorEnableMask, (uint32)snsIndex);
 520:Generated_Source\PSoC4/capsense.c ****     }
 521:Generated_Source\PSoC4/capsense.c ****     while(enableFlag == 0u);
 522:Generated_Source\PSoC4/capsense.c **** 
 523:Generated_Source\PSoC4/capsense.c ****     return ((uint8)snsIndex);
 524:Generated_Source\PSoC4/capsense.c **** }
 525:Generated_Source\PSoC4/capsense.c **** 
 526:Generated_Source\PSoC4/capsense.c **** 
 527:Generated_Source\PSoC4/capsense.c **** /*******************************************************************************
 528:Generated_Source\PSoC4/capsense.c **** * Function Name: capsense_ScanSensor
 529:Generated_Source\PSoC4/capsense.c **** ********************************************************************************
 530:Generated_Source\PSoC4/capsense.c **** *
 531:Generated_Source\PSoC4/capsense.c **** * Summary:
 532:Generated_Source\PSoC4/capsense.c **** *  Sets the scan settings and starts scanning a sensor. After scanning is complete,
 533:Generated_Source\PSoC4/capsense.c **** *  the ISR copies the measured sensor raw data to the global raw sensor array.
 534:Generated_Source\PSoC4/capsense.c **** *  Use of the ISR ensures this function is non-blocking.
 535:Generated_Source\PSoC4/capsense.c **** *  Each sensor has a unique number within the sensor array.
 536:Generated_Source\PSoC4/capsense.c **** *  This number is assigned by the CapSense customizer in sequence.
 537:Generated_Source\PSoC4/capsense.c **** *
 538:Generated_Source\PSoC4/capsense.c **** * Parameters:
 539:Generated_Source\PSoC4/capsense.c **** *  sensor:  Sensor number.
 540:Generated_Source\PSoC4/capsense.c **** *
 541:Generated_Source\PSoC4/capsense.c **** * Return:
 542:Generated_Source\PSoC4/capsense.c **** *  None
 543:Generated_Source\PSoC4/capsense.c **** *
 544:Generated_Source\PSoC4/capsense.c **** * Global Variables:
 545:Generated_Source\PSoC4/capsense.c **** *  capsense_csdStatusVar - used to provide the status and mode of the scanning process.
 546:Generated_Source\PSoC4/capsense.c **** *  Sets the busy status(scan in progress) and mode of scan as single scan.
 547:Generated_Source\PSoC4/capsense.c **** *  capsense_sensorIndex - used to store a sensor scanning sensor number.
 548:Generated_Source\PSoC4/capsense.c **** *  Sets to the provided sensor argument.
 549:Generated_Source\PSoC4/capsense.c **** *
 550:Generated_Source\PSoC4/capsense.c **** * Side Effects:
 551:Generated_Source\PSoC4/capsense.c **** *  None
 552:Generated_Source\PSoC4/capsense.c **** *
 553:Generated_Source\PSoC4/capsense.c **** *******************************************************************************/
 554:Generated_Source\PSoC4/capsense.c **** void capsense_ScanSensor(uint32 sensor)
ARM GAS  C:\Users\puria\AppData\Local\Temp\ccYRkNAS.s 			page 15


 555:Generated_Source\PSoC4/capsense.c **** {
 556:Generated_Source\PSoC4/capsense.c ****     /* Clears status/control variable and set sensorIndex */
 557:Generated_Source\PSoC4/capsense.c ****     capsense_csdStatusVar = 0u;
 558:Generated_Source\PSoC4/capsense.c ****     capsense_sensorIndex = (uint8)sensor;
 559:Generated_Source\PSoC4/capsense.c **** 
 560:Generated_Source\PSoC4/capsense.c ****     /* Start of sensor scan */
 561:Generated_Source\PSoC4/capsense.c ****     capsense_csdStatusVar = (capsense_SW_STS_BUSY | capsense_SW_CTRL_SINGLE_SCAN);
 562:Generated_Source\PSoC4/capsense.c ****     capsense_PreScan(sensor);
 563:Generated_Source\PSoC4/capsense.c **** }
 564:Generated_Source\PSoC4/capsense.c **** 
 565:Generated_Source\PSoC4/capsense.c **** 
 566:Generated_Source\PSoC4/capsense.c **** #if(0u != capsense_CSHL_API_GENERATE)
 567:Generated_Source\PSoC4/capsense.c **** /*******************************************************************************
 568:Generated_Source\PSoC4/capsense.c **** * Function Name: capsense_ScanWidget
 569:Generated_Source\PSoC4/capsense.c **** ********************************************************************************
 570:Generated_Source\PSoC4/capsense.c **** *
 571:Generated_Source\PSoC4/capsense.c **** * Summary:
 572:Generated_Source\PSoC4/capsense.c **** *  Sets the scan settings and starts scanning a widget.
 573:Generated_Source\PSoC4/capsense.c **** *
 574:Generated_Source\PSoC4/capsense.c **** * Parameters:
 575:Generated_Source\PSoC4/capsense.c **** *  uint32 widget: Widget number.
 576:Generated_Source\PSoC4/capsense.c **** *
 577:Generated_Source\PSoC4/capsense.c **** * Return:
 578:Generated_Source\PSoC4/capsense.c **** *  None
 579:Generated_Source\PSoC4/capsense.c **** *
 580:Generated_Source\PSoC4/capsense.c **** * Global Variables:
 581:Generated_Source\PSoC4/capsense.c **** *  capsense_csdStatusVar - used to provide the status and mode of the scanning process.
 582:Generated_Source\PSoC4/capsense.c **** *  Sets the busy status(scan in progress) and clears the single scan mode.
 583:Generated_Source\PSoC4/capsense.c **** *  capsense_sensorIndex - used to store a sensor scanning sensor number.
 584:Generated_Source\PSoC4/capsense.c **** *  Sets to 0xFF and provided to function capsense_FindNextSensor or
 585:Generated_Source\PSoC4/capsense.c **** *  capsense_sensorEnableMask[] - used to store bit masks of the enabled sensors.
 586:Generated_Source\PSoC4/capsense.c **** *  capsense_sensorEnableMaskBackup[] - used to backup bit masks of the enabled
 587:Generated_Source\PSoC4/capsense.c **** *   sensors.
 588:Generated_Source\PSoC4/capsense.c **** *
 589:Generated_Source\PSoC4/capsense.c **** * Side Effects:
 590:Generated_Source\PSoC4/capsense.c **** *  None
 591:Generated_Source\PSoC4/capsense.c **** *
 592:Generated_Source\PSoC4/capsense.c **** *******************************************************************************/
 593:Generated_Source\PSoC4/capsense.c **** void capsense_ScanWidget(uint32 widget)
 594:Generated_Source\PSoC4/capsense.c **** {
 595:Generated_Source\PSoC4/capsense.c ****     uint32 sensorsPerWidget;
 596:Generated_Source\PSoC4/capsense.c ****     uint32 lastSensor;
 597:Generated_Source\PSoC4/capsense.c ****     uint32 snsIndex;
 598:Generated_Source\PSoC4/capsense.c **** 
 599:Generated_Source\PSoC4/capsense.c ****     /* Get first sensor in widget */
 600:Generated_Source\PSoC4/capsense.c ****     capsense_sensorIndex = capsense_rawDataIndex[widget];
 601:Generated_Source\PSoC4/capsense.c **** 
 602:Generated_Source\PSoC4/capsense.c ****     /* Get number of sensors in widget */
 603:Generated_Source\PSoC4/capsense.c ****     sensorsPerWidget = capsense_numberOfSensors[widget];
 604:Generated_Source\PSoC4/capsense.c **** 
 605:Generated_Source\PSoC4/capsense.c ****     /* Check if generic Sensor */
 606:Generated_Source\PSoC4/capsense.c ****     if(sensorsPerWidget == 0u)
 607:Generated_Source\PSoC4/capsense.c ****     {
 608:Generated_Source\PSoC4/capsense.c ****         sensorsPerWidget = 1u;
 609:Generated_Source\PSoC4/capsense.c ****     }
 610:Generated_Source\PSoC4/capsense.c **** 
 611:Generated_Source\PSoC4/capsense.c ****     /* Get last sensor in widget */
ARM GAS  C:\Users\puria\AppData\Local\Temp\ccYRkNAS.s 			page 16


 612:Generated_Source\PSoC4/capsense.c ****     lastSensor = (capsense_rawDataIndex[widget] + sensorsPerWidget) - 1u;
 613:Generated_Source\PSoC4/capsense.c **** 
 614:Generated_Source\PSoC4/capsense.c ****     /* Backup sensorEnableMask array */
 615:Generated_Source\PSoC4/capsense.c ****     for(snsIndex = 0u; snsIndex < capsense_TOTAL_SENSOR_MASK; snsIndex++)
 616:Generated_Source\PSoC4/capsense.c ****     {
 617:Generated_Source\PSoC4/capsense.c ****         /* Backup sensorEnableMask array */
 618:Generated_Source\PSoC4/capsense.c ****         capsense_sensorEnableMaskBackup[snsIndex] = capsense_sensorEnableMask[snsIndex];
 619:Generated_Source\PSoC4/capsense.c ****     }
 620:Generated_Source\PSoC4/capsense.c **** 
 621:Generated_Source\PSoC4/capsense.c ****     /* Update sensorEnableMask to scan the sensors that belong to widget */
 622:Generated_Source\PSoC4/capsense.c ****     for(snsIndex = 0u; snsIndex < capsense_TOTAL_SENSOR_COUNT; snsIndex++)
 623:Generated_Source\PSoC4/capsense.c ****     {
 624:Generated_Source\PSoC4/capsense.c ****         /* Update sensorEnableMask array bits to scan the widget only */
 625:Generated_Source\PSoC4/capsense.c ****         if((snsIndex >= capsense_sensorIndex) && (snsIndex <= lastSensor))
 626:Generated_Source\PSoC4/capsense.c ****         {
 627:Generated_Source\PSoC4/capsense.c ****             /* Set sensor bit to scan */
 628:Generated_Source\PSoC4/capsense.c ****             capsense_SetBitValue(capsense_sensorEnableMask, snsIndex, 1u);
 629:Generated_Source\PSoC4/capsense.c ****         }
 630:Generated_Source\PSoC4/capsense.c ****         else
 631:Generated_Source\PSoC4/capsense.c ****         {
 632:Generated_Source\PSoC4/capsense.c ****             /* Reset sensor bit to do not scan */
 633:Generated_Source\PSoC4/capsense.c ****             capsense_SetBitValue(capsense_sensorEnableMask, snsIndex, 0u);
 634:Generated_Source\PSoC4/capsense.c ****         }
 635:Generated_Source\PSoC4/capsense.c ****     }
 636:Generated_Source\PSoC4/capsense.c **** 
 637:Generated_Source\PSoC4/capsense.c ****     /* Check end of scan condition */
 638:Generated_Source\PSoC4/capsense.c ****     if(capsense_sensorIndex < capsense_TOTAL_SENSOR_COUNT)
 639:Generated_Source\PSoC4/capsense.c ****     {
 640:Generated_Source\PSoC4/capsense.c ****         /* Set widget busy bit in status/control variable*/
 641:Generated_Source\PSoC4/capsense.c ****         capsense_csdStatusVar = (capsense_SW_STS_BUSY | capsense_SW_CTRL_WIDGET_SCAN);
 642:Generated_Source\PSoC4/capsense.c ****         /* Scan first sensor of widget*/
 643:Generated_Source\PSoC4/capsense.c ****         capsense_PreScan((uint32)capsense_sensorIndex);
 644:Generated_Source\PSoC4/capsense.c ****     }
 645:Generated_Source\PSoC4/capsense.c **** }
 646:Generated_Source\PSoC4/capsense.c **** #endif /* (0u != capsense_CSHL_API_GENERATE) */
 647:Generated_Source\PSoC4/capsense.c **** 
 648:Generated_Source\PSoC4/capsense.c **** 
 649:Generated_Source\PSoC4/capsense.c **** /*******************************************************************************
 650:Generated_Source\PSoC4/capsense.c **** * Function Name: capsense_ScanEnableWidgets
 651:Generated_Source\PSoC4/capsense.c **** ********************************************************************************
 652:Generated_Source\PSoC4/capsense.c **** *
 653:Generated_Source\PSoC4/capsense.c **** * Summary:
 654:Generated_Source\PSoC4/capsense.c **** *  This is the preferred method to scan all of the enabled widgets.
 655:Generated_Source\PSoC4/capsense.c **** *  The API starts scanning a sensor within the enabled widgets.
 656:Generated_Source\PSoC4/capsense.c **** *  The ISR continues scanning the sensors until all the enabled widgets are scanned.
 657:Generated_Source\PSoC4/capsense.c **** *  Use of the ISR ensures this function is non-blocking.
 658:Generated_Source\PSoC4/capsense.c **** *  All the widgets are enabled by default except proximity widgets.
 659:Generated_Source\PSoC4/capsense.c **** *  The proximity widgets must be manually enabled as their long scan time
 660:Generated_Source\PSoC4/capsense.c **** *  is incompatible with a fast response required of other widget types.
 661:Generated_Source\PSoC4/capsense.c **** *
 662:Generated_Source\PSoC4/capsense.c **** * Parameters:
 663:Generated_Source\PSoC4/capsense.c **** *  None
 664:Generated_Source\PSoC4/capsense.c **** *
 665:Generated_Source\PSoC4/capsense.c **** * Return:
 666:Generated_Source\PSoC4/capsense.c **** *  None
 667:Generated_Source\PSoC4/capsense.c **** *
 668:Generated_Source\PSoC4/capsense.c **** * Global Variables:
ARM GAS  C:\Users\puria\AppData\Local\Temp\ccYRkNAS.s 			page 17


 669:Generated_Source\PSoC4/capsense.c **** *  capsense_csdStatusVar - used to provide the status and mode of the scanning process.
 670:Generated_Source\PSoC4/capsense.c **** *  Sets the busy status(scan in progress) and clears the single scan mode.
 671:Generated_Source\PSoC4/capsense.c **** *  capsense_sensorIndex - used to store a sensor scanning sensor number.
 672:Generated_Source\PSoC4/capsense.c **** *  Sets to 0xFF and provided to function capsense_FindNextSensor or
 673:Generated_Source\PSoC4/capsense.c **** *
 674:Generated_Source\PSoC4/capsense.c **** * Side Effects:
 675:Generated_Source\PSoC4/capsense.c **** *  None
 676:Generated_Source\PSoC4/capsense.c **** *
 677:Generated_Source\PSoC4/capsense.c **** *******************************************************************************/
 678:Generated_Source\PSoC4/capsense.c **** void capsense_ScanEnabledWidgets(void)
 679:Generated_Source\PSoC4/capsense.c **** {
 680:Generated_Source\PSoC4/capsense.c ****     /* Clears status/control variable and set sensorIndex */
 681:Generated_Source\PSoC4/capsense.c ****     capsense_csdStatusVar = 0u;
 682:Generated_Source\PSoC4/capsense.c ****     capsense_sensorIndex = 0xFFu;
 683:Generated_Source\PSoC4/capsense.c **** 
 684:Generated_Source\PSoC4/capsense.c ****     /* Find next sensor */
 685:Generated_Source\PSoC4/capsense.c ****     capsense_sensorIndex = (uint8)capsense_FindNextSensor(capsense_sensorIndex);
 686:Generated_Source\PSoC4/capsense.c **** 
 687:Generated_Source\PSoC4/capsense.c ****     /* Check end of scan condition */
 688:Generated_Source\PSoC4/capsense.c ****     if(capsense_sensorIndex < capsense_TOTAL_SENSOR_COUNT)
 689:Generated_Source\PSoC4/capsense.c ****     {
 690:Generated_Source\PSoC4/capsense.c ****         capsense_csdStatusVar |= capsense_SW_STS_BUSY;
 691:Generated_Source\PSoC4/capsense.c ****         capsense_PreScan((uint32)capsense_sensorIndex);
 692:Generated_Source\PSoC4/capsense.c ****     }
 693:Generated_Source\PSoC4/capsense.c **** }
 694:Generated_Source\PSoC4/capsense.c **** 
 695:Generated_Source\PSoC4/capsense.c **** 
 696:Generated_Source\PSoC4/capsense.c **** /*******************************************************************************
 697:Generated_Source\PSoC4/capsense.c **** * Function Name: capsense_IsBusy
 698:Generated_Source\PSoC4/capsense.c **** ********************************************************************************
 699:Generated_Source\PSoC4/capsense.c **** *
 700:Generated_Source\PSoC4/capsense.c **** * Summary:
 701:Generated_Source\PSoC4/capsense.c **** *  Returns the state of the CapSense component. 1 means that scanning in
 702:Generated_Source\PSoC4/capsense.c **** *  progress and 0 means that scanning is complete.
 703:Generated_Source\PSoC4/capsense.c **** *
 704:Generated_Source\PSoC4/capsense.c **** * Parameters:
 705:Generated_Source\PSoC4/capsense.c **** *  None
 706:Generated_Source\PSoC4/capsense.c **** *
 707:Generated_Source\PSoC4/capsense.c **** * Return:
 708:Generated_Source\PSoC4/capsense.c **** *  Returns the state of scanning. 1 - scanning in progress, 0 - scanning
 709:Generated_Source\PSoC4/capsense.c **** *  completed.
 710:Generated_Source\PSoC4/capsense.c **** *
 711:Generated_Source\PSoC4/capsense.c **** * Global Variables:
 712:Generated_Source\PSoC4/capsense.c **** *  capsense_csdStatusVar - used to provide the status and mode of the scanning process.
 713:Generated_Source\PSoC4/capsense.c **** *  Checks the busy status.
 714:Generated_Source\PSoC4/capsense.c **** *
 715:Generated_Source\PSoC4/capsense.c **** * Side Effects:
 716:Generated_Source\PSoC4/capsense.c **** *  None
 717:Generated_Source\PSoC4/capsense.c **** *
 718:Generated_Source\PSoC4/capsense.c **** *******************************************************************************/
 719:Generated_Source\PSoC4/capsense.c **** uint32 capsense_IsBusy(void)
 720:Generated_Source\PSoC4/capsense.c **** {
 245              		.loc 1 720 0
 246              		.cfi_startproc
 247              		@ args = 0, pretend = 0, frame = 0
 248              		@ frame_needed = 0, uses_anonymous_args = 0
 249              		@ link register save eliminated.
ARM GAS  C:\Users\puria\AppData\Local\Temp\ccYRkNAS.s 			page 18


 721:Generated_Source\PSoC4/capsense.c ****     return ((uint32)((0u != (capsense_csdStatusVar & capsense_SW_STS_BUSY)) ? 1u : 0u));
 250              		.loc 1 721 0
 251 0000 024B     		ldr	r3, .L11
 252 0002 1878     		ldrb	r0, [r3]
 253 0004 0123     		movs	r3, #1
 254 0006 1840     		ands	r0, r3
 722:Generated_Source\PSoC4/capsense.c **** }
 255              		.loc 1 722 0
 256              		@ sp needed
 257 0008 7047     		bx	lr
 258              	.L12:
 259 000a C046     		.align	2
 260              	.L11:
 261 000c 00000000 		.word	.LANCHOR0
 262              		.cfi_endproc
 263              	.LFE43:
 264              		.size	capsense_IsBusy, .-capsense_IsBusy
 265              		.section	.text.capsense_ReadSensorRaw,"ax",%progbits
 266              		.align	2
 267              		.global	capsense_ReadSensorRaw
 268              		.code	16
 269              		.thumb_func
 270              		.type	capsense_ReadSensorRaw, %function
 271              	capsense_ReadSensorRaw:
 272              	.LFB44:
 723:Generated_Source\PSoC4/capsense.c **** 
 724:Generated_Source\PSoC4/capsense.c **** 
 725:Generated_Source\PSoC4/capsense.c **** /*******************************************************************************
 726:Generated_Source\PSoC4/capsense.c **** * Function Name: capsense_ReadSensorRaw
 727:Generated_Source\PSoC4/capsense.c **** ********************************************************************************
 728:Generated_Source\PSoC4/capsense.c **** *
 729:Generated_Source\PSoC4/capsense.c **** * Summary:
 730:Generated_Source\PSoC4/capsense.c **** *  Returns sensor raw data from the global CapSense_sensorRaw[ ] array.
 731:Generated_Source\PSoC4/capsense.c **** *  Each scan sensor has a unique number within the sensor array.
 732:Generated_Source\PSoC4/capsense.c **** *  This number is assigned by the CapSense customizer in sequence.
 733:Generated_Source\PSoC4/capsense.c **** *  Raw data can be used to perform calculations outside of the CapSense
 734:Generated_Source\PSoC4/capsense.c **** *  provided framework.
 735:Generated_Source\PSoC4/capsense.c **** *
 736:Generated_Source\PSoC4/capsense.c **** * Parameters:
 737:Generated_Source\PSoC4/capsense.c **** *  sensor:  Sensor number.
 738:Generated_Source\PSoC4/capsense.c **** *
 739:Generated_Source\PSoC4/capsense.c **** * Return:
 740:Generated_Source\PSoC4/capsense.c **** *  Returns the current raw data value for a defined sensor number.
 741:Generated_Source\PSoC4/capsense.c **** *
 742:Generated_Source\PSoC4/capsense.c **** * Global Variables:
 743:Generated_Source\PSoC4/capsense.c **** *  capsense_sensorRaw[] - used to store sensors raw data.
 744:Generated_Source\PSoC4/capsense.c **** *
 745:Generated_Source\PSoC4/capsense.c **** * Side Effects:
 746:Generated_Source\PSoC4/capsense.c **** *  None
 747:Generated_Source\PSoC4/capsense.c **** *
 748:Generated_Source\PSoC4/capsense.c **** *******************************************************************************/
 749:Generated_Source\PSoC4/capsense.c **** uint16 capsense_ReadSensorRaw(uint32 sensor)
 750:Generated_Source\PSoC4/capsense.c **** {
 273              		.loc 1 750 0
 274              		.cfi_startproc
 275              		@ args = 0, pretend = 0, frame = 0
 276              		@ frame_needed = 0, uses_anonymous_args = 0
ARM GAS  C:\Users\puria\AppData\Local\Temp\ccYRkNAS.s 			page 19


 277              		@ link register save eliminated.
 278              	.LVL26:
 751:Generated_Source\PSoC4/capsense.c ****     return capsense_sensorRaw[sensor];
 279              		.loc 1 751 0
 280 0000 4000     		lsls	r0, r0, #1
 281              	.LVL27:
 282 0002 024B     		ldr	r3, .L14
 283 0004 1818     		adds	r0, r3, r0
 284 0006 8088     		ldrh	r0, [r0, #4]
 752:Generated_Source\PSoC4/capsense.c **** }
 285              		.loc 1 752 0
 286              		@ sp needed
 287 0008 7047     		bx	lr
 288              	.L15:
 289 000a C046     		.align	2
 290              	.L14:
 291 000c 00000000 		.word	.LANCHOR0
 292              		.cfi_endproc
 293              	.LFE44:
 294              		.size	capsense_ReadSensorRaw, .-capsense_ReadSensorRaw
 295              		.section	.text.capsense_WriteSensorRaw,"ax",%progbits
 296              		.align	2
 297              		.global	capsense_WriteSensorRaw
 298              		.code	16
 299              		.thumb_func
 300              		.type	capsense_WriteSensorRaw, %function
 301              	capsense_WriteSensorRaw:
 302              	.LFB45:
 753:Generated_Source\PSoC4/capsense.c **** 
 754:Generated_Source\PSoC4/capsense.c **** 
 755:Generated_Source\PSoC4/capsense.c **** /*******************************************************************************
 756:Generated_Source\PSoC4/capsense.c **** * Function Name: capsense_WriteSensorRaw
 757:Generated_Source\PSoC4/capsense.c **** ********************************************************************************
 758:Generated_Source\PSoC4/capsense.c **** *
 759:Generated_Source\PSoC4/capsense.c **** * Summary:
 760:Generated_Source\PSoC4/capsense.c **** *  This API writes the raw count value passed as an argument to the sensor Raw count array.
 761:Generated_Source\PSoC4/capsense.c **** *
 762:Generated_Source\PSoC4/capsense.c **** * Parameters:
 763:Generated_Source\PSoC4/capsense.c **** *  sensor:  Sensor number.
 764:Generated_Source\PSoC4/capsense.c **** *  value: Raw count value.
 765:Generated_Source\PSoC4/capsense.c **** *
 766:Generated_Source\PSoC4/capsense.c **** * Global Variables:
 767:Generated_Source\PSoC4/capsense.c **** *  capsense_sensorRaw[] - used to store sensors raw data.
 768:Generated_Source\PSoC4/capsense.c **** *
 769:Generated_Source\PSoC4/capsense.c **** * Return:
 770:Generated_Source\PSoC4/capsense.c **** *  None
 771:Generated_Source\PSoC4/capsense.c **** *
 772:Generated_Source\PSoC4/capsense.c **** * Side Effects:
 773:Generated_Source\PSoC4/capsense.c **** *  None
 774:Generated_Source\PSoC4/capsense.c **** *
 775:Generated_Source\PSoC4/capsense.c **** *******************************************************************************/
 776:Generated_Source\PSoC4/capsense.c **** void capsense_WriteSensorRaw(uint32 sensor, uint16 value)
 777:Generated_Source\PSoC4/capsense.c **** {
 303              		.loc 1 777 0
 304              		.cfi_startproc
 305              		@ args = 0, pretend = 0, frame = 0
 306              		@ frame_needed = 0, uses_anonymous_args = 0
ARM GAS  C:\Users\puria\AppData\Local\Temp\ccYRkNAS.s 			page 20


 307              		@ link register save eliminated.
 308              	.LVL28:
 778:Generated_Source\PSoC4/capsense.c ****     capsense_sensorRaw[sensor] = value;
 309              		.loc 1 778 0
 310 0000 4000     		lsls	r0, r0, #1
 311              	.LVL29:
 312 0002 024B     		ldr	r3, .L17
 313 0004 1818     		adds	r0, r3, r0
 314 0006 8180     		strh	r1, [r0, #4]
 779:Generated_Source\PSoC4/capsense.c **** }
 315              		.loc 1 779 0
 316              		@ sp needed
 317 0008 7047     		bx	lr
 318              	.L18:
 319 000a C046     		.align	2
 320              	.L17:
 321 000c 00000000 		.word	.LANCHOR0
 322              		.cfi_endproc
 323              	.LFE45:
 324              		.size	capsense_WriteSensorRaw, .-capsense_WriteSensorRaw
 325              		.section	.text.capsense_SetScanResolution,"ax",%progbits
 326              		.align	2
 327              		.global	capsense_SetScanResolution
 328              		.code	16
 329              		.thumb_func
 330              		.type	capsense_SetScanResolution, %function
 331              	capsense_SetScanResolution:
 332              	.LFB46:
 780:Generated_Source\PSoC4/capsense.c **** 
 781:Generated_Source\PSoC4/capsense.c **** 
 782:Generated_Source\PSoC4/capsense.c **** #if (capsense_TUNING_METHOD != capsense__TUNING_NONE)
 783:Generated_Source\PSoC4/capsense.c ****     /*******************************************************************************
 784:Generated_Source\PSoC4/capsense.c ****     * Function Name: capsense_SetScanResolution
 785:Generated_Source\PSoC4/capsense.c ****     ********************************************************************************
 786:Generated_Source\PSoC4/capsense.c ****     *
 787:Generated_Source\PSoC4/capsense.c ****     * Summary:
 788:Generated_Source\PSoC4/capsense.c ****     *  Sets a value of the sensor scan resolution for a widget.
 789:Generated_Source\PSoC4/capsense.c ****     *  The MIN resolution can be set 8-bit. The MAX Resolution can be set 16 bit.
 790:Generated_Source\PSoC4/capsense.c ****     *  This function is not available for the tuning mode "None".
 791:Generated_Source\PSoC4/capsense.c ****     *
 792:Generated_Source\PSoC4/capsense.c ****     * Parameters:
 793:Generated_Source\PSoC4/capsense.c ****     *  widget:     Widget index.
 794:Generated_Source\PSoC4/capsense.c ****     *  resolution: Represents the resolution value. The following defines which are available in th
 795:Generated_Source\PSoC4/capsense.c ****     *              capsense.h file should be used:
 796:Generated_Source\PSoC4/capsense.c ****     *              capsense_RESOLUTION_6_BITS
 797:Generated_Source\PSoC4/capsense.c ****     *              capsense_RESOLUTION_7_BITS
 798:Generated_Source\PSoC4/capsense.c ****     *              capsense_RESOLUTION_8_BITS
 799:Generated_Source\PSoC4/capsense.c ****     *              capsense_RESOLUTION_9_BITS
 800:Generated_Source\PSoC4/capsense.c ****     *              capsense_RESOLUTION_10_BITS
 801:Generated_Source\PSoC4/capsense.c ****     *              capsense_RESOLUTION_11_BITS
 802:Generated_Source\PSoC4/capsense.c ****     *              capsense_RESOLUTION_12_BITS
 803:Generated_Source\PSoC4/capsense.c ****     *              capsense_RESOLUTION_13_BITS
 804:Generated_Source\PSoC4/capsense.c ****     *              capsense_RESOLUTION_14_BITS
 805:Generated_Source\PSoC4/capsense.c ****     *              capsense_RESOLUTION_15_BITS
 806:Generated_Source\PSoC4/capsense.c ****     *              capsense_RESOLUTION_16_BITS
 807:Generated_Source\PSoC4/capsense.c ****     *
 808:Generated_Source\PSoC4/capsense.c ****     * Return:
ARM GAS  C:\Users\puria\AppData\Local\Temp\ccYRkNAS.s 			page 21


 809:Generated_Source\PSoC4/capsense.c ****     *  None
 810:Generated_Source\PSoC4/capsense.c ****     *
 811:Generated_Source\PSoC4/capsense.c ****     * Global Variables:
 812:Generated_Source\PSoC4/capsense.c ****     *  capsense_widgetResolution[] - used to store scan resolution of each widget.
 813:Generated_Source\PSoC4/capsense.c ****     *
 814:Generated_Source\PSoC4/capsense.c ****     * Side Effects:
 815:Generated_Source\PSoC4/capsense.c ****     *  None
 816:Generated_Source\PSoC4/capsense.c ****     *
 817:Generated_Source\PSoC4/capsense.c ****     *******************************************************************************/
 818:Generated_Source\PSoC4/capsense.c ****     void capsense_SetScanResolution(uint32 widget, uint32 resolution)
 819:Generated_Source\PSoC4/capsense.c ****     {
 333              		.loc 1 819 0
 334              		.cfi_startproc
 335              		@ args = 0, pretend = 0, frame = 0
 336              		@ frame_needed = 0, uses_anonymous_args = 0
 337              		@ link register save eliminated.
 338              	.LVL30:
 820:Generated_Source\PSoC4/capsense.c ****         capsense_widgetResolution[widget] = resolution;
 339              		.loc 1 820 0
 340 0000 8000     		lsls	r0, r0, #2
 341              	.LVL31:
 342 0002 014B     		ldr	r3, .L20
 343 0004 C150     		str	r1, [r0, r3]
 821:Generated_Source\PSoC4/capsense.c ****     }
 344              		.loc 1 821 0
 345              		@ sp needed
 346 0006 7047     		bx	lr
 347              	.L21:
 348              		.align	2
 349              	.L20:
 350 0008 00000000 		.word	.LANCHOR1
 351              		.cfi_endproc
 352              	.LFE46:
 353              		.size	capsense_SetScanResolution, .-capsense_SetScanResolution
 354              		.section	.text.capsense_GetScanResolution,"ax",%progbits
 355              		.align	2
 356              		.global	capsense_GetScanResolution
 357              		.code	16
 358              		.thumb_func
 359              		.type	capsense_GetScanResolution, %function
 360              	capsense_GetScanResolution:
 361              	.LFB47:
 822:Generated_Source\PSoC4/capsense.c **** #endif /* (capsense_TUNING_METHOD != capsense__TUNING_NONE) */
 823:Generated_Source\PSoC4/capsense.c **** 
 824:Generated_Source\PSoC4/capsense.c **** 
 825:Generated_Source\PSoC4/capsense.c **** /*******************************************************************************
 826:Generated_Source\PSoC4/capsense.c **** * Function Name: capsense_GetScanResolution
 827:Generated_Source\PSoC4/capsense.c **** ********************************************************************************
 828:Generated_Source\PSoC4/capsense.c **** *
 829:Generated_Source\PSoC4/capsense.c **** * Summary:
 830:Generated_Source\PSoC4/capsense.c **** *  Returns the resolution value for the appropriate sensor.
 831:Generated_Source\PSoC4/capsense.c **** *  This function is not available for tuning mode "None".
 832:Generated_Source\PSoC4/capsense.c **** *
 833:Generated_Source\PSoC4/capsense.c **** * Parameters:
 834:Generated_Source\PSoC4/capsense.c **** *  widget:     Widget index.
 835:Generated_Source\PSoC4/capsense.c **** *
 836:Generated_Source\PSoC4/capsense.c **** * Return:
ARM GAS  C:\Users\puria\AppData\Local\Temp\ccYRkNAS.s 			page 22


 837:Generated_Source\PSoC4/capsense.c **** *  resolution: Returns the resolution value for the appropriate sensor.
 838:Generated_Source\PSoC4/capsense.c **** *              The resolution values are defined in the capsense.h file
 839:Generated_Source\PSoC4/capsense.c **** *              The defines are encountered below:
 840:Generated_Source\PSoC4/capsense.c **** *              capsense_RESOLUTION_6_BITS
 841:Generated_Source\PSoC4/capsense.c **** *              capsense_RESOLUTION_7_BITS
 842:Generated_Source\PSoC4/capsense.c **** *              capsense_RESOLUTION_8_BITS
 843:Generated_Source\PSoC4/capsense.c **** *              capsense_RESOLUTION_9_BITS
 844:Generated_Source\PSoC4/capsense.c **** *              capsense_RESOLUTION_10_BITS
 845:Generated_Source\PSoC4/capsense.c **** *              capsense_RESOLUTION_11_BITS
 846:Generated_Source\PSoC4/capsense.c **** *              capsense_RESOLUTION_12_BITS
 847:Generated_Source\PSoC4/capsense.c **** *              capsense_RESOLUTION_13_BITS
 848:Generated_Source\PSoC4/capsense.c **** *              capsense_RESOLUTION_14_BITS
 849:Generated_Source\PSoC4/capsense.c **** *              capsense_RESOLUTION_15_BITS
 850:Generated_Source\PSoC4/capsense.c **** *              capsense_RESOLUTION_16_BITS
 851:Generated_Source\PSoC4/capsense.c **** *
 852:Generated_Source\PSoC4/capsense.c **** * Global Variables:
 853:Generated_Source\PSoC4/capsense.c **** *  capsense_widgetResolution[] - used to store scan resolution of every widget.
 854:Generated_Source\PSoC4/capsense.c **** *
 855:Generated_Source\PSoC4/capsense.c **** * Side Effects:
 856:Generated_Source\PSoC4/capsense.c **** *  None
 857:Generated_Source\PSoC4/capsense.c **** *
 858:Generated_Source\PSoC4/capsense.c **** *******************************************************************************/
 859:Generated_Source\PSoC4/capsense.c **** uint32 capsense_GetScanResolution(uint32 widget)
 860:Generated_Source\PSoC4/capsense.c **** {
 362              		.loc 1 860 0
 363              		.cfi_startproc
 364              		@ args = 0, pretend = 0, frame = 0
 365              		@ frame_needed = 0, uses_anonymous_args = 0
 366              		@ link register save eliminated.
 367              	.LVL32:
 861:Generated_Source\PSoC4/capsense.c ****     return(capsense_widgetResolution[widget]);
 368              		.loc 1 861 0
 369 0000 8000     		lsls	r0, r0, #2
 370              	.LVL33:
 371 0002 014B     		ldr	r3, .L23
 372 0004 C058     		ldr	r0, [r0, r3]
 862:Generated_Source\PSoC4/capsense.c **** }
 373              		.loc 1 862 0
 374              		@ sp needed
 375 0006 7047     		bx	lr
 376              	.L24:
 377              		.align	2
 378              	.L23:
 379 0008 00000000 		.word	.LANCHOR1
 380              		.cfi_endproc
 381              	.LFE47:
 382              		.size	capsense_GetScanResolution, .-capsense_GetScanResolution
 383              		.section	.text.capsense_EnableSensor,"ax",%progbits
 384              		.align	2
 385              		.global	capsense_EnableSensor
 386              		.code	16
 387              		.thumb_func
 388              		.type	capsense_EnableSensor, %function
 389              	capsense_EnableSensor:
 390              	.LFB49:
 863:Generated_Source\PSoC4/capsense.c **** 
 864:Generated_Source\PSoC4/capsense.c **** 
ARM GAS  C:\Users\puria\AppData\Local\Temp\ccYRkNAS.s 			page 23


 865:Generated_Source\PSoC4/capsense.c **** /*******************************************************************************
 866:Generated_Source\PSoC4/capsense.c **** * Function Name: capsense_ClearSensors
 867:Generated_Source\PSoC4/capsense.c **** ********************************************************************************
 868:Generated_Source\PSoC4/capsense.c **** *
 869:Generated_Source\PSoC4/capsense.c **** * Summary:
 870:Generated_Source\PSoC4/capsense.c **** *  Resets all the sensors to the non-sampling state by sequentially disconnecting
 871:Generated_Source\PSoC4/capsense.c **** *  all the sensors from Analog MUX Bus and putting them to an inactive state.
 872:Generated_Source\PSoC4/capsense.c **** *
 873:Generated_Source\PSoC4/capsense.c **** * Parameters:
 874:Generated_Source\PSoC4/capsense.c **** *  None
 875:Generated_Source\PSoC4/capsense.c **** *
 876:Generated_Source\PSoC4/capsense.c **** * Return:
 877:Generated_Source\PSoC4/capsense.c **** *  None
 878:Generated_Source\PSoC4/capsense.c **** *
 879:Generated_Source\PSoC4/capsense.c **** * Global Variables:
 880:Generated_Source\PSoC4/capsense.c **** *  None
 881:Generated_Source\PSoC4/capsense.c **** *
 882:Generated_Source\PSoC4/capsense.c **** * Side Effects:
 883:Generated_Source\PSoC4/capsense.c **** *  None
 884:Generated_Source\PSoC4/capsense.c **** *
 885:Generated_Source\PSoC4/capsense.c **** *******************************************************************************/
 886:Generated_Source\PSoC4/capsense.c **** void capsense_ClearSensors(void)
 887:Generated_Source\PSoC4/capsense.c **** {
 888:Generated_Source\PSoC4/capsense.c ****     uint32 snsIndex;
 889:Generated_Source\PSoC4/capsense.c **** 
 890:Generated_Source\PSoC4/capsense.c ****     for (snsIndex = 0u; snsIndex < capsense_TOTAL_SENSOR_COUNT; snsIndex++)
 891:Generated_Source\PSoC4/capsense.c ****     {
 892:Generated_Source\PSoC4/capsense.c ****         capsense_DisableScanSlot(snsIndex);
 893:Generated_Source\PSoC4/capsense.c ****     }
 894:Generated_Source\PSoC4/capsense.c **** }
 895:Generated_Source\PSoC4/capsense.c **** 
 896:Generated_Source\PSoC4/capsense.c **** 
 897:Generated_Source\PSoC4/capsense.c **** #if (capsense_IS_COMPLEX_SCANSLOTS)
 898:Generated_Source\PSoC4/capsense.c ****     /*******************************************************************************
 899:Generated_Source\PSoC4/capsense.c ****     * Function Name: capsense_EnableScanSlot
 900:Generated_Source\PSoC4/capsense.c ****     ********************************************************************************
 901:Generated_Source\PSoC4/capsense.c ****     *
 902:Generated_Source\PSoC4/capsense.c ****     * Summary:
 903:Generated_Source\PSoC4/capsense.c ****     *  Configures the selected slot to measure during the next measurement
 904:Generated_Source\PSoC4/capsense.c ****     *  cycle. The corresponding pin/pins are set to Analog High-Z mode and
 905:Generated_Source\PSoC4/capsense.c ****     *  connected to the Analog Mux Bus. This also enables the comparator function.
 906:Generated_Source\PSoC4/capsense.c ****     *
 907:Generated_Source\PSoC4/capsense.c ****     * Parameters:
 908:Generated_Source\PSoC4/capsense.c ****     *  slot:  Slot number.
 909:Generated_Source\PSoC4/capsense.c ****     *
 910:Generated_Source\PSoC4/capsense.c ****     * Return:
 911:Generated_Source\PSoC4/capsense.c ****     *  None
 912:Generated_Source\PSoC4/capsense.c ****     *
 913:Generated_Source\PSoC4/capsense.c ****     * Global Constants:
 914:Generated_Source\PSoC4/capsense.c ****     *  capsense_portTable[]  - used to store the port number that pin
 915:Generated_Source\PSoC4/capsense.c ****     *  belongs to for each sensor.
 916:Generated_Source\PSoC4/capsense.c ****     *  capsense_maskTable[]  - used to store the pin within the port for
 917:Generated_Source\PSoC4/capsense.c ****     *  each sensor.
 918:Generated_Source\PSoC4/capsense.c ****     *  capsense_indexTable[] - used to store indexes of complex sensors.
 919:Generated_Source\PSoC4/capsense.c ****     *  The offset and position in this array are stored in a port and mask table for
 920:Generated_Source\PSoC4/capsense.c ****     *  complex sensors.
 921:Generated_Source\PSoC4/capsense.c ****     *  Bit 7 (msb) is used to define the sensor type: single or complex.
ARM GAS  C:\Users\puria\AppData\Local\Temp\ccYRkNAS.s 			page 24


 922:Generated_Source\PSoC4/capsense.c ****     *
 923:Generated_Source\PSoC4/capsense.c ****     * Side Effects:
 924:Generated_Source\PSoC4/capsense.c ****     *  None
 925:Generated_Source\PSoC4/capsense.c ****     *
 926:Generated_Source\PSoC4/capsense.c ****     *******************************************************************************/
 927:Generated_Source\PSoC4/capsense.c ****     void capsense_EnableScanSlot(uint32 slot)
 928:Generated_Source\PSoC4/capsense.c ****     {
 929:Generated_Source\PSoC4/capsense.c ****         uint8 j;
 930:Generated_Source\PSoC4/capsense.c ****         uint8 snsNumber;
 931:Generated_Source\PSoC4/capsense.c ****         const uint8 *index;
 932:Generated_Source\PSoC4/capsense.c ****         /* Read sensor type: single or complex */
 933:Generated_Source\PSoC4/capsense.c ****         uint8 snsType = capsense_portTable[slot];
 934:Generated_Source\PSoC4/capsense.c **** 
 935:Generated_Source\PSoC4/capsense.c ****         /* Check if sensor is complex */
 936:Generated_Source\PSoC4/capsense.c ****         if ((snsType & capsense_COMPLEX_SS_FLAG) == 0u)
 937:Generated_Source\PSoC4/capsense.c ****         {
 938:Generated_Source\PSoC4/capsense.c ****             /* Enable sensor (single) */
 939:Generated_Source\PSoC4/capsense.c ****             capsense_EnableSensor(slot);
 940:Generated_Source\PSoC4/capsense.c ****         }
 941:Generated_Source\PSoC4/capsense.c ****         else
 942:Generated_Source\PSoC4/capsense.c ****         {
 943:Generated_Source\PSoC4/capsense.c ****             /* Enable complex sensor */
 944:Generated_Source\PSoC4/capsense.c ****             snsType &= ~capsense_COMPLEX_SS_FLAG;
 945:Generated_Source\PSoC4/capsense.c ****             index = &capsense_indexTable[snsType];
 946:Generated_Source\PSoC4/capsense.c ****             snsNumber = capsense_maskTable[slot];
 947:Generated_Source\PSoC4/capsense.c **** 
 948:Generated_Source\PSoC4/capsense.c ****             for (j = 0u; j < snsNumber; j++)
 949:Generated_Source\PSoC4/capsense.c ****             {
 950:Generated_Source\PSoC4/capsense.c ****                 capsense_EnableSensor(index[j]);
 951:Generated_Source\PSoC4/capsense.c ****             }
 952:Generated_Source\PSoC4/capsense.c ****         }
 953:Generated_Source\PSoC4/capsense.c ****     }
 954:Generated_Source\PSoC4/capsense.c **** 
 955:Generated_Source\PSoC4/capsense.c **** 
 956:Generated_Source\PSoC4/capsense.c ****     /*******************************************************************************
 957:Generated_Source\PSoC4/capsense.c ****     * Function Name: capsense_DisableScanSlot
 958:Generated_Source\PSoC4/capsense.c ****     ********************************************************************************
 959:Generated_Source\PSoC4/capsense.c ****     *
 960:Generated_Source\PSoC4/capsense.c ****     * Summary:
 961:Generated_Source\PSoC4/capsense.c ****     *  Disables the selected slot. The corresponding pin/pins is/are disconnected
 962:Generated_Source\PSoC4/capsense.c ****     *  from the Analog Mux Bus and connected to GND, High_Z or Shield electrode.
 963:Generated_Source\PSoC4/capsense.c ****     *
 964:Generated_Source\PSoC4/capsense.c ****     * Parameters:
 965:Generated_Source\PSoC4/capsense.c ****     *  slot:  Slot number.
 966:Generated_Source\PSoC4/capsense.c ****     *
 967:Generated_Source\PSoC4/capsense.c ****     * Return:
 968:Generated_Source\PSoC4/capsense.c ****     *  None
 969:Generated_Source\PSoC4/capsense.c ****     *
 970:Generated_Source\PSoC4/capsense.c ****     * Global Variables:
 971:Generated_Source\PSoC4/capsense.c ****     *  capsense_portTable[]  - used to store the port number that pin
 972:Generated_Source\PSoC4/capsense.c ****     *  belongs to for each sensor.
 973:Generated_Source\PSoC4/capsense.c ****     *  capsense_maskTable[]  - used to store the pin within the port for
 974:Generated_Source\PSoC4/capsense.c ****     *  each sensor.
 975:Generated_Source\PSoC4/capsense.c ****     *  capsense_indexTable[] - used to store indexes of complex sensors.
 976:Generated_Source\PSoC4/capsense.c ****     *  The offset and position in this array are stored in a port and mask table for
 977:Generated_Source\PSoC4/capsense.c ****     *  complex sensors.
 978:Generated_Source\PSoC4/capsense.c ****     *  7bit(msb) is used to define the sensor type: single or complex.
ARM GAS  C:\Users\puria\AppData\Local\Temp\ccYRkNAS.s 			page 25


 979:Generated_Source\PSoC4/capsense.c ****     *
 980:Generated_Source\PSoC4/capsense.c ****     * Side Effects:
 981:Generated_Source\PSoC4/capsense.c ****     *  None
 982:Generated_Source\PSoC4/capsense.c ****     *
 983:Generated_Source\PSoC4/capsense.c ****     *******************************************************************************/
 984:Generated_Source\PSoC4/capsense.c ****     void capsense_DisableScanSlot(uint32 slot)
 985:Generated_Source\PSoC4/capsense.c ****     {
 986:Generated_Source\PSoC4/capsense.c ****         uint8 j;
 987:Generated_Source\PSoC4/capsense.c ****         uint8 snsNumber;
 988:Generated_Source\PSoC4/capsense.c ****         const uint8 *index;
 989:Generated_Source\PSoC4/capsense.c **** 
 990:Generated_Source\PSoC4/capsense.c ****         /* Read sensor type: single or complex */
 991:Generated_Source\PSoC4/capsense.c ****         uint8 snsType = capsense_portTable[slot];
 992:Generated_Source\PSoC4/capsense.c **** 
 993:Generated_Source\PSoC4/capsense.c ****         /* Check if sensor is complex */
 994:Generated_Source\PSoC4/capsense.c ****         if ((snsType & capsense_COMPLEX_SS_FLAG) == 0u)
 995:Generated_Source\PSoC4/capsense.c ****         {
 996:Generated_Source\PSoC4/capsense.c ****             /* Disable sensor (single) */
 997:Generated_Source\PSoC4/capsense.c ****             capsense_DisableSensor(slot);
 998:Generated_Source\PSoC4/capsense.c ****         }
 999:Generated_Source\PSoC4/capsense.c ****         else
1000:Generated_Source\PSoC4/capsense.c ****         {
1001:Generated_Source\PSoC4/capsense.c ****             /* Disable complex sensor */
1002:Generated_Source\PSoC4/capsense.c ****             snsType &= ~capsense_COMPLEX_SS_FLAG;
1003:Generated_Source\PSoC4/capsense.c ****             index = &capsense_indexTable[snsType];
1004:Generated_Source\PSoC4/capsense.c ****             snsNumber = capsense_maskTable[slot];
1005:Generated_Source\PSoC4/capsense.c **** 
1006:Generated_Source\PSoC4/capsense.c ****             for (j=0; j < snsNumber; j++)
1007:Generated_Source\PSoC4/capsense.c ****             {
1008:Generated_Source\PSoC4/capsense.c ****                 capsense_DisableSensor(index[j]);
1009:Generated_Source\PSoC4/capsense.c ****             }
1010:Generated_Source\PSoC4/capsense.c ****         }
1011:Generated_Source\PSoC4/capsense.c ****     }
1012:Generated_Source\PSoC4/capsense.c **** #endif  /* capsense_IS_COMPLEX_SCANSLOTS */
1013:Generated_Source\PSoC4/capsense.c **** 
1014:Generated_Source\PSoC4/capsense.c **** 
1015:Generated_Source\PSoC4/capsense.c **** /*******************************************************************************
1016:Generated_Source\PSoC4/capsense.c **** * Function Name: capsense_EnableSensor
1017:Generated_Source\PSoC4/capsense.c **** ********************************************************************************
1018:Generated_Source\PSoC4/capsense.c **** *
1019:Generated_Source\PSoC4/capsense.c **** * Summary:
1020:Generated_Source\PSoC4/capsense.c **** *  Configures the selected sensor to measure during the next measurement cycle.
1021:Generated_Source\PSoC4/capsense.c **** *  The corresponding pins are set to Analog High-Z mode and connected to the
1022:Generated_Source\PSoC4/capsense.c **** *  Analog Mux Bus. This also enables the comparator function.
1023:Generated_Source\PSoC4/capsense.c **** *
1024:Generated_Source\PSoC4/capsense.c **** * Parameters:
1025:Generated_Source\PSoC4/capsense.c **** *  sensor:  Sensor number.
1026:Generated_Source\PSoC4/capsense.c **** *
1027:Generated_Source\PSoC4/capsense.c **** * Return:
1028:Generated_Source\PSoC4/capsense.c **** *  None
1029:Generated_Source\PSoC4/capsense.c **** *
1030:Generated_Source\PSoC4/capsense.c **** * Global Variables:
1031:Generated_Source\PSoC4/capsense.c **** *  capsense_portTable[] - used to store the port number that pin
1032:Generated_Source\PSoC4/capsense.c **** *  belongs to for each sensor.
1033:Generated_Source\PSoC4/capsense.c **** *  capsense_pinShiftTbl[] - used to store position of pin that
1034:Generated_Source\PSoC4/capsense.c **** *  configured as sensor in port.
1035:Generated_Source\PSoC4/capsense.c **** *  capsense_prtSelTbl[] - Contains pointers to the HSIOM
ARM GAS  C:\Users\puria\AppData\Local\Temp\ccYRkNAS.s 			page 26


1036:Generated_Source\PSoC4/capsense.c **** *  registers for each port.
1037:Generated_Source\PSoC4/capsense.c **** *  capsense_PrtCfgTb[] - Contains pointers to the port config
1038:Generated_Source\PSoC4/capsense.c **** *  registers for each port.
1039:Generated_Source\PSoC4/capsense.c **** *
1040:Generated_Source\PSoC4/capsense.c **** * Side Effects:
1041:Generated_Source\PSoC4/capsense.c **** *  None
1042:Generated_Source\PSoC4/capsense.c **** *
1043:Generated_Source\PSoC4/capsense.c **** *******************************************************************************/
1044:Generated_Source\PSoC4/capsense.c **** void capsense_EnableSensor(uint32 sensor)
1045:Generated_Source\PSoC4/capsense.c **** {
 391              		.loc 1 1045 0
 392              		.cfi_startproc
 393              		@ args = 0, pretend = 0, frame = 0
 394              		@ frame_needed = 0, uses_anonymous_args = 0
 395              	.LVL34:
 396 0000 F8B5     		push	{r3, r4, r5, r6, r7, lr}
 397              		.cfi_def_cfa_offset 24
 398              		.cfi_offset 3, -24
 399              		.cfi_offset 4, -20
 400              		.cfi_offset 5, -16
 401              		.cfi_offset 6, -12
 402              		.cfi_offset 7, -8
 403              		.cfi_offset 14, -4
1046:Generated_Source\PSoC4/capsense.c ****     uint8  pinModeShift;
1047:Generated_Source\PSoC4/capsense.c ****     uint8  pinHSIOMShift;
1048:Generated_Source\PSoC4/capsense.c ****     uint8 interruptState;
1049:Generated_Source\PSoC4/capsense.c ****     uint32 newRegisterValue;
1050:Generated_Source\PSoC4/capsense.c ****     uint32 port;
1051:Generated_Source\PSoC4/capsense.c **** 
1052:Generated_Source\PSoC4/capsense.c ****     port = (uint32) capsense_portTable[sensor];
 404              		.loc 1 1052 0
 405 0002 104F     		ldr	r7, .L26
 406 0004 3E5C     		ldrb	r6, [r7, r0]
 407              	.LVL35:
1053:Generated_Source\PSoC4/capsense.c ****     pinModeShift = capsense_pinShiftTbl[sensor]  * capsense_PC_PIN_CFG_SIZE;
 408              		.loc 1 1053 0
 409 0006 3818     		adds	r0, r7, r0
 410              	.LVL36:
 411 0008 037A     		ldrb	r3, [r0, #8]
 412 000a 5D00     		lsls	r5, r3, #1
 413 000c 5D19     		adds	r5, r3, r5
 414 000e EDB2     		uxtb	r5, r5
 415              	.LVL37:
1054:Generated_Source\PSoC4/capsense.c ****     pinHSIOMShift = capsense_pinShiftTbl[sensor] * capsense_HSIOM_PIN_CFG_SIZE;
 416              		.loc 1 1054 0
 417 0010 9B00     		lsls	r3, r3, #2
 418 0012 DCB2     		uxtb	r4, r3
 419              	.LVL38:
1055:Generated_Source\PSoC4/capsense.c **** 
1056:Generated_Source\PSoC4/capsense.c ****     interruptState = CyEnterCriticalSection();
 420              		.loc 1 1056 0
 421 0014 FFF7FEFF 		bl	CyEnterCriticalSection
 422              	.LVL39:
1057:Generated_Source\PSoC4/capsense.c **** 
1058:Generated_Source\PSoC4/capsense.c ****     newRegisterValue = *capsense_prtSelTbl[port];
 423              		.loc 1 1058 0
 424 0018 B300     		lsls	r3, r6, #2
ARM GAS  C:\Users\puria\AppData\Local\Temp\ccYRkNAS.s 			page 27


 425 001a FB18     		adds	r3, r7, r3
 426 001c 1E69     		ldr	r6, [r3, #16]
 427              	.LVL40:
 428 001e 3268     		ldr	r2, [r6]
 429              	.LVL41:
1059:Generated_Source\PSoC4/capsense.c ****     newRegisterValue &= ~(capsense_CSD_HSIOM_MASK << pinHSIOMShift);
 430              		.loc 1 1059 0
 431 0020 0F21     		movs	r1, #15
 432 0022 A140     		lsls	r1, r1, r4
 433 0024 8A43     		bics	r2, r1
 434              	.LVL42:
 435 0026 1100     		movs	r1, r2
 436              	.LVL43:
1060:Generated_Source\PSoC4/capsense.c ****     newRegisterValue |= (uint32)((uint32)capsense_CSD_SENSE_PORT_MODE << pinHSIOMShift);
 437              		.loc 1 1060 0
 438 0028 0422     		movs	r2, #4
 439 002a A240     		lsls	r2, r2, r4
 440 002c 0A43     		orrs	r2, r1
 441              	.LVL44:
1061:Generated_Source\PSoC4/capsense.c **** 
1062:Generated_Source\PSoC4/capsense.c ****     *capsense_prtCfgTbl[port] &= (uint32)~((uint32)capsense_CSD_PIN_MODE_MASK << pinModeShift);
 442              		.loc 1 1062 0
 443 002e DC6A     		ldr	r4, [r3, #44]
 444              	.LVL45:
 445 0030 2368     		ldr	r3, [r4]
 446 0032 0721     		movs	r1, #7
 447 0034 A940     		lsls	r1, r1, r5
 448 0036 8B43     		bics	r3, r1
 449 0038 2360     		str	r3, [r4]
1063:Generated_Source\PSoC4/capsense.c ****     *capsense_prtSelTbl[port] = newRegisterValue;
 450              		.loc 1 1063 0
 451 003a 3260     		str	r2, [r6]
1064:Generated_Source\PSoC4/capsense.c **** 
1065:Generated_Source\PSoC4/capsense.c ****     CyExitCriticalSection(interruptState);
 452              		.loc 1 1065 0
 453 003c FFF7FEFF 		bl	CyExitCriticalSection
 454              	.LVL46:
1066:Generated_Source\PSoC4/capsense.c **** }
 455              		.loc 1 1066 0
 456              		@ sp needed
 457              	.LVL47:
 458              	.LVL48:
 459 0040 F8BD     		pop	{r3, r4, r5, r6, r7, pc}
 460              	.L27:
 461 0042 C046     		.align	2
 462              	.L26:
 463 0044 00000000 		.word	.LANCHOR2
 464              		.cfi_endproc
 465              	.LFE49:
 466              		.size	capsense_EnableSensor, .-capsense_EnableSensor
 467              		.section	.text.capsense_DisableSensor,"ax",%progbits
 468              		.align	2
 469              		.global	capsense_DisableSensor
 470              		.code	16
 471              		.thumb_func
 472              		.type	capsense_DisableSensor, %function
 473              	capsense_DisableSensor:
ARM GAS  C:\Users\puria\AppData\Local\Temp\ccYRkNAS.s 			page 28


 474              	.LFB50:
1067:Generated_Source\PSoC4/capsense.c **** 
1068:Generated_Source\PSoC4/capsense.c **** 
1069:Generated_Source\PSoC4/capsense.c **** /*******************************************************************************
1070:Generated_Source\PSoC4/capsense.c **** * Function Name: capsense_DisableSensor
1071:Generated_Source\PSoC4/capsense.c **** ********************************************************************************
1072:Generated_Source\PSoC4/capsense.c **** *
1073:Generated_Source\PSoC4/capsense.c **** * Summary:
1074:Generated_Source\PSoC4/capsense.c **** *  Disables the selected sensor. The corresponding pin is disconnected from the
1075:Generated_Source\PSoC4/capsense.c **** *  Analog Mux Bus and connected to GND, High_Z or Shield electrode.
1076:Generated_Source\PSoC4/capsense.c **** *
1077:Generated_Source\PSoC4/capsense.c **** * Parameters:
1078:Generated_Source\PSoC4/capsense.c **** *  sensor:  Sensor number
1079:Generated_Source\PSoC4/capsense.c **** *
1080:Generated_Source\PSoC4/capsense.c **** * Return:
1081:Generated_Source\PSoC4/capsense.c **** *  None
1082:Generated_Source\PSoC4/capsense.c **** *
1083:Generated_Source\PSoC4/capsense.c **** * Global Variables:
1084:Generated_Source\PSoC4/capsense.c **** *  capsense_portTable[] - used to store the port number that pin
1085:Generated_Source\PSoC4/capsense.c **** *  belongs to for each sensor.
1086:Generated_Source\PSoC4/capsense.c **** *  capsense_pinShiftTbl[] - used to store position of pin that
1087:Generated_Source\PSoC4/capsense.c **** *  configured as a sensor in the port.
1088:Generated_Source\PSoC4/capsense.c **** *  capsense_prtSelTbl[] - Contains pointers to the HSIOM
1089:Generated_Source\PSoC4/capsense.c **** *  registers for each port.
1090:Generated_Source\PSoC4/capsense.c **** *  capsense_PrtCfgTb[] - Contains pointers to the port config
1091:Generated_Source\PSoC4/capsense.c **** *  registers for each port.
1092:Generated_Source\PSoC4/capsense.c **** *
1093:Generated_Source\PSoC4/capsense.c **** * Side Effects:
1094:Generated_Source\PSoC4/capsense.c **** *  None
1095:Generated_Source\PSoC4/capsense.c **** *
1096:Generated_Source\PSoC4/capsense.c **** *******************************************************************************/
1097:Generated_Source\PSoC4/capsense.c **** void capsense_DisableSensor(uint32 sensor)
1098:Generated_Source\PSoC4/capsense.c **** {
 475              		.loc 1 1098 0
 476              		.cfi_startproc
 477              		@ args = 0, pretend = 0, frame = 0
 478              		@ frame_needed = 0, uses_anonymous_args = 0
 479              	.LVL49:
 480 0000 F8B5     		push	{r3, r4, r5, r6, r7, lr}
 481              		.cfi_def_cfa_offset 24
 482              		.cfi_offset 3, -24
 483              		.cfi_offset 4, -20
 484              		.cfi_offset 5, -16
 485              		.cfi_offset 6, -12
 486              		.cfi_offset 7, -8
 487              		.cfi_offset 14, -4
1099:Generated_Source\PSoC4/capsense.c ****     uint8 interruptState;
1100:Generated_Source\PSoC4/capsense.c ****     uint32 newRegisterValue;
1101:Generated_Source\PSoC4/capsense.c **** 
1102:Generated_Source\PSoC4/capsense.c ****     uint32 port = (uint32) capsense_portTable[sensor];
 488              		.loc 1 1102 0
 489 0002 194A     		ldr	r2, .L33
 490 0004 145C     		ldrb	r4, [r2, r0]
 491              	.LVL50:
1103:Generated_Source\PSoC4/capsense.c ****     uint8  pinHSIOMShift = capsense_pinShiftTbl[sensor] * capsense_HSIOM_PIN_CFG_SIZE;
 492              		.loc 1 1103 0
 493 0006 1318     		adds	r3, r2, r0
ARM GAS  C:\Users\puria\AppData\Local\Temp\ccYRkNAS.s 			page 29


 494 0008 1F7A     		ldrb	r7, [r3, #8]
 495 000a B900     		lsls	r1, r7, #2
 496 000c C9B2     		uxtb	r1, r1
 497              	.LVL51:
1104:Generated_Source\PSoC4/capsense.c ****     uint8  pinModeShift = capsense_pinShiftTbl[sensor]  * capsense_PC_PIN_CFG_SIZE;
 498              		.loc 1 1104 0
 499 000e 7D00     		lsls	r5, r7, #1
 500 0010 7D19     		adds	r5, r7, r5
 501 0012 EDB2     		uxtb	r5, r5
 502              	.LVL52:
1105:Generated_Source\PSoC4/capsense.c **** 
1106:Generated_Source\PSoC4/capsense.c ****     uint32 inactiveConnect = capsense_SNS_HIZANALOG_CONNECT;
1107:Generated_Source\PSoC4/capsense.c ****     uint32 sensorState = capsense_unscannedSnsDriveMode[sensor];
 503              		.loc 1 1107 0
 504 0014 154B     		ldr	r3, .L33+4
 505 0016 185C     		ldrb	r0, [r3, r0]
 506              	.LVL53:
1108:Generated_Source\PSoC4/capsense.c **** 
1109:Generated_Source\PSoC4/capsense.c ****     *capsense_prtSelTbl[port] &= ~(capsense_CSD_HSIOM_MASK << pinHSIOMShift);
 507              		.loc 1 1109 0
 508 0018 A300     		lsls	r3, r4, #2
 509 001a D318     		adds	r3, r2, r3
 510 001c 1E69     		ldr	r6, [r3, #16]
 511 001e 3368     		ldr	r3, [r6]
 512 0020 0F22     		movs	r2, #15
 513 0022 8A40     		lsls	r2, r2, r1
 514 0024 9343     		bics	r3, r2
 515 0026 3360     		str	r3, [r6]
1110:Generated_Source\PSoC4/capsense.c **** 
1111:Generated_Source\PSoC4/capsense.c ****     #if(capsense_IS_SHIELD_ENABLE != 0)
1112:Generated_Source\PSoC4/capsense.c ****     if(sensorState != (uint32)capsense__SHIELD)
1113:Generated_Source\PSoC4/capsense.c ****     {
1114:Generated_Source\PSoC4/capsense.c ****     #else
1115:Generated_Source\PSoC4/capsense.c ****         /* Connected to Ground if shield is disabled */
1116:Generated_Source\PSoC4/capsense.c ****         if(sensorState == (uint32)capsense__SHIELD)
 516              		.loc 1 1116 0
 517 0028 0228     		cmp	r0, #2
 518 002a 00D1     		bne	.L29
1117:Generated_Source\PSoC4/capsense.c ****         {
1118:Generated_Source\PSoC4/capsense.c ****             sensorState = (uint32)capsense__GROUND;
 519              		.loc 1 1118 0
 520 002c 0020     		movs	r0, #0
 521              	.LVL54:
 522              	.L29:
1119:Generated_Source\PSoC4/capsense.c ****         }
1120:Generated_Source\PSoC4/capsense.c ****     #endif /* (capsense_IS_SHIELD_ENABLE) */
1121:Generated_Source\PSoC4/capsense.c ****         if(sensorState != (uint32)capsense__HIZ_ANALOG)
 523              		.loc 1 1121 0
 524 002e 0128     		cmp	r0, #1
 525 0030 01D1     		bne	.L32
1106:Generated_Source\PSoC4/capsense.c ****     uint32 sensorState = capsense_unscannedSnsDriveMode[sensor];
 526              		.loc 1 1106 0
 527 0032 0026     		movs	r6, #0
 528 0034 00E0     		b	.L30
 529              	.L32:
1122:Generated_Source\PSoC4/capsense.c ****         {
1123:Generated_Source\PSoC4/capsense.c ****             /* Connected to Ground */
ARM GAS  C:\Users\puria\AppData\Local\Temp\ccYRkNAS.s 			page 30


1124:Generated_Source\PSoC4/capsense.c ****             inactiveConnect = (uint32)capsense_SNS_GROUND_CONNECT;
 530              		.loc 1 1124 0
 531 0036 0626     		movs	r6, #6
 532              	.L30:
 533              	.LVL55:
1125:Generated_Source\PSoC4/capsense.c ****         }
1126:Generated_Source\PSoC4/capsense.c **** 
1127:Generated_Source\PSoC4/capsense.c ****         interruptState = CyEnterCriticalSection();
 534              		.loc 1 1127 0
 535 0038 FFF7FEFF 		bl	CyEnterCriticalSection
 536              	.LVL56:
1128:Generated_Source\PSoC4/capsense.c **** 
1129:Generated_Source\PSoC4/capsense.c ****         /* Set drive mode */
1130:Generated_Source\PSoC4/capsense.c ****         newRegisterValue = *capsense_prtCfgTbl[port];
 537              		.loc 1 1130 0
 538 003c A400     		lsls	r4, r4, #2
 539              	.LVL57:
 540 003e 0A4B     		ldr	r3, .L33
 541              	.LVL58:
 542 0040 1C19     		adds	r4, r3, r4
 543 0042 E16A     		ldr	r1, [r4, #44]
 544 0044 0B68     		ldr	r3, [r1]
 545              	.LVL59:
1131:Generated_Source\PSoC4/capsense.c ****         newRegisterValue &= ~(capsense_CSD_PIN_MODE_MASK << pinModeShift);
 546              		.loc 1 1131 0
 547 0046 0722     		movs	r2, #7
 548 0048 AA40     		lsls	r2, r2, r5
 549 004a 9343     		bics	r3, r2
 550              	.LVL60:
 551 004c 1A00     		movs	r2, r3
 552              	.LVL61:
1132:Generated_Source\PSoC4/capsense.c ****         newRegisterValue |=  (uint32)(inactiveConnect << pinModeShift);
 553              		.loc 1 1132 0
 554 004e 3300     		movs	r3, r6
 555 0050 AB40     		lsls	r3, r3, r5
 556 0052 1343     		orrs	r3, r2
 557              	.LVL62:
1133:Generated_Source\PSoC4/capsense.c ****         *capsense_prtCfgTbl[port] =  newRegisterValue;
 558              		.loc 1 1133 0
 559 0054 0B60     		str	r3, [r1]
1134:Generated_Source\PSoC4/capsense.c **** 
1135:Generated_Source\PSoC4/capsense.c ****         CyExitCriticalSection(interruptState);
 560              		.loc 1 1135 0
 561 0056 FFF7FEFF 		bl	CyExitCriticalSection
 562              	.LVL63:
1136:Generated_Source\PSoC4/capsense.c **** 
1137:Generated_Source\PSoC4/capsense.c ****         *capsense_prtDRTbl[port]  &=  (uint32)~(uint32)((uint32)1u << capsense_pinShiftTbl[sensor])
 563              		.loc 1 1137 0
 564 005a A16C     		ldr	r1, [r4, #72]
 565 005c 0B68     		ldr	r3, [r1]
 566 005e 0122     		movs	r2, #1
 567 0060 BA40     		lsls	r2, r2, r7
 568 0062 9343     		bics	r3, r2
 569 0064 0B60     		str	r3, [r1]
1138:Generated_Source\PSoC4/capsense.c ****     #if(capsense_IS_SHIELD_ENABLE != 0)
1139:Generated_Source\PSoC4/capsense.c ****     }
1140:Generated_Source\PSoC4/capsense.c ****     else
ARM GAS  C:\Users\puria\AppData\Local\Temp\ccYRkNAS.s 			page 31


1141:Generated_Source\PSoC4/capsense.c ****     {
1142:Generated_Source\PSoC4/capsense.c ****         /* Connect to Shield */
1143:Generated_Source\PSoC4/capsense.c ****         *capsense_prtSelTbl[port] |= (capsense_CSD_SHIELD_PORT_MODE << pinHSIOMShift);
1144:Generated_Source\PSoC4/capsense.c ****     }
1145:Generated_Source\PSoC4/capsense.c ****     #endif /* (capsense_IS_SHIELD_ENABLE) */
1146:Generated_Source\PSoC4/capsense.c **** }
 570              		.loc 1 1146 0
 571              		@ sp needed
 572              	.LVL64:
 573              	.LVL65:
 574              	.LVL66:
 575 0066 F8BD     		pop	{r3, r4, r5, r6, r7, pc}
 576              	.L34:
 577              		.align	2
 578              	.L33:
 579 0068 00000000 		.word	.LANCHOR2
 580 006c 00000000 		.word	capsense_unscannedSnsDriveMode
 581              		.cfi_endproc
 582              	.LFE50:
 583              		.size	capsense_DisableSensor, .-capsense_DisableSensor
 584              		.section	.text.capsense_ClearSensors,"ax",%progbits
 585              		.align	2
 586              		.global	capsense_ClearSensors
 587              		.code	16
 588              		.thumb_func
 589              		.type	capsense_ClearSensors, %function
 590              	capsense_ClearSensors:
 591              	.LFB48:
 887:Generated_Source\PSoC4/capsense.c ****     uint32 snsIndex;
 592              		.loc 1 887 0
 593              		.cfi_startproc
 594              		@ args = 0, pretend = 0, frame = 0
 595              		@ frame_needed = 0, uses_anonymous_args = 0
 596 0000 10B5     		push	{r4, lr}
 597              		.cfi_def_cfa_offset 8
 598              		.cfi_offset 4, -8
 599              		.cfi_offset 14, -4
 600              	.LVL67:
 890:Generated_Source\PSoC4/capsense.c ****     {
 601              		.loc 1 890 0
 602 0002 0024     		movs	r4, #0
 603 0004 03E0     		b	.L36
 604              	.LVL68:
 605              	.L37:
 892:Generated_Source\PSoC4/capsense.c ****     }
 606              		.loc 1 892 0 discriminator 3
 607 0006 2000     		movs	r0, r4
 608 0008 FFF7FEFF 		bl	capsense_DisableSensor
 609              	.LVL69:
 890:Generated_Source\PSoC4/capsense.c ****     {
 610              		.loc 1 890 0 discriminator 3
 611 000c 0134     		adds	r4, r4, #1
 612              	.LVL70:
 613              	.L36:
 890:Generated_Source\PSoC4/capsense.c ****     {
 614              		.loc 1 890 0 is_stmt 0 discriminator 1
 615 000e 042C     		cmp	r4, #4
ARM GAS  C:\Users\puria\AppData\Local\Temp\ccYRkNAS.s 			page 32


 616 0010 F9D9     		bls	.L37
 894:Generated_Source\PSoC4/capsense.c **** 
 617              		.loc 1 894 0 is_stmt 1
 618              		@ sp needed
 619              	.LVL71:
 620 0012 10BD     		pop	{r4, pc}
 621              		.cfi_endproc
 622              	.LFE48:
 623              		.size	capsense_ClearSensors, .-capsense_ClearSensors
 624              		.section	.text.capsense_SetPinDriveMode,"ax",%progbits
 625              		.align	2
 626              		.global	capsense_SetPinDriveMode
 627              		.code	16
 628              		.thumb_func
 629              		.type	capsense_SetPinDriveMode, %function
 630              	capsense_SetPinDriveMode:
 631              	.LFB53:
1147:Generated_Source\PSoC4/capsense.c **** 
1148:Generated_Source\PSoC4/capsense.c **** 
1149:Generated_Source\PSoC4/capsense.c **** /*******************************************************************************
1150:Generated_Source\PSoC4/capsense.c **** * Function Name: capsense_SetDriveModeAllPins
1151:Generated_Source\PSoC4/capsense.c **** ********************************************************************************
1152:Generated_Source\PSoC4/capsense.c **** *
1153:Generated_Source\PSoC4/capsense.c **** * Summary:
1154:Generated_Source\PSoC4/capsense.c **** * This API sets the drive mode of port pins used by the CapSense
1155:Generated_Source\PSoC4/capsense.c **** * component (sensors, guard, shield, shield tank and Cmod) to drive the
1156:Generated_Source\PSoC4/capsense.c **** * mode specified by the argument.
1157:Generated_Source\PSoC4/capsense.c **** *
1158:Generated_Source\PSoC4/capsense.c **** * Parameters:
1159:Generated_Source\PSoC4/capsense.c **** *  driveMode:  Drive mode definition.
1160:Generated_Source\PSoC4/capsense.c **** *
1161:Generated_Source\PSoC4/capsense.c **** * Return:
1162:Generated_Source\PSoC4/capsense.c **** *  None
1163:Generated_Source\PSoC4/capsense.c **** *
1164:Generated_Source\PSoC4/capsense.c **** * Global Variables:
1165:Generated_Source\PSoC4/capsense.c **** *  capsense_portTable[] - used to store the port number that pin
1166:Generated_Source\PSoC4/capsense.c **** *  belongs to for each sensor.
1167:Generated_Source\PSoC4/capsense.c **** *  capsense_pinShiftTbl[] - used to store position of pin that
1168:Generated_Source\PSoC4/capsense.c **** *  configured as a sensor in the port.
1169:Generated_Source\PSoC4/capsense.c **** *
1170:Generated_Source\PSoC4/capsense.c **** * Side Effects:
1171:Generated_Source\PSoC4/capsense.c **** *  This API shall be called only after CapSense component is stopped.
1172:Generated_Source\PSoC4/capsense.c **** *
1173:Generated_Source\PSoC4/capsense.c **** *******************************************************************************/
1174:Generated_Source\PSoC4/capsense.c **** void capsense_SetDriveModeAllPins(uint32 driveMode)
1175:Generated_Source\PSoC4/capsense.c **** {
1176:Generated_Source\PSoC4/capsense.c ****     uint8 curSensor;
1177:Generated_Source\PSoC4/capsense.c ****     #if (capsense_IS_COMPLEX_SCANSLOTS)
1178:Generated_Source\PSoC4/capsense.c ****         uint8 snsNumber;
1179:Generated_Source\PSoC4/capsense.c ****         uint8 snsType;
1180:Generated_Source\PSoC4/capsense.c ****     #endif  /* capsense_IS_COMPLEX_SCANSLOTS */
1181:Generated_Source\PSoC4/capsense.c ****     uint32 prtNumberTmp;
1182:Generated_Source\PSoC4/capsense.c ****     uint32 pinNumberTmp;
1183:Generated_Source\PSoC4/capsense.c **** 
1184:Generated_Source\PSoC4/capsense.c ****     for(curSensor = 0u; curSensor < capsense_TOTAL_SENSOR_COUNT; curSensor++)
1185:Generated_Source\PSoC4/capsense.c ****     {
1186:Generated_Source\PSoC4/capsense.c ****         #if (capsense_IS_COMPLEX_SCANSLOTS)
ARM GAS  C:\Users\puria\AppData\Local\Temp\ccYRkNAS.s 			page 33


1187:Generated_Source\PSoC4/capsense.c ****             /* Read sensor type: single or complex */
1188:Generated_Source\PSoC4/capsense.c ****             snsType = capsense_portTable[curSensor];
1189:Generated_Source\PSoC4/capsense.c **** 
1190:Generated_Source\PSoC4/capsense.c ****             /* Check if sensor is complex */
1191:Generated_Source\PSoC4/capsense.c ****             if ((snsType & capsense_COMPLEX_SS_FLAG) == 0u)
1192:Generated_Source\PSoC4/capsense.c ****             {
1193:Generated_Source\PSoC4/capsense.c ****                 /* The sensor is not complex */
1194:Generated_Source\PSoC4/capsense.c ****                 snsNumber = curSensor;
1195:Generated_Source\PSoC4/capsense.c ****             }
1196:Generated_Source\PSoC4/capsense.c ****             else
1197:Generated_Source\PSoC4/capsense.c ****             {
1198:Generated_Source\PSoC4/capsense.c ****                 /* Get dedicated sensor ID of the complex sensor */
1199:Generated_Source\PSoC4/capsense.c ****                 snsType &= ~capsense_COMPLEX_SS_FLAG;
1200:Generated_Source\PSoC4/capsense.c ****                 snsNumber = capsense_indexTable[snsType];
1201:Generated_Source\PSoC4/capsense.c ****             }
1202:Generated_Source\PSoC4/capsense.c **** 
1203:Generated_Source\PSoC4/capsense.c ****             prtNumberTmp = capsense_portTable[snsNumber];
1204:Generated_Source\PSoC4/capsense.c ****             pinNumberTmp = capsense_pinShiftTbl[snsNumber];
1205:Generated_Source\PSoC4/capsense.c ****         #else
1206:Generated_Source\PSoC4/capsense.c ****             prtNumberTmp = capsense_portTable[curSensor];
1207:Generated_Source\PSoC4/capsense.c ****             pinNumberTmp = capsense_pinShiftTbl[curSensor];
1208:Generated_Source\PSoC4/capsense.c ****         #endif  /* capsense_IS_COMPLEX_SCANSLOTS */
1209:Generated_Source\PSoC4/capsense.c **** 
1210:Generated_Source\PSoC4/capsense.c ****         capsense_SetPinDriveMode(driveMode, pinNumberTmp, prtNumberTmp);
1211:Generated_Source\PSoC4/capsense.c ****     }
1212:Generated_Source\PSoC4/capsense.c **** 
1213:Generated_Source\PSoC4/capsense.c ****     capsense_SetPinDriveMode(driveMode, (uint32)capsense_CMOD_PIN_NUMBER, (uint32)capsense_CMOD_PRT
1214:Generated_Source\PSoC4/capsense.c **** 
1215:Generated_Source\PSoC4/capsense.c ****     #if(0u != capsense_CSH_TANK_ENABLE)
1216:Generated_Source\PSoC4/capsense.c ****         capsense_SetPinDriveMode(driveMode, (uint32)capsense_CTANK_PIN_NUMBER, (uint32)capsense_CTA
1217:Generated_Source\PSoC4/capsense.c ****     #endif /* (0u != capsense_CSH_TANK_ENABLE) */
1218:Generated_Source\PSoC4/capsense.c **** 
1219:Generated_Source\PSoC4/capsense.c ****     #if(0u != capsense_IS_SHIELD_ENABLE)
1220:Generated_Source\PSoC4/capsense.c ****         capsense_SetPinDriveMode(driveMode, (uint32)capsense_SHIELD_PIN_NUMBER, (uint32)capsense_SH
1221:Generated_Source\PSoC4/capsense.c ****     #endif /* (0u != capsense_IS_SHIELD_ENABLE) */
1222:Generated_Source\PSoC4/capsense.c **** }
1223:Generated_Source\PSoC4/capsense.c **** 
1224:Generated_Source\PSoC4/capsense.c **** 
1225:Generated_Source\PSoC4/capsense.c **** /*******************************************************************************
1226:Generated_Source\PSoC4/capsense.c **** * Function Name: capsense_RestoreDriveModeAllPins
1227:Generated_Source\PSoC4/capsense.c **** ********************************************************************************
1228:Generated_Source\PSoC4/capsense.c **** *
1229:Generated_Source\PSoC4/capsense.c **** * Summary:
1230:Generated_Source\PSoC4/capsense.c **** *  This API restores the drive for all the CapSense port pins to the original
1231:Generated_Source\PSoC4/capsense.c **** *  state.
1232:Generated_Source\PSoC4/capsense.c **** *
1233:Generated_Source\PSoC4/capsense.c **** * Parameters:
1234:Generated_Source\PSoC4/capsense.c **** *  None
1235:Generated_Source\PSoC4/capsense.c **** *
1236:Generated_Source\PSoC4/capsense.c **** * Return:
1237:Generated_Source\PSoC4/capsense.c **** *  None
1238:Generated_Source\PSoC4/capsense.c **** *
1239:Generated_Source\PSoC4/capsense.c **** * Global Variables:
1240:Generated_Source\PSoC4/capsense.c **** *  capsense_prtSelTbl[] - Contains pointers to the HSIOM
1241:Generated_Source\PSoC4/capsense.c **** *  registers for each port.
1242:Generated_Source\PSoC4/capsense.c **** *
1243:Generated_Source\PSoC4/capsense.c **** * Side Effects:
ARM GAS  C:\Users\puria\AppData\Local\Temp\ccYRkNAS.s 			page 34


1244:Generated_Source\PSoC4/capsense.c **** *  This API is called only after the CapSense component is stopped.
1245:Generated_Source\PSoC4/capsense.c **** *
1246:Generated_Source\PSoC4/capsense.c **** *******************************************************************************/
1247:Generated_Source\PSoC4/capsense.c **** void capsense_RestoreDriveModeAllPins(void)
1248:Generated_Source\PSoC4/capsense.c **** {
1249:Generated_Source\PSoC4/capsense.c ****     uint32 newRegisterValue;
1250:Generated_Source\PSoC4/capsense.c **** 
1251:Generated_Source\PSoC4/capsense.c ****     capsense_SetDriveModeAllPins(CY_SYS_PINS_DM_ALG_HIZ);
1252:Generated_Source\PSoC4/capsense.c **** 
1253:Generated_Source\PSoC4/capsense.c ****     newRegisterValue = capsense_CMOD_CONNECTION_REG;
1254:Generated_Source\PSoC4/capsense.c ****     newRegisterValue &= ~(capsense_CSD_CMOD_CONNECTION_MASK);
1255:Generated_Source\PSoC4/capsense.c ****     newRegisterValue |= capsense_CSD_CMOD_TO_AMUXBUS_A;
1256:Generated_Source\PSoC4/capsense.c ****     capsense_CMOD_CONNECTION_REG = newRegisterValue;
1257:Generated_Source\PSoC4/capsense.c **** 
1258:Generated_Source\PSoC4/capsense.c ****     #if(0u != capsense_CSH_TANK_ENABLE)
1259:Generated_Source\PSoC4/capsense.c ****         newRegisterValue = capsense_CTANK_CONNECTION_REG;
1260:Generated_Source\PSoC4/capsense.c ****         newRegisterValue &= ~(capsense_CSD_CTANK_CONNECTION_MASK);
1261:Generated_Source\PSoC4/capsense.c ****         newRegisterValue |= capsense_CSD_CTANK_TO_AMUXBUS_B;
1262:Generated_Source\PSoC4/capsense.c ****         capsense_CTANK_CONNECTION_REG = newRegisterValue;
1263:Generated_Source\PSoC4/capsense.c ****     #endif/* (0u != capsense_CSH_TANK_ENABLE) */
1264:Generated_Source\PSoC4/capsense.c **** 
1265:Generated_Source\PSoC4/capsense.c ****     #if(0u != capsense_IS_SHIELD_ENABLE)
1266:Generated_Source\PSoC4/capsense.c ****         newRegisterValue = *capsense_prtSelTbl[capsense_SHIELD_PORT_NUMBER];
1267:Generated_Source\PSoC4/capsense.c ****         newRegisterValue &= ~(capsense_CSD_HSIOM_MASK << ((uint32)capsense_SHIELD_PIN_NUMBER * caps
1268:Generated_Source\PSoC4/capsense.c ****         newRegisterValue |= (capsense_CSD_SHIELD_PORT_MODE << ((uint32)capsense_SHIELD_PIN_NUMBER *
1269:Generated_Source\PSoC4/capsense.c ****         *capsense_prtSelTbl[capsense_SHIELD_PORT_NUMBER] = newRegisterValue;
1270:Generated_Source\PSoC4/capsense.c ****     #endif /* (0u != capsense_IS_SHIELD_ENABLE) */
1271:Generated_Source\PSoC4/capsense.c **** }
1272:Generated_Source\PSoC4/capsense.c **** 
1273:Generated_Source\PSoC4/capsense.c **** 
1274:Generated_Source\PSoC4/capsense.c **** /*******************************************************************************
1275:Generated_Source\PSoC4/capsense.c **** * Function Name: capsense_SetPinDriveMode
1276:Generated_Source\PSoC4/capsense.c **** ********************************************************************************
1277:Generated_Source\PSoC4/capsense.c **** *
1278:Generated_Source\PSoC4/capsense.c **** * Summary:
1279:Generated_Source\PSoC4/capsense.c **** * This API sets the drive mode for the appropriate port/pin.
1280:Generated_Source\PSoC4/capsense.c **** *
1281:Generated_Source\PSoC4/capsense.c **** * Parameters:
1282:Generated_Source\PSoC4/capsense.c **** *  driveMode:  Drive mode definition.
1283:Generated_Source\PSoC4/capsense.c **** *  portNumber: contains port number (0, 1, 2).
1284:Generated_Source\PSoC4/capsense.c **** *  pinNumber: contains pin number (0, 1, 2, ... , 7).
1285:Generated_Source\PSoC4/capsense.c **** *
1286:Generated_Source\PSoC4/capsense.c **** * Return:
1287:Generated_Source\PSoC4/capsense.c **** *  None
1288:Generated_Source\PSoC4/capsense.c **** *
1289:Generated_Source\PSoC4/capsense.c **** * Global Variables:
1290:Generated_Source\PSoC4/capsense.c **** *  capsense_prtSelTbl[] - Contains pointers to the HSIOM
1291:Generated_Source\PSoC4/capsense.c **** *  registers for each port.
1292:Generated_Source\PSoC4/capsense.c **** *  capsense_prtCfgTb[] - Contains pointers to the port config
1293:Generated_Source\PSoC4/capsense.c **** *  registers for each port.
1294:Generated_Source\PSoC4/capsense.c **** *
1295:Generated_Source\PSoC4/capsense.c **** * Side Effects:
1296:Generated_Source\PSoC4/capsense.c **** *  This API is called only after CapSense component is stopped.
1297:Generated_Source\PSoC4/capsense.c **** *
1298:Generated_Source\PSoC4/capsense.c **** *******************************************************************************/
1299:Generated_Source\PSoC4/capsense.c **** void capsense_SetPinDriveMode(uint32 driveMode, uint32 pinNumber, uint32 portNumber)
1300:Generated_Source\PSoC4/capsense.c **** {
ARM GAS  C:\Users\puria\AppData\Local\Temp\ccYRkNAS.s 			page 35


 632              		.loc 1 1300 0
 633              		.cfi_startproc
 634              		@ args = 0, pretend = 0, frame = 0
 635              		@ frame_needed = 0, uses_anonymous_args = 0
 636              	.LVL72:
 637 0000 10B5     		push	{r4, lr}
 638              		.cfi_def_cfa_offset 8
 639              		.cfi_offset 4, -8
 640              		.cfi_offset 14, -4
1301:Generated_Source\PSoC4/capsense.c ****     uint32  pinModeShift;
1302:Generated_Source\PSoC4/capsense.c ****     uint32 newRegisterValue;
1303:Generated_Source\PSoC4/capsense.c **** 
1304:Generated_Source\PSoC4/capsense.c ****     pinModeShift  = pinNumber * capsense_PC_PIN_CFG_SIZE;
 641              		.loc 1 1304 0
 642 0002 4B00     		lsls	r3, r1, #1
 643 0004 5918     		adds	r1, r3, r1
 644              	.LVL73:
1305:Generated_Source\PSoC4/capsense.c **** 
1306:Generated_Source\PSoC4/capsense.c ****     newRegisterValue = *capsense_prtCfgTbl[portNumber];
 645              		.loc 1 1306 0
 646 0006 9200     		lsls	r2, r2, #2
 647              	.LVL74:
 648 0008 054B     		ldr	r3, .L39
 649 000a 9A18     		adds	r2, r3, r2
 650 000c D46A     		ldr	r4, [r2, #44]
 651 000e 2368     		ldr	r3, [r4]
 652              	.LVL75:
1307:Generated_Source\PSoC4/capsense.c ****     newRegisterValue &= ~(capsense_CSD_PIN_MODE_MASK << pinModeShift);
 653              		.loc 1 1307 0
 654 0010 0722     		movs	r2, #7
 655 0012 8A40     		lsls	r2, r2, r1
 656 0014 9343     		bics	r3, r2
 657              	.LVL76:
1308:Generated_Source\PSoC4/capsense.c ****     newRegisterValue |=  (uint32)((uint32)driveMode << pinModeShift);
 658              		.loc 1 1308 0
 659 0016 8840     		lsls	r0, r0, r1
 660              	.LVL77:
 661 0018 1843     		orrs	r0, r3
 662              	.LVL78:
1309:Generated_Source\PSoC4/capsense.c ****     *capsense_prtCfgTbl[portNumber] =  newRegisterValue;
 663              		.loc 1 1309 0
 664 001a 2060     		str	r0, [r4]
1310:Generated_Source\PSoC4/capsense.c **** }
 665              		.loc 1 1310 0
 666              		@ sp needed
 667 001c 10BD     		pop	{r4, pc}
 668              	.L40:
 669 001e C046     		.align	2
 670              	.L39:
 671 0020 00000000 		.word	.LANCHOR2
 672              		.cfi_endproc
 673              	.LFE53:
 674              		.size	capsense_SetPinDriveMode, .-capsense_SetPinDriveMode
 675              		.section	.text.capsense_SetDriveModeAllPins,"ax",%progbits
 676              		.align	2
 677              		.global	capsense_SetDriveModeAllPins
 678              		.code	16
ARM GAS  C:\Users\puria\AppData\Local\Temp\ccYRkNAS.s 			page 36


 679              		.thumb_func
 680              		.type	capsense_SetDriveModeAllPins, %function
 681              	capsense_SetDriveModeAllPins:
 682              	.LFB51:
1175:Generated_Source\PSoC4/capsense.c ****     uint8 curSensor;
 683              		.loc 1 1175 0
 684              		.cfi_startproc
 685              		@ args = 0, pretend = 0, frame = 0
 686              		@ frame_needed = 0, uses_anonymous_args = 0
 687              	.LVL79:
 688 0000 70B5     		push	{r4, r5, r6, lr}
 689              		.cfi_def_cfa_offset 16
 690              		.cfi_offset 4, -16
 691              		.cfi_offset 5, -12
 692              		.cfi_offset 6, -8
 693              		.cfi_offset 14, -4
 694 0002 0500     		movs	r5, r0
 695              	.LVL80:
1184:Generated_Source\PSoC4/capsense.c ****     {
 696              		.loc 1 1184 0
 697 0004 0024     		movs	r4, #0
 698 0006 08E0     		b	.L42
 699              	.LVL81:
 700              	.L43:
1206:Generated_Source\PSoC4/capsense.c ****             pinNumberTmp = capsense_pinShiftTbl[curSensor];
 701              		.loc 1 1206 0 discriminator 3
 702 0008 084B     		ldr	r3, .L44
 703 000a 1A5D     		ldrb	r2, [r3, r4]
 704              	.LVL82:
1207:Generated_Source\PSoC4/capsense.c ****         #endif  /* capsense_IS_COMPLEX_SCANSLOTS */
 705              		.loc 1 1207 0 discriminator 3
 706 000c 1B19     		adds	r3, r3, r4
 707 000e 197A     		ldrb	r1, [r3, #8]
 708              	.LVL83:
1210:Generated_Source\PSoC4/capsense.c ****     }
 709              		.loc 1 1210 0 discriminator 3
 710 0010 2800     		movs	r0, r5
 711 0012 FFF7FEFF 		bl	capsense_SetPinDriveMode
 712              	.LVL84:
1184:Generated_Source\PSoC4/capsense.c ****     {
 713              		.loc 1 1184 0 discriminator 3
 714 0016 0134     		adds	r4, r4, #1
 715              	.LVL85:
 716 0018 E4B2     		uxtb	r4, r4
 717              	.LVL86:
 718              	.L42:
1184:Generated_Source\PSoC4/capsense.c ****     {
 719              		.loc 1 1184 0 is_stmt 0 discriminator 1
 720 001a 042C     		cmp	r4, #4
 721 001c F4D9     		bls	.L43
1213:Generated_Source\PSoC4/capsense.c **** 
 722              		.loc 1 1213 0 is_stmt 1
 723 001e 0422     		movs	r2, #4
 724 0020 0021     		movs	r1, #0
 725 0022 2800     		movs	r0, r5
 726 0024 FFF7FEFF 		bl	capsense_SetPinDriveMode
 727              	.LVL87:
ARM GAS  C:\Users\puria\AppData\Local\Temp\ccYRkNAS.s 			page 37


1222:Generated_Source\PSoC4/capsense.c **** 
 728              		.loc 1 1222 0
 729              		@ sp needed
 730              	.LVL88:
 731              	.LVL89:
 732 0028 70BD     		pop	{r4, r5, r6, pc}
 733              	.L45:
 734 002a C046     		.align	2
 735              	.L44:
 736 002c 00000000 		.word	.LANCHOR2
 737              		.cfi_endproc
 738              	.LFE51:
 739              		.size	capsense_SetDriveModeAllPins, .-capsense_SetDriveModeAllPins
 740              		.section	.text.capsense_RestoreDriveModeAllPins,"ax",%progbits
 741              		.align	2
 742              		.global	capsense_RestoreDriveModeAllPins
 743              		.code	16
 744              		.thumb_func
 745              		.type	capsense_RestoreDriveModeAllPins, %function
 746              	capsense_RestoreDriveModeAllPins:
 747              	.LFB52:
1248:Generated_Source\PSoC4/capsense.c ****     uint32 newRegisterValue;
 748              		.loc 1 1248 0
 749              		.cfi_startproc
 750              		@ args = 0, pretend = 0, frame = 0
 751              		@ frame_needed = 0, uses_anonymous_args = 0
 752 0000 10B5     		push	{r4, lr}
 753              		.cfi_def_cfa_offset 8
 754              		.cfi_offset 4, -8
 755              		.cfi_offset 14, -4
1251:Generated_Source\PSoC4/capsense.c **** 
 756              		.loc 1 1251 0
 757 0002 0020     		movs	r0, #0
 758 0004 FFF7FEFF 		bl	capsense_SetDriveModeAllPins
 759              	.LVL90:
1253:Generated_Source\PSoC4/capsense.c ****     newRegisterValue &= ~(capsense_CSD_CMOD_CONNECTION_MASK);
 760              		.loc 1 1253 0
 761 0008 0349     		ldr	r1, .L47
 762 000a 0B68     		ldr	r3, [r1]
 763              	.LVL91:
1254:Generated_Source\PSoC4/capsense.c ****     newRegisterValue |= capsense_CSD_CMOD_TO_AMUXBUS_A;
 764              		.loc 1 1254 0
 765 000c 0F22     		movs	r2, #15
 766 000e 9343     		bics	r3, r2
 767              	.LVL92:
1255:Generated_Source\PSoC4/capsense.c ****     capsense_CMOD_CONNECTION_REG = newRegisterValue;
 768              		.loc 1 1255 0
 769 0010 093A     		subs	r2, r2, #9
 770 0012 1343     		orrs	r3, r2
 771              	.LVL93:
1256:Generated_Source\PSoC4/capsense.c **** 
 772              		.loc 1 1256 0
 773 0014 0B60     		str	r3, [r1]
1271:Generated_Source\PSoC4/capsense.c **** 
 774              		.loc 1 1271 0
 775              		@ sp needed
 776 0016 10BD     		pop	{r4, pc}
ARM GAS  C:\Users\puria\AppData\Local\Temp\ccYRkNAS.s 			page 38


 777              	.L48:
 778              		.align	2
 779              	.L47:
 780 0018 00040240 		.word	1073873920
 781              		.cfi_endproc
 782              	.LFE52:
 783              		.size	capsense_RestoreDriveModeAllPins, .-capsense_RestoreDriveModeAllPins
 784              		.section	.text.capsense_EnableShieldElectrode,"ax",%progbits
 785              		.align	2
 786              		.global	capsense_EnableShieldElectrode
 787              		.code	16
 788              		.thumb_func
 789              		.type	capsense_EnableShieldElectrode, %function
 790              	capsense_EnableShieldElectrode:
 791              	.LFB56:
1311:Generated_Source\PSoC4/capsense.c **** 
1312:Generated_Source\PSoC4/capsense.c **** 
1313:Generated_Source\PSoC4/capsense.c **** /*******************************************************************************
1314:Generated_Source\PSoC4/capsense.c **** * Function Name: capsense_PreScan
1315:Generated_Source\PSoC4/capsense.c **** ********************************************************************************
1316:Generated_Source\PSoC4/capsense.c **** *
1317:Generated_Source\PSoC4/capsense.c **** * Summary:
1318:Generated_Source\PSoC4/capsense.c **** *  Sets required settings, enables a sensor, removes Vref from AMUX and starts the
1319:Generated_Source\PSoC4/capsense.c **** *  scanning process of the sensor.
1320:Generated_Source\PSoC4/capsense.c **** *
1321:Generated_Source\PSoC4/capsense.c **** * Parameters:
1322:Generated_Source\PSoC4/capsense.c **** *  sensor:  Sensor number.
1323:Generated_Source\PSoC4/capsense.c **** *
1324:Generated_Source\PSoC4/capsense.c **** * Return:
1325:Generated_Source\PSoC4/capsense.c **** *  None
1326:Generated_Source\PSoC4/capsense.c **** *
1327:Generated_Source\PSoC4/capsense.c **** * Global Variables:
1328:Generated_Source\PSoC4/capsense.c **** * capsense_widgetNumber[] - This array contains numbers of widgets for each sensor.
1329:Generated_Source\PSoC4/capsense.c **** * capsense_widgetResolution[] - Contains the widget resolution.
1330:Generated_Source\PSoC4/capsense.c **** *
1331:Generated_Source\PSoC4/capsense.c **** * Side Effects:
1332:Generated_Source\PSoC4/capsense.c **** *  None
1333:Generated_Source\PSoC4/capsense.c **** *
1334:Generated_Source\PSoC4/capsense.c **** *******************************************************************************/
1335:Generated_Source\PSoC4/capsense.c **** void capsense_PreScan(uint32 sensor)
1336:Generated_Source\PSoC4/capsense.c **** {
1337:Generated_Source\PSoC4/capsense.c ****     uint8 widget;
1338:Generated_Source\PSoC4/capsense.c ****     uint8 interruptState;
1339:Generated_Source\PSoC4/capsense.c ****     uint32 newRegValue;
1340:Generated_Source\PSoC4/capsense.c ****     uint32 counterResolution;
1341:Generated_Source\PSoC4/capsense.c **** 
1342:Generated_Source\PSoC4/capsense.c ****     #if(capsense_PRS_OPTIONS == capsense__PRS_AUTO)
1343:Generated_Source\PSoC4/capsense.c ****         uint8 senseClkDivMath;
1344:Generated_Source\PSoC4/capsense.c ****         uint8 sampleClkDivMath;
1345:Generated_Source\PSoC4/capsense.c ****     #endif /* (capsense_PRS_OPTIONS == capsense__PRS_AUTO) */
1346:Generated_Source\PSoC4/capsense.c **** 
1347:Generated_Source\PSoC4/capsense.c ****     #if ((capsense_TUNING_METHOD == capsense__TUNING_AUTO) &&\
1348:Generated_Source\PSoC4/capsense.c ****          (0 != capsense_IS_OVERSAMPLING_EN))
1349:Generated_Source\PSoC4/capsense.c ****         uint32 oversamplingFactor;
1350:Generated_Source\PSoC4/capsense.c ****     #endif /* ((capsense_TUNING_METHOD == capsense__TUNING_AUTO) &&\
1351:Generated_Source\PSoC4/capsense.c ****                (0 != capsense_IS_OVERSAMPLING_EN)) */
1352:Generated_Source\PSoC4/capsense.c **** 
ARM GAS  C:\Users\puria\AppData\Local\Temp\ccYRkNAS.s 			page 39


1353:Generated_Source\PSoC4/capsense.c ****     /* Define widget sensor belongs to */
1354:Generated_Source\PSoC4/capsense.c ****     widget = capsense_widgetNumber[sensor];
1355:Generated_Source\PSoC4/capsense.c **** 
1356:Generated_Source\PSoC4/capsense.c ****     /* Recalculate Counter Resolution to MSB 16 bits */
1357:Generated_Source\PSoC4/capsense.c ****     counterResolution = capsense_widgetResolution[widget];
1358:Generated_Source\PSoC4/capsense.c **** 
1359:Generated_Source\PSoC4/capsense.c ****     #if ((capsense_TUNING_METHOD == capsense__TUNING_AUTO) &&\
1360:Generated_Source\PSoC4/capsense.c ****          (0 != capsense_IS_OVERSAMPLING_EN))
1361:Generated_Source\PSoC4/capsense.c ****         oversamplingFactor = capsense_GetBitValue(capsense_scanSpeedTbl, sensor);
1362:Generated_Source\PSoC4/capsense.c **** 
1363:Generated_Source\PSoC4/capsense.c ****         if(counterResolution < capsense_RESOLUTION_16_BITS)
1364:Generated_Source\PSoC4/capsense.c ****         {
1365:Generated_Source\PSoC4/capsense.c ****             counterResolution <<= oversamplingFactor;
1366:Generated_Source\PSoC4/capsense.c ****             counterResolution |= (uint32)(capsense_RESOLUTION_8_BITS);
1367:Generated_Source\PSoC4/capsense.c ****         }
1368:Generated_Source\PSoC4/capsense.c ****     #endif /* ((capsense_TUNING_METHOD == capsense__TUNING_AUTO) &&\
1369:Generated_Source\PSoC4/capsense.c ****                (0 != capsense_IS_OVERSAMPLING_EN)) */
1370:Generated_Source\PSoC4/capsense.c **** 
1371:Generated_Source\PSoC4/capsense.c ****     #if (0u != capsense_IS_M0S8PERI_BLOCK)
1372:Generated_Source\PSoC4/capsense.c ****         capsense_SenseClk_Stop();
1373:Generated_Source\PSoC4/capsense.c ****         capsense_SampleClk_Stop();
1374:Generated_Source\PSoC4/capsense.c ****     #endif /* (0u != capsense_IS_M0S8PERI_BLOCK) */
1375:Generated_Source\PSoC4/capsense.c **** 
1376:Generated_Source\PSoC4/capsense.c ****     #if (0u != capsense_MULTIPLE_FREQUENCY_SET)
1377:Generated_Source\PSoC4/capsense.c ****         capsense_SampleClk_SetDividerValue((uint16)capsense_sampleClkDividerVal[sensor]);
1378:Generated_Source\PSoC4/capsense.c ****         capsense_SenseClk_SetDividerValue((uint16)capsense_senseClkDividerVal[sensor]);
1379:Generated_Source\PSoC4/capsense.c ****     #else
1380:Generated_Source\PSoC4/capsense.c ****         capsense_SampleClk_SetDividerValue((uint16)capsense_sampleClkDividerVal);
1381:Generated_Source\PSoC4/capsense.c ****         capsense_SenseClk_SetDividerValue((uint16)capsense_senseClkDividerVal);
1382:Generated_Source\PSoC4/capsense.c ****     #endif /* (0u != capsense_MULTIPLE_FREQUENCY_SET) */
1383:Generated_Source\PSoC4/capsense.c **** 
1384:Generated_Source\PSoC4/capsense.c ****     #if (0u != capsense_IS_M0S8PERI_BLOCK)
1385:Generated_Source\PSoC4/capsense.c ****         capsense_SampleClk_Start();
1386:Generated_Source\PSoC4/capsense.c ****         capsense_SenseClk_StartEx(capsense_SampleClk__DIV_ID);
1387:Generated_Source\PSoC4/capsense.c **** 
1388:Generated_Source\PSoC4/capsense.c ****         #if(capsense_PRS_OPTIONS == capsense__PRS_NONE)
1389:Generated_Source\PSoC4/capsense.c ****             CyIntDisable(capsense_ISR_NUMBER);
1390:Generated_Source\PSoC4/capsense.c ****             capsense_CSD_CNT_REG = capsense_ONE_CYCLE;
1391:Generated_Source\PSoC4/capsense.c ****             while(0u != (capsense_CSD_CNT_REG & capsense_RESOLUTION_16_BITS))
1392:Generated_Source\PSoC4/capsense.c ****             {
1393:Generated_Source\PSoC4/capsense.c ****             /* Wait until scanning is complete */
1394:Generated_Source\PSoC4/capsense.c ****             }
1395:Generated_Source\PSoC4/capsense.c ****             capsense_CSD_INTR_REG = 1u;
1396:Generated_Source\PSoC4/capsense.c ****             CyIntClearPending(capsense_ISR_NUMBER);
1397:Generated_Source\PSoC4/capsense.c ****             CyIntEnable(capsense_ISR_NUMBER);
1398:Generated_Source\PSoC4/capsense.c ****         #endif /* capsense_PRS_OPTIONS == capsense__PRS_NONE */
1399:Generated_Source\PSoC4/capsense.c ****     #endif /* (0u != capsense_IS_M0S8PERI_BLOCK) */
1400:Generated_Source\PSoC4/capsense.c **** 
1401:Generated_Source\PSoC4/capsense.c **** #if(capsense_PRS_OPTIONS != capsense__PRS_NONE)
1402:Generated_Source\PSoC4/capsense.c **** 
1403:Generated_Source\PSoC4/capsense.c ****     #if(capsense_TUNING_METHOD == capsense__TUNING_AUTO)
1404:Generated_Source\PSoC4/capsense.c ****         if(capsense_prescalersTuningDone != 0u)
1405:Generated_Source\PSoC4/capsense.c ****         {
1406:Generated_Source\PSoC4/capsense.c ****     #endif /* (capsense_TUNING_METHOD == capsense__TUNING_AUTO) */
1407:Generated_Source\PSoC4/capsense.c **** 
1408:Generated_Source\PSoC4/capsense.c ****             CyIntDisable(capsense_ISR_NUMBER);
1409:Generated_Source\PSoC4/capsense.c **** 
ARM GAS  C:\Users\puria\AppData\Local\Temp\ccYRkNAS.s 			page 40


1410:Generated_Source\PSoC4/capsense.c ****             newRegValue = capsense_CSD_CFG_REG;
1411:Generated_Source\PSoC4/capsense.c ****             newRegValue |= capsense_CSD_CFG_PRS_SELECT;
1412:Generated_Source\PSoC4/capsense.c **** 
1413:Generated_Source\PSoC4/capsense.c ****             #if(capsense_PRS_OPTIONS == capsense__PRS_AUTO)
1414:Generated_Source\PSoC4/capsense.c **** 
1415:Generated_Source\PSoC4/capsense.c ****                 newRegValue &= ~(capsense_PRS_MODE_MASK);
1416:Generated_Source\PSoC4/capsense.c **** 
1417:Generated_Source\PSoC4/capsense.c ****                 #if (0u != capsense_MULTIPLE_FREQUENCY_SET)
1418:Generated_Source\PSoC4/capsense.c ****                     senseClkDivMath = capsense_senseClkDividerVal[sensor];
1419:Generated_Source\PSoC4/capsense.c ****                     sampleClkDivMath = capsense_sampleClkDividerVal[sensor];
1420:Generated_Source\PSoC4/capsense.c ****                 #else
1421:Generated_Source\PSoC4/capsense.c ****                     senseClkDivMath = capsense_senseClkDividerVal;
1422:Generated_Source\PSoC4/capsense.c ****                     sampleClkDivMath = capsense_sampleClkDividerVal;
1423:Generated_Source\PSoC4/capsense.c ****                 #endif /* ( capsense_MULTIPLE_FREQUENCY_SET) */
1424:Generated_Source\PSoC4/capsense.c **** 
1425:Generated_Source\PSoC4/capsense.c ****                 #if(0u == capsense_IS_M0S8PERI_BLOCK)
1426:Generated_Source\PSoC4/capsense.c ****                     senseClkDivMath *= sampleClkDivMath;
1427:Generated_Source\PSoC4/capsense.c ****                 #endif /* (0u == capsense_IS_M0S8PERI_BLOCK) */
1428:Generated_Source\PSoC4/capsense.c **** 
1429:Generated_Source\PSoC4/capsense.c ****                 if((senseClkDivMath * capsense_RESOLUTION_12_BITS) <
1430:Generated_Source\PSoC4/capsense.c ****                    (sampleClkDivMath * capsense_widgetResolution[widget]))
1431:Generated_Source\PSoC4/capsense.c ****                 {
1432:Generated_Source\PSoC4/capsense.c ****                     newRegValue |= capsense_CSD_PRS_12_BIT;
1433:Generated_Source\PSoC4/capsense.c ****                 }
1434:Generated_Source\PSoC4/capsense.c ****             #endif /* (capsense_PRS_OPTIONS == capsense__PRS_AUTO) */
1435:Generated_Source\PSoC4/capsense.c **** 
1436:Generated_Source\PSoC4/capsense.c ****             capsense_CSD_CFG_REG = newRegValue;
1437:Generated_Source\PSoC4/capsense.c **** 
1438:Generated_Source\PSoC4/capsense.c ****             CyIntEnable(capsense_ISR_NUMBER);
1439:Generated_Source\PSoC4/capsense.c **** 
1440:Generated_Source\PSoC4/capsense.c ****     #if(capsense_TUNING_METHOD == capsense__TUNING_AUTO)
1441:Generated_Source\PSoC4/capsense.c ****         }
1442:Generated_Source\PSoC4/capsense.c ****     #endif /* (capsense_PRS_OPTIONS != capsense__PRS_NONE) */
1443:Generated_Source\PSoC4/capsense.c **** 
1444:Generated_Source\PSoC4/capsense.c **** #endif /* (capsense_PRS_OPTIONS == capsense__PRS_NONE) */
1445:Generated_Source\PSoC4/capsense.c **** 
1446:Generated_Source\PSoC4/capsense.c ****     /* Set Idac Value */
1447:Generated_Source\PSoC4/capsense.c ****     CyIntDisable(capsense_ISR_NUMBER);
1448:Generated_Source\PSoC4/capsense.c ****     newRegValue = capsense_CSD_IDAC_REG;
1449:Generated_Source\PSoC4/capsense.c **** 
1450:Generated_Source\PSoC4/capsense.c **** #if (capsense_IDAC_CNT == 1u)
1451:Generated_Source\PSoC4/capsense.c ****     newRegValue &= ~(capsense_CSD_IDAC1_DATA_MASK);
1452:Generated_Source\PSoC4/capsense.c ****     newRegValue |= capsense_modulationIDAC[sensor];
1453:Generated_Source\PSoC4/capsense.c **** #else
1454:Generated_Source\PSoC4/capsense.c ****     newRegValue &= ~(capsense_CSD_IDAC1_DATA_MASK | capsense_CSD_IDAC2_DATA_MASK);
1455:Generated_Source\PSoC4/capsense.c ****     newRegValue |= (capsense_modulationIDAC[sensor] |
1456:Generated_Source\PSoC4/capsense.c ****                             (uint32)((uint32)capsense_compensationIDAC[sensor] <<
1457:Generated_Source\PSoC4/capsense.c ****                             capsense_CSD_IDAC2_DATA_OFFSET));
1458:Generated_Source\PSoC4/capsense.c **** #endif /* (capsense_IDAC_CNT == 1u) */
1459:Generated_Source\PSoC4/capsense.c **** 
1460:Generated_Source\PSoC4/capsense.c ****     capsense_CSD_IDAC_REG = newRegValue;
1461:Generated_Source\PSoC4/capsense.c **** 
1462:Generated_Source\PSoC4/capsense.c **** #if(capsense_CMOD_PREGARGE_OPTION == capsense__CAPPRIOBUF)
1463:Generated_Source\PSoC4/capsense.c ****     newRegValue = capsense_CMOD_CONNECTION_REG;
1464:Generated_Source\PSoC4/capsense.c ****     newRegValue &= ~(capsense_CSD_CMOD_CONNECTION_MASK);
1465:Generated_Source\PSoC4/capsense.c ****     newRegValue |= capsense_CSD_CMOD_TO_AMUXBUS_A;
1466:Generated_Source\PSoC4/capsense.c ****     capsense_CMOD_CONNECTION_REG = newRegValue;
ARM GAS  C:\Users\puria\AppData\Local\Temp\ccYRkNAS.s 			page 41


1467:Generated_Source\PSoC4/capsense.c **** 
1468:Generated_Source\PSoC4/capsense.c ****     newRegValue = capsense_CMOD_PORT_PC_REG;
1469:Generated_Source\PSoC4/capsense.c ****     newRegValue &= ~(capsense_CSD_CMOD_PC_MASK);
1470:Generated_Source\PSoC4/capsense.c ****     newRegValue |= capsense_CMOD_PC_HIGH_Z_MODE;
1471:Generated_Source\PSoC4/capsense.c ****     capsense_CMOD_PORT_PC_REG = newRegValue;
1472:Generated_Source\PSoC4/capsense.c **** #endif /* (capsense_CMOD_PREGARGE_OPTION == capsense__CAPPRIOBUF) */
1473:Generated_Source\PSoC4/capsense.c **** 
1474:Generated_Source\PSoC4/capsense.c ****     /* Disconnect Vref Buffer from AMUX */
1475:Generated_Source\PSoC4/capsense.c ****     newRegValue = capsense_CSD_CFG_REG;
1476:Generated_Source\PSoC4/capsense.c ****     newRegValue &= ~(capsense_PRECHARGE_CONFIG_MASK);
1477:Generated_Source\PSoC4/capsense.c ****     newRegValue |= capsense_CTANK_PRECHARGE_CONFIG;
1478:Generated_Source\PSoC4/capsense.c **** 
1479:Generated_Source\PSoC4/capsense.c ****     CyIntEnable(capsense_ISR_NUMBER);
1480:Generated_Source\PSoC4/capsense.c **** 
1481:Generated_Source\PSoC4/capsense.c ****     /* Enable Sensor */
1482:Generated_Source\PSoC4/capsense.c ****     capsense_EnableScanSlot(sensor);
1483:Generated_Source\PSoC4/capsense.c **** 
1484:Generated_Source\PSoC4/capsense.c ****     interruptState = CyEnterCriticalSection();
1485:Generated_Source\PSoC4/capsense.c ****     capsense_CSD_CFG_REG = newRegValue;
1486:Generated_Source\PSoC4/capsense.c **** 
1487:Generated_Source\PSoC4/capsense.c ****     /* `#START capsense_PreSettlingDelay_Debug` */
1488:Generated_Source\PSoC4/capsense.c **** 
1489:Generated_Source\PSoC4/capsense.c ****     /* `#END` */
1490:Generated_Source\PSoC4/capsense.c **** 
1491:Generated_Source\PSoC4/capsense.c **** #ifdef capsense_PRE_SCAN_PRE_SETTLING_DELAY_DEBUG_CALLBACK
1492:Generated_Source\PSoC4/capsense.c ****     capsense_PreScan_Pre_SettlingDelay_Debug_Callback();
1493:Generated_Source\PSoC4/capsense.c **** #endif /* capsense_PRE_SCAN_PRE_SETTLING_DELAY_DEBUG_CALLBACK */
1494:Generated_Source\PSoC4/capsense.c **** 
1495:Generated_Source\PSoC4/capsense.c ****     CyDelayCycles(capsense_GLITCH_ELIMINATION_CYCLES);
1496:Generated_Source\PSoC4/capsense.c **** 
1497:Generated_Source\PSoC4/capsense.c ****     /* `#START capsense_PreScan_Debug` */
1498:Generated_Source\PSoC4/capsense.c **** 
1499:Generated_Source\PSoC4/capsense.c ****     /* `#END` */
1500:Generated_Source\PSoC4/capsense.c **** 
1501:Generated_Source\PSoC4/capsense.c **** #ifdef capsense_PRE_SCAN_DEBUG_CALLBACK
1502:Generated_Source\PSoC4/capsense.c ****     capsense_PreScan_Debug_Callback();
1503:Generated_Source\PSoC4/capsense.c **** #endif /* capsense_PRE_SCAN_DEBUG_CALLBACK */
1504:Generated_Source\PSoC4/capsense.c **** 
1505:Generated_Source\PSoC4/capsense.c ****     capsense_CSD_CNT_REG = counterResolution;
1506:Generated_Source\PSoC4/capsense.c ****     CyExitCriticalSection(interruptState);
1507:Generated_Source\PSoC4/capsense.c **** }
1508:Generated_Source\PSoC4/capsense.c **** 
1509:Generated_Source\PSoC4/capsense.c **** 
1510:Generated_Source\PSoC4/capsense.c **** /*******************************************************************************
1511:Generated_Source\PSoC4/capsense.c **** * Function Name: capsense_PostScan
1512:Generated_Source\PSoC4/capsense.c **** ********************************************************************************
1513:Generated_Source\PSoC4/capsense.c **** *
1514:Generated_Source\PSoC4/capsense.c **** * Summary:
1515:Generated_Source\PSoC4/capsense.c **** *  Stores the results of measurement in the capsense_sensorRaw[] array,
1516:Generated_Source\PSoC4/capsense.c **** *  sets the scanning sensor in the non-sampling state, turns off Idac(Current Source IDAC),
1517:Generated_Source\PSoC4/capsense.c **** *  disconnects the IDAC(Sink mode), and applies Vref on AMUX.
1518:Generated_Source\PSoC4/capsense.c **** *
1519:Generated_Source\PSoC4/capsense.c **** * Parameters:
1520:Generated_Source\PSoC4/capsense.c **** *  sensor:  Sensor number.
1521:Generated_Source\PSoC4/capsense.c **** *
1522:Generated_Source\PSoC4/capsense.c **** * Return:
1523:Generated_Source\PSoC4/capsense.c **** *  None
ARM GAS  C:\Users\puria\AppData\Local\Temp\ccYRkNAS.s 			page 42


1524:Generated_Source\PSoC4/capsense.c **** *
1525:Generated_Source\PSoC4/capsense.c **** * Global Variables:
1526:Generated_Source\PSoC4/capsense.c **** *  capsense_sensorRaw[] - used to store sensors raw data.
1527:Generated_Source\PSoC4/capsense.c **** *
1528:Generated_Source\PSoC4/capsense.c **** * Side Effects:
1529:Generated_Source\PSoC4/capsense.c **** *  None
1530:Generated_Source\PSoC4/capsense.c **** *
1531:Generated_Source\PSoC4/capsense.c **** *******************************************************************************/
1532:Generated_Source\PSoC4/capsense.c **** void capsense_PostScan(uint32 sensor)
1533:Generated_Source\PSoC4/capsense.c **** {
1534:Generated_Source\PSoC4/capsense.c ****     uint32 newRegValue;
1535:Generated_Source\PSoC4/capsense.c **** #if ((capsense_TUNING_METHOD == capsense__TUNING_AUTO) &&\
1536:Generated_Source\PSoC4/capsense.c ****      (0 != capsense_IS_OVERSAMPLING_EN))
1537:Generated_Source\PSoC4/capsense.c ****     uint32 oversamplingFactor;
1538:Generated_Source\PSoC4/capsense.c ****     uint32 widget;
1539:Generated_Source\PSoC4/capsense.c **** #endif /* ((capsense_TUNING_METHOD == capsense__TUNING_AUTO) &&\
1540:Generated_Source\PSoC4/capsense.c ****            (0 != capsense_IS_OVERSAMPLING_EN)) */
1541:Generated_Source\PSoC4/capsense.c **** 
1542:Generated_Source\PSoC4/capsense.c ****     /* `#START capsense_PostScan_Debug` */
1543:Generated_Source\PSoC4/capsense.c **** 
1544:Generated_Source\PSoC4/capsense.c ****     /* `#END` */
1545:Generated_Source\PSoC4/capsense.c **** 
1546:Generated_Source\PSoC4/capsense.c **** #ifdef capsense_POST_SCAN_DEBUG_CALLBACK
1547:Generated_Source\PSoC4/capsense.c ****     capsense_PostScan_Debug_Callback();
1548:Generated_Source\PSoC4/capsense.c **** #endif /* capsense_POST_SCAN_DEBUG_Callback */
1549:Generated_Source\PSoC4/capsense.c **** 
1550:Generated_Source\PSoC4/capsense.c ****     /* Read SlotResult from Raw Counter */
1551:Generated_Source\PSoC4/capsense.c ****     capsense_sensorRaw[sensor]  = (uint16)capsense_CSD_CNT_REG;
1552:Generated_Source\PSoC4/capsense.c **** 
1553:Generated_Source\PSoC4/capsense.c **** #if ((capsense_TUNING_METHOD == capsense__TUNING_AUTO) &&\
1554:Generated_Source\PSoC4/capsense.c ****      (0 != capsense_IS_OVERSAMPLING_EN))
1555:Generated_Source\PSoC4/capsense.c ****     widget = capsense_widgetNumber[sensor];
1556:Generated_Source\PSoC4/capsense.c ****     if(capsense_widgetResolution[widget] < capsense_RESOLUTION_16_BITS)
1557:Generated_Source\PSoC4/capsense.c ****     {
1558:Generated_Source\PSoC4/capsense.c ****         oversamplingFactor = capsense_GetBitValue(capsense_scanSpeedTbl, sensor);
1559:Generated_Source\PSoC4/capsense.c ****         capsense_sensorRaw[sensor] >>= oversamplingFactor;
1560:Generated_Source\PSoC4/capsense.c ****     }
1561:Generated_Source\PSoC4/capsense.c **** #endif /* ((capsense_TUNING_METHOD == capsense__TUNING_AUTO) &&\
1562:Generated_Source\PSoC4/capsense.c ****            (0 != capsense_IS_OVERSAMPLING_EN)) */
1563:Generated_Source\PSoC4/capsense.c **** 
1564:Generated_Source\PSoC4/capsense.c ****     /* Disable Sensor */
1565:Generated_Source\PSoC4/capsense.c ****     capsense_DisableScanSlot(sensor);
1566:Generated_Source\PSoC4/capsense.c **** 
1567:Generated_Source\PSoC4/capsense.c ****     CyIntDisable(capsense_ISR_NUMBER);
1568:Generated_Source\PSoC4/capsense.c **** 
1569:Generated_Source\PSoC4/capsense.c **** #if(capsense_CMOD_PREGARGE_OPTION == capsense__CAPPRIOBUF)
1570:Generated_Source\PSoC4/capsense.c ****     newRegValue = capsense_CMOD_CONNECTION_REG;
1571:Generated_Source\PSoC4/capsense.c ****     newRegValue &= ~(capsense_CSD_CMOD_CONNECTION_MASK);
1572:Generated_Source\PSoC4/capsense.c ****     newRegValue |= capsense_CSD_CMOD_TO_AMUXBUS_B;
1573:Generated_Source\PSoC4/capsense.c ****     capsense_CMOD_CONNECTION_REG = newRegValue;
1574:Generated_Source\PSoC4/capsense.c **** 
1575:Generated_Source\PSoC4/capsense.c ****     newRegValue = capsense_CMOD_PORT_PC_REG;
1576:Generated_Source\PSoC4/capsense.c ****     newRegValue &= ~(capsense_CSD_CMOD_PC_MASK);
1577:Generated_Source\PSoC4/capsense.c ****     newRegValue |= capsense_CMOD_PC_STRONG_MODE;
1578:Generated_Source\PSoC4/capsense.c ****     capsense_CMOD_PORT_PC_REG = newRegValue;
1579:Generated_Source\PSoC4/capsense.c **** 
1580:Generated_Source\PSoC4/capsense.c ****     newRegValue = capsense_CMOD_PORT_DR_REG;
ARM GAS  C:\Users\puria\AppData\Local\Temp\ccYRkNAS.s 			page 43


1581:Generated_Source\PSoC4/capsense.c ****     newRegValue &= ~(capsense_CMOD_DR_MASK);
1582:Generated_Source\PSoC4/capsense.c ****     newRegValue |= capsense_CMOD_DR_CONFIG;
1583:Generated_Source\PSoC4/capsense.c ****     capsense_CMOD_PORT_DR_REG = newRegValue;
1584:Generated_Source\PSoC4/capsense.c **** #endif /* (capsense_CMOD_PREGARGE_OPTION == capsense__CAPPRIOBUF) */
1585:Generated_Source\PSoC4/capsense.c **** 
1586:Generated_Source\PSoC4/capsense.c ****     /* Connect Vref Buffer to AMUX bus  */
1587:Generated_Source\PSoC4/capsense.c ****     newRegValue = capsense_CSD_CFG_REG;
1588:Generated_Source\PSoC4/capsense.c ****     newRegValue &= ~(capsense_PRECHARGE_CONFIG_MASK);
1589:Generated_Source\PSoC4/capsense.c ****     newRegValue |= capsense_CMOD_PRECHARGE_CONFIG;
1590:Generated_Source\PSoC4/capsense.c ****     capsense_CSD_CFG_REG = newRegValue;
1591:Generated_Source\PSoC4/capsense.c **** 
1592:Generated_Source\PSoC4/capsense.c ****     /* Set Idac Value = 0 */
1593:Generated_Source\PSoC4/capsense.c **** #if (capsense_IDAC_CNT == 1u)
1594:Generated_Source\PSoC4/capsense.c ****     capsense_CSD_IDAC_REG &= ~(capsense_CSD_IDAC1_DATA_MASK);
1595:Generated_Source\PSoC4/capsense.c **** #else
1596:Generated_Source\PSoC4/capsense.c ****     capsense_CSD_IDAC_REG &= ~(capsense_CSD_IDAC1_DATA_MASK | capsense_CSD_IDAC2_DATA_MASK);
1597:Generated_Source\PSoC4/capsense.c **** #endif /* (capsense_IDAC_CNT == 1u) */
1598:Generated_Source\PSoC4/capsense.c **** 
1599:Generated_Source\PSoC4/capsense.c ****     CyIntEnable(capsense_ISR_NUMBER);
1600:Generated_Source\PSoC4/capsense.c **** }
1601:Generated_Source\PSoC4/capsense.c **** 
1602:Generated_Source\PSoC4/capsense.c **** 
1603:Generated_Source\PSoC4/capsense.c **** /*******************************************************************************
1604:Generated_Source\PSoC4/capsense.c **** * Function Name: capsense_EnableShieldElectrode
1605:Generated_Source\PSoC4/capsense.c **** ********************************************************************************
1606:Generated_Source\PSoC4/capsense.c **** *
1607:Generated_Source\PSoC4/capsense.c **** * Summary:
1608:Generated_Source\PSoC4/capsense.c **** *  This API enables or disables the shield electrode on a specified port pin.
1609:Generated_Source\PSoC4/capsense.c **** *
1610:Generated_Source\PSoC4/capsense.c **** * Parameters:
1611:Generated_Source\PSoC4/capsense.c **** *  portNumber: contains the shield electrode port number (0, 1, 2).
1612:Generated_Source\PSoC4/capsense.c **** *  pinNumber: contains the shield electrode pin number (0, 1, 2, ... , 7).
1613:Generated_Source\PSoC4/capsense.c **** *
1614:Generated_Source\PSoC4/capsense.c **** * Return:
1615:Generated_Source\PSoC4/capsense.c **** *  None
1616:Generated_Source\PSoC4/capsense.c **** *
1617:Generated_Source\PSoC4/capsense.c **** * Global Variables:
1618:Generated_Source\PSoC4/capsense.c **** *  capsense_prtCfgTbl[] - Contains pointers to the port config registers for each port.
1619:Generated_Source\PSoC4/capsense.c **** *  capsense_prtSelTbl[] - Contains pointers to the HSIOM registers for each port.
1620:Generated_Source\PSoC4/capsense.c **** *
1621:Generated_Source\PSoC4/capsense.c **** * Side Effects:
1622:Generated_Source\PSoC4/capsense.c **** *  None
1623:Generated_Source\PSoC4/capsense.c **** *
1624:Generated_Source\PSoC4/capsense.c **** *******************************************************************************/
1625:Generated_Source\PSoC4/capsense.c **** void capsense_EnableShieldElectrode(uint32 pinNumber, uint32 portNumber)
1626:Generated_Source\PSoC4/capsense.c **** {
 792              		.loc 1 1626 0
 793              		.cfi_startproc
 794              		@ args = 0, pretend = 0, frame = 0
 795              		@ frame_needed = 0, uses_anonymous_args = 0
 796              	.LVL94:
 797 0000 30B5     		push	{r4, r5, lr}
 798              		.cfi_def_cfa_offset 12
 799              		.cfi_offset 4, -12
 800              		.cfi_offset 5, -8
 801              		.cfi_offset 14, -4
1627:Generated_Source\PSoC4/capsense.c ****     uint32 newRegValue;
ARM GAS  C:\Users\puria\AppData\Local\Temp\ccYRkNAS.s 			page 44


1628:Generated_Source\PSoC4/capsense.c **** 
1629:Generated_Source\PSoC4/capsense.c ****     *capsense_prtCfgTbl[portNumber] &= ~(capsense_CSD_PIN_MODE_MASK << (pinNumber * capsense_PC_PIN
 802              		.loc 1 1629 0
 803 0002 8900     		lsls	r1, r1, #2
 804              	.LVL95:
 805 0004 0A4B     		ldr	r3, .L50
 806 0006 5918     		adds	r1, r3, r1
 807 0008 CD6A     		ldr	r5, [r1, #44]
 808 000a 2B68     		ldr	r3, [r5]
 809 000c 4400     		lsls	r4, r0, #1
 810 000e 2418     		adds	r4, r4, r0
 811 0010 0722     		movs	r2, #7
 812 0012 A240     		lsls	r2, r2, r4
 813 0014 9343     		bics	r3, r2
 814 0016 2B60     		str	r3, [r5]
1630:Generated_Source\PSoC4/capsense.c ****     newRegValue = *capsense_prtSelTbl[portNumber];
 815              		.loc 1 1630 0
 816 0018 0969     		ldr	r1, [r1, #16]
 817 001a 0B68     		ldr	r3, [r1]
 818              	.LVL96:
1631:Generated_Source\PSoC4/capsense.c ****     newRegValue &= ~(capsense_CSD_HSIOM_MASK << (pinNumber * capsense_HSIOM_PIN_CFG_SIZE));
 819              		.loc 1 1631 0
 820 001c 8000     		lsls	r0, r0, #2
 821              	.LVL97:
 822 001e 0F22     		movs	r2, #15
 823 0020 8240     		lsls	r2, r2, r0
 824 0022 9343     		bics	r3, r2
 825              	.LVL98:
 826 0024 1A00     		movs	r2, r3
 827              	.LVL99:
1632:Generated_Source\PSoC4/capsense.c ****     newRegValue |= (capsense_CSD_SHIELD_PORT_MODE << (pinNumber * capsense_HSIOM_PIN_CFG_SIZE));
 828              		.loc 1 1632 0
 829 0026 0523     		movs	r3, #5
 830 0028 8340     		lsls	r3, r3, r0
 831 002a 1343     		orrs	r3, r2
 832              	.LVL100:
1633:Generated_Source\PSoC4/capsense.c ****     *capsense_prtSelTbl[portNumber] = newRegValue;
 833              		.loc 1 1633 0
 834 002c 0B60     		str	r3, [r1]
1634:Generated_Source\PSoC4/capsense.c **** }
 835              		.loc 1 1634 0
 836              		@ sp needed
 837 002e 30BD     		pop	{r4, r5, pc}
 838              	.L51:
 839              		.align	2
 840              	.L50:
 841 0030 00000000 		.word	.LANCHOR2
 842              		.cfi_endproc
 843              	.LFE56:
 844              		.size	capsense_EnableShieldElectrode, .-capsense_EnableShieldElectrode
 845              		.section	.text.capsense_SetShieldDelay,"ax",%progbits
 846              		.align	2
 847              		.global	capsense_SetShieldDelay
 848              		.code	16
 849              		.thumb_func
 850              		.type	capsense_SetShieldDelay, %function
 851              	capsense_SetShieldDelay:
ARM GAS  C:\Users\puria\AppData\Local\Temp\ccYRkNAS.s 			page 45


 852              	.LFB57:
1635:Generated_Source\PSoC4/capsense.c **** 
1636:Generated_Source\PSoC4/capsense.c **** 
1637:Generated_Source\PSoC4/capsense.c **** /*******************************************************************************
1638:Generated_Source\PSoC4/capsense.c **** * Function Name: capsense_SetShieldDelay
1639:Generated_Source\PSoC4/capsense.c **** ********************************************************************************
1640:Generated_Source\PSoC4/capsense.c **** *
1641:Generated_Source\PSoC4/capsense.c **** * Summary:
1642:Generated_Source\PSoC4/capsense.c **** *  This API sets a shield delay.
1643:Generated_Source\PSoC4/capsense.c **** *
1644:Generated_Source\PSoC4/capsense.c **** * Parameters:
1645:Generated_Source\PSoC4/capsense.c **** *  delay:  shield delay value:
1646:Generated_Source\PSoC4/capsense.c **** *                               0 - no delay
1647:Generated_Source\PSoC4/capsense.c **** *                               1 - 1 cycle delay
1648:Generated_Source\PSoC4/capsense.c **** *                               2 - 2 cycles delay
1649:Generated_Source\PSoC4/capsense.c **** *
1650:Generated_Source\PSoC4/capsense.c **** * Return:
1651:Generated_Source\PSoC4/capsense.c **** *  None
1652:Generated_Source\PSoC4/capsense.c **** *
1653:Generated_Source\PSoC4/capsense.c **** * Global Variables:
1654:Generated_Source\PSoC4/capsense.c **** *  None
1655:Generated_Source\PSoC4/capsense.c **** *
1656:Generated_Source\PSoC4/capsense.c **** * Side Effects:
1657:Generated_Source\PSoC4/capsense.c **** *  None
1658:Generated_Source\PSoC4/capsense.c **** *
1659:Generated_Source\PSoC4/capsense.c **** *******************************************************************************/
1660:Generated_Source\PSoC4/capsense.c **** void capsense_SetShieldDelay(uint32 delay)
1661:Generated_Source\PSoC4/capsense.c **** {
 853              		.loc 1 1661 0
 854              		.cfi_startproc
 855              		@ args = 0, pretend = 0, frame = 0
 856              		@ frame_needed = 0, uses_anonymous_args = 0
 857              		@ link register save eliminated.
 858              	.LVL101:
1662:Generated_Source\PSoC4/capsense.c ****     uint32 newRegValue;
1663:Generated_Source\PSoC4/capsense.c **** 
1664:Generated_Source\PSoC4/capsense.c ****     delay &= 0x03u;
1665:Generated_Source\PSoC4/capsense.c **** 
1666:Generated_Source\PSoC4/capsense.c ****     newRegValue = capsense_CSD_CFG_REG;
 859              		.loc 1 1666 0
 860 0000 044A     		ldr	r2, .L53
 861 0002 1168     		ldr	r1, [r2]
 862              	.LVL102:
1667:Generated_Source\PSoC4/capsense.c ****     newRegValue &= (uint32)(~(uint32)capsense_SHIELD_DELAY);
1668:Generated_Source\PSoC4/capsense.c ****     newRegValue |= (delay << capsense_CSD_CFG_SHIELD_DELAY_POS);
 863              		.loc 1 1668 0
 864 0004 4002     		lsls	r0, r0, #9
 865              	.LVL103:
 866 0006 C023     		movs	r3, #192
 867 0008 DB00     		lsls	r3, r3, #3
 868 000a 1840     		ands	r0, r3
 869 000c 0843     		orrs	r0, r1
 870              	.LVL104:
1669:Generated_Source\PSoC4/capsense.c ****     capsense_CSD_CFG_REG = newRegValue;
 871              		.loc 1 1669 0
 872 000e 1060     		str	r0, [r2]
1670:Generated_Source\PSoC4/capsense.c **** }
ARM GAS  C:\Users\puria\AppData\Local\Temp\ccYRkNAS.s 			page 46


 873              		.loc 1 1670 0
 874              		@ sp needed
 875 0010 7047     		bx	lr
 876              	.L54:
 877 0012 C046     		.align	2
 878              	.L53:
 879 0014 04002840 		.word	1076363268
 880              		.cfi_endproc
 881              	.LFE57:
 882              		.size	capsense_SetShieldDelay, .-capsense_SetShieldDelay
 883              		.section	.text.capsense_ReadCurrentScanningSensor,"ax",%progbits
 884              		.align	2
 885              		.global	capsense_ReadCurrentScanningSensor
 886              		.code	16
 887              		.thumb_func
 888              		.type	capsense_ReadCurrentScanningSensor, %function
 889              	capsense_ReadCurrentScanningSensor:
 890              	.LFB58:
1671:Generated_Source\PSoC4/capsense.c **** 
1672:Generated_Source\PSoC4/capsense.c **** 
1673:Generated_Source\PSoC4/capsense.c **** /*******************************************************************************
1674:Generated_Source\PSoC4/capsense.c **** * Function Name: capsense_ReadCurrentScanningSensor
1675:Generated_Source\PSoC4/capsense.c **** ********************************************************************************
1676:Generated_Source\PSoC4/capsense.c **** *
1677:Generated_Source\PSoC4/capsense.c **** * Summary:
1678:Generated_Source\PSoC4/capsense.c **** *  This API returns scanning sensor number when sensor scan is in progress.
1679:Generated_Source\PSoC4/capsense.c **** *  When sensor scan is completed the API returns
1680:Generated_Source\PSoC4/capsense.c **** *  $INSTANCE_NAME`_NOT_SENSOR (0xFFFFFFFF) (when no sensor is scanned).
1681:Generated_Source\PSoC4/capsense.c **** *
1682:Generated_Source\PSoC4/capsense.c **** * Parameters:
1683:Generated_Source\PSoC4/capsense.c **** *   None.
1684:Generated_Source\PSoC4/capsense.c **** *
1685:Generated_Source\PSoC4/capsense.c **** * Return:
1686:Generated_Source\PSoC4/capsense.c **** *  Returns Sensor number if sensor is being scanned and
1687:Generated_Source\PSoC4/capsense.c **** *  $INSTANCE_NAME`_NOT_SENSOR (0xFFFFFFFF) if scanning is complete.
1688:Generated_Source\PSoC4/capsense.c **** *
1689:Generated_Source\PSoC4/capsense.c **** * Global Variables:
1690:Generated_Source\PSoC4/capsense.c **** *  capsense_sensorIndex - the sensor number is being scanned.
1691:Generated_Source\PSoC4/capsense.c **** *
1692:Generated_Source\PSoC4/capsense.c **** * Side Effects:
1693:Generated_Source\PSoC4/capsense.c **** *  None
1694:Generated_Source\PSoC4/capsense.c **** *
1695:Generated_Source\PSoC4/capsense.c **** *******************************************************************************/
1696:Generated_Source\PSoC4/capsense.c **** uint32 capsense_ReadCurrentScanningSensor(void)
1697:Generated_Source\PSoC4/capsense.c **** {
 891              		.loc 1 1697 0
 892              		.cfi_startproc
 893              		@ args = 0, pretend = 0, frame = 0
 894              		@ frame_needed = 0, uses_anonymous_args = 0
 895              		@ link register save eliminated.
1698:Generated_Source\PSoC4/capsense.c ****     return ((uint32)(( 0u != (capsense_csdStatusVar & capsense_SW_STS_BUSY)) ?
 896              		.loc 1 1698 0
 897 0000 054B     		ldr	r3, .L58
 898 0002 1B78     		ldrb	r3, [r3]
 899 0004 DB07     		lsls	r3, r3, #31
 900 0006 03D5     		bpl	.L57
 901              		.loc 1 1698 0 is_stmt 0 discriminator 1
ARM GAS  C:\Users\puria\AppData\Local\Temp\ccYRkNAS.s 			page 47


 902 0008 034B     		ldr	r3, .L58
 903 000a 987B     		ldrb	r0, [r3, #14]
 904 000c C0B2     		uxtb	r0, r0
 905 000e 01E0     		b	.L56
 906              	.L57:
 907              		.loc 1 1698 0
 908 0010 0120     		movs	r0, #1
 909 0012 4042     		rsbs	r0, r0, #0
 910              	.L56:
1699:Generated_Source\PSoC4/capsense.c ****                      capsense_sensorIndex : capsense_NOT_SENSOR));
1700:Generated_Source\PSoC4/capsense.c **** }
 911              		.loc 1 1700 0 is_stmt 1 discriminator 4
 912              		@ sp needed
 913 0014 7047     		bx	lr
 914              	.L59:
 915 0016 C046     		.align	2
 916              	.L58:
 917 0018 00000000 		.word	.LANCHOR0
 918              		.cfi_endproc
 919              	.LFE58:
 920              		.size	capsense_ReadCurrentScanningSensor, .-capsense_ReadCurrentScanningSensor
 921              		.section	.text.capsense_GetBitValue,"ax",%progbits
 922              		.align	2
 923              		.global	capsense_GetBitValue
 924              		.code	16
 925              		.thumb_func
 926              		.type	capsense_GetBitValue, %function
 927              	capsense_GetBitValue:
 928              	.LFB59:
1701:Generated_Source\PSoC4/capsense.c **** 
1702:Generated_Source\PSoC4/capsense.c **** 
1703:Generated_Source\PSoC4/capsense.c **** /*******************************************************************************
1704:Generated_Source\PSoC4/capsense.c **** * Function Name: capsense_GetBitValue
1705:Generated_Source\PSoC4/capsense.c **** ********************************************************************************
1706:Generated_Source\PSoC4/capsense.c **** *
1707:Generated_Source\PSoC4/capsense.c **** * Summary:
1708:Generated_Source\PSoC4/capsense.c **** *  The API returns a bit status of the bit in the table array which contains the masks.
1709:Generated_Source\PSoC4/capsense.c **** *
1710:Generated_Source\PSoC4/capsense.c **** * Parameters:
1711:Generated_Source\PSoC4/capsense.c **** *  table[] - array with bit masks.
1712:Generated_Source\PSoC4/capsense.c **** *  position - position of bit in the table[] array.
1713:Generated_Source\PSoC4/capsense.c **** *
1714:Generated_Source\PSoC4/capsense.c **** * Return:
1715:Generated_Source\PSoC4/capsense.c **** *  0 - bit is not set; 1 - bit is set.
1716:Generated_Source\PSoC4/capsense.c **** *
1717:Generated_Source\PSoC4/capsense.c **** * Global Variables:
1718:Generated_Source\PSoC4/capsense.c **** *  None
1719:Generated_Source\PSoC4/capsense.c **** *
1720:Generated_Source\PSoC4/capsense.c **** * Side Effects:
1721:Generated_Source\PSoC4/capsense.c **** *  None
1722:Generated_Source\PSoC4/capsense.c **** *
1723:Generated_Source\PSoC4/capsense.c **** *******************************************************************************/
1724:Generated_Source\PSoC4/capsense.c **** uint32 capsense_GetBitValue(const uint8 table[], uint32 position)
1725:Generated_Source\PSoC4/capsense.c **** {
 929              		.loc 1 1725 0
 930              		.cfi_startproc
 931              		@ args = 0, pretend = 0, frame = 0
ARM GAS  C:\Users\puria\AppData\Local\Temp\ccYRkNAS.s 			page 48


 932              		@ frame_needed = 0, uses_anonymous_args = 0
 933              		@ link register save eliminated.
 934              	.LVL105:
1726:Generated_Source\PSoC4/capsense.c ****     uint32 offset;
1727:Generated_Source\PSoC4/capsense.c ****     uint8 enMask;
1728:Generated_Source\PSoC4/capsense.c **** 
1729:Generated_Source\PSoC4/capsense.c ****     /* position is divided by 8 to calculate the element of the
1730:Generated_Source\PSoC4/capsense.c ****        table[] array that contains the enable bit
1731:Generated_Source\PSoC4/capsense.c ****        for an appropriate sensor.
1732:Generated_Source\PSoC4/capsense.c ****     */
1733:Generated_Source\PSoC4/capsense.c ****     offset = (position >> 3u);
 935              		.loc 1 1733 0
 936 0000 CA08     		lsrs	r2, r1, #3
 937              	.LVL106:
1734:Generated_Source\PSoC4/capsense.c **** 
1735:Generated_Source\PSoC4/capsense.c ****     /* The enMask calculation for the appropriate sensor. Operation (position & 0x07u)
1736:Generated_Source\PSoC4/capsense.c ****        intends to calculate the enable bit offset for the 8-bit element of the
1737:Generated_Source\PSoC4/capsense.c ****        table[] array.
1738:Generated_Source\PSoC4/capsense.c ****     */
1739:Generated_Source\PSoC4/capsense.c ****     enMask = 0x01u << (position & 0x07u);
 938              		.loc 1 1739 0
 939 0002 0723     		movs	r3, #7
 940 0004 1940     		ands	r1, r3
 941              	.LVL107:
 942 0006 063B     		subs	r3, r3, #6
 943 0008 8B40     		lsls	r3, r3, r1
 944              	.LVL108:
1740:Generated_Source\PSoC4/capsense.c **** 
1741:Generated_Source\PSoC4/capsense.c ****     return ((0u !=(table[offset] & enMask)) ? 1Lu : 0Lu);
 945              		.loc 1 1741 0
 946 000a 825C     		ldrb	r2, [r0, r2]
 947              	.LVL109:
 948 000c 1342     		tst	r3, r2
 949 000e 01D0     		beq	.L62
 950 0010 0120     		movs	r0, #1
 951              	.LVL110:
 952 0012 00E0     		b	.L61
 953              	.LVL111:
 954              	.L62:
 955 0014 0020     		movs	r0, #0
 956              	.LVL112:
 957              	.L61:
1742:Generated_Source\PSoC4/capsense.c **** }
 958              		.loc 1 1742 0 discriminator 4
 959              		@ sp needed
 960 0016 7047     		bx	lr
 961              		.cfi_endproc
 962              	.LFE59:
 963              		.size	capsense_GetBitValue, .-capsense_GetBitValue
 964              		.section	.text.capsense_FindNextSensor,"ax",%progbits
 965              		.align	2
 966              		.global	capsense_FindNextSensor
 967              		.code	16
 968              		.thumb_func
 969              		.type	capsense_FindNextSensor, %function
 970              	capsense_FindNextSensor:
 971              	.LFB39:
ARM GAS  C:\Users\puria\AppData\Local\Temp\ccYRkNAS.s 			page 49


 507:Generated_Source\PSoC4/capsense.c ****     uint32 enableFlag;
 972              		.loc 1 507 0
 973              		.cfi_startproc
 974              		@ args = 0, pretend = 0, frame = 0
 975              		@ frame_needed = 0, uses_anonymous_args = 0
 976              	.LVL113:
 977 0000 10B5     		push	{r4, lr}
 978              		.cfi_def_cfa_offset 8
 979              		.cfi_offset 4, -8
 980              		.cfi_offset 14, -4
 981 0002 0400     		movs	r4, r0
 982              	.LVL114:
 983              	.L65:
 514:Generated_Source\PSoC4/capsense.c ****         if(snsIndex == capsense_TOTAL_SENSOR_COUNT)
 984              		.loc 1 514 0
 985 0004 0134     		adds	r4, r4, #1
 986              	.LVL115:
 987 0006 E4B2     		uxtb	r4, r4
 988              	.LVL116:
 515:Generated_Source\PSoC4/capsense.c ****         {
 989              		.loc 1 515 0
 990 0008 052C     		cmp	r4, #5
 991 000a 06D0     		beq	.L64
 519:Generated_Source\PSoC4/capsense.c ****     }
 992              		.loc 1 519 0
 993 000c 2100     		movs	r1, r4
 994 000e 0448     		ldr	r0, .L66
 995 0010 0430     		adds	r0, r0, #4
 996 0012 FFF7FEFF 		bl	capsense_GetBitValue
 997              	.LVL117:
 521:Generated_Source\PSoC4/capsense.c **** 
 998              		.loc 1 521 0
 999 0016 0028     		cmp	r0, #0
 1000 0018 F4D0     		beq	.L65
 1001              	.LVL118:
 1002              	.L64:
 524:Generated_Source\PSoC4/capsense.c **** 
 1003              		.loc 1 524 0
 1004 001a 2000     		movs	r0, r4
 1005              		@ sp needed
 1006              	.LVL119:
 1007 001c 10BD     		pop	{r4, pc}
 1008              	.L67:
 1009 001e C046     		.align	2
 1010              	.L66:
 1011 0020 00000000 		.word	.LANCHOR1
 1012              		.cfi_endproc
 1013              	.LFE39:
 1014              		.size	capsense_FindNextSensor, .-capsense_FindNextSensor
 1015              		.section	.text.capsense_PreScan,"ax",%progbits
 1016              		.align	2
 1017              		.global	capsense_PreScan
 1018              		.code	16
 1019              		.thumb_func
 1020              		.type	capsense_PreScan, %function
 1021              	capsense_PreScan:
 1022              	.LFB54:
ARM GAS  C:\Users\puria\AppData\Local\Temp\ccYRkNAS.s 			page 50


1336:Generated_Source\PSoC4/capsense.c ****     uint8 widget;
 1023              		.loc 1 1336 0
 1024              		.cfi_startproc
 1025              		@ args = 0, pretend = 0, frame = 0
 1026              		@ frame_needed = 0, uses_anonymous_args = 0
 1027              	.LVL120:
 1028 0000 F8B5     		push	{r3, r4, r5, r6, r7, lr}
 1029              		.cfi_def_cfa_offset 24
 1030              		.cfi_offset 3, -24
 1031              		.cfi_offset 4, -20
 1032              		.cfi_offset 5, -16
 1033              		.cfi_offset 6, -12
 1034              		.cfi_offset 7, -8
 1035              		.cfi_offset 14, -4
 1036 0002 0400     		movs	r4, r0
1354:Generated_Source\PSoC4/capsense.c **** 
 1037              		.loc 1 1354 0
 1038 0004 324B     		ldr	r3, .L71
 1039 0006 1B18     		adds	r3, r3, r0
 1040 0008 6422     		movs	r2, #100
 1041 000a 9B5C     		ldrb	r3, [r3, r2]
 1042              	.LVL121:
1357:Generated_Source\PSoC4/capsense.c **** 
 1043              		.loc 1 1357 0
 1044 000c 9B00     		lsls	r3, r3, #2
 1045              	.LVL122:
 1046 000e 314A     		ldr	r2, .L71+4
 1047              	.LVL123:
 1048 0010 9D58     		ldr	r5, [r3, r2]
 1049              	.LVL124:
1361:Generated_Source\PSoC4/capsense.c **** 
 1050              		.loc 1 1361 0
 1051 0012 0100     		movs	r1, r0
 1052 0014 3048     		ldr	r0, .L71+8
 1053              	.LVL125:
 1054 0016 FFF7FEFF 		bl	capsense_GetBitValue
 1055              	.LVL126:
1363:Generated_Source\PSoC4/capsense.c ****         {
 1056              		.loc 1 1363 0
 1057 001a 304B     		ldr	r3, .L71+12
 1058 001c 9D42     		cmp	r5, r3
 1059 001e 03D8     		bhi	.L69
1365:Generated_Source\PSoC4/capsense.c ****             counterResolution |= (uint32)(capsense_RESOLUTION_8_BITS);
 1060              		.loc 1 1365 0
 1061 0020 8540     		lsls	r5, r5, r0
 1062              	.LVL127:
1366:Generated_Source\PSoC4/capsense.c ****         }
 1063              		.loc 1 1366 0
 1064 0022 FF23     		movs	r3, #255
 1065 0024 1B04     		lsls	r3, r3, #16
 1066 0026 1D43     		orrs	r5, r3
 1067              	.LVL128:
 1068              	.L69:
1372:Generated_Source\PSoC4/capsense.c ****         capsense_SampleClk_Stop();
 1069              		.loc 1 1372 0
 1070 0028 FFF7FEFF 		bl	capsense_SenseClk_Stop
 1071              	.LVL129:
ARM GAS  C:\Users\puria\AppData\Local\Temp\ccYRkNAS.s 			page 51


1373:Generated_Source\PSoC4/capsense.c ****     #endif /* (0u != capsense_IS_M0S8PERI_BLOCK) */
 1072              		.loc 1 1373 0
 1073 002c FFF7FEFF 		bl	capsense_SampleClk_Stop
 1074              	.LVL130:
1377:Generated_Source\PSoC4/capsense.c ****         capsense_SenseClk_SetDividerValue((uint16)capsense_senseClkDividerVal[sensor]);
 1075              		.loc 1 1377 0
 1076 0030 2B4B     		ldr	r3, .L71+16
 1077 0032 185D     		ldrb	r0, [r3, r4]
 1078 0034 0138     		subs	r0, r0, #1
 1079 0036 80B2     		uxth	r0, r0
 1080 0038 0021     		movs	r1, #0
 1081 003a FFF7FEFF 		bl	capsense_SampleClk_SetFractionalDividerRegister
 1082              	.LVL131:
1378:Generated_Source\PSoC4/capsense.c ****     #else
 1083              		.loc 1 1378 0
 1084 003e 294B     		ldr	r3, .L71+20
 1085 0040 185D     		ldrb	r0, [r3, r4]
 1086 0042 0138     		subs	r0, r0, #1
 1087 0044 80B2     		uxth	r0, r0
 1088 0046 0021     		movs	r1, #0
 1089 0048 FFF7FEFF 		bl	capsense_SenseClk_SetFractionalDividerRegister
 1090              	.LVL132:
1385:Generated_Source\PSoC4/capsense.c ****         capsense_SenseClk_StartEx(capsense_SampleClk__DIV_ID);
 1091              		.loc 1 1385 0
 1092 004c FF20     		movs	r0, #255
 1093 004e FFF7FEFF 		bl	capsense_SampleClk_StartEx
 1094              	.LVL133:
1386:Generated_Source\PSoC4/capsense.c **** 
 1095              		.loc 1 1386 0
 1096 0052 4020     		movs	r0, #64
 1097 0054 FFF7FEFF 		bl	capsense_SenseClk_StartEx
 1098              	.LVL134:
1389:Generated_Source\PSoC4/capsense.c ****             capsense_CSD_CNT_REG = capsense_ONE_CYCLE;
 1099              		.loc 1 1389 0
 1100 0058 1020     		movs	r0, #16
 1101 005a FFF7FEFF 		bl	CyIntDisable
 1102              	.LVL135:
1390:Generated_Source\PSoC4/capsense.c ****             while(0u != (capsense_CSD_CNT_REG & capsense_RESOLUTION_16_BITS))
 1103              		.loc 1 1390 0
 1104 005e 8022     		movs	r2, #128
 1105 0060 5202     		lsls	r2, r2, #9
 1106 0062 214B     		ldr	r3, .L71+24
 1107 0064 1A60     		str	r2, [r3]
 1108              	.L70:
1391:Generated_Source\PSoC4/capsense.c ****             {
 1109              		.loc 1 1391 0 discriminator 1
 1110 0066 204B     		ldr	r3, .L71+24
 1111 0068 1B68     		ldr	r3, [r3]
 1112 006a 1B0C     		lsrs	r3, r3, #16
 1113 006c FBD1     		bne	.L70
1395:Generated_Source\PSoC4/capsense.c ****             CyIntClearPending(capsense_ISR_NUMBER);
 1114              		.loc 1 1395 0
 1115 006e 0122     		movs	r2, #1
 1116 0070 1E4B     		ldr	r3, .L71+28
 1117 0072 1A60     		str	r2, [r3]
1396:Generated_Source\PSoC4/capsense.c ****             CyIntEnable(capsense_ISR_NUMBER);
 1118              		.loc 1 1396 0
ARM GAS  C:\Users\puria\AppData\Local\Temp\ccYRkNAS.s 			page 52


 1119 0074 1020     		movs	r0, #16
 1120 0076 FFF7FEFF 		bl	CyIntClearPending
 1121              	.LVL136:
1397:Generated_Source\PSoC4/capsense.c ****         #endif /* capsense_PRS_OPTIONS == capsense__PRS_NONE */
 1122              		.loc 1 1397 0
 1123 007a 1020     		movs	r0, #16
 1124 007c FFF7FEFF 		bl	CyIntEnable
 1125              	.LVL137:
1447:Generated_Source\PSoC4/capsense.c ****     newRegValue = capsense_CSD_IDAC_REG;
 1126              		.loc 1 1447 0
 1127 0080 1020     		movs	r0, #16
 1128 0082 FFF7FEFF 		bl	CyIntDisable
 1129              	.LVL138:
1448:Generated_Source\PSoC4/capsense.c **** 
 1130              		.loc 1 1448 0
 1131 0086 1A48     		ldr	r0, .L71+32
 1132 0088 0168     		ldr	r1, [r0]
 1133              	.LVL139:
1454:Generated_Source\PSoC4/capsense.c ****     newRegValue |= (capsense_modulationIDAC[sensor] |
 1134              		.loc 1 1454 0
 1135 008a 1A4B     		ldr	r3, .L71+36
 1136 008c 1940     		ands	r1, r3
 1137              	.LVL140:
1455:Generated_Source\PSoC4/capsense.c ****                             (uint32)((uint32)capsense_compensationIDAC[sensor] <<
 1138              		.loc 1 1455 0
 1139 008e 1A4B     		ldr	r3, .L71+40
 1140 0090 1B5D     		ldrb	r3, [r3, r4]
1456:Generated_Source\PSoC4/capsense.c ****                             capsense_CSD_IDAC2_DATA_OFFSET));
 1141              		.loc 1 1456 0
 1142 0092 1A4A     		ldr	r2, .L71+44
 1143 0094 125D     		ldrb	r2, [r2, r4]
 1144 0096 1204     		lsls	r2, r2, #16
1455:Generated_Source\PSoC4/capsense.c ****                             (uint32)((uint32)capsense_compensationIDAC[sensor] <<
 1145              		.loc 1 1455 0
 1146 0098 1343     		orrs	r3, r2
 1147 009a 0B43     		orrs	r3, r1
 1148              	.LVL141:
1460:Generated_Source\PSoC4/capsense.c **** 
 1149              		.loc 1 1460 0
 1150 009c 0360     		str	r3, [r0]
1475:Generated_Source\PSoC4/capsense.c ****     newRegValue &= ~(capsense_PRECHARGE_CONFIG_MASK);
 1151              		.loc 1 1475 0
 1152 009e 184F     		ldr	r7, .L71+48
 1153 00a0 3E68     		ldr	r6, [r7]
 1154              	.LVL142:
1476:Generated_Source\PSoC4/capsense.c ****     newRegValue |= capsense_CTANK_PRECHARGE_CONFIG;
 1155              		.loc 1 1476 0
 1156 00a2 184B     		ldr	r3, .L71+52
 1157 00a4 1E40     		ands	r6, r3
 1158              	.LVL143:
1477:Generated_Source\PSoC4/capsense.c **** 
 1159              		.loc 1 1477 0
 1160 00a6 184B     		ldr	r3, .L71+56
 1161 00a8 1E43     		orrs	r6, r3
 1162              	.LVL144:
1479:Generated_Source\PSoC4/capsense.c **** 
 1163              		.loc 1 1479 0
ARM GAS  C:\Users\puria\AppData\Local\Temp\ccYRkNAS.s 			page 53


 1164 00aa 1020     		movs	r0, #16
 1165 00ac FFF7FEFF 		bl	CyIntEnable
 1166              	.LVL145:
1482:Generated_Source\PSoC4/capsense.c **** 
 1167              		.loc 1 1482 0
 1168 00b0 2000     		movs	r0, r4
 1169 00b2 FFF7FEFF 		bl	capsense_EnableSensor
 1170              	.LVL146:
1484:Generated_Source\PSoC4/capsense.c ****     capsense_CSD_CFG_REG = newRegValue;
 1171              		.loc 1 1484 0
 1172 00b6 FFF7FEFF 		bl	CyEnterCriticalSection
 1173              	.LVL147:
 1174 00ba 0400     		movs	r4, r0
 1175              	.LVL148:
1485:Generated_Source\PSoC4/capsense.c **** 
 1176              		.loc 1 1485 0
 1177 00bc 3E60     		str	r6, [r7]
1495:Generated_Source\PSoC4/capsense.c **** 
 1178              		.loc 1 1495 0
 1179 00be 0020     		movs	r0, #0
 1180 00c0 FFF7FEFF 		bl	CyDelayCycles
 1181              	.LVL149:
1505:Generated_Source\PSoC4/capsense.c ****     CyExitCriticalSection(interruptState);
 1182              		.loc 1 1505 0
 1183 00c4 084B     		ldr	r3, .L71+24
 1184 00c6 1D60     		str	r5, [r3]
1506:Generated_Source\PSoC4/capsense.c **** }
 1185              		.loc 1 1506 0
 1186 00c8 2000     		movs	r0, r4
 1187 00ca FFF7FEFF 		bl	CyExitCriticalSection
 1188              	.LVL150:
1507:Generated_Source\PSoC4/capsense.c **** 
 1189              		.loc 1 1507 0
 1190              		@ sp needed
 1191              	.LVL151:
 1192              	.LVL152:
 1193              	.LVL153:
 1194 00ce F8BD     		pop	{r3, r4, r5, r6, r7, pc}
 1195              	.L72:
 1196              		.align	2
 1197              	.L71:
 1198 00d0 00000000 		.word	.LANCHOR2
 1199 00d4 00000000 		.word	.LANCHOR1
 1200 00d8 00000000 		.word	capsense_scanSpeedTbl
 1201 00dc FFFFFEFF 		.word	-65537
 1202 00e0 00000000 		.word	capsense_sampleClkDividerVal
 1203 00e4 00000000 		.word	capsense_senseClkDividerVal
 1204 00e8 0C002840 		.word	1076363276
 1205 00ec 14002840 		.word	1076363284
 1206 00f0 08002840 		.word	1076363272
 1207 00f4 00FF80FF 		.word	-8323328
 1208 00f8 00000000 		.word	capsense_modulationIDAC
 1209 00fc 00000000 		.word	capsense_compensationIDAC
 1210 0100 04002840 		.word	1076363268
 1211 0104 FF1FDFFF 		.word	-2154497
 1212 0108 20E02000 		.word	2154528
 1213              		.cfi_endproc
ARM GAS  C:\Users\puria\AppData\Local\Temp\ccYRkNAS.s 			page 54


 1214              	.LFE54:
 1215              		.size	capsense_PreScan, .-capsense_PreScan
 1216              		.section	.text.capsense_ScanSensor,"ax",%progbits
 1217              		.align	2
 1218              		.global	capsense_ScanSensor
 1219              		.code	16
 1220              		.thumb_func
 1221              		.type	capsense_ScanSensor, %function
 1222              	capsense_ScanSensor:
 1223              	.LFB40:
 555:Generated_Source\PSoC4/capsense.c ****     /* Clears status/control variable and set sensorIndex */
 1224              		.loc 1 555 0
 1225              		.cfi_startproc
 1226              		@ args = 0, pretend = 0, frame = 0
 1227              		@ frame_needed = 0, uses_anonymous_args = 0
 1228              	.LVL154:
 1229 0000 10B5     		push	{r4, lr}
 1230              		.cfi_def_cfa_offset 8
 1231              		.cfi_offset 4, -8
 1232              		.cfi_offset 14, -4
 557:Generated_Source\PSoC4/capsense.c ****     capsense_sensorIndex = (uint8)sensor;
 1233              		.loc 1 557 0
 1234 0002 054B     		ldr	r3, .L74
 1235 0004 0022     		movs	r2, #0
 1236 0006 1A70     		strb	r2, [r3]
 558:Generated_Source\PSoC4/capsense.c **** 
 1237              		.loc 1 558 0
 1238 0008 C2B2     		uxtb	r2, r0
 1239 000a 9A73     		strb	r2, [r3, #14]
 561:Generated_Source\PSoC4/capsense.c ****     capsense_PreScan(sensor);
 1240              		.loc 1 561 0
 1241 000c 8122     		movs	r2, #129
 1242 000e 1A70     		strb	r2, [r3]
 562:Generated_Source\PSoC4/capsense.c **** }
 1243              		.loc 1 562 0
 1244 0010 FFF7FEFF 		bl	capsense_PreScan
 1245              	.LVL155:
 563:Generated_Source\PSoC4/capsense.c **** 
 1246              		.loc 1 563 0
 1247              		@ sp needed
 1248 0014 10BD     		pop	{r4, pc}
 1249              	.L75:
 1250 0016 C046     		.align	2
 1251              	.L74:
 1252 0018 00000000 		.word	.LANCHOR0
 1253              		.cfi_endproc
 1254              	.LFE40:
 1255              		.size	capsense_ScanSensor, .-capsense_ScanSensor
 1256              		.section	.text.capsense_ScanEnabledWidgets,"ax",%progbits
 1257              		.align	2
 1258              		.global	capsense_ScanEnabledWidgets
 1259              		.code	16
 1260              		.thumb_func
 1261              		.type	capsense_ScanEnabledWidgets, %function
 1262              	capsense_ScanEnabledWidgets:
 1263              	.LFB42:
 679:Generated_Source\PSoC4/capsense.c ****     /* Clears status/control variable and set sensorIndex */
ARM GAS  C:\Users\puria\AppData\Local\Temp\ccYRkNAS.s 			page 55


 1264              		.loc 1 679 0
 1265              		.cfi_startproc
 1266              		@ args = 0, pretend = 0, frame = 0
 1267              		@ frame_needed = 0, uses_anonymous_args = 0
 1268 0000 10B5     		push	{r4, lr}
 1269              		.cfi_def_cfa_offset 8
 1270              		.cfi_offset 4, -8
 1271              		.cfi_offset 14, -4
 681:Generated_Source\PSoC4/capsense.c ****     capsense_sensorIndex = 0xFFu;
 1272              		.loc 1 681 0
 1273 0002 0C4C     		ldr	r4, .L78
 1274 0004 0023     		movs	r3, #0
 1275 0006 2370     		strb	r3, [r4]
 682:Generated_Source\PSoC4/capsense.c **** 
 1276              		.loc 1 682 0
 1277 0008 FF33     		adds	r3, r3, #255
 1278 000a A373     		strb	r3, [r4, #14]
 685:Generated_Source\PSoC4/capsense.c **** 
 1279              		.loc 1 685 0
 1280 000c A07B     		ldrb	r0, [r4, #14]
 1281 000e C0B2     		uxtb	r0, r0
 1282 0010 FFF7FEFF 		bl	capsense_FindNextSensor
 1283              	.LVL156:
 1284 0014 A073     		strb	r0, [r4, #14]
 688:Generated_Source\PSoC4/capsense.c ****     {
 1285              		.loc 1 688 0
 1286 0016 A37B     		ldrb	r3, [r4, #14]
 1287 0018 DBB2     		uxtb	r3, r3
 1288 001a 042B     		cmp	r3, #4
 1289 001c 08D8     		bhi	.L76
 690:Generated_Source\PSoC4/capsense.c ****         capsense_PreScan((uint32)capsense_sensorIndex);
 1290              		.loc 1 690 0
 1291 001e 2178     		ldrb	r1, [r4]
 1292 0020 0123     		movs	r3, #1
 1293 0022 0B43     		orrs	r3, r1
 1294 0024 DBB2     		uxtb	r3, r3
 1295 0026 2370     		strb	r3, [r4]
 691:Generated_Source\PSoC4/capsense.c ****     }
 1296              		.loc 1 691 0
 1297 0028 A07B     		ldrb	r0, [r4, #14]
 1298 002a C0B2     		uxtb	r0, r0
 1299 002c FFF7FEFF 		bl	capsense_PreScan
 1300              	.LVL157:
 1301              	.L76:
 693:Generated_Source\PSoC4/capsense.c **** 
 1302              		.loc 1 693 0
 1303              		@ sp needed
 1304 0030 10BD     		pop	{r4, pc}
 1305              	.L79:
 1306 0032 C046     		.align	2
 1307              	.L78:
 1308 0034 00000000 		.word	.LANCHOR0
 1309              		.cfi_endproc
 1310              	.LFE42:
 1311              		.size	capsense_ScanEnabledWidgets, .-capsense_ScanEnabledWidgets
 1312              		.section	.text.capsense_PostScan,"ax",%progbits
 1313              		.align	2
ARM GAS  C:\Users\puria\AppData\Local\Temp\ccYRkNAS.s 			page 56


 1314              		.global	capsense_PostScan
 1315              		.code	16
 1316              		.thumb_func
 1317              		.type	capsense_PostScan, %function
 1318              	capsense_PostScan:
 1319              	.LFB55:
1533:Generated_Source\PSoC4/capsense.c ****     uint32 newRegValue;
 1320              		.loc 1 1533 0
 1321              		.cfi_startproc
 1322              		@ args = 0, pretend = 0, frame = 0
 1323              		@ frame_needed = 0, uses_anonymous_args = 0
 1324              	.LVL158:
 1325 0000 70B5     		push	{r4, r5, r6, lr}
 1326              		.cfi_def_cfa_offset 16
 1327              		.cfi_offset 4, -16
 1328              		.cfi_offset 5, -12
 1329              		.cfi_offset 6, -8
 1330              		.cfi_offset 14, -4
 1331 0002 0500     		movs	r5, r0
1551:Generated_Source\PSoC4/capsense.c **** 
 1332              		.loc 1 1551 0
 1333 0004 184B     		ldr	r3, .L82
 1334 0006 1C68     		ldr	r4, [r3]
 1335 0008 A4B2     		uxth	r4, r4
 1336 000a 4300     		lsls	r3, r0, #1
 1337 000c 174A     		ldr	r2, .L82+4
 1338 000e D318     		adds	r3, r2, r3
 1339 0010 9C80     		strh	r4, [r3, #4]
1555:Generated_Source\PSoC4/capsense.c ****     if(capsense_widgetResolution[widget] < capsense_RESOLUTION_16_BITS)
 1340              		.loc 1 1555 0
 1341 0012 174B     		ldr	r3, .L82+8
 1342 0014 1B18     		adds	r3, r3, r0
 1343 0016 6422     		movs	r2, #100
 1344 0018 9B5C     		ldrb	r3, [r3, r2]
 1345              	.LVL159:
1556:Generated_Source\PSoC4/capsense.c ****     {
 1346              		.loc 1 1556 0
 1347 001a 9B00     		lsls	r3, r3, #2
 1348              	.LVL160:
 1349 001c 154A     		ldr	r2, .L82+12
 1350              	.LVL161:
 1351 001e 9A58     		ldr	r2, [r3, r2]
 1352 0020 154B     		ldr	r3, .L82+16
 1353 0022 9A42     		cmp	r2, r3
 1354 0024 08D8     		bhi	.L81
1558:Generated_Source\PSoC4/capsense.c ****         capsense_sensorRaw[sensor] >>= oversamplingFactor;
 1355              		.loc 1 1558 0
 1356 0026 0100     		movs	r1, r0
 1357 0028 1448     		ldr	r0, .L82+20
 1358              	.LVL162:
 1359 002a FFF7FEFF 		bl	capsense_GetBitValue
 1360              	.LVL163:
1559:Generated_Source\PSoC4/capsense.c ****     }
 1361              		.loc 1 1559 0
 1362 002e 6B00     		lsls	r3, r5, #1
 1363 0030 0E4A     		ldr	r2, .L82+4
 1364 0032 D318     		adds	r3, r2, r3
ARM GAS  C:\Users\puria\AppData\Local\Temp\ccYRkNAS.s 			page 57


 1365 0034 0441     		asrs	r4, r4, r0
 1366 0036 9C80     		strh	r4, [r3, #4]
 1367              	.LVL164:
 1368              	.L81:
1565:Generated_Source\PSoC4/capsense.c **** 
 1369              		.loc 1 1565 0
 1370 0038 2800     		movs	r0, r5
 1371 003a FFF7FEFF 		bl	capsense_DisableSensor
 1372              	.LVL165:
1567:Generated_Source\PSoC4/capsense.c **** 
 1373              		.loc 1 1567 0
 1374 003e 1020     		movs	r0, #16
 1375 0040 FFF7FEFF 		bl	CyIntDisable
 1376              	.LVL166:
1587:Generated_Source\PSoC4/capsense.c ****     newRegValue &= ~(capsense_PRECHARGE_CONFIG_MASK);
 1377              		.loc 1 1587 0
 1378 0044 0E4A     		ldr	r2, .L82+24
 1379 0046 1168     		ldr	r1, [r2]
 1380              	.LVL167:
1588:Generated_Source\PSoC4/capsense.c ****     newRegValue |= capsense_CMOD_PRECHARGE_CONFIG;
 1381              		.loc 1 1588 0
 1382 0048 0E4B     		ldr	r3, .L82+28
 1383 004a 0B40     		ands	r3, r1
 1384              	.LVL168:
1589:Generated_Source\PSoC4/capsense.c ****     capsense_CSD_CFG_REG = newRegValue;
 1385              		.loc 1 1589 0
 1386 004c A021     		movs	r1, #160
 1387 004e 0902     		lsls	r1, r1, #8
 1388 0050 0B43     		orrs	r3, r1
 1389              	.LVL169:
1590:Generated_Source\PSoC4/capsense.c **** 
 1390              		.loc 1 1590 0
 1391 0052 1360     		str	r3, [r2]
1596:Generated_Source\PSoC4/capsense.c **** #endif /* (capsense_IDAC_CNT == 1u) */
 1392              		.loc 1 1596 0
 1393 0054 0C4A     		ldr	r2, .L82+32
 1394 0056 1168     		ldr	r1, [r2]
 1395 0058 0C4B     		ldr	r3, .L82+36
 1396              	.LVL170:
 1397 005a 0B40     		ands	r3, r1
 1398 005c 1360     		str	r3, [r2]
 1399              	.LVL171:
1599:Generated_Source\PSoC4/capsense.c **** }
 1400              		.loc 1 1599 0
 1401 005e 1020     		movs	r0, #16
 1402 0060 FFF7FEFF 		bl	CyIntEnable
 1403              	.LVL172:
1600:Generated_Source\PSoC4/capsense.c **** 
 1404              		.loc 1 1600 0
 1405              		@ sp needed
 1406              	.LVL173:
 1407 0064 70BD     		pop	{r4, r5, r6, pc}
 1408              	.L83:
 1409 0066 C046     		.align	2
 1410              	.L82:
 1411 0068 0C002840 		.word	1076363276
 1412 006c 00000000 		.word	.LANCHOR0
ARM GAS  C:\Users\puria\AppData\Local\Temp\ccYRkNAS.s 			page 58


 1413 0070 00000000 		.word	.LANCHOR2
 1414 0074 00000000 		.word	.LANCHOR1
 1415 0078 FFFFFEFF 		.word	-65537
 1416 007c 00000000 		.word	capsense_scanSpeedTbl
 1417 0080 04002840 		.word	1076363268
 1418 0084 FF1FDFFF 		.word	-2154497
 1419 0088 08002840 		.word	1076363272
 1420 008c 00FF80FF 		.word	-8323328
 1421              		.cfi_endproc
 1422              	.LFE55:
 1423              		.size	capsense_PostScan, .-capsense_PostScan
 1424              		.section	.text.capsense_SetBitValue,"ax",%progbits
 1425              		.align	2
 1426              		.global	capsense_SetBitValue
 1427              		.code	16
 1428              		.thumb_func
 1429              		.type	capsense_SetBitValue, %function
 1430              	capsense_SetBitValue:
 1431              	.LFB60:
1743:Generated_Source\PSoC4/capsense.c **** 
1744:Generated_Source\PSoC4/capsense.c **** 
1745:Generated_Source\PSoC4/capsense.c **** /*******************************************************************************
1746:Generated_Source\PSoC4/capsense.c **** * Function Name: capsense_SetBitValue
1747:Generated_Source\PSoC4/capsense.c **** ********************************************************************************
1748:Generated_Source\PSoC4/capsense.c **** *
1749:Generated_Source\PSoC4/capsense.c **** * Summary:
1750:Generated_Source\PSoC4/capsense.c **** *  The API sets a bit status of the bit in the table array which contains masks.
1751:Generated_Source\PSoC4/capsense.c **** *
1752:Generated_Source\PSoC4/capsense.c **** * Parameters:
1753:Generated_Source\PSoC4/capsense.c **** *  table[] - array with bit masks.
1754:Generated_Source\PSoC4/capsense.c **** *  position - position of bit in the table[] array.
1755:Generated_Source\PSoC4/capsense.c **** *  value: 0 - bit is not set; 1 - bit is set.
1756:Generated_Source\PSoC4/capsense.c **** *
1757:Generated_Source\PSoC4/capsense.c **** * Return:
1758:Generated_Source\PSoC4/capsense.c **** *  None
1759:Generated_Source\PSoC4/capsense.c **** *
1760:Generated_Source\PSoC4/capsense.c **** * Global Variables:
1761:Generated_Source\PSoC4/capsense.c **** *  None
1762:Generated_Source\PSoC4/capsense.c **** *
1763:Generated_Source\PSoC4/capsense.c **** * Side Effects:
1764:Generated_Source\PSoC4/capsense.c **** *  None
1765:Generated_Source\PSoC4/capsense.c **** *
1766:Generated_Source\PSoC4/capsense.c **** *******************************************************************************/
1767:Generated_Source\PSoC4/capsense.c **** void capsense_SetBitValue(uint8 table[], uint32 position, uint32 value)
1768:Generated_Source\PSoC4/capsense.c **** {
 1432              		.loc 1 1768 0
 1433              		.cfi_startproc
 1434              		@ args = 0, pretend = 0, frame = 0
 1435              		@ frame_needed = 0, uses_anonymous_args = 0
 1436              	.LVL174:
 1437 0000 10B5     		push	{r4, lr}
 1438              		.cfi_def_cfa_offset 8
 1439              		.cfi_offset 4, -8
 1440              		.cfi_offset 14, -4
1769:Generated_Source\PSoC4/capsense.c ****     uint32 offset;
1770:Generated_Source\PSoC4/capsense.c ****     uint8 enMask;
1771:Generated_Source\PSoC4/capsense.c **** 
ARM GAS  C:\Users\puria\AppData\Local\Temp\ccYRkNAS.s 			page 59


1772:Generated_Source\PSoC4/capsense.c ****     /* position is divided by 8 to calculate the element of the
1773:Generated_Source\PSoC4/capsense.c ****        table[] array that contains the enable bit
1774:Generated_Source\PSoC4/capsense.c ****        for an appropriate sensor.
1775:Generated_Source\PSoC4/capsense.c ****     */
1776:Generated_Source\PSoC4/capsense.c ****     offset = (position >> 3u);
 1441              		.loc 1 1776 0
 1442 0002 CC08     		lsrs	r4, r1, #3
 1443              	.LVL175:
1777:Generated_Source\PSoC4/capsense.c **** 
1778:Generated_Source\PSoC4/capsense.c ****     /* The enMask calculation for the appropriate sensor. Operation (position & 0x07u)
1779:Generated_Source\PSoC4/capsense.c ****        intends to calculate the enable bit offset for the 8-bit element of the
1780:Generated_Source\PSoC4/capsense.c ****        table[] array.
1781:Generated_Source\PSoC4/capsense.c ****     */
1782:Generated_Source\PSoC4/capsense.c ****     enMask = 0x01u << (position & 0x07u);
 1444              		.loc 1 1782 0
 1445 0004 0723     		movs	r3, #7
 1446 0006 1940     		ands	r1, r3
 1447              	.LVL176:
 1448 0008 063B     		subs	r3, r3, #6
 1449 000a 8B40     		lsls	r3, r3, r1
 1450 000c DBB2     		uxtb	r3, r3
 1451              	.LVL177:
1783:Generated_Source\PSoC4/capsense.c **** 
1784:Generated_Source\PSoC4/capsense.c ****     if(0u != value)
 1452              		.loc 1 1784 0
 1453 000e 002A     		cmp	r2, #0
 1454 0010 04D0     		beq	.L85
1785:Generated_Source\PSoC4/capsense.c ****     {
1786:Generated_Source\PSoC4/capsense.c ****         table[offset] |= enMask;
 1455              		.loc 1 1786 0
 1456 0012 0419     		adds	r4, r0, r4
 1457              	.LVL178:
 1458 0014 2278     		ldrb	r2, [r4]
 1459              	.LVL179:
 1460 0016 1343     		orrs	r3, r2
 1461              	.LVL180:
 1462 0018 2370     		strb	r3, [r4]
 1463 001a 03E0     		b	.L84
 1464              	.LVL181:
 1465              	.L85:
1787:Generated_Source\PSoC4/capsense.c ****     }
1788:Generated_Source\PSoC4/capsense.c ****     else
1789:Generated_Source\PSoC4/capsense.c ****     {
1790:Generated_Source\PSoC4/capsense.c ****         table[offset] &= (uint8)~(enMask);
 1466              		.loc 1 1790 0
 1467 001c 0419     		adds	r4, r0, r4
 1468              	.LVL182:
 1469 001e 2278     		ldrb	r2, [r4]
 1470              	.LVL183:
 1471 0020 9A43     		bics	r2, r3
 1472 0022 2270     		strb	r2, [r4]
 1473              	.LVL184:
 1474              	.L84:
1791:Generated_Source\PSoC4/capsense.c ****     }
1792:Generated_Source\PSoC4/capsense.c **** }
 1475              		.loc 1 1792 0
 1476              		@ sp needed
ARM GAS  C:\Users\puria\AppData\Local\Temp\ccYRkNAS.s 			page 60


 1477 0024 10BD     		pop	{r4, pc}
 1478              		.cfi_endproc
 1479              	.LFE60:
 1480              		.size	capsense_SetBitValue, .-capsense_SetBitValue
 1481 0026 C046     		.section	.text.capsense_ScanWidget,"ax",%progbits
 1482              		.align	2
 1483              		.global	capsense_ScanWidget
 1484              		.code	16
 1485              		.thumb_func
 1486              		.type	capsense_ScanWidget, %function
 1487              	capsense_ScanWidget:
 1488              	.LFB41:
 594:Generated_Source\PSoC4/capsense.c ****     uint32 sensorsPerWidget;
 1489              		.loc 1 594 0
 1490              		.cfi_startproc
 1491              		@ args = 0, pretend = 0, frame = 0
 1492              		@ frame_needed = 0, uses_anonymous_args = 0
 1493              	.LVL185:
 1494 0000 70B5     		push	{r4, r5, r6, lr}
 1495              		.cfi_def_cfa_offset 16
 1496              		.cfi_offset 4, -16
 1497              		.cfi_offset 5, -12
 1498              		.cfi_offset 6, -8
 1499              		.cfi_offset 14, -4
 600:Generated_Source\PSoC4/capsense.c **** 
 1500              		.loc 1 600 0
 1501 0002 1D4B     		ldr	r3, .L97
 1502 0004 1B5C     		ldrb	r3, [r3, r0]
 1503 0006 1D4A     		ldr	r2, .L97+4
 1504 0008 9373     		strb	r3, [r2, #14]
 603:Generated_Source\PSoC4/capsense.c **** 
 1505              		.loc 1 603 0
 1506 000a 1D4A     		ldr	r2, .L97+8
 1507 000c 155C     		ldrb	r5, [r2, r0]
 1508              	.LVL186:
 606:Generated_Source\PSoC4/capsense.c ****     {
 1509              		.loc 1 606 0
 1510 000e 002D     		cmp	r5, #0
 1511 0010 00D1     		bne	.L88
 608:Generated_Source\PSoC4/capsense.c ****     }
 1512              		.loc 1 608 0
 1513 0012 0135     		adds	r5, r5, #1
 1514              	.LVL187:
 1515              	.L88:
 612:Generated_Source\PSoC4/capsense.c **** 
 1516              		.loc 1 612 0
 1517 0014 5D19     		adds	r5, r3, r5
 1518              	.LVL188:
 1519 0016 013D     		subs	r5, r5, #1
 1520              	.LVL189:
 615:Generated_Source\PSoC4/capsense.c ****     {
 1521              		.loc 1 615 0
 1522 0018 0023     		movs	r3, #0
 1523 001a 05E0     		b	.L89
 1524              	.LVL190:
 1525              	.L90:
 618:Generated_Source\PSoC4/capsense.c ****     }
ARM GAS  C:\Users\puria\AppData\Local\Temp\ccYRkNAS.s 			page 61


 1526              		.loc 1 618 0 discriminator 3
 1527 001c 194A     		ldr	r2, .L97+12
 1528 001e D218     		adds	r2, r2, r3
 1529 0020 1179     		ldrb	r1, [r2, #4]
 1530 0022 194A     		ldr	r2, .L97+16
 1531 0024 D154     		strb	r1, [r2, r3]
 615:Generated_Source\PSoC4/capsense.c ****     {
 1532              		.loc 1 615 0 discriminator 3
 1533 0026 0133     		adds	r3, r3, #1
 1534              	.LVL191:
 1535              	.L89:
 615:Generated_Source\PSoC4/capsense.c ****     {
 1536              		.loc 1 615 0 is_stmt 0 discriminator 1
 1537 0028 002B     		cmp	r3, #0
 1538 002a F7D0     		beq	.L90
 1539 002c 0024     		movs	r4, #0
 1540 002e 14E0     		b	.L91
 1541              	.LVL192:
 1542              	.L94:
 625:Generated_Source\PSoC4/capsense.c ****         {
 1543              		.loc 1 625 0 is_stmt 1
 1544 0030 124B     		ldr	r3, .L97+4
 1545 0032 9B7B     		ldrb	r3, [r3, #14]
 1546 0034 DBB2     		uxtb	r3, r3
 1547 0036 9C42     		cmp	r4, r3
 1548 0038 08D3     		bcc	.L92
 625:Generated_Source\PSoC4/capsense.c ****         {
 1549              		.loc 1 625 0 is_stmt 0 discriminator 1
 1550 003a AC42     		cmp	r4, r5
 1551 003c 06D8     		bhi	.L92
 628:Generated_Source\PSoC4/capsense.c ****         }
 1552              		.loc 1 628 0 is_stmt 1
 1553 003e 0122     		movs	r2, #1
 1554 0040 2100     		movs	r1, r4
 1555 0042 1048     		ldr	r0, .L97+12
 1556 0044 0430     		adds	r0, r0, #4
 1557 0046 FFF7FEFF 		bl	capsense_SetBitValue
 1558              	.LVL193:
 1559 004a 05E0     		b	.L93
 1560              	.L92:
 633:Generated_Source\PSoC4/capsense.c ****         }
 1561              		.loc 1 633 0
 1562 004c 0022     		movs	r2, #0
 1563 004e 2100     		movs	r1, r4
 1564 0050 0C48     		ldr	r0, .L97+12
 1565 0052 0430     		adds	r0, r0, #4
 1566 0054 FFF7FEFF 		bl	capsense_SetBitValue
 1567              	.LVL194:
 1568              	.L93:
 622:Generated_Source\PSoC4/capsense.c ****     {
 1569              		.loc 1 622 0 discriminator 2
 1570 0058 0134     		adds	r4, r4, #1
 1571              	.LVL195:
 1572              	.L91:
 622:Generated_Source\PSoC4/capsense.c ****     {
 1573              		.loc 1 622 0 is_stmt 0 discriminator 1
 1574 005a 042C     		cmp	r4, #4
ARM GAS  C:\Users\puria\AppData\Local\Temp\ccYRkNAS.s 			page 62


 1575 005c E8D9     		bls	.L94
 638:Generated_Source\PSoC4/capsense.c ****     {
 1576              		.loc 1 638 0 is_stmt 1
 1577 005e 074B     		ldr	r3, .L97+4
 1578 0060 9B7B     		ldrb	r3, [r3, #14]
 1579 0062 DBB2     		uxtb	r3, r3
 1580 0064 042B     		cmp	r3, #4
 1581 0066 06D8     		bhi	.L87
 641:Generated_Source\PSoC4/capsense.c ****         /* Scan first sensor of widget*/
 1582              		.loc 1 641 0
 1583 0068 044B     		ldr	r3, .L97+4
 1584 006a 4122     		movs	r2, #65
 1585 006c 1A70     		strb	r2, [r3]
 643:Generated_Source\PSoC4/capsense.c ****     }
 1586              		.loc 1 643 0
 1587 006e 987B     		ldrb	r0, [r3, #14]
 1588 0070 C0B2     		uxtb	r0, r0
 1589 0072 FFF7FEFF 		bl	capsense_PreScan
 1590              	.LVL196:
 1591              	.L87:
 645:Generated_Source\PSoC4/capsense.c **** #endif /* (0u != capsense_CSHL_API_GENERATE) */
 1592              		.loc 1 645 0
 1593              		@ sp needed
 1594              	.LVL197:
 1595              	.LVL198:
 1596 0076 70BD     		pop	{r4, r5, r6, pc}
 1597              	.L98:
 1598              		.align	2
 1599              	.L97:
 1600 0078 00000000 		.word	capsense_rawDataIndex
 1601 007c 00000000 		.word	.LANCHOR0
 1602 0080 00000000 		.word	capsense_numberOfSensors
 1603 0084 00000000 		.word	.LANCHOR1
 1604 0088 00000000 		.word	capsense_sensorEnableMaskBackup
 1605              		.cfi_endproc
 1606              	.LFE41:
 1607              		.size	capsense_ScanWidget, .-capsense_ScanWidget
 1608              		.section	.text.capsense_GetSenseClkDivider,"ax",%progbits
 1609              		.align	2
 1610              		.global	capsense_GetSenseClkDivider
 1611              		.code	16
 1612              		.thumb_func
 1613              		.type	capsense_GetSenseClkDivider, %function
 1614              	capsense_GetSenseClkDivider:
 1615              	.LFB61:
1793:Generated_Source\PSoC4/capsense.c **** 
1794:Generated_Source\PSoC4/capsense.c **** 
1795:Generated_Source\PSoC4/capsense.c **** 
1796:Generated_Source\PSoC4/capsense.c **** /*******************************************************************************
1797:Generated_Source\PSoC4/capsense.c **** * Function Name: capsense_GetSenseClkDivider
1798:Generated_Source\PSoC4/capsense.c **** ********************************************************************************
1799:Generated_Source\PSoC4/capsense.c **** *
1800:Generated_Source\PSoC4/capsense.c **** * Summary:
1801:Generated_Source\PSoC4/capsense.c **** *  This API returns a value of the sense clock divider for the  sensor.
1802:Generated_Source\PSoC4/capsense.c **** *
1803:Generated_Source\PSoC4/capsense.c **** * Parameters:
1804:Generated_Source\PSoC4/capsense.c **** *  sensor: sensor index. The index value can be
ARM GAS  C:\Users\puria\AppData\Local\Temp\ccYRkNAS.s 			page 63


1805:Generated_Source\PSoC4/capsense.c **** *  from 0 to (capsense_TOTAL_SENSOR_COUNT-1).
1806:Generated_Source\PSoC4/capsense.c **** *
1807:Generated_Source\PSoC4/capsense.c **** * Return:
1808:Generated_Source\PSoC4/capsense.c **** *  This API returns the sense clock divider of the sensor.
1809:Generated_Source\PSoC4/capsense.c **** *
1810:Generated_Source\PSoC4/capsense.c **** * Global Variables:
1811:Generated_Source\PSoC4/capsense.c **** *  capsense_senseClkDividerVal[] - stores the sense clock divider values.
1812:Generated_Source\PSoC4/capsense.c **** *
1813:Generated_Source\PSoC4/capsense.c **** * Side Effects:
1814:Generated_Source\PSoC4/capsense.c **** *  None
1815:Generated_Source\PSoC4/capsense.c **** *
1816:Generated_Source\PSoC4/capsense.c **** *******************************************************************************/
1817:Generated_Source\PSoC4/capsense.c **** uint32 capsense_GetSenseClkDivider(uint32 sensor)
1818:Generated_Source\PSoC4/capsense.c **** {
 1616              		.loc 1 1818 0
 1617              		.cfi_startproc
 1618              		@ args = 0, pretend = 0, frame = 0
 1619              		@ frame_needed = 0, uses_anonymous_args = 0
 1620              		@ link register save eliminated.
 1621              	.LVL199:
1819:Generated_Source\PSoC4/capsense.c ****     #if(0u != capsense_MULTIPLE_FREQUENCY_SET)
1820:Generated_Source\PSoC4/capsense.c ****         return((uint32)capsense_senseClkDividerVal[sensor]);
 1622              		.loc 1 1820 0
 1623 0000 014B     		ldr	r3, .L100
 1624 0002 185C     		ldrb	r0, [r3, r0]
 1625              	.LVL200:
1821:Generated_Source\PSoC4/capsense.c ****     #else
1822:Generated_Source\PSoC4/capsense.c ****         return((uint32)capsense_senseClkDividerVal);
1823:Generated_Source\PSoC4/capsense.c ****     #endif /* (0u != capsense_MULTIPLE_FREQUENCY_SET) */
1824:Generated_Source\PSoC4/capsense.c **** }
 1626              		.loc 1 1824 0
 1627              		@ sp needed
 1628 0004 7047     		bx	lr
 1629              	.L101:
 1630 0006 C046     		.align	2
 1631              	.L100:
 1632 0008 00000000 		.word	capsense_senseClkDividerVal
 1633              		.cfi_endproc
 1634              	.LFE61:
 1635              		.size	capsense_GetSenseClkDivider, .-capsense_GetSenseClkDivider
 1636              		.section	.text.capsense_SetSenseClkDivider,"ax",%progbits
 1637              		.align	2
 1638              		.global	capsense_SetSenseClkDivider
 1639              		.code	16
 1640              		.thumb_func
 1641              		.type	capsense_SetSenseClkDivider, %function
 1642              	capsense_SetSenseClkDivider:
 1643              	.LFB62:
1825:Generated_Source\PSoC4/capsense.c **** 
1826:Generated_Source\PSoC4/capsense.c **** #if (capsense_TUNING_METHOD != capsense__TUNING_NONE)
1827:Generated_Source\PSoC4/capsense.c ****     /*******************************************************************************
1828:Generated_Source\PSoC4/capsense.c ****     * Function Name: capsense_SetSenseClkDivider
1829:Generated_Source\PSoC4/capsense.c ****     ********************************************************************************
1830:Generated_Source\PSoC4/capsense.c ****     *
1831:Generated_Source\PSoC4/capsense.c ****     * Summary:
1832:Generated_Source\PSoC4/capsense.c ****     *  This API sets a value of the sense clock divider for the  sensor.
1833:Generated_Source\PSoC4/capsense.c ****     *
ARM GAS  C:\Users\puria\AppData\Local\Temp\ccYRkNAS.s 			page 64


1834:Generated_Source\PSoC4/capsense.c ****     * Parameters:
1835:Generated_Source\PSoC4/capsense.c ****     *  sensor:  Sensor index.
1836:Generated_Source\PSoC4/capsense.c ****     *  senseClk: represents the sense clock value.
1837:Generated_Source\PSoC4/capsense.c ****     *
1838:Generated_Source\PSoC4/capsense.c ****     * Return:
1839:Generated_Source\PSoC4/capsense.c ****     *  None.
1840:Generated_Source\PSoC4/capsense.c ****     *
1841:Generated_Source\PSoC4/capsense.c ****     * Global Variables:
1842:Generated_Source\PSoC4/capsense.c ****     *  capsense_senseClkDividerVal[] - stores the sense clock divider values.
1843:Generated_Source\PSoC4/capsense.c ****     *
1844:Generated_Source\PSoC4/capsense.c ****     * Side Effects:
1845:Generated_Source\PSoC4/capsense.c ****     *  None
1846:Generated_Source\PSoC4/capsense.c ****     *
1847:Generated_Source\PSoC4/capsense.c ****     *******************************************************************************/
1848:Generated_Source\PSoC4/capsense.c ****     void capsense_SetSenseClkDivider(uint32 sensor, uint32 senseClk)
1849:Generated_Source\PSoC4/capsense.c ****     {
 1644              		.loc 1 1849 0
 1645              		.cfi_startproc
 1646              		@ args = 0, pretend = 0, frame = 0
 1647              		@ frame_needed = 0, uses_anonymous_args = 0
 1648              		@ link register save eliminated.
 1649              	.LVL201:
1850:Generated_Source\PSoC4/capsense.c ****         #if(0u != capsense_MULTIPLE_FREQUENCY_SET)
1851:Generated_Source\PSoC4/capsense.c ****             capsense_senseClkDividerVal[sensor] = (uint8)senseClk;
 1650              		.loc 1 1851 0
 1651 0000 014B     		ldr	r3, .L103
 1652 0002 1954     		strb	r1, [r3, r0]
1852:Generated_Source\PSoC4/capsense.c ****         #else
1853:Generated_Source\PSoC4/capsense.c ****             capsense_senseClkDividerVal = (uint8)senseClk;
1854:Generated_Source\PSoC4/capsense.c ****         #endif /* (0u != capsense_MULTIPLE_FREQUENCY_SET) */
1855:Generated_Source\PSoC4/capsense.c ****     }
 1653              		.loc 1 1855 0
 1654              		@ sp needed
 1655 0004 7047     		bx	lr
 1656              	.L104:
 1657 0006 C046     		.align	2
 1658              	.L103:
 1659 0008 00000000 		.word	capsense_senseClkDividerVal
 1660              		.cfi_endproc
 1661              	.LFE62:
 1662              		.size	capsense_SetSenseClkDivider, .-capsense_SetSenseClkDivider
 1663              		.section	.text.capsense_GetModulatorClkDivider,"ax",%progbits
 1664              		.align	2
 1665              		.global	capsense_GetModulatorClkDivider
 1666              		.code	16
 1667              		.thumb_func
 1668              		.type	capsense_GetModulatorClkDivider, %function
 1669              	capsense_GetModulatorClkDivider:
 1670              	.LFB63:
1856:Generated_Source\PSoC4/capsense.c **** #endif /* (capsense_TUNING_METHOD != capsense__TUNING_NONE) */
1857:Generated_Source\PSoC4/capsense.c **** 
1858:Generated_Source\PSoC4/capsense.c **** 
1859:Generated_Source\PSoC4/capsense.c **** /*******************************************************************************
1860:Generated_Source\PSoC4/capsense.c **** * Function Name: capsense_GetModulatorClkDivider
1861:Generated_Source\PSoC4/capsense.c **** ********************************************************************************
1862:Generated_Source\PSoC4/capsense.c **** *
1863:Generated_Source\PSoC4/capsense.c **** * Summary:
ARM GAS  C:\Users\puria\AppData\Local\Temp\ccYRkNAS.s 			page 65


1864:Generated_Source\PSoC4/capsense.c **** *  This API returns a value of the modulator sample clock divider for the  sensor.
1865:Generated_Source\PSoC4/capsense.c **** *
1866:Generated_Source\PSoC4/capsense.c **** * Parameters:
1867:Generated_Source\PSoC4/capsense.c **** *  sensor: sensor index. The value of index can be
1868:Generated_Source\PSoC4/capsense.c **** *  from 0 to (capsense_TOTAL_SENSOR_COUNT-1).
1869:Generated_Source\PSoC4/capsense.c **** *
1870:Generated_Source\PSoC4/capsense.c **** * Return:
1871:Generated_Source\PSoC4/capsense.c **** *  This API returns the modulator sample clock divider for the  sensor.
1872:Generated_Source\PSoC4/capsense.c **** *
1873:Generated_Source\PSoC4/capsense.c **** * Global Variables:
1874:Generated_Source\PSoC4/capsense.c **** *  capsense_sampleClkDividerVal[] - stores the modulator sample divider values.
1875:Generated_Source\PSoC4/capsense.c **** *
1876:Generated_Source\PSoC4/capsense.c **** * Side Effects:
1877:Generated_Source\PSoC4/capsense.c **** *  None
1878:Generated_Source\PSoC4/capsense.c **** *
1879:Generated_Source\PSoC4/capsense.c **** *******************************************************************************/
1880:Generated_Source\PSoC4/capsense.c **** uint32 capsense_GetModulatorClkDivider(uint32 sensor)
1881:Generated_Source\PSoC4/capsense.c **** {
 1671              		.loc 1 1881 0
 1672              		.cfi_startproc
 1673              		@ args = 0, pretend = 0, frame = 0
 1674              		@ frame_needed = 0, uses_anonymous_args = 0
 1675              		@ link register save eliminated.
 1676              	.LVL202:
1882:Generated_Source\PSoC4/capsense.c ****     #if(0u != capsense_MULTIPLE_FREQUENCY_SET)
1883:Generated_Source\PSoC4/capsense.c ****         return((uint32)capsense_sampleClkDividerVal[sensor]);
 1677              		.loc 1 1883 0
 1678 0000 014B     		ldr	r3, .L106
 1679 0002 185C     		ldrb	r0, [r3, r0]
 1680              	.LVL203:
1884:Generated_Source\PSoC4/capsense.c ****     #else
1885:Generated_Source\PSoC4/capsense.c ****         return((uint32)capsense_sampleClkDividerVal);
1886:Generated_Source\PSoC4/capsense.c ****     #endif /* (0u != capsense_MULTIPLE_FREQUENCY_SET) */
1887:Generated_Source\PSoC4/capsense.c **** }
 1681              		.loc 1 1887 0
 1682              		@ sp needed
 1683 0004 7047     		bx	lr
 1684              	.L107:
 1685 0006 C046     		.align	2
 1686              	.L106:
 1687 0008 00000000 		.word	capsense_sampleClkDividerVal
 1688              		.cfi_endproc
 1689              	.LFE63:
 1690              		.size	capsense_GetModulatorClkDivider, .-capsense_GetModulatorClkDivider
 1691              		.section	.text.capsense_SetModulatorClkDivider,"ax",%progbits
 1692              		.align	2
 1693              		.global	capsense_SetModulatorClkDivider
 1694              		.code	16
 1695              		.thumb_func
 1696              		.type	capsense_SetModulatorClkDivider, %function
 1697              	capsense_SetModulatorClkDivider:
 1698              	.LFB64:
1888:Generated_Source\PSoC4/capsense.c **** 
1889:Generated_Source\PSoC4/capsense.c **** #if (capsense_TUNING_METHOD != capsense__TUNING_NONE)
1890:Generated_Source\PSoC4/capsense.c ****     /*******************************************************************************
1891:Generated_Source\PSoC4/capsense.c ****     * Function Name: capsense_SetModulatorClkDivider
1892:Generated_Source\PSoC4/capsense.c ****     ********************************************************************************
ARM GAS  C:\Users\puria\AppData\Local\Temp\ccYRkNAS.s 			page 66


1893:Generated_Source\PSoC4/capsense.c ****     *
1894:Generated_Source\PSoC4/capsense.c ****     * Summary:
1895:Generated_Source\PSoC4/capsense.c ****     *  This API sets a value of the modulator sample clock divider for the  sensor.
1896:Generated_Source\PSoC4/capsense.c ****     *
1897:Generated_Source\PSoC4/capsense.c ****     * Parameters:
1898:Generated_Source\PSoC4/capsense.c ****     *  sensor:  Sensor index.
1899:Generated_Source\PSoC4/capsense.c ****     *  modulatorClk: represents the modulator sample clock value.
1900:Generated_Source\PSoC4/capsense.c ****     *
1901:Generated_Source\PSoC4/capsense.c ****     * Return:
1902:Generated_Source\PSoC4/capsense.c ****     *  None.
1903:Generated_Source\PSoC4/capsense.c ****     *
1904:Generated_Source\PSoC4/capsense.c ****     * Global Variables:
1905:Generated_Source\PSoC4/capsense.c ****     *  capsense_sampleClkDividerVal[] - stores the modulator sample divider values.
1906:Generated_Source\PSoC4/capsense.c ****     *
1907:Generated_Source\PSoC4/capsense.c ****     * Side Effects:
1908:Generated_Source\PSoC4/capsense.c ****     *  None
1909:Generated_Source\PSoC4/capsense.c ****     *
1910:Generated_Source\PSoC4/capsense.c ****     *******************************************************************************/
1911:Generated_Source\PSoC4/capsense.c ****     void capsense_SetModulatorClkDivider(uint32 sensor, uint32 modulatorClk)
1912:Generated_Source\PSoC4/capsense.c ****     {
 1699              		.loc 1 1912 0
 1700              		.cfi_startproc
 1701              		@ args = 0, pretend = 0, frame = 0
 1702              		@ frame_needed = 0, uses_anonymous_args = 0
 1703              		@ link register save eliminated.
 1704              	.LVL204:
1913:Generated_Source\PSoC4/capsense.c ****         #if(0u != capsense_MULTIPLE_FREQUENCY_SET)
1914:Generated_Source\PSoC4/capsense.c ****             capsense_sampleClkDividerVal[sensor] = (uint8)modulatorClk;
 1705              		.loc 1 1914 0
 1706 0000 014B     		ldr	r3, .L109
 1707 0002 1954     		strb	r1, [r3, r0]
1915:Generated_Source\PSoC4/capsense.c ****         #else
1916:Generated_Source\PSoC4/capsense.c ****             capsense_sampleClkDividerVal = (uint8)modulatorClk;
1917:Generated_Source\PSoC4/capsense.c ****         #endif /* (0u != capsense_MULTIPLE_FREQUENCY_SET) */
1918:Generated_Source\PSoC4/capsense.c ****     }
 1708              		.loc 1 1918 0
 1709              		@ sp needed
 1710 0004 7047     		bx	lr
 1711              	.L110:
 1712 0006 C046     		.align	2
 1713              	.L109:
 1714 0008 00000000 		.word	capsense_sampleClkDividerVal
 1715              		.cfi_endproc
 1716              	.LFE64:
 1717              		.size	capsense_SetModulatorClkDivider, .-capsense_SetModulatorClkDivider
 1718              		.section	.text.capsense_GetModulationIDAC,"ax",%progbits
 1719              		.align	2
 1720              		.global	capsense_GetModulationIDAC
 1721              		.code	16
 1722              		.thumb_func
 1723              		.type	capsense_GetModulationIDAC, %function
 1724              	capsense_GetModulationIDAC:
 1725              	.LFB65:
1919:Generated_Source\PSoC4/capsense.c **** #endif /* (capsense_TUNING_METHOD != capsense__TUNING_NONE) */
1920:Generated_Source\PSoC4/capsense.c **** 
1921:Generated_Source\PSoC4/capsense.c **** /*******************************************************************************
1922:Generated_Source\PSoC4/capsense.c **** * Function Name: capsense_GetModulationIDAC
ARM GAS  C:\Users\puria\AppData\Local\Temp\ccYRkNAS.s 			page 67


1923:Generated_Source\PSoC4/capsense.c **** ********************************************************************************
1924:Generated_Source\PSoC4/capsense.c **** *
1925:Generated_Source\PSoC4/capsense.c **** * Summary:
1926:Generated_Source\PSoC4/capsense.c **** *  This API returns a value of the modulation IDAC for the  sensor.
1927:Generated_Source\PSoC4/capsense.c **** *
1928:Generated_Source\PSoC4/capsense.c **** * Parameters:
1929:Generated_Source\PSoC4/capsense.c **** *  sensor: sensor index. The index value can be
1930:Generated_Source\PSoC4/capsense.c **** *  from 0 to (capsense_TOTAL_SENSOR_COUNT-1).
1931:Generated_Source\PSoC4/capsense.c **** *
1932:Generated_Source\PSoC4/capsense.c **** * Return:
1933:Generated_Source\PSoC4/capsense.c **** *  This API returns the modulation IDAC of the sensor.
1934:Generated_Source\PSoC4/capsense.c **** *
1935:Generated_Source\PSoC4/capsense.c **** * Global Variables:
1936:Generated_Source\PSoC4/capsense.c **** *  capsense_modulationIDAC[] - stores modulation IDAC values.
1937:Generated_Source\PSoC4/capsense.c **** *
1938:Generated_Source\PSoC4/capsense.c **** * Side Effects:
1939:Generated_Source\PSoC4/capsense.c **** *  None
1940:Generated_Source\PSoC4/capsense.c **** *
1941:Generated_Source\PSoC4/capsense.c **** *******************************************************************************/
1942:Generated_Source\PSoC4/capsense.c **** uint32 capsense_GetModulationIDAC(uint32 sensor)
1943:Generated_Source\PSoC4/capsense.c **** {
 1726              		.loc 1 1943 0
 1727              		.cfi_startproc
 1728              		@ args = 0, pretend = 0, frame = 0
 1729              		@ frame_needed = 0, uses_anonymous_args = 0
 1730              		@ link register save eliminated.
 1731              	.LVL205:
1944:Generated_Source\PSoC4/capsense.c ****         return((uint32)capsense_modulationIDAC[sensor]);
 1732              		.loc 1 1944 0
 1733 0000 014B     		ldr	r3, .L112
 1734 0002 185C     		ldrb	r0, [r3, r0]
 1735              	.LVL206:
1945:Generated_Source\PSoC4/capsense.c **** }
 1736              		.loc 1 1945 0
 1737              		@ sp needed
 1738 0004 7047     		bx	lr
 1739              	.L113:
 1740 0006 C046     		.align	2
 1741              	.L112:
 1742 0008 00000000 		.word	capsense_modulationIDAC
 1743              		.cfi_endproc
 1744              	.LFE65:
 1745              		.size	capsense_GetModulationIDAC, .-capsense_GetModulationIDAC
 1746              		.section	.text.capsense_SetModulationIDAC,"ax",%progbits
 1747              		.align	2
 1748              		.global	capsense_SetModulationIDAC
 1749              		.code	16
 1750              		.thumb_func
 1751              		.type	capsense_SetModulationIDAC, %function
 1752              	capsense_SetModulationIDAC:
 1753              	.LFB66:
1946:Generated_Source\PSoC4/capsense.c **** 
1947:Generated_Source\PSoC4/capsense.c **** #if (capsense_TUNING_METHOD != capsense__TUNING_NONE)
1948:Generated_Source\PSoC4/capsense.c ****     /*******************************************************************************
1949:Generated_Source\PSoC4/capsense.c ****     * Function Name: capsense_SetModulationIDAC
1950:Generated_Source\PSoC4/capsense.c ****     ********************************************************************************
1951:Generated_Source\PSoC4/capsense.c ****     *
ARM GAS  C:\Users\puria\AppData\Local\Temp\ccYRkNAS.s 			page 68


1952:Generated_Source\PSoC4/capsense.c ****     * Summary:
1953:Generated_Source\PSoC4/capsense.c ****     *  This API sets a value of the modulation IDAC for the  sensor.
1954:Generated_Source\PSoC4/capsense.c ****     *
1955:Generated_Source\PSoC4/capsense.c ****     * Parameters:
1956:Generated_Source\PSoC4/capsense.c ****     *  sensor:  Sensor index.
1957:Generated_Source\PSoC4/capsense.c ****     *  compIdacValue: represents the modulation IDAC data register value.
1958:Generated_Source\PSoC4/capsense.c ****     *
1959:Generated_Source\PSoC4/capsense.c ****     * Return:
1960:Generated_Source\PSoC4/capsense.c ****     *  None.
1961:Generated_Source\PSoC4/capsense.c ****     *
1962:Generated_Source\PSoC4/capsense.c ****     * Global Variables:
1963:Generated_Source\PSoC4/capsense.c ****     *  capsense_modulationIDAC[] - array with modulation IDAC values
1964:Generated_Source\PSoC4/capsense.c ****     *
1965:Generated_Source\PSoC4/capsense.c ****     * Side Effects:
1966:Generated_Source\PSoC4/capsense.c ****     *  None
1967:Generated_Source\PSoC4/capsense.c ****     *
1968:Generated_Source\PSoC4/capsense.c ****     *******************************************************************************/
1969:Generated_Source\PSoC4/capsense.c ****     void capsense_SetModulationIDAC(uint32 sensor, uint32 modIdacValue)
1970:Generated_Source\PSoC4/capsense.c ****     {
 1754              		.loc 1 1970 0
 1755              		.cfi_startproc
 1756              		@ args = 0, pretend = 0, frame = 0
 1757              		@ frame_needed = 0, uses_anonymous_args = 0
 1758              		@ link register save eliminated.
 1759              	.LVL207:
1971:Generated_Source\PSoC4/capsense.c ****         capsense_modulationIDAC[sensor] = (uint8)modIdacValue;
 1760              		.loc 1 1971 0
 1761 0000 014B     		ldr	r3, .L115
 1762 0002 1954     		strb	r1, [r3, r0]
1972:Generated_Source\PSoC4/capsense.c ****     }
 1763              		.loc 1 1972 0
 1764              		@ sp needed
 1765 0004 7047     		bx	lr
 1766              	.L116:
 1767 0006 C046     		.align	2
 1768              	.L115:
 1769 0008 00000000 		.word	capsense_modulationIDAC
 1770              		.cfi_endproc
 1771              	.LFE66:
 1772              		.size	capsense_SetModulationIDAC, .-capsense_SetModulationIDAC
 1773              		.section	.text.capsense_GetCompensationIDAC,"ax",%progbits
 1774              		.align	2
 1775              		.global	capsense_GetCompensationIDAC
 1776              		.code	16
 1777              		.thumb_func
 1778              		.type	capsense_GetCompensationIDAC, %function
 1779              	capsense_GetCompensationIDAC:
 1780              	.LFB67:
1973:Generated_Source\PSoC4/capsense.c **** #endif /* (capsense_TUNING_METHOD != capsense__TUNING_NONE) */
1974:Generated_Source\PSoC4/capsense.c **** 
1975:Generated_Source\PSoC4/capsense.c **** 
1976:Generated_Source\PSoC4/capsense.c **** #if(capsense_IDAC_CNT > 1u)
1977:Generated_Source\PSoC4/capsense.c ****     /*******************************************************************************
1978:Generated_Source\PSoC4/capsense.c ****     * Function Name: capsense_GetCompensationIDAC
1979:Generated_Source\PSoC4/capsense.c ****     ********************************************************************************
1980:Generated_Source\PSoC4/capsense.c ****     *
1981:Generated_Source\PSoC4/capsense.c ****     * Summary:
ARM GAS  C:\Users\puria\AppData\Local\Temp\ccYRkNAS.s 			page 69


1982:Generated_Source\PSoC4/capsense.c ****     *  This API returns a value of the compensation IDAC for the  sensor.
1983:Generated_Source\PSoC4/capsense.c ****     *
1984:Generated_Source\PSoC4/capsense.c ****     * Parameters:
1985:Generated_Source\PSoC4/capsense.c ****     *  sensor: sensor index. The index value can be
1986:Generated_Source\PSoC4/capsense.c ****     *  from 0 to (capsense_TOTAL_SENSOR_COUNT-1).
1987:Generated_Source\PSoC4/capsense.c ****     *
1988:Generated_Source\PSoC4/capsense.c ****     * Return:
1989:Generated_Source\PSoC4/capsense.c ****     *  This API returns the compensation IDAC of the sensor.
1990:Generated_Source\PSoC4/capsense.c ****     *
1991:Generated_Source\PSoC4/capsense.c ****     * Global Variables:
1992:Generated_Source\PSoC4/capsense.c ****     *  capsense_compensationIDAC[] - stores the compensation IDAC values.
1993:Generated_Source\PSoC4/capsense.c ****     *
1994:Generated_Source\PSoC4/capsense.c ****     * Side Effects:
1995:Generated_Source\PSoC4/capsense.c ****     *  None
1996:Generated_Source\PSoC4/capsense.c ****     *
1997:Generated_Source\PSoC4/capsense.c ****     *******************************************************************************/
1998:Generated_Source\PSoC4/capsense.c ****     uint32 capsense_GetCompensationIDAC(uint32 sensor)
1999:Generated_Source\PSoC4/capsense.c ****     {
 1781              		.loc 1 1999 0
 1782              		.cfi_startproc
 1783              		@ args = 0, pretend = 0, frame = 0
 1784              		@ frame_needed = 0, uses_anonymous_args = 0
 1785              		@ link register save eliminated.
 1786              	.LVL208:
2000:Generated_Source\PSoC4/capsense.c ****         return((uint32)capsense_compensationIDAC[sensor]);
 1787              		.loc 1 2000 0
 1788 0000 014B     		ldr	r3, .L118
 1789 0002 185C     		ldrb	r0, [r3, r0]
 1790              	.LVL209:
2001:Generated_Source\PSoC4/capsense.c ****     }
 1791              		.loc 1 2001 0
 1792              		@ sp needed
 1793 0004 7047     		bx	lr
 1794              	.L119:
 1795 0006 C046     		.align	2
 1796              	.L118:
 1797 0008 00000000 		.word	capsense_compensationIDAC
 1798              		.cfi_endproc
 1799              	.LFE67:
 1800              		.size	capsense_GetCompensationIDAC, .-capsense_GetCompensationIDAC
 1801              		.section	.text.capsense_SetCompensationIDAC,"ax",%progbits
 1802              		.align	2
 1803              		.global	capsense_SetCompensationIDAC
 1804              		.code	16
 1805              		.thumb_func
 1806              		.type	capsense_SetCompensationIDAC, %function
 1807              	capsense_SetCompensationIDAC:
 1808              	.LFB68:
2002:Generated_Source\PSoC4/capsense.c **** #endif /* (capsense_IDAC_CNT > 1u) */
2003:Generated_Source\PSoC4/capsense.c **** 
2004:Generated_Source\PSoC4/capsense.c **** 
2005:Generated_Source\PSoC4/capsense.c **** #if((capsense_TUNING_METHOD != capsense__TUNING_NONE) && (capsense_IDAC_CNT > 1u))
2006:Generated_Source\PSoC4/capsense.c ****     /*******************************************************************************
2007:Generated_Source\PSoC4/capsense.c ****     * Function Name: capsense_SetCompensationIDAC
2008:Generated_Source\PSoC4/capsense.c ****     ********************************************************************************
2009:Generated_Source\PSoC4/capsense.c ****     *
2010:Generated_Source\PSoC4/capsense.c ****     * Summary:
ARM GAS  C:\Users\puria\AppData\Local\Temp\ccYRkNAS.s 			page 70


2011:Generated_Source\PSoC4/capsense.c ****     *  This API sets a value of compensation IDAC for the  sensor.
2012:Generated_Source\PSoC4/capsense.c ****     *
2013:Generated_Source\PSoC4/capsense.c ****     * Parameters:
2014:Generated_Source\PSoC4/capsense.c ****     *  sensor:  Sensor index.
2015:Generated_Source\PSoC4/capsense.c ****     *  compIdacValue: represents the compensation IDAC data register value.
2016:Generated_Source\PSoC4/capsense.c ****     *
2017:Generated_Source\PSoC4/capsense.c ****     * Return:
2018:Generated_Source\PSoC4/capsense.c ****     *  None.
2019:Generated_Source\PSoC4/capsense.c ****     *
2020:Generated_Source\PSoC4/capsense.c ****     * Global Variables:
2021:Generated_Source\PSoC4/capsense.c ****     *  capsense_compensationIDAC[] - an array with compensation IDAC values
2022:Generated_Source\PSoC4/capsense.c ****     *
2023:Generated_Source\PSoC4/capsense.c ****     * Side Effects:
2024:Generated_Source\PSoC4/capsense.c ****     *  None
2025:Generated_Source\PSoC4/capsense.c ****     *
2026:Generated_Source\PSoC4/capsense.c ****     *******************************************************************************/
2027:Generated_Source\PSoC4/capsense.c ****     void capsense_SetCompensationIDAC(uint32 sensor, uint32 compIdacValue)
2028:Generated_Source\PSoC4/capsense.c ****     {
 1809              		.loc 1 2028 0
 1810              		.cfi_startproc
 1811              		@ args = 0, pretend = 0, frame = 0
 1812              		@ frame_needed = 0, uses_anonymous_args = 0
 1813              		@ link register save eliminated.
 1814              	.LVL210:
2029:Generated_Source\PSoC4/capsense.c ****         capsense_compensationIDAC[sensor] = (uint8)compIdacValue;
 1815              		.loc 1 2029 0
 1816 0000 014B     		ldr	r3, .L121
 1817 0002 1954     		strb	r1, [r3, r0]
2030:Generated_Source\PSoC4/capsense.c ****     }
 1818              		.loc 1 2030 0
 1819              		@ sp needed
 1820 0004 7047     		bx	lr
 1821              	.L122:
 1822 0006 C046     		.align	2
 1823              	.L121:
 1824 0008 00000000 		.word	capsense_compensationIDAC
 1825              		.cfi_endproc
 1826              	.LFE68:
 1827              		.size	capsense_SetCompensationIDAC, .-capsense_SetCompensationIDAC
 1828              		.section	.text.capsense_GetIDACRange,"ax",%progbits
 1829              		.align	2
 1830              		.global	capsense_GetIDACRange
 1831              		.code	16
 1832              		.thumb_func
 1833              		.type	capsense_GetIDACRange, %function
 1834              	capsense_GetIDACRange:
 1835              	.LFB69:
2031:Generated_Source\PSoC4/capsense.c **** #endif /* ((capsense_TUNING_METHOD != capsense__TUNING_NONE) && (capsense_IDAC_CNT > 1u)) */
2032:Generated_Source\PSoC4/capsense.c **** 
2033:Generated_Source\PSoC4/capsense.c **** /*******************************************************************************
2034:Generated_Source\PSoC4/capsense.c **** * Function Name: capsense_GetIDACRange
2035:Generated_Source\PSoC4/capsense.c **** ********************************************************************************
2036:Generated_Source\PSoC4/capsense.c **** *
2037:Generated_Source\PSoC4/capsense.c **** * Summary:
2038:Generated_Source\PSoC4/capsense.c **** *  This API returns a value that indicates the IDAC range used by the
2039:Generated_Source\PSoC4/capsense.c **** *  component to scan sensors. The IDAC range is common for all the sensors.
2040:Generated_Source\PSoC4/capsense.c **** *
ARM GAS  C:\Users\puria\AppData\Local\Temp\ccYRkNAS.s 			page 71


2041:Generated_Source\PSoC4/capsense.c **** * Parameters:
2042:Generated_Source\PSoC4/capsense.c **** *  None
2043:Generated_Source\PSoC4/capsense.c **** *
2044:Generated_Source\PSoC4/capsense.c **** * Return:
2045:Generated_Source\PSoC4/capsense.c **** *  This API Returns a value that indicates the IDAC range:
2046:Generated_Source\PSoC4/capsense.c **** *      0 - IDAC range set to 4x
2047:Generated_Source\PSoC4/capsense.c **** *      1 - IDAC range set to 8x
2048:Generated_Source\PSoC4/capsense.c **** *
2049:Generated_Source\PSoC4/capsense.c **** * Global Variables:
2050:Generated_Source\PSoC4/capsense.c **** *  None
2051:Generated_Source\PSoC4/capsense.c **** *
2052:Generated_Source\PSoC4/capsense.c **** * Side Effects:
2053:Generated_Source\PSoC4/capsense.c **** *  None
2054:Generated_Source\PSoC4/capsense.c **** *
2055:Generated_Source\PSoC4/capsense.c **** *******************************************************************************/
2056:Generated_Source\PSoC4/capsense.c **** uint32 capsense_GetIDACRange(void)
2057:Generated_Source\PSoC4/capsense.c **** {
 1836              		.loc 1 2057 0
 1837              		.cfi_startproc
 1838              		@ args = 0, pretend = 0, frame = 0
 1839              		@ frame_needed = 0, uses_anonymous_args = 0
 1840              		@ link register save eliminated.
2058:Generated_Source\PSoC4/capsense.c ****     return((0u != (capsense_CSD_IDAC_REG & capsense_CSD_IDAC1_RANGE_8X)) ? 1uL : 0uL);
 1841              		.loc 1 2058 0
 1842 0000 034B     		ldr	r3, .L125
 1843 0002 1868     		ldr	r0, [r3]
 1844 0004 8023     		movs	r3, #128
 1845 0006 DB00     		lsls	r3, r3, #3
 1846 0008 1840     		ands	r0, r3
 1847 000a 00D0     		beq	.L124
 1848 000c 0120     		movs	r0, #1
 1849              	.L124:
2059:Generated_Source\PSoC4/capsense.c **** }
 1850              		.loc 1 2059 0 discriminator 4
 1851              		@ sp needed
 1852 000e 7047     		bx	lr
 1853              	.L126:
 1854              		.align	2
 1855              	.L125:
 1856 0010 08002840 		.word	1076363272
 1857              		.cfi_endproc
 1858              	.LFE69:
 1859              		.size	capsense_GetIDACRange, .-capsense_GetIDACRange
 1860              		.section	.text.capsense_SetIDACRange,"ax",%progbits
 1861              		.align	2
 1862              		.global	capsense_SetIDACRange
 1863              		.code	16
 1864              		.thumb_func
 1865              		.type	capsense_SetIDACRange, %function
 1866              	capsense_SetIDACRange:
 1867              	.LFB70:
2060:Generated_Source\PSoC4/capsense.c **** 
2061:Generated_Source\PSoC4/capsense.c **** #if (capsense_TUNING_METHOD != capsense__TUNING_NONE)
2062:Generated_Source\PSoC4/capsense.c ****     /*******************************************************************************
2063:Generated_Source\PSoC4/capsense.c ****     * Function Name: capsense_SetIDACRange
2064:Generated_Source\PSoC4/capsense.c ****     ********************************************************************************
2065:Generated_Source\PSoC4/capsense.c ****     *
ARM GAS  C:\Users\puria\AppData\Local\Temp\ccYRkNAS.s 			page 72


2066:Generated_Source\PSoC4/capsense.c ****     * Summary:
2067:Generated_Source\PSoC4/capsense.c ****     *  This API sets the IDAC range to the 4x (1.2uA/bit) or 8x (2.4uA/bit) mode.
2068:Generated_Source\PSoC4/capsense.c ****     *  The IDAC range is common for all the sensors and common for the modulation and
2069:Generated_Source\PSoC4/capsense.c ****     *  compensation IDACs.
2070:Generated_Source\PSoC4/capsense.c ****     *
2071:Generated_Source\PSoC4/capsense.c ****     * Parameters:
2072:Generated_Source\PSoC4/capsense.c ****     *  iDacRange:  represents value for IDAC range
2073:Generated_Source\PSoC4/capsense.c ****     *  0 -  IDAC range set to 4x (1.2uA/bit)
2074:Generated_Source\PSoC4/capsense.c ****     *  1 or >1 - IDAC range set to 8x (2.4uA/bit)
2075:Generated_Source\PSoC4/capsense.c ****     *
2076:Generated_Source\PSoC4/capsense.c ****     * Return:
2077:Generated_Source\PSoC4/capsense.c ****     *  None.
2078:Generated_Source\PSoC4/capsense.c ****     *
2079:Generated_Source\PSoC4/capsense.c ****     * Global Variables:
2080:Generated_Source\PSoC4/capsense.c ****     *  None
2081:Generated_Source\PSoC4/capsense.c ****     *
2082:Generated_Source\PSoC4/capsense.c ****     * Side Effects:
2083:Generated_Source\PSoC4/capsense.c ****     *  None
2084:Generated_Source\PSoC4/capsense.c ****     *
2085:Generated_Source\PSoC4/capsense.c ****     *******************************************************************************/
2086:Generated_Source\PSoC4/capsense.c ****     void capsense_SetIDACRange(uint32 iDacRange)
2087:Generated_Source\PSoC4/capsense.c ****     {
 1868              		.loc 1 2087 0
 1869              		.cfi_startproc
 1870              		@ args = 0, pretend = 0, frame = 0
 1871              		@ frame_needed = 0, uses_anonymous_args = 0
 1872              		@ link register save eliminated.
 1873              	.LVL211:
2088:Generated_Source\PSoC4/capsense.c ****         if(iDacRange != 0u)
 1874              		.loc 1 2088 0
 1875 0000 0028     		cmp	r0, #0
 1876 0002 05D0     		beq	.L128
2089:Generated_Source\PSoC4/capsense.c ****         {
2090:Generated_Source\PSoC4/capsense.c ****             /*  IDAC range = 8x (2.4uA/bit) */
2091:Generated_Source\PSoC4/capsense.c ****             capsense_CSD_IDAC_REG |= (capsense_CSD_IDAC1_RANGE_8X |\
 1877              		.loc 1 2091 0
 1878 0004 054A     		ldr	r2, .L130
 1879 0006 1368     		ldr	r3, [r2]
 1880 0008 0549     		ldr	r1, .L130+4
 1881 000a 0B43     		orrs	r3, r1
 1882 000c 1360     		str	r3, [r2]
 1883 000e 04E0     		b	.L127
 1884              	.L128:
2092:Generated_Source\PSoC4/capsense.c ****                                               capsense_CSD_IDAC2_RANGE_8X);
2093:Generated_Source\PSoC4/capsense.c ****         }
2094:Generated_Source\PSoC4/capsense.c ****         else
2095:Generated_Source\PSoC4/capsense.c ****         {
2096:Generated_Source\PSoC4/capsense.c ****             /*  IDAC range = 4x (1.2uA/bit) */
2097:Generated_Source\PSoC4/capsense.c ****             /*  IDAC range = 8x (2.4uA/bit) */
2098:Generated_Source\PSoC4/capsense.c ****             capsense_CSD_IDAC_REG &= ~(capsense_CSD_IDAC1_RANGE_8X |\
 1885              		.loc 1 2098 0
 1886 0010 024A     		ldr	r2, .L130
 1887 0012 1168     		ldr	r1, [r2]
 1888 0014 034B     		ldr	r3, .L130+8
 1889 0016 0B40     		ands	r3, r1
 1890 0018 1360     		str	r3, [r2]
 1891              	.L127:
ARM GAS  C:\Users\puria\AppData\Local\Temp\ccYRkNAS.s 			page 73


2099:Generated_Source\PSoC4/capsense.c ****                                                capsense_CSD_IDAC2_RANGE_8X);
2100:Generated_Source\PSoC4/capsense.c ****         }
2101:Generated_Source\PSoC4/capsense.c ****     }
 1892              		.loc 1 2101 0
 1893              		@ sp needed
 1894 001a 7047     		bx	lr
 1895              	.L131:
 1896              		.align	2
 1897              	.L130:
 1898 001c 08002840 		.word	1076363272
 1899 0020 00040004 		.word	67109888
 1900 0024 FFFBFFFB 		.word	-67109889
 1901              		.cfi_endproc
 1902              	.LFE70:
 1903              		.size	capsense_SetIDACRange, .-capsense_SetIDACRange
 1904              		.section	.text.capsense_GetSensorRaw,"ax",%progbits
 1905              		.align	2
 1906              		.global	capsense_GetSensorRaw
 1907              		.code	16
 1908              		.thumb_func
 1909              		.type	capsense_GetSensorRaw, %function
 1910              	capsense_GetSensorRaw:
 1911              	.LFB71:
2102:Generated_Source\PSoC4/capsense.c **** #endif /* (capsense_TUNING_METHOD != capsense__TUNING_NONE) */
2103:Generated_Source\PSoC4/capsense.c **** 
2104:Generated_Source\PSoC4/capsense.c **** 
2105:Generated_Source\PSoC4/capsense.c **** #if((0u != capsense_AUTOCALIBRATION_ENABLE) || (capsense_TUNING_METHOD == capsense__TUNING_AUTO))
2106:Generated_Source\PSoC4/capsense.c ****     /*******************************************************************************
2107:Generated_Source\PSoC4/capsense.c ****     * Function Name: capsense_GetSensorRaw
2108:Generated_Source\PSoC4/capsense.c ****     ********************************************************************************
2109:Generated_Source\PSoC4/capsense.c ****     *
2110:Generated_Source\PSoC4/capsense.c ****     * Summary:
2111:Generated_Source\PSoC4/capsense.c ****     *  The API updates and gets uprated raw data from the sensor.
2112:Generated_Source\PSoC4/capsense.c ****     *
2113:Generated_Source\PSoC4/capsense.c ****     * Parameters:
2114:Generated_Source\PSoC4/capsense.c ****     *  sensor - Sensor number.
2115:Generated_Source\PSoC4/capsense.c ****     *
2116:Generated_Source\PSoC4/capsense.c ****     * Return:
2117:Generated_Source\PSoC4/capsense.c ****     *  Returns the current raw data value for a defined sensor number.
2118:Generated_Source\PSoC4/capsense.c ****     *
2119:Generated_Source\PSoC4/capsense.c ****     * Global Variables:
2120:Generated_Source\PSoC4/capsense.c ****     *  None
2121:Generated_Source\PSoC4/capsense.c ****     *
2122:Generated_Source\PSoC4/capsense.c ****     * Side Effects:
2123:Generated_Source\PSoC4/capsense.c ****     *  None
2124:Generated_Source\PSoC4/capsense.c ****     *
2125:Generated_Source\PSoC4/capsense.c ****     *******************************************************************************/
2126:Generated_Source\PSoC4/capsense.c ****     uint16  capsense_GetSensorRaw(uint32 sensor)
2127:Generated_Source\PSoC4/capsense.c ****     {
 1912              		.loc 1 2127 0
 1913              		.cfi_startproc
 1914              		@ args = 0, pretend = 0, frame = 0
 1915              		@ frame_needed = 0, uses_anonymous_args = 0
 1916              	.LVL212:
 1917 0000 70B5     		push	{r4, r5, r6, lr}
 1918              		.cfi_def_cfa_offset 16
 1919              		.cfi_offset 4, -16
ARM GAS  C:\Users\puria\AppData\Local\Temp\ccYRkNAS.s 			page 74


 1920              		.cfi_offset 5, -12
 1921              		.cfi_offset 6, -8
 1922              		.cfi_offset 14, -4
 1923 0002 0600     		movs	r6, r0
 1924              	.LVL213:
2128:Generated_Source\PSoC4/capsense.c ****         uint32 curSample;
2129:Generated_Source\PSoC4/capsense.c ****         uint32 avgVal = 0u;
 1925              		.loc 1 2129 0
 1926 0004 0024     		movs	r4, #0
2130:Generated_Source\PSoC4/capsense.c **** 
2131:Generated_Source\PSoC4/capsense.c ****         for(curSample = 0u; curSample < capsense_AVG_SAMPLES_NUM; curSample++)
 1927              		.loc 1 2131 0
 1928 0006 0025     		movs	r5, #0
 1929 0008 0BE0     		b	.L133
 1930              	.LVL214:
 1931              	.L135:
2132:Generated_Source\PSoC4/capsense.c ****         {
2133:Generated_Source\PSoC4/capsense.c **** 
2134:Generated_Source\PSoC4/capsense.c ****             capsense_ScanSensor((uint32)sensor);
 1932              		.loc 1 2134 0
 1933 000a 3000     		movs	r0, r6
 1934 000c FFF7FEFF 		bl	capsense_ScanSensor
 1935              	.LVL215:
 1936              	.L134:
2135:Generated_Source\PSoC4/capsense.c ****             while(capsense_IsBusy() == 1u)
 1937              		.loc 1 2135 0 discriminator 1
 1938 0010 FFF7FEFF 		bl	capsense_IsBusy
 1939              	.LVL216:
 1940 0014 0128     		cmp	r0, #1
 1941 0016 FBD0     		beq	.L134
2136:Generated_Source\PSoC4/capsense.c ****             {
2137:Generated_Source\PSoC4/capsense.c ****                 /* Wait while sensor is busy */
2138:Generated_Source\PSoC4/capsense.c ****             }
2139:Generated_Source\PSoC4/capsense.c ****             avgVal += capsense_ReadSensorRaw((uint32)sensor);
 1942              		.loc 1 2139 0 discriminator 2
 1943 0018 3000     		movs	r0, r6
 1944 001a FFF7FEFF 		bl	capsense_ReadSensorRaw
 1945              	.LVL217:
 1946 001e 2418     		adds	r4, r4, r0
 1947              	.LVL218:
2131:Generated_Source\PSoC4/capsense.c ****         {
 1948              		.loc 1 2131 0 discriminator 2
 1949 0020 0135     		adds	r5, r5, #1
 1950              	.LVL219:
 1951              	.L133:
2131:Generated_Source\PSoC4/capsense.c ****         {
 1952              		.loc 1 2131 0 is_stmt 0 discriminator 1
 1953 0022 002D     		cmp	r5, #0
 1954 0024 F1D0     		beq	.L135
2140:Generated_Source\PSoC4/capsense.c ****         }
2141:Generated_Source\PSoC4/capsense.c **** 
2142:Generated_Source\PSoC4/capsense.c ****         return((uint16)(avgVal / capsense_AVG_SAMPLES_NUM));
 1955              		.loc 1 2142 0 is_stmt 1
 1956 0026 A0B2     		uxth	r0, r4
2143:Generated_Source\PSoC4/capsense.c ****     }
 1957              		.loc 1 2143 0
 1958              		@ sp needed
ARM GAS  C:\Users\puria\AppData\Local\Temp\ccYRkNAS.s 			page 75


 1959              	.LVL220:
 1960              	.LVL221:
 1961              	.LVL222:
 1962 0028 70BD     		pop	{r4, r5, r6, pc}
 1963              		.cfi_endproc
 1964              	.LFE71:
 1965              		.size	capsense_GetSensorRaw, .-capsense_GetSensorRaw
 1966 002a C046     		.section	.text.capsense_SetUnscannedSensorState,"ax",%progbits
 1967              		.align	2
 1968              		.global	capsense_SetUnscannedSensorState
 1969              		.code	16
 1970              		.thumb_func
 1971              		.type	capsense_SetUnscannedSensorState, %function
 1972              	capsense_SetUnscannedSensorState:
 1973              	.LFB72:
2144:Generated_Source\PSoC4/capsense.c **** #endif /* ((0u != capsense_AUTOCALIBRATION_ENABLE) && (capsense_TUNING_METHOD == capsense__TUNING_A
2145:Generated_Source\PSoC4/capsense.c **** 
2146:Generated_Source\PSoC4/capsense.c **** 
2147:Generated_Source\PSoC4/capsense.c **** #if((0u != capsense_AUTOCALIBRATION_ENABLE) && (capsense_TUNING_METHOD != capsense__TUNING_AUTO))
2148:Generated_Source\PSoC4/capsense.c ****     /*******************************************************************************
2149:Generated_Source\PSoC4/capsense.c ****     * Function Name: capsense_CalibrateSensor
2150:Generated_Source\PSoC4/capsense.c ****     ********************************************************************************
2151:Generated_Source\PSoC4/capsense.c ****     *
2152:Generated_Source\PSoC4/capsense.c ****     * Summary:
2153:Generated_Source\PSoC4/capsense.c ****     *  Computes the one sensor IDAC value, which provides the raw signal on
2154:Generated_Source\PSoC4/capsense.c ****     *  a specified level, with a specified prescaler, speed, and resolution.
2155:Generated_Source\PSoC4/capsense.c ****     *
2156:Generated_Source\PSoC4/capsense.c ****     * Parameters:
2157:Generated_Source\PSoC4/capsense.c ****     *  sensor - Sensor Number.
2158:Generated_Source\PSoC4/capsense.c ****     *
2159:Generated_Source\PSoC4/capsense.c ****     *  rawLevel -  Raw data level which should be reached during the calibration
2160:Generated_Source\PSoC4/capsense.c ****     *              procedure.
2161:Generated_Source\PSoC4/capsense.c ****     *
2162:Generated_Source\PSoC4/capsense.c ****     *  idacLevelsTbl - Pointer to the modulatorIdac data register configuration table.
2163:Generated_Source\PSoC4/capsense.c ****     *
2164:Generated_Source\PSoC4/capsense.c ****     * Return:
2165:Generated_Source\PSoC4/capsense.c ****     *  None
2166:Generated_Source\PSoC4/capsense.c ****     *
2167:Generated_Source\PSoC4/capsense.c ****     *******************************************************************************/
2168:Generated_Source\PSoC4/capsense.c ****     void capsense_CalibrateSensor(uint32 sensor, uint32 rawLevel, uint8 idacLevelsTbl[])
2169:Generated_Source\PSoC4/capsense.c ****     {
2170:Generated_Source\PSoC4/capsense.c ****         uint8 mask;
2171:Generated_Source\PSoC4/capsense.c ****         uint16 rawData;
2172:Generated_Source\PSoC4/capsense.c **** 
2173:Generated_Source\PSoC4/capsense.c ****         rawData = 0u;
2174:Generated_Source\PSoC4/capsense.c **** 
2175:Generated_Source\PSoC4/capsense.c ****         mask = 0x80u;
2176:Generated_Source\PSoC4/capsense.c ****         /* Init IDAC for null Channel */
2177:Generated_Source\PSoC4/capsense.c ****         idacLevelsTbl[sensor] = 0x00u;
2178:Generated_Source\PSoC4/capsense.c **** 
2179:Generated_Source\PSoC4/capsense.c ****         do
2180:Generated_Source\PSoC4/capsense.c ****         {
2181:Generated_Source\PSoC4/capsense.c ****             /* Set bit for null Channel */
2182:Generated_Source\PSoC4/capsense.c ****             idacLevelsTbl[sensor] |= mask;
2183:Generated_Source\PSoC4/capsense.c **** 
2184:Generated_Source\PSoC4/capsense.c ****             /* Scan null Channel and get Rawdata */
2185:Generated_Source\PSoC4/capsense.c ****             rawData = capsense_GetSensorRaw(sensor);
ARM GAS  C:\Users\puria\AppData\Local\Temp\ccYRkNAS.s 			page 76


2186:Generated_Source\PSoC4/capsense.c **** 
2187:Generated_Source\PSoC4/capsense.c ****             /* Decrease IDAC until Rawdata reaches rawLevel */
2188:Generated_Source\PSoC4/capsense.c ****             if(rawData < rawLevel)
2189:Generated_Source\PSoC4/capsense.c ****             {
2190:Generated_Source\PSoC4/capsense.c ****                 /* Reset bit for null Channel  */
2191:Generated_Source\PSoC4/capsense.c ****                 idacLevelsTbl[sensor] &= (uint8)~mask;
2192:Generated_Source\PSoC4/capsense.c ****             }
2193:Generated_Source\PSoC4/capsense.c **** 
2194:Generated_Source\PSoC4/capsense.c ****             mask >>= 1u;
2195:Generated_Source\PSoC4/capsense.c ****         }
2196:Generated_Source\PSoC4/capsense.c ****         while(mask > 0u);
2197:Generated_Source\PSoC4/capsense.c **** 
2198:Generated_Source\PSoC4/capsense.c ****     }
2199:Generated_Source\PSoC4/capsense.c **** #endif /* ((0u != capsense_AUTOCALIBRATION_ENABLE) && (capsense_TUNING_METHOD != capsense__TUNING_A
2200:Generated_Source\PSoC4/capsense.c **** 
2201:Generated_Source\PSoC4/capsense.c **** 
2202:Generated_Source\PSoC4/capsense.c **** /*******************************************************************************
2203:Generated_Source\PSoC4/capsense.c **** * Function Name: capsense_SetUnscannedSensorState
2204:Generated_Source\PSoC4/capsense.c **** ********************************************************************************
2205:Generated_Source\PSoC4/capsense.c **** *
2206:Generated_Source\PSoC4/capsense.c **** * Summary:
2207:Generated_Source\PSoC4/capsense.c **** *  This API sets a state for un-scanned sensors.
2208:Generated_Source\PSoC4/capsense.c **** *  It is possible to set the state to Ground, High-Z, or the shield electrode.
2209:Generated_Source\PSoC4/capsense.c **** *  The un-scanned sensor can be connected to a shield electrode only if the shield is
2210:Generated_Source\PSoC4/capsense.c **** *  enabled. If the shield is disabled and this API is called with the parameter which
2211:Generated_Source\PSoC4/capsense.c **** *  indicates the shield state, the un-scanned sensor will be connected to Ground.
2212:Generated_Source\PSoC4/capsense.c **** *
2213:Generated_Source\PSoC4/capsense.c **** * Parameters:
2214:Generated_Source\PSoC4/capsense.c **** *  sensor - Sensor Number.
2215:Generated_Source\PSoC4/capsense.c **** *  sensorState: This parameter indicates un-scanned sensor state:
2216:Generated_Source\PSoC4/capsense.c **** *
2217:Generated_Source\PSoC4/capsense.c **** *     capsense__GROUND 0
2218:Generated_Source\PSoC4/capsense.c **** *     capsense__HIZ_ANALOG 1
2219:Generated_Source\PSoC4/capsense.c **** *     capsense__SHIELD 2
2220:Generated_Source\PSoC4/capsense.c **** *
2221:Generated_Source\PSoC4/capsense.c **** * Return:
2222:Generated_Source\PSoC4/capsense.c **** *  None.
2223:Generated_Source\PSoC4/capsense.c **** *
2224:Generated_Source\PSoC4/capsense.c **** * Global Variables:
2225:Generated_Source\PSoC4/capsense.c **** *  capsense_unscannedSnsDriveMode[] - used to store the state for
2226:Generated_Source\PSoC4/capsense.c **** *  un-scanned sensors.
2227:Generated_Source\PSoC4/capsense.c **** *
2228:Generated_Source\PSoC4/capsense.c **** * Side Effects:
2229:Generated_Source\PSoC4/capsense.c **** *  None
2230:Generated_Source\PSoC4/capsense.c **** *
2231:Generated_Source\PSoC4/capsense.c **** *******************************************************************************/
2232:Generated_Source\PSoC4/capsense.c **** void capsense_SetUnscannedSensorState(uint32 sensor, uint32 sensorState)
2233:Generated_Source\PSoC4/capsense.c **** {
 1974              		.loc 1 2233 0
 1975              		.cfi_startproc
 1976              		@ args = 0, pretend = 0, frame = 0
 1977              		@ frame_needed = 0, uses_anonymous_args = 0
 1978              		@ link register save eliminated.
 1979              	.LVL223:
2234:Generated_Source\PSoC4/capsense.c ****     #if(capsense_IS_COMPLEX_SCANSLOTS)
2235:Generated_Source\PSoC4/capsense.c ****         uint8 snsType;
2236:Generated_Source\PSoC4/capsense.c ****         uint8 curSensor;
ARM GAS  C:\Users\puria\AppData\Local\Temp\ccYRkNAS.s 			page 77


2237:Generated_Source\PSoC4/capsense.c ****         uint16 snsNumber;
2238:Generated_Source\PSoC4/capsense.c **** 
2239:Generated_Source\PSoC4/capsense.c ****         /* Read sensor type: single or complex */
2240:Generated_Source\PSoC4/capsense.c ****         snsType = capsense_portTable[sensor];
2241:Generated_Source\PSoC4/capsense.c **** 
2242:Generated_Source\PSoC4/capsense.c ****         /* Check if sensor is complex */
2243:Generated_Source\PSoC4/capsense.c ****         if(0u != (snsType & capsense_COMPLEX_SS_FLAG))
2244:Generated_Source\PSoC4/capsense.c ****         {
2245:Generated_Source\PSoC4/capsense.c ****             snsType &= (uint8)~capsense_COMPLEX_SS_FLAG;
2246:Generated_Source\PSoC4/capsense.c ****             snsNumber = (uint16)capsense_maskTable[sensor];
2247:Generated_Source\PSoC4/capsense.c **** 
2248:Generated_Source\PSoC4/capsense.c ****             for (curSensor=0u; curSensor < snsNumber; curSensor++)
2249:Generated_Source\PSoC4/capsense.c ****             {
2250:Generated_Source\PSoC4/capsense.c ****                 sensor = capsense_indexTable[snsType + curSensor];
2251:Generated_Source\PSoC4/capsense.c ****                 capsense_unscannedSnsDriveMode[sensor] = (uint8)sensorState;
2252:Generated_Source\PSoC4/capsense.c ****             }
2253:Generated_Source\PSoC4/capsense.c ****         }
2254:Generated_Source\PSoC4/capsense.c ****         else
2255:Generated_Source\PSoC4/capsense.c ****         {
2256:Generated_Source\PSoC4/capsense.c ****             capsense_unscannedSnsDriveMode[sensor] = (uint8)sensorState;
2257:Generated_Source\PSoC4/capsense.c ****         }
2258:Generated_Source\PSoC4/capsense.c ****     #else
2259:Generated_Source\PSoC4/capsense.c ****         capsense_unscannedSnsDriveMode[sensor] = (uint8)sensorState;
 1980              		.loc 1 2259 0
 1981 0000 014B     		ldr	r3, .L137
 1982 0002 1954     		strb	r1, [r3, r0]
2260:Generated_Source\PSoC4/capsense.c ****     #endif /* (capsense_IS_COMPLEX_SCANSLOTS) */
2261:Generated_Source\PSoC4/capsense.c **** }
 1983              		.loc 1 2261 0
 1984              		@ sp needed
 1985 0004 7047     		bx	lr
 1986              	.L138:
 1987 0006 C046     		.align	2
 1988              	.L137:
 1989 0008 00000000 		.word	capsense_unscannedSnsDriveMode
 1990              		.cfi_endproc
 1991              	.LFE72:
 1992              		.size	capsense_SetUnscannedSensorState, .-capsense_SetUnscannedSensorState
 1993              		.section	.text.capsense_Init,"ax",%progbits
 1994              		.align	2
 1995              		.global	capsense_Init
 1996              		.code	16
 1997              		.thumb_func
 1998              		.type	capsense_Init, %function
 1999              	capsense_Init:
 2000              	.LFB34:
 168:Generated_Source\PSoC4/capsense.c ****     uint32 curSensor;
 2001              		.loc 1 168 0
 2002              		.cfi_startproc
 2003              		@ args = 0, pretend = 0, frame = 0
 2004              		@ frame_needed = 0, uses_anonymous_args = 0
 2005 0000 10B5     		push	{r4, lr}
 2006              		.cfi_def_cfa_offset 8
 2007              		.cfi_offset 4, -8
 2008              		.cfi_offset 14, -4
 2009              	.LVL224:
 199:Generated_Source\PSoC4/capsense.c ****     {
ARM GAS  C:\Users\puria\AppData\Local\Temp\ccYRkNAS.s 			page 78


 2010              		.loc 1 199 0
 2011 0002 0024     		movs	r4, #0
 2012 0004 04E0     		b	.L140
 2013              	.LVL225:
 2014              	.L141:
 201:Generated_Source\PSoC4/capsense.c ****     }
 2015              		.loc 1 201 0 discriminator 3
 2016 0006 0021     		movs	r1, #0
 2017 0008 2000     		movs	r0, r4
 2018 000a FFF7FEFF 		bl	capsense_SetUnscannedSensorState
 2019              	.LVL226:
 199:Generated_Source\PSoC4/capsense.c ****     {
 2020              		.loc 1 199 0 discriminator 3
 2021 000e 0134     		adds	r4, r4, #1
 2022              	.LVL227:
 2023              	.L140:
 199:Generated_Source\PSoC4/capsense.c ****     {
 2024              		.loc 1 199 0 is_stmt 0 discriminator 1
 2025 0010 042C     		cmp	r4, #4
 2026 0012 F8D9     		bls	.L141
 204:Generated_Source\PSoC4/capsense.c ****     capsense_SetShieldDelay(capsense_SHIELD_DELAY );
 2027              		.loc 1 204 0 is_stmt 1
 2028 0014 FFF7FEFF 		bl	capsense_CsdHwBlockInit
 2029              	.LVL228:
 205:Generated_Source\PSoC4/capsense.c **** 
 2030              		.loc 1 205 0
 2031 0018 0020     		movs	r0, #0
 2032 001a FFF7FEFF 		bl	capsense_SetShieldDelay
 2033              	.LVL229:
 208:Generated_Source\PSoC4/capsense.c **** }
 2034              		.loc 1 208 0
 2035 001e FFF7FEFF 		bl	capsense_ClearSensors
 2036              	.LVL230:
 209:Generated_Source\PSoC4/capsense.c **** 
 2037              		.loc 1 209 0
 2038              		@ sp needed
 2039              	.LVL231:
 2040 0022 10BD     		pop	{r4, pc}
 2041              		.cfi_endproc
 2042              	.LFE34:
 2043              		.size	capsense_Init, .-capsense_Init
 2044              		.section	.text.capsense_Start,"ax",%progbits
 2045              		.align	2
 2046              		.global	capsense_Start
 2047              		.code	16
 2048              		.thumb_func
 2049              		.type	capsense_Start, %function
 2050              	capsense_Start:
 2051              	.LFB37:
 377:Generated_Source\PSoC4/capsense.c **** 
 2052              		.loc 1 377 0
 2053              		.cfi_startproc
 2054              		@ args = 0, pretend = 0, frame = 0
 2055              		@ frame_needed = 0, uses_anonymous_args = 0
 2056 0000 10B5     		push	{r4, lr}
 2057              		.cfi_def_cfa_offset 8
 2058              		.cfi_offset 4, -8
ARM GAS  C:\Users\puria\AppData\Local\Temp\ccYRkNAS.s 			page 79


 2059              		.cfi_offset 14, -4
 387:Generated_Source\PSoC4/capsense.c ****     {
 2060              		.loc 1 387 0
 2061 0002 0B4B     		ldr	r3, .L144
 2062 0004 DB7B     		ldrb	r3, [r3, #15]
 2063 0006 002B     		cmp	r3, #0
 2064 0008 04D1     		bne	.L143
 389:Generated_Source\PSoC4/capsense.c ****         capsense_initVar = 1u;
 2065              		.loc 1 389 0
 2066 000a FFF7FEFF 		bl	capsense_Init
 2067              	.LVL232:
 390:Generated_Source\PSoC4/capsense.c ****     }
 2068              		.loc 1 390 0
 2069 000e 0122     		movs	r2, #1
 2070 0010 074B     		ldr	r3, .L144
 2071 0012 DA73     		strb	r2, [r3, #15]
 2072              	.L143:
 392:Generated_Source\PSoC4/capsense.c **** 
 2073              		.loc 1 392 0
 2074 0014 FFF7FEFF 		bl	capsense_Enable
 2075              	.LVL233:
 397:Generated_Source\PSoC4/capsense.c ****             capsense_lowLevelTuningDone = 1u;
 2076              		.loc 1 397 0
 2077 0018 FFF7FEFF 		bl	capsense_AutoTune
 2078              	.LVL234:
 398:Generated_Source\PSoC4/capsense.c ****         #endif /* (0u != capsense_CSHL_API_GENERATE) */
 2079              		.loc 1 398 0
 2080 001c 0122     		movs	r2, #1
 2081 001e 044B     		ldr	r3, .L144
 2082 0020 1A74     		strb	r2, [r3, #16]
 441:Generated_Source\PSoC4/capsense.c **** }
 2083              		.loc 1 441 0
 2084 0022 044A     		ldr	r2, .L144+4
 2085 0024 1368     		ldr	r3, [r2]
 2086 0026 8021     		movs	r1, #128
 2087 0028 C903     		lsls	r1, r1, #15
 2088 002a 0B43     		orrs	r3, r1
 2089 002c 1360     		str	r3, [r2]
 442:Generated_Source\PSoC4/capsense.c **** 
 2090              		.loc 1 442 0
 2091              		@ sp needed
 2092 002e 10BD     		pop	{r4, pc}
 2093              	.L145:
 2094              		.align	2
 2095              	.L144:
 2096 0030 00000000 		.word	.LANCHOR0
 2097 0034 04002840 		.word	1076363268
 2098              		.cfi_endproc
 2099              	.LFE37:
 2100              		.size	capsense_Start, .-capsense_Start
 2101              		.section	.text.capsense_NormalizeWidgets,"ax",%progbits
 2102              		.align	2
 2103              		.global	capsense_NormalizeWidgets
 2104              		.code	16
 2105              		.thumb_func
 2106              		.type	capsense_NormalizeWidgets, %function
 2107              	capsense_NormalizeWidgets:
ARM GAS  C:\Users\puria\AppData\Local\Temp\ccYRkNAS.s 			page 80


 2108              	.LFB73:
2262:Generated_Source\PSoC4/capsense.c **** 
2263:Generated_Source\PSoC4/capsense.c **** #if(0u != capsense_TOTAL_CENTROIDS_COUNT)
2264:Generated_Source\PSoC4/capsense.c **** /*******************************************************************************
2265:Generated_Source\PSoC4/capsense.c **** * Function Name: capsense_NormalizeWidgets
2266:Generated_Source\PSoC4/capsense.c **** ********************************************************************************
2267:Generated_Source\PSoC4/capsense.c **** *
2268:Generated_Source\PSoC4/capsense.c **** * Summary:
2269:Generated_Source\PSoC4/capsense.c **** *  This API aligns all the parameters of the widget to the maximum parameter.
2270:Generated_Source\PSoC4/capsense.c **** *
2271:Generated_Source\PSoC4/capsense.c **** * Parameters:
2272:Generated_Source\PSoC4/capsense.c **** *  uint32 widgetsNum: Number of widgets.
2273:Generated_Source\PSoC4/capsense.c **** *  uint8 *dataPrt: pointer to array with widget parameters.
2274:Generated_Source\PSoC4/capsense.c **** *
2275:Generated_Source\PSoC4/capsense.c **** * Return:
2276:Generated_Source\PSoC4/capsense.c **** *  None
2277:Generated_Source\PSoC4/capsense.c **** *
2278:Generated_Source\PSoC4/capsense.c **** * Global Variables:
2279:Generated_Source\PSoC4/capsense.c **** *  capsense_numberOfSensors[] - Number of sensors in the widget.
2280:Generated_Source\PSoC4/capsense.c **** *  capsense_rawDataIndex[currentWidget] - Contains the  1st sensor
2281:Generated_Source\PSoC4/capsense.c **** *  position in the widget.
2282:Generated_Source\PSoC4/capsense.c **** *
2283:Generated_Source\PSoC4/capsense.c **** * Side Effects:
2284:Generated_Source\PSoC4/capsense.c **** *  None
2285:Generated_Source\PSoC4/capsense.c **** *
2286:Generated_Source\PSoC4/capsense.c **** *******************************************************************************/
2287:Generated_Source\PSoC4/capsense.c **** void capsense_NormalizeWidgets(uint32 widgetsNum, uint8 dataPtr[])
2288:Generated_Source\PSoC4/capsense.c **** {
 2109              		.loc 1 2288 0
 2110              		.cfi_startproc
 2111              		@ args = 0, pretend = 0, frame = 0
 2112              		@ frame_needed = 0, uses_anonymous_args = 0
 2113              	.LVL235:
 2114 0000 F0B5     		push	{r4, r5, r6, r7, lr}
 2115              		.cfi_def_cfa_offset 20
 2116              		.cfi_offset 4, -20
 2117              		.cfi_offset 5, -16
 2118              		.cfi_offset 6, -12
 2119              		.cfi_offset 7, -8
 2120              		.cfi_offset 14, -4
 2121              	.LVL236:
2289:Generated_Source\PSoC4/capsense.c ****     uint32 currentWidget;
2290:Generated_Source\PSoC4/capsense.c ****     uint32 currentSensor;
2291:Generated_Source\PSoC4/capsense.c ****     uint32 lastSensor;
2292:Generated_Source\PSoC4/capsense.c ****     uint32 sensorsPerWidget;
2293:Generated_Source\PSoC4/capsense.c ****     uint32 maxPerWidget;
2294:Generated_Source\PSoC4/capsense.c **** 
2295:Generated_Source\PSoC4/capsense.c ****     for(currentWidget = 0u; currentWidget < widgetsNum; currentWidget++)
 2122              		.loc 1 2295 0
 2123 0002 0027     		movs	r7, #0
 2124 0004 14E0     		b	.L147
 2125              	.LVL237:
 2126              	.L153:
2296:Generated_Source\PSoC4/capsense.c ****     {
2297:Generated_Source\PSoC4/capsense.c ****         maxPerWidget = 0u;
2298:Generated_Source\PSoC4/capsense.c **** 
2299:Generated_Source\PSoC4/capsense.c ****         sensorsPerWidget = capsense_numberOfSensors[currentWidget];
ARM GAS  C:\Users\puria\AppData\Local\Temp\ccYRkNAS.s 			page 81


 2127              		.loc 1 2299 0
 2128 0006 0C4B     		ldr	r3, .L155
 2129 0008 DE5D     		ldrb	r6, [r3, r7]
 2130              	.LVL238:
2300:Generated_Source\PSoC4/capsense.c ****         currentSensor = capsense_rawDataIndex[currentWidget];
 2131              		.loc 1 2300 0
 2132 000a 0C4B     		ldr	r3, .L155+4
 2133 000c DB5D     		ldrb	r3, [r3, r7]
 2134              	.LVL239:
2301:Generated_Source\PSoC4/capsense.c ****         lastSensor = currentSensor + sensorsPerWidget;
 2135              		.loc 1 2301 0
 2136 000e F618     		adds	r6, r6, r3
 2137              	.LVL240:
2300:Generated_Source\PSoC4/capsense.c ****         currentSensor = capsense_rawDataIndex[currentWidget];
 2138              		.loc 1 2300 0
 2139 0010 1A00     		movs	r2, r3
2297:Generated_Source\PSoC4/capsense.c **** 
 2140              		.loc 1 2297 0
 2141 0012 0024     		movs	r4, #0
2302:Generated_Source\PSoC4/capsense.c **** 
2303:Generated_Source\PSoC4/capsense.c ****         while(currentSensor < lastSensor)
 2142              		.loc 1 2303 0
 2143 0014 04E0     		b	.L148
 2144              	.LVL241:
 2145              	.L150:
2304:Generated_Source\PSoC4/capsense.c ****         {
2305:Generated_Source\PSoC4/capsense.c ****             if(maxPerWidget < dataPtr[currentSensor])
 2146              		.loc 1 2305 0
 2147 0016 8D5C     		ldrb	r5, [r1, r2]
 2148 0018 AC42     		cmp	r4, r5
 2149 001a 00D2     		bcs	.L149
2306:Generated_Source\PSoC4/capsense.c ****             {
2307:Generated_Source\PSoC4/capsense.c ****                 maxPerWidget = dataPtr[currentSensor];
 2150              		.loc 1 2307 0
 2151 001c 2C00     		movs	r4, r5
 2152              	.LVL242:
 2153              	.L149:
2308:Generated_Source\PSoC4/capsense.c ****             }
2309:Generated_Source\PSoC4/capsense.c ****             currentSensor++;
 2154              		.loc 1 2309 0
 2155 001e 0132     		adds	r2, r2, #1
 2156              	.LVL243:
 2157              	.L148:
2303:Generated_Source\PSoC4/capsense.c ****         {
 2158              		.loc 1 2303 0
 2159 0020 B242     		cmp	r2, r6
 2160 0022 F8D3     		bcc	.L150
 2161 0024 01E0     		b	.L151
 2162              	.LVL244:
 2163              	.L152:
2310:Generated_Source\PSoC4/capsense.c ****         }
2311:Generated_Source\PSoC4/capsense.c **** 
2312:Generated_Source\PSoC4/capsense.c ****         currentSensor = capsense_rawDataIndex[currentWidget];
2313:Generated_Source\PSoC4/capsense.c **** 
2314:Generated_Source\PSoC4/capsense.c ****         while(currentSensor < lastSensor)
2315:Generated_Source\PSoC4/capsense.c ****         {
2316:Generated_Source\PSoC4/capsense.c ****             dataPtr[currentSensor] = (uint8)maxPerWidget;
ARM GAS  C:\Users\puria\AppData\Local\Temp\ccYRkNAS.s 			page 82


 2164              		.loc 1 2316 0
 2165 0026 CC54     		strb	r4, [r1, r3]
2317:Generated_Source\PSoC4/capsense.c ****             currentSensor++;
 2166              		.loc 1 2317 0
 2167 0028 0133     		adds	r3, r3, #1
 2168              	.LVL245:
 2169              	.L151:
2314:Generated_Source\PSoC4/capsense.c ****         {
 2170              		.loc 1 2314 0
 2171 002a B342     		cmp	r3, r6
 2172 002c FBD3     		bcc	.L152
2295:Generated_Source\PSoC4/capsense.c ****     {
 2173              		.loc 1 2295 0 discriminator 2
 2174 002e 0137     		adds	r7, r7, #1
 2175              	.LVL246:
 2176              	.L147:
2295:Generated_Source\PSoC4/capsense.c ****     {
 2177              		.loc 1 2295 0 is_stmt 0 discriminator 1
 2178 0030 8742     		cmp	r7, r0
 2179 0032 E8D3     		bcc	.L153
2318:Generated_Source\PSoC4/capsense.c ****         }
2319:Generated_Source\PSoC4/capsense.c ****     }
2320:Generated_Source\PSoC4/capsense.c **** }
 2180              		.loc 1 2320 0 is_stmt 1
 2181              		@ sp needed
 2182              	.LVL247:
 2183 0034 F0BD     		pop	{r4, r5, r6, r7, pc}
 2184              	.L156:
 2185 0036 C046     		.align	2
 2186              	.L155:
 2187 0038 00000000 		.word	capsense_numberOfSensors
 2188 003c 00000000 		.word	capsense_rawDataIndex
 2189              		.cfi_endproc
 2190              	.LFE73:
 2191              		.size	capsense_NormalizeWidgets, .-capsense_NormalizeWidgets
 2192              		.global	capsense_prtDRTbl
 2193              		.global	capsense_prtCfgTbl
 2194              		.global	capsense_prtSelTbl
 2195              		.global	capsense_widgetNumber
 2196              		.comm	capsense_sampleClkDividerVal,5,4
 2197              		.comm	capsense_senseClkDividerVal,5,4
 2198              		.global	capsense_widgetResolution
 2199              		.comm	capsense_compensationIDAC,5,4
 2200              		.comm	capsense_modulationIDAC,5,4
 2201              		.global	capsense_pinShiftTbl
 2202              		.global	capsense_maskTable
 2203              		.global	capsense_portTable
 2204              		.global	capsense_pcTable
 2205              		.global	capsense_sensorEnableMask
 2206              		.comm	capsense_sensorEnableMaskBackup,1,4
 2207              		.comm	capsense_unscannedSnsDriveMode,5,4
 2208              		.comm	capsense_csdTrim1,1,1
 2209              		.global	capsense_sensorRaw
 2210              		.global	capsense_sensorIndex
 2211              		.global	capsense_csdStatusVar
 2212              		.comm	capsense_scanSpeedTbl,1,4
 2213              		.global	capsense_lowLevelTuningDone
ARM GAS  C:\Users\puria\AppData\Local\Temp\ccYRkNAS.s 			page 83


 2214              		.section	.rodata
 2215              		.align	2
 2216              		.set	.LANCHOR2,. + 0
 2217              		.type	capsense_portTable, %object
 2218              		.size	capsense_portTable, 5
 2219              	capsense_portTable:
 2220 0000 02       		.byte	2
 2221 0001 02       		.byte	2
 2222 0002 02       		.byte	2
 2223 0003 02       		.byte	2
 2224 0004 02       		.byte	2
 2225 0005 000000   		.space	3
 2226              		.type	capsense_pinShiftTbl, %object
 2227              		.size	capsense_pinShiftTbl, 5
 2228              	capsense_pinShiftTbl:
 2229 0008 01       		.byte	1
 2230 0009 02       		.byte	2
 2231 000a 03       		.byte	3
 2232 000b 04       		.byte	4
 2233 000c 05       		.byte	5
 2234 000d 000000   		.space	3
 2235              		.type	capsense_prtSelTbl, %object
 2236              		.size	capsense_prtSelTbl, 28
 2237              	capsense_prtSelTbl:
 2238 0010 00000240 		.word	1073872896
 2239 0014 00010240 		.word	1073873152
 2240 0018 00020240 		.word	1073873408
 2241 001c 00030240 		.word	1073873664
 2242 0020 00040240 		.word	1073873920
 2243 0024 00050240 		.word	1073874176
 2244 0028 00060240 		.word	1073874432
 2245              		.type	capsense_prtCfgTbl, %object
 2246              		.size	capsense_prtCfgTbl, 28
 2247              	capsense_prtCfgTbl:
 2248 002c 08000440 		.word	1074003976
 2249 0030 08010440 		.word	1074004232
 2250 0034 08020440 		.word	1074004488
 2251 0038 08030440 		.word	1074004744
 2252 003c 08040440 		.word	1074005000
 2253 0040 08050440 		.word	1074005256
 2254 0044 08060440 		.word	1074005512
 2255              		.type	capsense_prtDRTbl, %object
 2256              		.size	capsense_prtDRTbl, 28
 2257              	capsense_prtDRTbl:
 2258 0048 00000440 		.word	1074003968
 2259 004c 00010440 		.word	1074004224
 2260 0050 00020440 		.word	1074004480
 2261 0054 00030440 		.word	1074004736
 2262 0058 00040440 		.word	1074004992
 2263 005c 00050440 		.word	1074005248
 2264 0060 00060440 		.word	1074005504
 2265              		.type	capsense_widgetNumber, %object
 2266              		.size	capsense_widgetNumber, 5
 2267              	capsense_widgetNumber:
 2268 0064 00000000 		.space	5
 2268      00
 2269 0069 000000   		.space	3
ARM GAS  C:\Users\puria\AppData\Local\Temp\ccYRkNAS.s 			page 84


 2270              		.type	capsense_maskTable, %object
 2271              		.size	capsense_maskTable, 20
 2272              	capsense_maskTable:
 2273 006c 02000000 		.word	2
 2274 0070 04000000 		.word	4
 2275 0074 08000000 		.word	8
 2276 0078 10000000 		.word	16
 2277 007c 20000000 		.word	32
 2278              		.data
 2279              		.align	2
 2280              		.set	.LANCHOR1,. + 0
 2281              		.type	capsense_widgetResolution, %object
 2282              		.size	capsense_widgetResolution, 4
 2283              	capsense_widgetResolution:
 2284 0000 0000FF0F 		.word	268369920
 2285              		.type	capsense_sensorEnableMask, %object
 2286              		.size	capsense_sensorEnableMask, 1
 2287              	capsense_sensorEnableMask:
 2288 0004 1F       		.byte	31
 2289 0005 000000   		.space	3
 2290              		.type	capsense_pcTable, %object
 2291              		.size	capsense_pcTable, 20
 2292              	capsense_pcTable:
 2293 0008 08020440 		.word	1074004488
 2294 000c 08020440 		.word	1074004488
 2295 0010 08020440 		.word	1074004488
 2296 0014 08020440 		.word	1074004488
 2297 0018 08020440 		.word	1074004488
 2298              		.bss
 2299              		.align	2
 2300              		.set	.LANCHOR0,. + 0
 2301              		.type	capsense_csdStatusVar, %object
 2302              		.size	capsense_csdStatusVar, 1
 2303              	capsense_csdStatusVar:
 2304 0000 00       		.space	1
 2305 0001 000000   		.space	3
 2306              		.type	capsense_sensorRaw, %object
 2307              		.size	capsense_sensorRaw, 10
 2308              	capsense_sensorRaw:
 2309 0004 00000000 		.space	10
 2309      00000000 
 2309      0000
 2310              		.type	capsense_sensorIndex, %object
 2311              		.size	capsense_sensorIndex, 1
 2312              	capsense_sensorIndex:
 2313 000e 00       		.space	1
 2314              		.type	capsense_initVar.5425, %object
 2315              		.size	capsense_initVar.5425, 1
 2316              	capsense_initVar.5425:
 2317 000f 00       		.space	1
 2318              		.type	capsense_lowLevelTuningDone, %object
 2319              		.size	capsense_lowLevelTuningDone, 1
 2320              	capsense_lowLevelTuningDone:
 2321 0010 00       		.space	1
 2322              		.text
 2323              	.Letext0:
 2324              		.file 2 "Generated_Source\\PSoC4\\cytypes.h"
ARM GAS  C:\Users\puria\AppData\Local\Temp\ccYRkNAS.s 			page 85


 2325              		.file 3 "Generated_Source\\PSoC4\\capsense_CSHL.h"
 2326              		.file 4 "Generated_Source\\PSoC4\\CyLib.h"
 2327              		.file 5 "Generated_Source\\PSoC4\\capsense_SenseClk.h"
 2328              		.file 6 "Generated_Source\\PSoC4\\capsense_SampleClk.h"
 2329              		.file 7 "Generated_Source\\PSoC4\\capsense.h"
 2330              		.section	.debug_info,"",%progbits
 2331              	.Ldebug_info0:
 2332 0000 0D110000 		.4byte	0x110d
 2333 0004 0400     		.2byte	0x4
 2334 0006 00000000 		.4byte	.Ldebug_abbrev0
 2335 000a 04       		.byte	0x4
 2336 000b 01       		.uleb128 0x1
 2337 000c BC020000 		.4byte	.LASF140
 2338 0010 0C       		.byte	0xc
 2339 0011 AC060000 		.4byte	.LASF141
 2340 0015 1D010000 		.4byte	.LASF142
 2341 0019 00000000 		.4byte	.Ldebug_ranges0+0
 2342 001d 00000000 		.4byte	0
 2343 0021 00000000 		.4byte	.Ldebug_line0
 2344 0025 02       		.uleb128 0x2
 2345 0026 01       		.byte	0x1
 2346 0027 06       		.byte	0x6
 2347 0028 92090000 		.4byte	.LASF0
 2348 002c 02       		.uleb128 0x2
 2349 002d 01       		.byte	0x1
 2350 002e 08       		.byte	0x8
 2351 002f 89080000 		.4byte	.LASF1
 2352 0033 02       		.uleb128 0x2
 2353 0034 02       		.byte	0x2
 2354 0035 05       		.byte	0x5
 2355 0036 5E060000 		.4byte	.LASF2
 2356 003a 02       		.uleb128 0x2
 2357 003b 02       		.byte	0x2
 2358 003c 07       		.byte	0x7
 2359 003d A6090000 		.4byte	.LASF3
 2360 0041 02       		.uleb128 0x2
 2361 0042 04       		.byte	0x4
 2362 0043 05       		.byte	0x5
 2363 0044 68060000 		.4byte	.LASF4
 2364 0048 02       		.uleb128 0x2
 2365 0049 04       		.byte	0x4
 2366 004a 07       		.byte	0x7
 2367 004b DE070000 		.4byte	.LASF5
 2368 004f 02       		.uleb128 0x2
 2369 0050 08       		.byte	0x8
 2370 0051 05       		.byte	0x5
 2371 0052 AA040000 		.4byte	.LASF6
 2372 0056 02       		.uleb128 0x2
 2373 0057 08       		.byte	0x8
 2374 0058 07       		.byte	0x7
 2375 0059 24020000 		.4byte	.LASF7
 2376 005d 03       		.uleb128 0x3
 2377 005e 04       		.byte	0x4
 2378 005f 05       		.byte	0x5
 2379 0060 696E7400 		.ascii	"int\000"
 2380 0064 02       		.uleb128 0x2
 2381 0065 04       		.byte	0x4
ARM GAS  C:\Users\puria\AppData\Local\Temp\ccYRkNAS.s 			page 86


 2382 0066 07       		.byte	0x7
 2383 0067 63000000 		.4byte	.LASF8
 2384 006b 04       		.uleb128 0x4
 2385 006c 130A0000 		.4byte	.LASF9
 2386 0070 02       		.byte	0x2
 2387 0071 D201     		.2byte	0x1d2
 2388 0073 2C000000 		.4byte	0x2c
 2389 0077 04       		.uleb128 0x4
 2390 0078 5D040000 		.4byte	.LASF10
 2391 007c 02       		.byte	0x2
 2392 007d D301     		.2byte	0x1d3
 2393 007f 3A000000 		.4byte	0x3a
 2394 0083 04       		.uleb128 0x4
 2395 0084 33050000 		.4byte	.LASF11
 2396 0088 02       		.byte	0x2
 2397 0089 D401     		.2byte	0x1d4
 2398 008b 48000000 		.4byte	0x48
 2399 008f 02       		.uleb128 0x2
 2400 0090 04       		.byte	0x4
 2401 0091 04       		.byte	0x4
 2402 0092 03020000 		.4byte	.LASF12
 2403 0096 02       		.uleb128 0x2
 2404 0097 08       		.byte	0x8
 2405 0098 04       		.byte	0x4
 2406 0099 190A0000 		.4byte	.LASF13
 2407 009d 02       		.uleb128 0x2
 2408 009e 01       		.byte	0x1
 2409 009f 08       		.byte	0x8
 2410 00a0 FA030000 		.4byte	.LASF14
 2411 00a4 04       		.uleb128 0x4
 2412 00a5 C0000000 		.4byte	.LASF15
 2413 00a9 02       		.byte	0x2
 2414 00aa 7C02     		.2byte	0x27c
 2415 00ac B0000000 		.4byte	0xb0
 2416 00b0 05       		.uleb128 0x5
 2417 00b1 6B000000 		.4byte	0x6b
 2418 00b5 04       		.uleb128 0x4
 2419 00b6 F1050000 		.4byte	.LASF16
 2420 00ba 02       		.byte	0x2
 2421 00bb 7E02     		.2byte	0x27e
 2422 00bd C1000000 		.4byte	0xc1
 2423 00c1 05       		.uleb128 0x5
 2424 00c2 83000000 		.4byte	0x83
 2425 00c6 02       		.uleb128 0x2
 2426 00c7 04       		.byte	0x4
 2427 00c8 07       		.byte	0x7
 2428 00c9 D5070000 		.4byte	.LASF17
 2429 00cd 02       		.uleb128 0x2
 2430 00ce 08       		.byte	0x8
 2431 00cf 04       		.byte	0x4
 2432 00d0 DA050000 		.4byte	.LASF18
 2433 00d4 06       		.uleb128 0x6
 2434 00d5 04       		.byte	0x4
 2435 00d6 6B000000 		.4byte	0x6b
 2436 00da 06       		.uleb128 0x6
 2437 00db 04       		.byte	0x4
 2438 00dc E0000000 		.4byte	0xe0
ARM GAS  C:\Users\puria\AppData\Local\Temp\ccYRkNAS.s 			page 87


 2439 00e0 07       		.uleb128 0x7
 2440 00e1 6B000000 		.4byte	0x6b
 2441 00e5 08       		.uleb128 0x8
 2442 00e6 57080000 		.4byte	.LASF19
 2443 00ea 01       		.byte	0x1
 2444 00eb E8       		.byte	0xe8
 2445 00ec 00000000 		.4byte	.LFB35
 2446 00f0 7C000000 		.4byte	.LFE35-.LFB35
 2447 00f4 01       		.uleb128 0x1
 2448 00f5 9C       		.byte	0x9c
 2449 00f6 44010000 		.4byte	0x144
 2450 00fa 09       		.uleb128 0x9
 2451 00fb ED090000 		.4byte	.LASF21
 2452 00ff 01       		.byte	0x1
 2453 0100 EA       		.byte	0xea
 2454 0101 83000000 		.4byte	0x83
 2455 0105 00000000 		.4byte	.LLST0
 2456 0109 0A       		.uleb128 0xa
 2457 010a 46000000 		.4byte	.LVL11
 2458 010e 6A100000 		.4byte	0x106a
 2459 0112 1C010000 		.4byte	0x11c
 2460 0116 0B       		.uleb128 0xb
 2461 0117 01       		.uleb128 0x1
 2462 0118 50       		.byte	0x50
 2463 0119 01       		.uleb128 0x1
 2464 011a 40       		.byte	0x40
 2465 011b 00       		.byte	0
 2466 011c 0A       		.uleb128 0xa
 2467 011d 4E000000 		.4byte	.LVL12
 2468 0121 75100000 		.4byte	0x1075
 2469 0125 2F010000 		.4byte	0x12f
 2470 0129 0B       		.uleb128 0xb
 2471 012a 01       		.uleb128 0x1
 2472 012b 50       		.byte	0x50
 2473 012c 01       		.uleb128 0x1
 2474 012d 40       		.byte	0x40
 2475 012e 00       		.byte	0
 2476 012f 0C       		.uleb128 0xc
 2477 0130 56000000 		.4byte	.LVL13
 2478 0134 80100000 		.4byte	0x1080
 2479 0138 0B       		.uleb128 0xb
 2480 0139 01       		.uleb128 0x1
 2481 013a 50       		.byte	0x50
 2482 013b 01       		.uleb128 0x1
 2483 013c 40       		.byte	0x40
 2484 013d 0B       		.uleb128 0xb
 2485 013e 01       		.uleb128 0x1
 2486 013f 51       		.byte	0x51
 2487 0140 01       		.uleb128 0x1
 2488 0141 33       		.byte	0x33
 2489 0142 00       		.byte	0
 2490 0143 00       		.byte	0
 2491 0144 0D       		.uleb128 0xd
 2492 0145 0B080000 		.4byte	.LASF20
 2493 0149 01       		.byte	0x1
 2494 014a 3D01     		.2byte	0x13d
 2495 014c 00000000 		.4byte	.LFB36
ARM GAS  C:\Users\puria\AppData\Local\Temp\ccYRkNAS.s 			page 88


 2496 0150 40000000 		.4byte	.LFE36-.LFB36
 2497 0154 01       		.uleb128 0x1
 2498 0155 9C       		.byte	0x9c
 2499 0156 E4010000 		.4byte	0x1e4
 2500 015a 0E       		.uleb128 0xe
 2501 015b ED090000 		.4byte	.LASF21
 2502 015f 01       		.byte	0x1
 2503 0160 3F01     		.2byte	0x13f
 2504 0162 83000000 		.4byte	0x83
 2505 0166 40000000 		.4byte	.LLST1
 2506 016a 0F       		.uleb128 0xf
 2507 016b 06000000 		.4byte	.LVL14
 2508 016f 8B100000 		.4byte	0x108b
 2509 0173 0F       		.uleb128 0xf
 2510 0174 0A000000 		.4byte	.LVL15
 2511 0178 96100000 		.4byte	0x1096
 2512 017c 0A       		.uleb128 0xa
 2513 017d 12000000 		.4byte	.LVL16
 2514 0181 A1100000 		.4byte	0x10a1
 2515 0185 94010000 		.4byte	0x194
 2516 0189 0B       		.uleb128 0xb
 2517 018a 01       		.uleb128 0x1
 2518 018b 50       		.byte	0x50
 2519 018c 01       		.uleb128 0x1
 2520 018d 30       		.byte	0x30
 2521 018e 0B       		.uleb128 0xb
 2522 018f 01       		.uleb128 0x1
 2523 0190 51       		.byte	0x51
 2524 0191 01       		.uleb128 0x1
 2525 0192 30       		.byte	0x30
 2526 0193 00       		.byte	0
 2527 0194 0A       		.uleb128 0xa
 2528 0195 1A000000 		.4byte	.LVL17
 2529 0199 AC100000 		.4byte	0x10ac
 2530 019d AC010000 		.4byte	0x1ac
 2531 01a1 0B       		.uleb128 0xb
 2532 01a2 01       		.uleb128 0x1
 2533 01a3 50       		.byte	0x50
 2534 01a4 01       		.uleb128 0x1
 2535 01a5 30       		.byte	0x30
 2536 01a6 0B       		.uleb128 0xb
 2537 01a7 01       		.uleb128 0x1
 2538 01a8 51       		.byte	0x51
 2539 01a9 01       		.uleb128 0x1
 2540 01aa 30       		.byte	0x30
 2541 01ab 00       		.byte	0
 2542 01ac 0A       		.uleb128 0xa
 2543 01ad 20000000 		.4byte	.LVL18
 2544 01b1 B7100000 		.4byte	0x10b7
 2545 01b5 C0010000 		.4byte	0x1c0
 2546 01b9 0B       		.uleb128 0xb
 2547 01ba 01       		.uleb128 0x1
 2548 01bb 50       		.byte	0x50
 2549 01bc 02       		.uleb128 0x2
 2550 01bd 08       		.byte	0x8
 2551 01be FF       		.byte	0xff
 2552 01bf 00       		.byte	0
ARM GAS  C:\Users\puria\AppData\Local\Temp\ccYRkNAS.s 			page 89


 2553 01c0 0A       		.uleb128 0xa
 2554 01c1 26000000 		.4byte	.LVL19
 2555 01c5 C2100000 		.4byte	0x10c2
 2556 01c9 D4010000 		.4byte	0x1d4
 2557 01cd 0B       		.uleb128 0xb
 2558 01ce 01       		.uleb128 0x1
 2559 01cf 50       		.byte	0x50
 2560 01d0 02       		.uleb128 0x2
 2561 01d1 08       		.byte	0x8
 2562 01d2 40       		.byte	0x40
 2563 01d3 00       		.byte	0
 2564 01d4 0C       		.uleb128 0xc
 2565 01d5 36000000 		.4byte	.LVL22
 2566 01d9 CD100000 		.4byte	0x10cd
 2567 01dd 0B       		.uleb128 0xb
 2568 01de 01       		.uleb128 0x1
 2569 01df 50       		.byte	0x50
 2570 01e0 01       		.uleb128 0x1
 2571 01e1 40       		.byte	0x40
 2572 01e2 00       		.byte	0
 2573 01e3 00       		.byte	0
 2574 01e4 0D       		.uleb128 0xd
 2575 01e5 50050000 		.4byte	.LASF22
 2576 01e9 01       		.byte	0x1
 2577 01ea D401     		.2byte	0x1d4
 2578 01ec 00000000 		.4byte	.LFB38
 2579 01f0 2C000000 		.4byte	.LFE38-.LFB38
 2580 01f4 01       		.uleb128 0x1
 2581 01f5 9C       		.byte	0x9c
 2582 01f6 20020000 		.4byte	0x220
 2583 01fa 0A       		.uleb128 0xa
 2584 01fb 08000000 		.4byte	.LVL23
 2585 01ff 6A100000 		.4byte	0x106a
 2586 0203 0D020000 		.4byte	0x20d
 2587 0207 0B       		.uleb128 0xb
 2588 0208 01       		.uleb128 0x1
 2589 0209 50       		.byte	0x50
 2590 020a 01       		.uleb128 0x1
 2591 020b 40       		.byte	0x40
 2592 020c 00       		.byte	0
 2593 020d 0F       		.uleb128 0xf
 2594 020e 1E000000 		.4byte	.LVL24
 2595 0212 8B100000 		.4byte	0x108b
 2596 0216 0F       		.uleb128 0xf
 2597 0217 22000000 		.4byte	.LVL25
 2598 021b 96100000 		.4byte	0x1096
 2599 021f 00       		.byte	0
 2600 0220 10       		.uleb128 0x10
 2601 0221 F1040000 		.4byte	.LASF54
 2602 0225 01       		.byte	0x1
 2603 0226 CF02     		.2byte	0x2cf
 2604 0228 83000000 		.4byte	0x83
 2605 022c 00000000 		.4byte	.LFB43
 2606 0230 10000000 		.4byte	.LFE43-.LFB43
 2607 0234 01       		.uleb128 0x1
 2608 0235 9C       		.byte	0x9c
 2609 0236 11       		.uleb128 0x11
ARM GAS  C:\Users\puria\AppData\Local\Temp\ccYRkNAS.s 			page 90


 2610 0237 B9090000 		.4byte	.LASF29
 2611 023b 01       		.byte	0x1
 2612 023c ED02     		.2byte	0x2ed
 2613 023e 77000000 		.4byte	0x77
 2614 0242 00000000 		.4byte	.LFB44
 2615 0246 10000000 		.4byte	.LFE44-.LFB44
 2616 024a 01       		.uleb128 0x1
 2617 024b 9C       		.byte	0x9c
 2618 024c 61020000 		.4byte	0x261
 2619 0250 12       		.uleb128 0x12
 2620 0251 DB030000 		.4byte	.LASF24
 2621 0255 01       		.byte	0x1
 2622 0256 ED02     		.2byte	0x2ed
 2623 0258 83000000 		.4byte	0x83
 2624 025c 53000000 		.4byte	.LLST2
 2625 0260 00       		.byte	0
 2626 0261 0D       		.uleb128 0xd
 2627 0262 1F000000 		.4byte	.LASF23
 2628 0266 01       		.byte	0x1
 2629 0267 0803     		.2byte	0x308
 2630 0269 00000000 		.4byte	.LFB45
 2631 026d 10000000 		.4byte	.LFE45-.LFB45
 2632 0271 01       		.uleb128 0x1
 2633 0272 9C       		.byte	0x9c
 2634 0273 96020000 		.4byte	0x296
 2635 0277 12       		.uleb128 0x12
 2636 0278 DB030000 		.4byte	.LASF24
 2637 027c 01       		.byte	0x1
 2638 027d 0803     		.2byte	0x308
 2639 027f 83000000 		.4byte	0x83
 2640 0283 74000000 		.4byte	.LLST3
 2641 0287 13       		.uleb128 0x13
 2642 0288 86020000 		.4byte	.LASF25
 2643 028c 01       		.byte	0x1
 2644 028d 0803     		.2byte	0x308
 2645 028f 77000000 		.4byte	0x77
 2646 0293 01       		.uleb128 0x1
 2647 0294 51       		.byte	0x51
 2648 0295 00       		.byte	0
 2649 0296 0D       		.uleb128 0xd
 2650 0297 6B020000 		.4byte	.LASF26
 2651 029b 01       		.byte	0x1
 2652 029c 3203     		.2byte	0x332
 2653 029e 00000000 		.4byte	.LFB46
 2654 02a2 0C000000 		.4byte	.LFE46-.LFB46
 2655 02a6 01       		.uleb128 0x1
 2656 02a7 9C       		.byte	0x9c
 2657 02a8 CB020000 		.4byte	0x2cb
 2658 02ac 12       		.uleb128 0x12
 2659 02ad 52020000 		.4byte	.LASF27
 2660 02b1 01       		.byte	0x1
 2661 02b2 3203     		.2byte	0x332
 2662 02b4 83000000 		.4byte	0x83
 2663 02b8 95000000 		.4byte	.LLST4
 2664 02bc 13       		.uleb128 0x13
 2665 02bd 73040000 		.4byte	.LASF28
 2666 02c1 01       		.byte	0x1
ARM GAS  C:\Users\puria\AppData\Local\Temp\ccYRkNAS.s 			page 91


 2667 02c2 3203     		.2byte	0x332
 2668 02c4 83000000 		.4byte	0x83
 2669 02c8 01       		.uleb128 0x1
 2670 02c9 51       		.byte	0x51
 2671 02ca 00       		.byte	0
 2672 02cb 11       		.uleb128 0x11
 2673 02cc 09020000 		.4byte	.LASF30
 2674 02d0 01       		.byte	0x1
 2675 02d1 5B03     		.2byte	0x35b
 2676 02d3 83000000 		.4byte	0x83
 2677 02d7 00000000 		.4byte	.LFB47
 2678 02db 0C000000 		.4byte	.LFE47-.LFB47
 2679 02df 01       		.uleb128 0x1
 2680 02e0 9C       		.byte	0x9c
 2681 02e1 F6020000 		.4byte	0x2f6
 2682 02e5 12       		.uleb128 0x12
 2683 02e6 52020000 		.4byte	.LASF27
 2684 02ea 01       		.byte	0x1
 2685 02eb 5B03     		.2byte	0x35b
 2686 02ed 83000000 		.4byte	0x83
 2687 02f1 B6000000 		.4byte	.LLST5
 2688 02f5 00       		.byte	0
 2689 02f6 0D       		.uleb128 0xd
 2690 02f7 37000000 		.4byte	.LASF31
 2691 02fb 01       		.byte	0x1
 2692 02fc 1404     		.2byte	0x414
 2693 02fe 00000000 		.4byte	.LFB49
 2694 0302 48000000 		.4byte	.LFE49-.LFB49
 2695 0306 01       		.uleb128 0x1
 2696 0307 9C       		.byte	0x9c
 2697 0308 7F030000 		.4byte	0x37f
 2698 030c 12       		.uleb128 0x12
 2699 030d DB030000 		.4byte	.LASF24
 2700 0311 01       		.byte	0x1
 2701 0312 1404     		.2byte	0x414
 2702 0314 83000000 		.4byte	0x83
 2703 0318 D7000000 		.4byte	.LLST6
 2704 031c 0E       		.uleb128 0xe
 2705 031d 73010000 		.4byte	.LASF32
 2706 0321 01       		.byte	0x1
 2707 0322 1604     		.2byte	0x416
 2708 0324 6B000000 		.4byte	0x6b
 2709 0328 F8000000 		.4byte	.LLST7
 2710 032c 0E       		.uleb128 0xe
 2711 032d E3000000 		.4byte	.LASF33
 2712 0331 01       		.byte	0x1
 2713 0332 1704     		.2byte	0x417
 2714 0334 6B000000 		.4byte	0x6b
 2715 0338 5D010000 		.4byte	.LLST8
 2716 033c 0E       		.uleb128 0xe
 2717 033d B1000000 		.4byte	.LASF34
 2718 0341 01       		.byte	0x1
 2719 0342 1804     		.2byte	0x418
 2720 0344 6B000000 		.4byte	0x6b
 2721 0348 9F010000 		.4byte	.LLST9
 2722 034c 0E       		.uleb128 0xe
 2723 034d 4A030000 		.4byte	.LASF35
ARM GAS  C:\Users\puria\AppData\Local\Temp\ccYRkNAS.s 			page 92


 2724 0351 01       		.byte	0x1
 2725 0352 1904     		.2byte	0x419
 2726 0354 83000000 		.4byte	0x83
 2727 0358 B2010000 		.4byte	.LLST10
 2728 035c 0E       		.uleb128 0xe
 2729 035d 36080000 		.4byte	.LASF36
 2730 0361 01       		.byte	0x1
 2731 0362 1A04     		.2byte	0x41a
 2732 0364 83000000 		.4byte	0x83
 2733 0368 DB010000 		.4byte	.LLST11
 2734 036c 0F       		.uleb128 0xf
 2735 036d 18000000 		.4byte	.LVL39
 2736 0371 D8100000 		.4byte	0x10d8
 2737 0375 0F       		.uleb128 0xf
 2738 0376 40000000 		.4byte	.LVL46
 2739 037a E3100000 		.4byte	0x10e3
 2740 037e 00       		.byte	0
 2741 037f 0D       		.uleb128 0xd
 2742 0380 3B020000 		.4byte	.LASF37
 2743 0384 01       		.byte	0x1
 2744 0385 4904     		.2byte	0x449
 2745 0387 00000000 		.4byte	.LFB50
 2746 038b 70000000 		.4byte	.LFE50-.LFB50
 2747 038f 01       		.uleb128 0x1
 2748 0390 9C       		.byte	0x9c
 2749 0391 28040000 		.4byte	0x428
 2750 0395 12       		.uleb128 0x12
 2751 0396 DB030000 		.4byte	.LASF24
 2752 039a 01       		.byte	0x1
 2753 039b 4904     		.2byte	0x449
 2754 039d 83000000 		.4byte	0x83
 2755 03a1 1D020000 		.4byte	.LLST12
 2756 03a5 0E       		.uleb128 0xe
 2757 03a6 B1000000 		.4byte	.LASF34
 2758 03aa 01       		.byte	0x1
 2759 03ab 4B04     		.2byte	0x44b
 2760 03ad 6B000000 		.4byte	0x6b
 2761 03b1 3E020000 		.4byte	.LLST13
 2762 03b5 0E       		.uleb128 0xe
 2763 03b6 4A030000 		.4byte	.LASF35
 2764 03ba 01       		.byte	0x1
 2765 03bb 4C04     		.2byte	0x44c
 2766 03bd 83000000 		.4byte	0x83
 2767 03c1 51020000 		.4byte	.LLST14
 2768 03c5 0E       		.uleb128 0xe
 2769 03c6 36080000 		.4byte	.LASF36
 2770 03ca 01       		.byte	0x1
 2771 03cb 4E04     		.2byte	0x44e
 2772 03cd 83000000 		.4byte	0x83
 2773 03d1 7A020000 		.4byte	.LLST15
 2774 03d5 0E       		.uleb128 0xe
 2775 03d6 E3000000 		.4byte	.LASF33
 2776 03da 01       		.byte	0x1
 2777 03db 4F04     		.2byte	0x44f
 2778 03dd 6B000000 		.4byte	0x6b
 2779 03e1 D5020000 		.4byte	.LLST16
 2780 03e5 0E       		.uleb128 0xe
ARM GAS  C:\Users\puria\AppData\Local\Temp\ccYRkNAS.s 			page 93


 2781 03e6 73010000 		.4byte	.LASF32
 2782 03ea 01       		.byte	0x1
 2783 03eb 5004     		.2byte	0x450
 2784 03ed 6B000000 		.4byte	0x6b
 2785 03f1 0F030000 		.4byte	.LLST17
 2786 03f5 0E       		.uleb128 0xe
 2787 03f6 C4010000 		.4byte	.LASF38
 2788 03fa 01       		.byte	0x1
 2789 03fb 5204     		.2byte	0x452
 2790 03fd 83000000 		.4byte	0x83
 2791 0401 5E030000 		.4byte	.LLST18
 2792 0405 0E       		.uleb128 0xe
 2793 0406 5B030000 		.4byte	.LASF39
 2794 040a 01       		.byte	0x1
 2795 040b 5304     		.2byte	0x453
 2796 040d 83000000 		.4byte	0x83
 2797 0411 7D030000 		.4byte	.LLST19
 2798 0415 0F       		.uleb128 0xf
 2799 0416 3C000000 		.4byte	.LVL56
 2800 041a D8100000 		.4byte	0x10d8
 2801 041e 0F       		.uleb128 0xf
 2802 041f 5A000000 		.4byte	.LVL63
 2803 0423 E3100000 		.4byte	0x10e3
 2804 0427 00       		.byte	0
 2805 0428 0D       		.uleb128 0xd
 2806 0429 E5060000 		.4byte	.LASF40
 2807 042d 01       		.byte	0x1
 2808 042e 7603     		.2byte	0x376
 2809 0430 00000000 		.4byte	.LFB48
 2810 0434 14000000 		.4byte	.LFE48-.LFB48
 2811 0438 01       		.uleb128 0x1
 2812 0439 9C       		.byte	0x9c
 2813 043a 5F040000 		.4byte	0x45f
 2814 043e 0E       		.uleb128 0xe
 2815 043f B0050000 		.4byte	.LASF41
 2816 0443 01       		.byte	0x1
 2817 0444 7803     		.2byte	0x378
 2818 0446 83000000 		.4byte	0x83
 2819 044a 90030000 		.4byte	.LLST20
 2820 044e 0C       		.uleb128 0xc
 2821 044f 0C000000 		.4byte	.LVL69
 2822 0453 7F030000 		.4byte	0x37f
 2823 0457 0B       		.uleb128 0xb
 2824 0458 01       		.uleb128 0x1
 2825 0459 50       		.byte	0x50
 2826 045a 02       		.uleb128 0x2
 2827 045b 74       		.byte	0x74
 2828 045c 00       		.sleb128 0
 2829 045d 00       		.byte	0
 2830 045e 00       		.byte	0
 2831 045f 0D       		.uleb128 0xd
 2832 0460 6A0A0000 		.4byte	.LASF42
 2833 0464 01       		.byte	0x1
 2834 0465 1305     		.2byte	0x513
 2835 0467 00000000 		.4byte	.LFB53
 2836 046b 24000000 		.4byte	.LFE53-.LFB53
 2837 046f 01       		.uleb128 0x1
ARM GAS  C:\Users\puria\AppData\Local\Temp\ccYRkNAS.s 			page 94


 2838 0470 9C       		.byte	0x9c
 2839 0471 C4040000 		.4byte	0x4c4
 2840 0475 12       		.uleb128 0x12
 2841 0476 960A0000 		.4byte	.LASF43
 2842 047a 01       		.byte	0x1
 2843 047b 1305     		.2byte	0x513
 2844 047d 83000000 		.4byte	0x83
 2845 0481 AF030000 		.4byte	.LLST21
 2846 0485 12       		.uleb128 0x12
 2847 0486 85050000 		.4byte	.LASF44
 2848 048a 01       		.byte	0x1
 2849 048b 1305     		.2byte	0x513
 2850 048d 83000000 		.4byte	0x83
 2851 0491 D0030000 		.4byte	.LLST22
 2852 0495 12       		.uleb128 0x12
 2853 0496 11060000 		.4byte	.LASF45
 2854 049a 01       		.byte	0x1
 2855 049b 1305     		.2byte	0x513
 2856 049d 83000000 		.4byte	0x83
 2857 04a1 F1030000 		.4byte	.LLST23
 2858 04a5 14       		.uleb128 0x14
 2859 04a6 73010000 		.4byte	.LASF32
 2860 04aa 01       		.byte	0x1
 2861 04ab 1505     		.2byte	0x515
 2862 04ad 83000000 		.4byte	0x83
 2863 04b1 01       		.uleb128 0x1
 2864 04b2 51       		.byte	0x51
 2865 04b3 0E       		.uleb128 0xe
 2866 04b4 4A030000 		.4byte	.LASF35
 2867 04b8 01       		.byte	0x1
 2868 04b9 1605     		.2byte	0x516
 2869 04bb 83000000 		.4byte	0x83
 2870 04bf 12040000 		.4byte	.LLST24
 2871 04c3 00       		.byte	0
 2872 04c4 0D       		.uleb128 0xd
 2873 04c5 FB060000 		.4byte	.LASF46
 2874 04c9 01       		.byte	0x1
 2875 04ca 9604     		.2byte	0x496
 2876 04cc 00000000 		.4byte	.LFB51
 2877 04d0 30000000 		.4byte	.LFE51-.LFB51
 2878 04d4 01       		.uleb128 0x1
 2879 04d5 9C       		.byte	0x9c
 2880 04d6 6B050000 		.4byte	0x56b
 2881 04da 12       		.uleb128 0x12
 2882 04db 960A0000 		.4byte	.LASF43
 2883 04df 01       		.byte	0x1
 2884 04e0 9604     		.2byte	0x496
 2885 04e2 83000000 		.4byte	0x83
 2886 04e6 30040000 		.4byte	.LLST25
 2887 04ea 0E       		.uleb128 0xe
 2888 04eb 600A0000 		.4byte	.LASF47
 2889 04ef 01       		.byte	0x1
 2890 04f0 9804     		.2byte	0x498
 2891 04f2 6B000000 		.4byte	0x6b
 2892 04f6 5C040000 		.4byte	.LLST26
 2893 04fa 0E       		.uleb128 0xe
 2894 04fb 8E030000 		.4byte	.LASF48
ARM GAS  C:\Users\puria\AppData\Local\Temp\ccYRkNAS.s 			page 95


 2895 04ff 01       		.byte	0x1
 2896 0500 9D04     		.2byte	0x49d
 2897 0502 83000000 		.4byte	0x83
 2898 0506 86040000 		.4byte	.LLST27
 2899 050a 0E       		.uleb128 0xe
 2900 050b 7E040000 		.4byte	.LASF49
 2901 050f 01       		.byte	0x1
 2902 0510 9E04     		.2byte	0x49e
 2903 0512 83000000 		.4byte	0x83
 2904 0516 C9040000 		.4byte	.LLST28
 2905 051a 0A       		.uleb128 0xa
 2906 051b 16000000 		.4byte	.LVL84
 2907 051f 5F040000 		.4byte	0x45f
 2908 0523 50050000 		.4byte	0x550
 2909 0527 0B       		.uleb128 0xb
 2910 0528 01       		.uleb128 0x1
 2911 0529 50       		.byte	0x50
 2912 052a 02       		.uleb128 0x2
 2913 052b 75       		.byte	0x75
 2914 052c 00       		.sleb128 0
 2915 052d 0B       		.uleb128 0xb
 2916 052e 01       		.uleb128 0x1
 2917 052f 51       		.byte	0x51
 2918 0530 0D       		.uleb128 0xd
 2919 0531 74       		.byte	0x74
 2920 0532 00       		.sleb128 0
 2921 0533 03       		.byte	0x3
 2922 0534 08000000 		.4byte	.LANCHOR2+8
 2923 0538 22       		.byte	0x22
 2924 0539 94       		.byte	0x94
 2925 053a 01       		.byte	0x1
 2926 053b 08       		.byte	0x8
 2927 053c FF       		.byte	0xff
 2928 053d 1A       		.byte	0x1a
 2929 053e 0B       		.uleb128 0xb
 2930 053f 01       		.uleb128 0x1
 2931 0540 52       		.byte	0x52
 2932 0541 0D       		.uleb128 0xd
 2933 0542 74       		.byte	0x74
 2934 0543 00       		.sleb128 0
 2935 0544 03       		.byte	0x3
 2936 0545 00000000 		.4byte	.LANCHOR2
 2937 0549 22       		.byte	0x22
 2938 054a 94       		.byte	0x94
 2939 054b 01       		.byte	0x1
 2940 054c 08       		.byte	0x8
 2941 054d FF       		.byte	0xff
 2942 054e 1A       		.byte	0x1a
 2943 054f 00       		.byte	0
 2944 0550 0C       		.uleb128 0xc
 2945 0551 28000000 		.4byte	.LVL87
 2946 0555 5F040000 		.4byte	0x45f
 2947 0559 0B       		.uleb128 0xb
 2948 055a 01       		.uleb128 0x1
 2949 055b 50       		.byte	0x50
 2950 055c 02       		.uleb128 0x2
 2951 055d 75       		.byte	0x75
ARM GAS  C:\Users\puria\AppData\Local\Temp\ccYRkNAS.s 			page 96


 2952 055e 00       		.sleb128 0
 2953 055f 0B       		.uleb128 0xb
 2954 0560 01       		.uleb128 0x1
 2955 0561 51       		.byte	0x51
 2956 0562 01       		.uleb128 0x1
 2957 0563 30       		.byte	0x30
 2958 0564 0B       		.uleb128 0xb
 2959 0565 01       		.uleb128 0x1
 2960 0566 52       		.byte	0x52
 2961 0567 01       		.uleb128 0x1
 2962 0568 34       		.byte	0x34
 2963 0569 00       		.byte	0
 2964 056a 00       		.byte	0
 2965 056b 0D       		.uleb128 0xd
 2966 056c B9050000 		.4byte	.LASF50
 2967 0570 01       		.byte	0x1
 2968 0571 DF04     		.2byte	0x4df
 2969 0573 00000000 		.4byte	.LFB52
 2970 0577 1C000000 		.4byte	.LFE52-.LFB52
 2971 057b 01       		.uleb128 0x1
 2972 057c 9C       		.byte	0x9c
 2973 057d 9F050000 		.4byte	0x59f
 2974 0581 14       		.uleb128 0x14
 2975 0582 4A030000 		.4byte	.LASF35
 2976 0586 01       		.byte	0x1
 2977 0587 E104     		.2byte	0x4e1
 2978 0589 83000000 		.4byte	0x83
 2979 058d 01       		.uleb128 0x1
 2980 058e 53       		.byte	0x53
 2981 058f 0C       		.uleb128 0xc
 2982 0590 08000000 		.4byte	.LVL90
 2983 0594 C4040000 		.4byte	0x4c4
 2984 0598 0B       		.uleb128 0xb
 2985 0599 01       		.uleb128 0x1
 2986 059a 50       		.byte	0x50
 2987 059b 01       		.uleb128 0x1
 2988 059c 30       		.byte	0x30
 2989 059d 00       		.byte	0
 2990 059e 00       		.byte	0
 2991 059f 0D       		.uleb128 0xd
 2992 05a0 8B040000 		.4byte	.LASF51
 2993 05a4 01       		.byte	0x1
 2994 05a5 5906     		.2byte	0x659
 2995 05a7 00000000 		.4byte	.LFB56
 2996 05ab 34000000 		.4byte	.LFE56-.LFB56
 2997 05af 01       		.uleb128 0x1
 2998 05b0 9C       		.byte	0x9c
 2999 05b1 E6050000 		.4byte	0x5e6
 3000 05b5 12       		.uleb128 0x12
 3001 05b6 85050000 		.4byte	.LASF44
 3002 05ba 01       		.byte	0x1
 3003 05bb 5906     		.2byte	0x659
 3004 05bd 83000000 		.4byte	0x83
 3005 05c1 0C050000 		.4byte	.LLST29
 3006 05c5 12       		.uleb128 0x12
 3007 05c6 11060000 		.4byte	.LASF45
 3008 05ca 01       		.byte	0x1
ARM GAS  C:\Users\puria\AppData\Local\Temp\ccYRkNAS.s 			page 97


 3009 05cb 5906     		.2byte	0x659
 3010 05cd 83000000 		.4byte	0x83
 3011 05d1 2D050000 		.4byte	.LLST30
 3012 05d5 0E       		.uleb128 0xe
 3013 05d6 ED090000 		.4byte	.LASF21
 3014 05da 01       		.byte	0x1
 3015 05db 5B06     		.2byte	0x65b
 3016 05dd 83000000 		.4byte	0x83
 3017 05e1 4E050000 		.4byte	.LLST31
 3018 05e5 00       		.byte	0
 3019 05e6 0D       		.uleb128 0xd
 3020 05e7 2A090000 		.4byte	.LASF52
 3021 05eb 01       		.byte	0x1
 3022 05ec 7C06     		.2byte	0x67c
 3023 05ee 00000000 		.4byte	.LFB57
 3024 05f2 18000000 		.4byte	.LFE57-.LFB57
 3025 05f6 01       		.uleb128 0x1
 3026 05f7 9C       		.byte	0x9c
 3027 05f8 1D060000 		.4byte	0x61d
 3028 05fc 12       		.uleb128 0x12
 3029 05fd 71060000 		.4byte	.LASF53
 3030 0601 01       		.byte	0x1
 3031 0602 7C06     		.2byte	0x67c
 3032 0604 83000000 		.4byte	0x83
 3033 0608 77050000 		.4byte	.LLST32
 3034 060c 0E       		.uleb128 0xe
 3035 060d ED090000 		.4byte	.LASF21
 3036 0611 01       		.byte	0x1
 3037 0612 7E06     		.2byte	0x67e
 3038 0614 83000000 		.4byte	0x83
 3039 0618 A9050000 		.4byte	.LLST33
 3040 061c 00       		.byte	0
 3041 061d 10       		.uleb128 0x10
 3042 061e 34070000 		.4byte	.LASF55
 3043 0622 01       		.byte	0x1
 3044 0623 A006     		.2byte	0x6a0
 3045 0625 83000000 		.4byte	0x83
 3046 0629 00000000 		.4byte	.LFB58
 3047 062d 1C000000 		.4byte	.LFE58-.LFB58
 3048 0631 01       		.uleb128 0x1
 3049 0632 9C       		.byte	0x9c
 3050 0633 11       		.uleb128 0x11
 3051 0634 EE010000 		.4byte	.LASF56
 3052 0638 01       		.byte	0x1
 3053 0639 BC06     		.2byte	0x6bc
 3054 063b 83000000 		.4byte	0x83
 3055 063f 00000000 		.4byte	.LFB59
 3056 0643 18000000 		.4byte	.LFE59-.LFB59
 3057 0647 01       		.uleb128 0x1
 3058 0648 9C       		.byte	0x9c
 3059 0649 8C060000 		.4byte	0x68c
 3060 064d 12       		.uleb128 0x12
 3061 064e 57040000 		.4byte	.LASF57
 3062 0652 01       		.byte	0x1
 3063 0653 BC06     		.2byte	0x6bc
 3064 0655 DA000000 		.4byte	0xda
 3065 0659 C7050000 		.4byte	.LLST34
ARM GAS  C:\Users\puria\AppData\Local\Temp\ccYRkNAS.s 			page 98


 3066 065d 12       		.uleb128 0x12
 3067 065e D60A0000 		.4byte	.LASF58
 3068 0662 01       		.byte	0x1
 3069 0663 BC06     		.2byte	0x6bc
 3070 0665 83000000 		.4byte	0x83
 3071 0669 01060000 		.4byte	.LLST35
 3072 066d 0E       		.uleb128 0xe
 3073 066e 67030000 		.4byte	.LASF59
 3074 0672 01       		.byte	0x1
 3075 0673 BE06     		.2byte	0x6be
 3076 0675 83000000 		.4byte	0x83
 3077 0679 22060000 		.4byte	.LLST36
 3078 067d 14       		.uleb128 0x14
 3079 067e 6F080000 		.4byte	.LASF60
 3080 0682 01       		.byte	0x1
 3081 0683 BF06     		.2byte	0x6bf
 3082 0685 6B000000 		.4byte	0x6b
 3083 0689 01       		.uleb128 0x1
 3084 068a 53       		.byte	0x53
 3085 068b 00       		.byte	0
 3086 068c 11       		.uleb128 0x11
 3087 068d AC010000 		.4byte	.LASF61
 3088 0691 01       		.byte	0x1
 3089 0692 FA01     		.2byte	0x1fa
 3090 0694 6B000000 		.4byte	0x6b
 3091 0698 00000000 		.4byte	.LFB39
 3092 069c 24000000 		.4byte	.LFE39-.LFB39
 3093 06a0 01       		.uleb128 0x1
 3094 06a1 9C       		.byte	0x9c
 3095 06a2 E0060000 		.4byte	0x6e0
 3096 06a6 12       		.uleb128 0x12
 3097 06a7 B0050000 		.4byte	.LASF41
 3098 06ab 01       		.byte	0x1
 3099 06ac FA01     		.2byte	0x1fa
 3100 06ae 6B000000 		.4byte	0x6b
 3101 06b2 45060000 		.4byte	.LLST37
 3102 06b6 0E       		.uleb128 0xe
 3103 06b7 D8040000 		.4byte	.LASF62
 3104 06bb 01       		.byte	0x1
 3105 06bc FC01     		.2byte	0x1fc
 3106 06be 83000000 		.4byte	0x83
 3107 06c2 79060000 		.4byte	.LLST38
 3108 06c6 0C       		.uleb128 0xc
 3109 06c7 16000000 		.4byte	.LVL117
 3110 06cb 33060000 		.4byte	0x633
 3111 06cf 0B       		.uleb128 0xb
 3112 06d0 01       		.uleb128 0x1
 3113 06d1 50       		.byte	0x50
 3114 06d2 05       		.uleb128 0x5
 3115 06d3 03       		.byte	0x3
 3116 06d4 04000000 		.4byte	.LANCHOR1+4
 3117 06d8 0B       		.uleb128 0xb
 3118 06d9 01       		.uleb128 0x1
 3119 06da 51       		.byte	0x51
 3120 06db 02       		.uleb128 0x2
 3121 06dc 74       		.byte	0x74
 3122 06dd 00       		.sleb128 0
ARM GAS  C:\Users\puria\AppData\Local\Temp\ccYRkNAS.s 			page 99


 3123 06de 00       		.byte	0
 3124 06df 00       		.byte	0
 3125 06e0 0D       		.uleb128 0xd
 3126 06e1 A9080000 		.4byte	.LASF63
 3127 06e5 01       		.byte	0x1
 3128 06e6 3705     		.2byte	0x537
 3129 06e8 00000000 		.4byte	.LFB54
 3130 06ec 0C010000 		.4byte	.LFE54-.LFB54
 3131 06f0 01       		.uleb128 0x1
 3132 06f1 9C       		.byte	0x9c
 3133 06f2 73080000 		.4byte	0x873
 3134 06f6 12       		.uleb128 0x12
 3135 06f7 DB030000 		.4byte	.LASF24
 3136 06fb 01       		.byte	0x1
 3137 06fc 3705     		.2byte	0x537
 3138 06fe 83000000 		.4byte	0x83
 3139 0702 8C060000 		.4byte	.LLST39
 3140 0706 0E       		.uleb128 0xe
 3141 0707 52020000 		.4byte	.LASF27
 3142 070b 01       		.byte	0x1
 3143 070c 3905     		.2byte	0x539
 3144 070e 6B000000 		.4byte	0x6b
 3145 0712 C3060000 		.4byte	.LLST40
 3146 0716 0E       		.uleb128 0xe
 3147 0717 B1000000 		.4byte	.LASF34
 3148 071b 01       		.byte	0x1
 3149 071c 3A05     		.2byte	0x53a
 3150 071e 6B000000 		.4byte	0x6b
 3151 0722 34070000 		.4byte	.LLST41
 3152 0726 0E       		.uleb128 0xe
 3153 0727 ED090000 		.4byte	.LASF21
 3154 072b 01       		.byte	0x1
 3155 072c 3B05     		.2byte	0x53b
 3156 072e 83000000 		.4byte	0x83
 3157 0732 47070000 		.4byte	.LLST42
 3158 0736 0E       		.uleb128 0xe
 3159 0737 97080000 		.4byte	.LASF64
 3160 073b 01       		.byte	0x1
 3161 073c 3C05     		.2byte	0x53c
 3162 073e 83000000 		.4byte	0x83
 3163 0742 70070000 		.4byte	.LLST43
 3164 0746 0E       		.uleb128 0xe
 3165 0747 830A0000 		.4byte	.LASF65
 3166 074b 01       		.byte	0x1
 3167 074c 4505     		.2byte	0x545
 3168 074e 83000000 		.4byte	0x83
 3169 0752 83070000 		.4byte	.LLST44
 3170 0756 0A       		.uleb128 0xa
 3171 0757 1A000000 		.4byte	.LVL126
 3172 075b 33060000 		.4byte	0x633
 3173 075f 73070000 		.4byte	0x773
 3174 0763 0B       		.uleb128 0xb
 3175 0764 01       		.uleb128 0x1
 3176 0765 50       		.byte	0x50
 3177 0766 05       		.uleb128 0x5
 3178 0767 03       		.byte	0x3
 3179 0768 00000000 		.4byte	capsense_scanSpeedTbl
ARM GAS  C:\Users\puria\AppData\Local\Temp\ccYRkNAS.s 			page 100


 3180 076c 0B       		.uleb128 0xb
 3181 076d 01       		.uleb128 0x1
 3182 076e 51       		.byte	0x51
 3183 076f 02       		.uleb128 0x2
 3184 0770 74       		.byte	0x74
 3185 0771 00       		.sleb128 0
 3186 0772 00       		.byte	0
 3187 0773 0F       		.uleb128 0xf
 3188 0774 2C000000 		.4byte	.LVL129
 3189 0778 8B100000 		.4byte	0x108b
 3190 077c 0F       		.uleb128 0xf
 3191 077d 30000000 		.4byte	.LVL130
 3192 0781 96100000 		.4byte	0x1096
 3193 0785 0A       		.uleb128 0xa
 3194 0786 3E000000 		.4byte	.LVL131
 3195 078a A1100000 		.4byte	0x10a1
 3196 078e 98070000 		.4byte	0x798
 3197 0792 0B       		.uleb128 0xb
 3198 0793 01       		.uleb128 0x1
 3199 0794 51       		.byte	0x51
 3200 0795 01       		.uleb128 0x1
 3201 0796 30       		.byte	0x30
 3202 0797 00       		.byte	0
 3203 0798 0A       		.uleb128 0xa
 3204 0799 4C000000 		.4byte	.LVL132
 3205 079d AC100000 		.4byte	0x10ac
 3206 07a1 AB070000 		.4byte	0x7ab
 3207 07a5 0B       		.uleb128 0xb
 3208 07a6 01       		.uleb128 0x1
 3209 07a7 51       		.byte	0x51
 3210 07a8 01       		.uleb128 0x1
 3211 07a9 30       		.byte	0x30
 3212 07aa 00       		.byte	0
 3213 07ab 0A       		.uleb128 0xa
 3214 07ac 52000000 		.4byte	.LVL133
 3215 07b0 B7100000 		.4byte	0x10b7
 3216 07b4 BF070000 		.4byte	0x7bf
 3217 07b8 0B       		.uleb128 0xb
 3218 07b9 01       		.uleb128 0x1
 3219 07ba 50       		.byte	0x50
 3220 07bb 02       		.uleb128 0x2
 3221 07bc 08       		.byte	0x8
 3222 07bd FF       		.byte	0xff
 3223 07be 00       		.byte	0
 3224 07bf 0A       		.uleb128 0xa
 3225 07c0 58000000 		.4byte	.LVL134
 3226 07c4 C2100000 		.4byte	0x10c2
 3227 07c8 D3070000 		.4byte	0x7d3
 3228 07cc 0B       		.uleb128 0xb
 3229 07cd 01       		.uleb128 0x1
 3230 07ce 50       		.byte	0x50
 3231 07cf 02       		.uleb128 0x2
 3232 07d0 08       		.byte	0x8
 3233 07d1 40       		.byte	0x40
 3234 07d2 00       		.byte	0
 3235 07d3 0A       		.uleb128 0xa
 3236 07d4 5E000000 		.4byte	.LVL135
ARM GAS  C:\Users\puria\AppData\Local\Temp\ccYRkNAS.s 			page 101


 3237 07d8 6A100000 		.4byte	0x106a
 3238 07dc E6070000 		.4byte	0x7e6
 3239 07e0 0B       		.uleb128 0xb
 3240 07e1 01       		.uleb128 0x1
 3241 07e2 50       		.byte	0x50
 3242 07e3 01       		.uleb128 0x1
 3243 07e4 40       		.byte	0x40
 3244 07e5 00       		.byte	0
 3245 07e6 0A       		.uleb128 0xa
 3246 07e7 7A000000 		.4byte	.LVL136
 3247 07eb EE100000 		.4byte	0x10ee
 3248 07ef F9070000 		.4byte	0x7f9
 3249 07f3 0B       		.uleb128 0xb
 3250 07f4 01       		.uleb128 0x1
 3251 07f5 50       		.byte	0x50
 3252 07f6 01       		.uleb128 0x1
 3253 07f7 40       		.byte	0x40
 3254 07f8 00       		.byte	0
 3255 07f9 0A       		.uleb128 0xa
 3256 07fa 80000000 		.4byte	.LVL137
 3257 07fe CD100000 		.4byte	0x10cd
 3258 0802 0C080000 		.4byte	0x80c
 3259 0806 0B       		.uleb128 0xb
 3260 0807 01       		.uleb128 0x1
 3261 0808 50       		.byte	0x50
 3262 0809 01       		.uleb128 0x1
 3263 080a 40       		.byte	0x40
 3264 080b 00       		.byte	0
 3265 080c 0A       		.uleb128 0xa
 3266 080d 86000000 		.4byte	.LVL138
 3267 0811 6A100000 		.4byte	0x106a
 3268 0815 1F080000 		.4byte	0x81f
 3269 0819 0B       		.uleb128 0xb
 3270 081a 01       		.uleb128 0x1
 3271 081b 50       		.byte	0x50
 3272 081c 01       		.uleb128 0x1
 3273 081d 40       		.byte	0x40
 3274 081e 00       		.byte	0
 3275 081f 0A       		.uleb128 0xa
 3276 0820 B0000000 		.4byte	.LVL145
 3277 0824 CD100000 		.4byte	0x10cd
 3278 0828 32080000 		.4byte	0x832
 3279 082c 0B       		.uleb128 0xb
 3280 082d 01       		.uleb128 0x1
 3281 082e 50       		.byte	0x50
 3282 082f 01       		.uleb128 0x1
 3283 0830 40       		.byte	0x40
 3284 0831 00       		.byte	0
 3285 0832 0A       		.uleb128 0xa
 3286 0833 B6000000 		.4byte	.LVL146
 3287 0837 F6020000 		.4byte	0x2f6
 3288 083b 46080000 		.4byte	0x846
 3289 083f 0B       		.uleb128 0xb
 3290 0840 01       		.uleb128 0x1
 3291 0841 50       		.byte	0x50
 3292 0842 02       		.uleb128 0x2
 3293 0843 74       		.byte	0x74
ARM GAS  C:\Users\puria\AppData\Local\Temp\ccYRkNAS.s 			page 102


 3294 0844 00       		.sleb128 0
 3295 0845 00       		.byte	0
 3296 0846 0F       		.uleb128 0xf
 3297 0847 BA000000 		.4byte	.LVL147
 3298 084b D8100000 		.4byte	0x10d8
 3299 084f 0A       		.uleb128 0xa
 3300 0850 C4000000 		.4byte	.LVL149
 3301 0854 F9100000 		.4byte	0x10f9
 3302 0858 62080000 		.4byte	0x862
 3303 085c 0B       		.uleb128 0xb
 3304 085d 01       		.uleb128 0x1
 3305 085e 50       		.byte	0x50
 3306 085f 01       		.uleb128 0x1
 3307 0860 30       		.byte	0x30
 3308 0861 00       		.byte	0
 3309 0862 0C       		.uleb128 0xc
 3310 0863 CE000000 		.4byte	.LVL150
 3311 0867 E3100000 		.4byte	0x10e3
 3312 086b 0B       		.uleb128 0xb
 3313 086c 01       		.uleb128 0x1
 3314 086d 50       		.byte	0x50
 3315 086e 02       		.uleb128 0x2
 3316 086f 74       		.byte	0x74
 3317 0870 00       		.sleb128 0
 3318 0871 00       		.byte	0
 3319 0872 00       		.byte	0
 3320 0873 0D       		.uleb128 0xd
 3321 0874 43040000 		.4byte	.LASF66
 3322 0878 01       		.byte	0x1
 3323 0879 2A02     		.2byte	0x22a
 3324 087b 00000000 		.4byte	.LFB40
 3325 087f 1C000000 		.4byte	.LFE40-.LFB40
 3326 0883 01       		.uleb128 0x1
 3327 0884 9C       		.byte	0x9c
 3328 0885 AB080000 		.4byte	0x8ab
 3329 0889 12       		.uleb128 0x12
 3330 088a DB030000 		.4byte	.LASF24
 3331 088e 01       		.byte	0x1
 3332 088f 2A02     		.2byte	0x22a
 3333 0891 83000000 		.4byte	0x83
 3334 0895 96070000 		.4byte	.LLST45
 3335 0899 0C       		.uleb128 0xc
 3336 089a 14000000 		.4byte	.LVL155
 3337 089e E0060000 		.4byte	0x6e0
 3338 08a2 0B       		.uleb128 0xb
 3339 08a3 01       		.uleb128 0x1
 3340 08a4 50       		.byte	0x50
 3341 08a5 03       		.uleb128 0x3
 3342 08a6 F3       		.byte	0xf3
 3343 08a7 01       		.uleb128 0x1
 3344 08a8 50       		.byte	0x50
 3345 08a9 00       		.byte	0
 3346 08aa 00       		.byte	0
 3347 08ab 0D       		.uleb128 0xd
 3348 08ac 59090000 		.4byte	.LASF67
 3349 08b0 01       		.byte	0x1
 3350 08b1 A602     		.2byte	0x2a6
ARM GAS  C:\Users\puria\AppData\Local\Temp\ccYRkNAS.s 			page 103


 3351 08b3 00000000 		.4byte	.LFB42
 3352 08b7 38000000 		.4byte	.LFE42-.LFB42
 3353 08bb 01       		.uleb128 0x1
 3354 08bc 9C       		.byte	0x9c
 3355 08bd D4080000 		.4byte	0x8d4
 3356 08c1 0F       		.uleb128 0xf
 3357 08c2 14000000 		.4byte	.LVL156
 3358 08c6 8C060000 		.4byte	0x68c
 3359 08ca 0F       		.uleb128 0xf
 3360 08cb 30000000 		.4byte	.LVL157
 3361 08cf E0060000 		.4byte	0x6e0
 3362 08d3 00       		.byte	0
 3363 08d4 0D       		.uleb128 0xd
 3364 08d5 5E050000 		.4byte	.LASF68
 3365 08d9 01       		.byte	0x1
 3366 08da FC05     		.2byte	0x5fc
 3367 08dc 00000000 		.4byte	.LFB55
 3368 08e0 90000000 		.4byte	.LFE55-.LFB55
 3369 08e4 01       		.uleb128 0x1
 3370 08e5 9C       		.byte	0x9c
 3371 08e6 7E090000 		.4byte	0x97e
 3372 08ea 12       		.uleb128 0x12
 3373 08eb DB030000 		.4byte	.LASF24
 3374 08ef 01       		.byte	0x1
 3375 08f0 FC05     		.2byte	0x5fc
 3376 08f2 83000000 		.4byte	0x83
 3377 08f6 B7070000 		.4byte	.LLST46
 3378 08fa 0E       		.uleb128 0xe
 3379 08fb ED090000 		.4byte	.LASF21
 3380 08ff 01       		.byte	0x1
 3381 0900 FE05     		.2byte	0x5fe
 3382 0902 83000000 		.4byte	0x83
 3383 0906 EE070000 		.4byte	.LLST47
 3384 090a 0E       		.uleb128 0xe
 3385 090b 830A0000 		.4byte	.LASF65
 3386 090f 01       		.byte	0x1
 3387 0910 0106     		.2byte	0x601
 3388 0912 83000000 		.4byte	0x83
 3389 0916 1B080000 		.4byte	.LLST48
 3390 091a 0E       		.uleb128 0xe
 3391 091b 52020000 		.4byte	.LASF27
 3392 091f 01       		.byte	0x1
 3393 0920 0206     		.2byte	0x602
 3394 0922 83000000 		.4byte	0x83
 3395 0926 2E080000 		.4byte	.LLST49
 3396 092a 0A       		.uleb128 0xa
 3397 092b 2E000000 		.4byte	.LVL163
 3398 092f 33060000 		.4byte	0x633
 3399 0933 47090000 		.4byte	0x947
 3400 0937 0B       		.uleb128 0xb
 3401 0938 01       		.uleb128 0x1
 3402 0939 50       		.byte	0x50
 3403 093a 05       		.uleb128 0x5
 3404 093b 03       		.byte	0x3
 3405 093c 00000000 		.4byte	capsense_scanSpeedTbl
 3406 0940 0B       		.uleb128 0xb
 3407 0941 01       		.uleb128 0x1
ARM GAS  C:\Users\puria\AppData\Local\Temp\ccYRkNAS.s 			page 104


 3408 0942 51       		.byte	0x51
 3409 0943 02       		.uleb128 0x2
 3410 0944 75       		.byte	0x75
 3411 0945 00       		.sleb128 0
 3412 0946 00       		.byte	0
 3413 0947 0A       		.uleb128 0xa
 3414 0948 3E000000 		.4byte	.LVL165
 3415 094c 7F030000 		.4byte	0x37f
 3416 0950 5B090000 		.4byte	0x95b
 3417 0954 0B       		.uleb128 0xb
 3418 0955 01       		.uleb128 0x1
 3419 0956 50       		.byte	0x50
 3420 0957 02       		.uleb128 0x2
 3421 0958 75       		.byte	0x75
 3422 0959 00       		.sleb128 0
 3423 095a 00       		.byte	0
 3424 095b 0A       		.uleb128 0xa
 3425 095c 44000000 		.4byte	.LVL166
 3426 0960 6A100000 		.4byte	0x106a
 3427 0964 6E090000 		.4byte	0x96e
 3428 0968 0B       		.uleb128 0xb
 3429 0969 01       		.uleb128 0x1
 3430 096a 50       		.byte	0x50
 3431 096b 01       		.uleb128 0x1
 3432 096c 40       		.byte	0x40
 3433 096d 00       		.byte	0
 3434 096e 0C       		.uleb128 0xc
 3435 096f 64000000 		.4byte	.LVL172
 3436 0973 CD100000 		.4byte	0x10cd
 3437 0977 0B       		.uleb128 0xb
 3438 0978 01       		.uleb128 0x1
 3439 0979 50       		.byte	0x50
 3440 097a 01       		.uleb128 0x1
 3441 097b 40       		.byte	0x40
 3442 097c 00       		.byte	0
 3443 097d 00       		.byte	0
 3444 097e 0D       		.uleb128 0xd
 3445 097f 9C000000 		.4byte	.LASF69
 3446 0983 01       		.byte	0x1
 3447 0984 E706     		.2byte	0x6e7
 3448 0986 00000000 		.4byte	.LFB60
 3449 098a 26000000 		.4byte	.LFE60-.LFB60
 3450 098e 01       		.uleb128 0x1
 3451 098f 9C       		.byte	0x9c
 3452 0990 E3090000 		.4byte	0x9e3
 3453 0994 13       		.uleb128 0x13
 3454 0995 57040000 		.4byte	.LASF57
 3455 0999 01       		.byte	0x1
 3456 099a E706     		.2byte	0x6e7
 3457 099c D4000000 		.4byte	0xd4
 3458 09a0 01       		.uleb128 0x1
 3459 09a1 50       		.byte	0x50
 3460 09a2 12       		.uleb128 0x12
 3461 09a3 D60A0000 		.4byte	.LASF58
 3462 09a7 01       		.byte	0x1
 3463 09a8 E706     		.2byte	0x6e7
 3464 09aa 83000000 		.4byte	0x83
ARM GAS  C:\Users\puria\AppData\Local\Temp\ccYRkNAS.s 			page 105


 3465 09ae BD080000 		.4byte	.LLST50
 3466 09b2 12       		.uleb128 0x12
 3467 09b3 86020000 		.4byte	.LASF25
 3468 09b7 01       		.byte	0x1
 3469 09b8 E706     		.2byte	0x6e7
 3470 09ba 83000000 		.4byte	0x83
 3471 09be DE080000 		.4byte	.LLST51
 3472 09c2 0E       		.uleb128 0xe
 3473 09c3 67030000 		.4byte	.LASF59
 3474 09c7 01       		.byte	0x1
 3475 09c8 E906     		.2byte	0x6e9
 3476 09ca 83000000 		.4byte	0x83
 3477 09ce 18090000 		.4byte	.LLST52
 3478 09d2 0E       		.uleb128 0xe
 3479 09d3 6F080000 		.4byte	.LASF60
 3480 09d7 01       		.byte	0x1
 3481 09d8 EA06     		.2byte	0x6ea
 3482 09da 6B000000 		.4byte	0x6b
 3483 09de 56090000 		.4byte	.LLST53
 3484 09e2 00       		.byte	0
 3485 09e3 0D       		.uleb128 0xd
 3486 09e4 8C020000 		.4byte	.LASF70
 3487 09e8 01       		.byte	0x1
 3488 09e9 5102     		.2byte	0x251
 3489 09eb 00000000 		.4byte	.LFB41
 3490 09ef 8C000000 		.4byte	.LFE41-.LFB41
 3491 09f3 01       		.uleb128 0x1
 3492 09f4 9C       		.byte	0x9c
 3493 09f5 870A0000 		.4byte	0xa87
 3494 09f9 12       		.uleb128 0x12
 3495 09fa 52020000 		.4byte	.LASF27
 3496 09fe 01       		.byte	0x1
 3497 09ff 5102     		.2byte	0x251
 3498 0a01 83000000 		.4byte	0x83
 3499 0a05 92090000 		.4byte	.LLST54
 3500 0a09 0E       		.uleb128 0xe
 3501 0a0a 9B030000 		.4byte	.LASF71
 3502 0a0e 01       		.byte	0x1
 3503 0a0f 5302     		.2byte	0x253
 3504 0a11 83000000 		.4byte	0x83
 3505 0a15 B3090000 		.4byte	.LLST55
 3506 0a19 0E       		.uleb128 0xe
 3507 0a1a E6050000 		.4byte	.LASF72
 3508 0a1e 01       		.byte	0x1
 3509 0a1f 5402     		.2byte	0x254
 3510 0a21 83000000 		.4byte	0x83
 3511 0a25 C6090000 		.4byte	.LLST56
 3512 0a29 0E       		.uleb128 0xe
 3513 0a2a B0050000 		.4byte	.LASF41
 3514 0a2e 01       		.byte	0x1
 3515 0a2f 5502     		.2byte	0x255
 3516 0a31 83000000 		.4byte	0x83
 3517 0a35 D9090000 		.4byte	.LLST57
 3518 0a39 0A       		.uleb128 0xa
 3519 0a3a 4A000000 		.4byte	.LVL193
 3520 0a3e 7E090000 		.4byte	0x97e
 3521 0a42 5B0A0000 		.4byte	0xa5b
ARM GAS  C:\Users\puria\AppData\Local\Temp\ccYRkNAS.s 			page 106


 3522 0a46 0B       		.uleb128 0xb
 3523 0a47 01       		.uleb128 0x1
 3524 0a48 50       		.byte	0x50
 3525 0a49 05       		.uleb128 0x5
 3526 0a4a 03       		.byte	0x3
 3527 0a4b 04000000 		.4byte	.LANCHOR1+4
 3528 0a4f 0B       		.uleb128 0xb
 3529 0a50 01       		.uleb128 0x1
 3530 0a51 51       		.byte	0x51
 3531 0a52 02       		.uleb128 0x2
 3532 0a53 74       		.byte	0x74
 3533 0a54 00       		.sleb128 0
 3534 0a55 0B       		.uleb128 0xb
 3535 0a56 01       		.uleb128 0x1
 3536 0a57 52       		.byte	0x52
 3537 0a58 01       		.uleb128 0x1
 3538 0a59 31       		.byte	0x31
 3539 0a5a 00       		.byte	0
 3540 0a5b 0A       		.uleb128 0xa
 3541 0a5c 58000000 		.4byte	.LVL194
 3542 0a60 7E090000 		.4byte	0x97e
 3543 0a64 7D0A0000 		.4byte	0xa7d
 3544 0a68 0B       		.uleb128 0xb
 3545 0a69 01       		.uleb128 0x1
 3546 0a6a 50       		.byte	0x50
 3547 0a6b 05       		.uleb128 0x5
 3548 0a6c 03       		.byte	0x3
 3549 0a6d 04000000 		.4byte	.LANCHOR1+4
 3550 0a71 0B       		.uleb128 0xb
 3551 0a72 01       		.uleb128 0x1
 3552 0a73 51       		.byte	0x51
 3553 0a74 02       		.uleb128 0x2
 3554 0a75 74       		.byte	0x74
 3555 0a76 00       		.sleb128 0
 3556 0a77 0B       		.uleb128 0xb
 3557 0a78 01       		.uleb128 0x1
 3558 0a79 52       		.byte	0x52
 3559 0a7a 01       		.uleb128 0x1
 3560 0a7b 30       		.byte	0x30
 3561 0a7c 00       		.byte	0
 3562 0a7d 0F       		.uleb128 0xf
 3563 0a7e 76000000 		.4byte	.LVL196
 3564 0a82 E0060000 		.4byte	0x6e0
 3565 0a86 00       		.byte	0
 3566 0a87 11       		.uleb128 0x11
 3567 0a88 BA0A0000 		.4byte	.LASF73
 3568 0a8c 01       		.byte	0x1
 3569 0a8d 1907     		.2byte	0x719
 3570 0a8f 83000000 		.4byte	0x83
 3571 0a93 00000000 		.4byte	.LFB61
 3572 0a97 0C000000 		.4byte	.LFE61-.LFB61
 3573 0a9b 01       		.uleb128 0x1
 3574 0a9c 9C       		.byte	0x9c
 3575 0a9d B20A0000 		.4byte	0xab2
 3576 0aa1 12       		.uleb128 0x12
 3577 0aa2 DB030000 		.4byte	.LASF24
 3578 0aa6 01       		.byte	0x1
ARM GAS  C:\Users\puria\AppData\Local\Temp\ccYRkNAS.s 			page 107


 3579 0aa7 1907     		.2byte	0x719
 3580 0aa9 83000000 		.4byte	0x83
 3581 0aad 030A0000 		.4byte	.LLST58
 3582 0ab1 00       		.byte	0
 3583 0ab2 0D       		.uleb128 0xd
 3584 0ab3 17050000 		.4byte	.LASF74
 3585 0ab7 01       		.byte	0x1
 3586 0ab8 3807     		.2byte	0x738
 3587 0aba 00000000 		.4byte	.LFB62
 3588 0abe 0C000000 		.4byte	.LFE62-.LFB62
 3589 0ac2 01       		.uleb128 0x1
 3590 0ac3 9C       		.byte	0x9c
 3591 0ac4 E50A0000 		.4byte	0xae5
 3592 0ac8 13       		.uleb128 0x13
 3593 0ac9 DB030000 		.4byte	.LASF24
 3594 0acd 01       		.byte	0x1
 3595 0ace 3807     		.2byte	0x738
 3596 0ad0 83000000 		.4byte	0x83
 3597 0ad4 01       		.uleb128 0x1
 3598 0ad5 50       		.byte	0x50
 3599 0ad6 13       		.uleb128 0x13
 3600 0ad7 55060000 		.4byte	.LASF75
 3601 0adb 01       		.byte	0x1
 3602 0adc 3807     		.2byte	0x738
 3603 0ade 83000000 		.4byte	0x83
 3604 0ae2 01       		.uleb128 0x1
 3605 0ae3 51       		.byte	0x51
 3606 0ae4 00       		.byte	0
 3607 0ae5 11       		.uleb128 0x11
 3608 0ae6 23040000 		.4byte	.LASF76
 3609 0aea 01       		.byte	0x1
 3610 0aeb 5807     		.2byte	0x758
 3611 0aed 83000000 		.4byte	0x83
 3612 0af1 00000000 		.4byte	.LFB63
 3613 0af5 0C000000 		.4byte	.LFE63-.LFB63
 3614 0af9 01       		.uleb128 0x1
 3615 0afa 9C       		.byte	0x9c
 3616 0afb 100B0000 		.4byte	0xb10
 3617 0aff 12       		.uleb128 0x12
 3618 0b00 DB030000 		.4byte	.LASF24
 3619 0b04 01       		.byte	0x1
 3620 0b05 5807     		.2byte	0x758
 3621 0b07 83000000 		.4byte	0x83
 3622 0b0b 240A0000 		.4byte	.LLST59
 3623 0b0f 00       		.byte	0
 3624 0b10 0D       		.uleb128 0xd
 3625 0b11 6E030000 		.4byte	.LASF77
 3626 0b15 01       		.byte	0x1
 3627 0b16 7707     		.2byte	0x777
 3628 0b18 00000000 		.4byte	.LFB64
 3629 0b1c 0C000000 		.4byte	.LFE64-.LFB64
 3630 0b20 01       		.uleb128 0x1
 3631 0b21 9C       		.byte	0x9c
 3632 0b22 430B0000 		.4byte	0xb43
 3633 0b26 13       		.uleb128 0x13
 3634 0b27 DB030000 		.4byte	.LASF24
 3635 0b2b 01       		.byte	0x1
ARM GAS  C:\Users\puria\AppData\Local\Temp\ccYRkNAS.s 			page 108


 3636 0b2c 7707     		.2byte	0x777
 3637 0b2e 83000000 		.4byte	0x83
 3638 0b32 01       		.uleb128 0x1
 3639 0b33 50       		.byte	0x50
 3640 0b34 13       		.uleb128 0x13
 3641 0b35 EA080000 		.4byte	.LASF78
 3642 0b39 01       		.byte	0x1
 3643 0b3a 7707     		.2byte	0x777
 3644 0b3c 83000000 		.4byte	0x83
 3645 0b40 01       		.uleb128 0x1
 3646 0b41 51       		.byte	0x51
 3647 0b42 00       		.byte	0
 3648 0b43 11       		.uleb128 0x11
 3649 0b44 BA080000 		.4byte	.LASF79
 3650 0b48 01       		.byte	0x1
 3651 0b49 9607     		.2byte	0x796
 3652 0b4b 83000000 		.4byte	0x83
 3653 0b4f 00000000 		.4byte	.LFB65
 3654 0b53 0C000000 		.4byte	.LFE65-.LFB65
 3655 0b57 01       		.uleb128 0x1
 3656 0b58 9C       		.byte	0x9c
 3657 0b59 6E0B0000 		.4byte	0xb6e
 3658 0b5d 12       		.uleb128 0x12
 3659 0b5e DB030000 		.4byte	.LASF24
 3660 0b62 01       		.byte	0x1
 3661 0b63 9607     		.2byte	0x796
 3662 0b65 83000000 		.4byte	0x83
 3663 0b69 450A0000 		.4byte	.LLST60
 3664 0b6d 00       		.byte	0
 3665 0b6e 0D       		.uleb128 0xd
 3666 0b6f F0070000 		.4byte	.LASF80
 3667 0b73 01       		.byte	0x1
 3668 0b74 B107     		.2byte	0x7b1
 3669 0b76 00000000 		.4byte	.LFB66
 3670 0b7a 0C000000 		.4byte	.LFE66-.LFB66
 3671 0b7e 01       		.uleb128 0x1
 3672 0b7f 9C       		.byte	0x9c
 3673 0b80 A10B0000 		.4byte	0xba1
 3674 0b84 13       		.uleb128 0x13
 3675 0b85 DB030000 		.4byte	.LASF24
 3676 0b89 01       		.byte	0x1
 3677 0b8a B107     		.2byte	0x7b1
 3678 0b8c 83000000 		.4byte	0x83
 3679 0b90 01       		.uleb128 0x1
 3680 0b91 50       		.byte	0x50
 3681 0b92 13       		.uleb128 0x13
 3682 0b93 85070000 		.4byte	.LASF81
 3683 0b97 01       		.byte	0x1
 3684 0b98 B107     		.2byte	0x7b1
 3685 0b9a 83000000 		.4byte	0x83
 3686 0b9e 01       		.uleb128 0x1
 3687 0b9f 51       		.byte	0x51
 3688 0ba0 00       		.byte	0
 3689 0ba1 11       		.uleb128 0x11
 3690 0ba2 75090000 		.4byte	.LASF82
 3691 0ba6 01       		.byte	0x1
 3692 0ba7 CE07     		.2byte	0x7ce
ARM GAS  C:\Users\puria\AppData\Local\Temp\ccYRkNAS.s 			page 109


 3693 0ba9 83000000 		.4byte	0x83
 3694 0bad 00000000 		.4byte	.LFB67
 3695 0bb1 0C000000 		.4byte	.LFE67-.LFB67
 3696 0bb5 01       		.uleb128 0x1
 3697 0bb6 9C       		.byte	0x9c
 3698 0bb7 CC0B0000 		.4byte	0xbcc
 3699 0bbb 12       		.uleb128 0x12
 3700 0bbc DB030000 		.4byte	.LASF24
 3701 0bc0 01       		.byte	0x1
 3702 0bc1 CE07     		.2byte	0x7ce
 3703 0bc3 83000000 		.4byte	0x83
 3704 0bc7 660A0000 		.4byte	.LLST61
 3705 0bcb 00       		.byte	0
 3706 0bcc 0D       		.uleb128 0xd
 3707 0bcd 70000000 		.4byte	.LASF83
 3708 0bd1 01       		.byte	0x1
 3709 0bd2 EB07     		.2byte	0x7eb
 3710 0bd4 00000000 		.4byte	.LFB68
 3711 0bd8 0C000000 		.4byte	.LFE68-.LFB68
 3712 0bdc 01       		.uleb128 0x1
 3713 0bdd 9C       		.byte	0x9c
 3714 0bde FF0B0000 		.4byte	0xbff
 3715 0be2 13       		.uleb128 0x13
 3716 0be3 DB030000 		.4byte	.LASF24
 3717 0be7 01       		.byte	0x1
 3718 0be8 EB07     		.2byte	0x7eb
 3719 0bea 83000000 		.4byte	0x83
 3720 0bee 01       		.uleb128 0x1
 3721 0bef 50       		.byte	0x50
 3722 0bf0 13       		.uleb128 0x13
 3723 0bf1 77070000 		.4byte	.LASF84
 3724 0bf5 01       		.byte	0x1
 3725 0bf6 EB07     		.2byte	0x7eb
 3726 0bf8 83000000 		.4byte	0x83
 3727 0bfc 01       		.uleb128 0x1
 3728 0bfd 51       		.byte	0x51
 3729 0bfe 00       		.byte	0
 3730 0bff 10       		.uleb128 0x10
 3731 0c00 14090000 		.4byte	.LASF85
 3732 0c04 01       		.byte	0x1
 3733 0c05 0808     		.2byte	0x808
 3734 0c07 83000000 		.4byte	0x83
 3735 0c0b 00000000 		.4byte	.LFB69
 3736 0c0f 14000000 		.4byte	.LFE69-.LFB69
 3737 0c13 01       		.uleb128 0x1
 3738 0c14 9C       		.byte	0x9c
 3739 0c15 0D       		.uleb128 0xd
 3740 0c16 96010000 		.4byte	.LASF86
 3741 0c1a 01       		.byte	0x1
 3742 0c1b 2608     		.2byte	0x826
 3743 0c1d 00000000 		.4byte	.LFB70
 3744 0c21 28000000 		.4byte	.LFE70-.LFB70
 3745 0c25 01       		.uleb128 0x1
 3746 0c26 9C       		.byte	0x9c
 3747 0c27 3A0C0000 		.4byte	0xc3a
 3748 0c2b 13       		.uleb128 0x13
 3749 0c2c 18070000 		.4byte	.LASF87
ARM GAS  C:\Users\puria\AppData\Local\Temp\ccYRkNAS.s 			page 110


 3750 0c30 01       		.byte	0x1
 3751 0c31 2608     		.2byte	0x826
 3752 0c33 83000000 		.4byte	0x83
 3753 0c37 01       		.uleb128 0x1
 3754 0c38 50       		.byte	0x50
 3755 0c39 00       		.byte	0
 3756 0c3a 11       		.uleb128 0x11
 3757 0c3b 4D000000 		.4byte	.LASF88
 3758 0c3f 01       		.byte	0x1
 3759 0c40 4E08     		.2byte	0x84e
 3760 0c42 77000000 		.4byte	0x77
 3761 0c46 00000000 		.4byte	.LFB71
 3762 0c4a 2A000000 		.4byte	.LFE71-.LFB71
 3763 0c4e 01       		.uleb128 0x1
 3764 0c4f 9C       		.byte	0x9c
 3765 0c50 B20C0000 		.4byte	0xcb2
 3766 0c54 12       		.uleb128 0x12
 3767 0c55 DB030000 		.4byte	.LASF24
 3768 0c59 01       		.byte	0x1
 3769 0c5a 4E08     		.2byte	0x84e
 3770 0c5c 83000000 		.4byte	0x83
 3771 0c60 870A0000 		.4byte	.LLST62
 3772 0c64 0E       		.uleb128 0xe
 3773 0c65 AC030000 		.4byte	.LASF89
 3774 0c69 01       		.byte	0x1
 3775 0c6a 5008     		.2byte	0x850
 3776 0c6c 83000000 		.4byte	0x83
 3777 0c70 B30A0000 		.4byte	.LLST63
 3778 0c74 0E       		.uleb128 0xe
 3779 0c75 16010000 		.4byte	.LASF90
 3780 0c79 01       		.byte	0x1
 3781 0c7a 5108     		.2byte	0x851
 3782 0c7c 83000000 		.4byte	0x83
 3783 0c80 D20A0000 		.4byte	.LLST64
 3784 0c84 0A       		.uleb128 0xa
 3785 0c85 10000000 		.4byte	.LVL215
 3786 0c89 73080000 		.4byte	0x873
 3787 0c8d 980C0000 		.4byte	0xc98
 3788 0c91 0B       		.uleb128 0xb
 3789 0c92 01       		.uleb128 0x1
 3790 0c93 50       		.byte	0x50
 3791 0c94 02       		.uleb128 0x2
 3792 0c95 76       		.byte	0x76
 3793 0c96 00       		.sleb128 0
 3794 0c97 00       		.byte	0
 3795 0c98 0F       		.uleb128 0xf
 3796 0c99 14000000 		.4byte	.LVL216
 3797 0c9d 20020000 		.4byte	0x220
 3798 0ca1 0C       		.uleb128 0xc
 3799 0ca2 1E000000 		.4byte	.LVL217
 3800 0ca6 36020000 		.4byte	0x236
 3801 0caa 0B       		.uleb128 0xb
 3802 0cab 01       		.uleb128 0x1
 3803 0cac 50       		.byte	0x50
 3804 0cad 02       		.uleb128 0x2
 3805 0cae 76       		.byte	0x76
 3806 0caf 00       		.sleb128 0
ARM GAS  C:\Users\puria\AppData\Local\Temp\ccYRkNAS.s 			page 111


 3807 0cb0 00       		.byte	0
 3808 0cb1 00       		.byte	0
 3809 0cb2 0D       		.uleb128 0xd
 3810 0cb3 8F050000 		.4byte	.LASF91
 3811 0cb7 01       		.byte	0x1
 3812 0cb8 B808     		.2byte	0x8b8
 3813 0cba 00000000 		.4byte	.LFB72
 3814 0cbe 0C000000 		.4byte	.LFE72-.LFB72
 3815 0cc2 01       		.uleb128 0x1
 3816 0cc3 9C       		.byte	0x9c
 3817 0cc4 E50C0000 		.4byte	0xce5
 3818 0cc8 13       		.uleb128 0x13
 3819 0cc9 DB030000 		.4byte	.LASF24
 3820 0ccd 01       		.byte	0x1
 3821 0cce B808     		.2byte	0x8b8
 3822 0cd0 83000000 		.4byte	0x83
 3823 0cd4 01       		.uleb128 0x1
 3824 0cd5 50       		.byte	0x50
 3825 0cd6 13       		.uleb128 0x13
 3826 0cd7 5B030000 		.4byte	.LASF39
 3827 0cdb 01       		.byte	0x1
 3828 0cdc B808     		.2byte	0x8b8
 3829 0cde 83000000 		.4byte	0x83
 3830 0ce2 01       		.uleb128 0x1
 3831 0ce3 51       		.byte	0x51
 3832 0ce4 00       		.byte	0
 3833 0ce5 08       		.uleb128 0x8
 3834 0ce6 11000000 		.4byte	.LASF92
 3835 0cea 01       		.byte	0x1
 3836 0ceb A7       		.byte	0xa7
 3837 0cec 00000000 		.4byte	.LFB34
 3838 0cf0 24000000 		.4byte	.LFE34-.LFB34
 3839 0cf4 01       		.uleb128 0x1
 3840 0cf5 9C       		.byte	0x9c
 3841 0cf6 480D0000 		.4byte	0xd48
 3842 0cfa 09       		.uleb128 0x9
 3843 0cfb 600A0000 		.4byte	.LASF47
 3844 0cff 01       		.byte	0x1
 3845 0d00 A9       		.byte	0xa9
 3846 0d01 83000000 		.4byte	0x83
 3847 0d05 F10A0000 		.4byte	.LLST65
 3848 0d09 0A       		.uleb128 0xa
 3849 0d0a 0E000000 		.4byte	.LVL226
 3850 0d0e B20C0000 		.4byte	0xcb2
 3851 0d12 220D0000 		.4byte	0xd22
 3852 0d16 0B       		.uleb128 0xb
 3853 0d17 01       		.uleb128 0x1
 3854 0d18 50       		.byte	0x50
 3855 0d19 02       		.uleb128 0x2
 3856 0d1a 74       		.byte	0x74
 3857 0d1b 00       		.sleb128 0
 3858 0d1c 0B       		.uleb128 0xb
 3859 0d1d 01       		.uleb128 0x1
 3860 0d1e 51       		.byte	0x51
 3861 0d1f 01       		.uleb128 0x1
 3862 0d20 30       		.byte	0x30
 3863 0d21 00       		.byte	0
ARM GAS  C:\Users\puria\AppData\Local\Temp\ccYRkNAS.s 			page 112


 3864 0d22 0F       		.uleb128 0xf
 3865 0d23 18000000 		.4byte	.LVL228
 3866 0d27 E5000000 		.4byte	0xe5
 3867 0d2b 0A       		.uleb128 0xa
 3868 0d2c 1E000000 		.4byte	.LVL229
 3869 0d30 E6050000 		.4byte	0x5e6
 3870 0d34 3E0D0000 		.4byte	0xd3e
 3871 0d38 0B       		.uleb128 0xb
 3872 0d39 01       		.uleb128 0x1
 3873 0d3a 50       		.byte	0x50
 3874 0d3b 01       		.uleb128 0x1
 3875 0d3c 30       		.byte	0x30
 3876 0d3d 00       		.byte	0
 3877 0d3e 0F       		.uleb128 0xf
 3878 0d3f 22000000 		.4byte	.LVL230
 3879 0d43 28040000 		.4byte	0x428
 3880 0d47 00       		.byte	0
 3881 0d48 0D       		.uleb128 0xd
 3882 0d49 8D000000 		.4byte	.LASF93
 3883 0d4d 01       		.byte	0x1
 3884 0d4e 7801     		.2byte	0x178
 3885 0d50 00000000 		.4byte	.LFB37
 3886 0d54 38000000 		.4byte	.LFE37-.LFB37
 3887 0d58 01       		.uleb128 0x1
 3888 0d59 9C       		.byte	0x9c
 3889 0d5a 8C0D0000 		.4byte	0xd8c
 3890 0d5e 14       		.uleb128 0x14
 3891 0d5f F7080000 		.4byte	.LASF94
 3892 0d63 01       		.byte	0x1
 3893 0d64 7B01     		.2byte	0x17b
 3894 0d66 6B000000 		.4byte	0x6b
 3895 0d6a 05       		.uleb128 0x5
 3896 0d6b 03       		.byte	0x3
 3897 0d6c 0F000000 		.4byte	capsense_initVar.5425
 3898 0d70 0F       		.uleb128 0xf
 3899 0d71 0E000000 		.4byte	.LVL232
 3900 0d75 E50C0000 		.4byte	0xce5
 3901 0d79 0F       		.uleb128 0xf
 3902 0d7a 18000000 		.4byte	.LVL233
 3903 0d7e 44010000 		.4byte	0x144
 3904 0d82 0F       		.uleb128 0xf
 3905 0d83 1C000000 		.4byte	.LVL234
 3906 0d87 04110000 		.4byte	0x1104
 3907 0d8b 00       		.byte	0
 3908 0d8c 0D       		.uleb128 0xd
 3909 0d8d A00A0000 		.4byte	.LASF95
 3910 0d91 01       		.byte	0x1
 3911 0d92 EF08     		.2byte	0x8ef
 3912 0d94 00000000 		.4byte	.LFB73
 3913 0d98 40000000 		.4byte	.LFE73-.LFB73
 3914 0d9c 01       		.uleb128 0x1
 3915 0d9d 9C       		.byte	0x9c
 3916 0d9e 0F0E0000 		.4byte	0xe0f
 3917 0da2 13       		.uleb128 0x13
 3918 0da3 D8000000 		.4byte	.LASF96
 3919 0da7 01       		.byte	0x1
 3920 0da8 EF08     		.2byte	0x8ef
ARM GAS  C:\Users\puria\AppData\Local\Temp\ccYRkNAS.s 			page 113


 3921 0daa 83000000 		.4byte	0x83
 3922 0dae 01       		.uleb128 0x1
 3923 0daf 50       		.byte	0x50
 3924 0db0 13       		.uleb128 0x13
 3925 0db1 9E090000 		.4byte	.LASF97
 3926 0db5 01       		.byte	0x1
 3927 0db6 EF08     		.2byte	0x8ef
 3928 0db8 D4000000 		.4byte	0xd4
 3929 0dbc 01       		.uleb128 0x1
 3930 0dbd 51       		.byte	0x51
 3931 0dbe 0E       		.uleb128 0xe
 3932 0dbf E3040000 		.4byte	.LASF98
 3933 0dc3 01       		.byte	0x1
 3934 0dc4 F108     		.2byte	0x8f1
 3935 0dc6 83000000 		.4byte	0x83
 3936 0dca 100B0000 		.4byte	.LLST66
 3937 0dce 0E       		.uleb128 0xe
 3938 0dcf 57070000 		.4byte	.LASF99
 3939 0dd3 01       		.byte	0x1
 3940 0dd4 F208     		.2byte	0x8f2
 3941 0dd6 83000000 		.4byte	0x83
 3942 0dda 2F0B0000 		.4byte	.LLST67
 3943 0dde 0E       		.uleb128 0xe
 3944 0ddf E6050000 		.4byte	.LASF72
 3945 0de3 01       		.byte	0x1
 3946 0de4 F308     		.2byte	0x8f3
 3947 0de6 83000000 		.4byte	0x83
 3948 0dea 580B0000 		.4byte	.LLST68
 3949 0dee 0E       		.uleb128 0xe
 3950 0def 9B030000 		.4byte	.LASF71
 3951 0df3 01       		.byte	0x1
 3952 0df4 F408     		.2byte	0x8f4
 3953 0df6 83000000 		.4byte	0x83
 3954 0dfa 6B0B0000 		.4byte	.LLST69
 3955 0dfe 0E       		.uleb128 0xe
 3956 0dff 1C060000 		.4byte	.LASF100
 3957 0e03 01       		.byte	0x1
 3958 0e04 F508     		.2byte	0x8f5
 3959 0e06 83000000 		.4byte	0x83
 3960 0e0a 7E0B0000 		.4byte	.LLST70
 3961 0e0e 00       		.byte	0
 3962 0e0f 15       		.uleb128 0x15
 3963 0e10 A0020000 		.4byte	.LASF101
 3964 0e14 01       		.byte	0x1
 3965 0e15 24       		.byte	0x24
 3966 0e16 6B000000 		.4byte	0x6b
 3967 0e1a 05       		.uleb128 0x5
 3968 0e1b 03       		.byte	0x3
 3969 0e1c 00000000 		.4byte	capsense_lowLevelTuningDone
 3970 0e20 16       		.uleb128 0x16
 3971 0e21 6B000000 		.4byte	0x6b
 3972 0e25 300E0000 		.4byte	0xe30
 3973 0e29 17       		.uleb128 0x17
 3974 0e2a C6000000 		.4byte	0xc6
 3975 0e2e 00       		.byte	0
 3976 0e2f 00       		.byte	0
 3977 0e30 15       		.uleb128 0x15
ARM GAS  C:\Users\puria\AppData\Local\Temp\ccYRkNAS.s 			page 114


 3978 0e31 01050000 		.4byte	.LASF102
 3979 0e35 01       		.byte	0x1
 3980 0e36 25       		.byte	0x25
 3981 0e37 200E0000 		.4byte	0xe20
 3982 0e3b 05       		.uleb128 0x5
 3983 0e3c 03       		.byte	0x3
 3984 0e3d 00000000 		.4byte	capsense_scanSpeedTbl
 3985 0e41 15       		.uleb128 0x15
 3986 0e42 3A050000 		.4byte	.LASF103
 3987 0e46 01       		.byte	0x1
 3988 0e47 2D       		.byte	0x2d
 3989 0e48 B0000000 		.4byte	0xb0
 3990 0e4c 05       		.uleb128 0x5
 3991 0e4d 03       		.byte	0x3
 3992 0e4e 00000000 		.4byte	capsense_csdStatusVar
 3993 0e52 15       		.uleb128 0x15
 3994 0e53 70050000 		.4byte	.LASF104
 3995 0e57 01       		.byte	0x1
 3996 0e58 2E       		.byte	0x2e
 3997 0e59 B0000000 		.4byte	0xb0
 3998 0e5d 05       		.uleb128 0x5
 3999 0e5e 03       		.byte	0x3
 4000 0e5f 00000000 		.4byte	capsense_sensorIndex
 4001 0e63 16       		.uleb128 0x16
 4002 0e64 77000000 		.4byte	0x77
 4003 0e68 730E0000 		.4byte	0xe73
 4004 0e6c 17       		.uleb128 0x17
 4005 0e6d C6000000 		.4byte	0xc6
 4006 0e71 04       		.byte	0x4
 4007 0e72 00       		.byte	0
 4008 0e73 15       		.uleb128 0x15
 4009 0e74 B6030000 		.4byte	.LASF105
 4010 0e78 01       		.byte	0x1
 4011 0e79 31       		.byte	0x31
 4012 0e7a 630E0000 		.4byte	0xe63
 4013 0e7e 05       		.uleb128 0x5
 4014 0e7f 03       		.byte	0x3
 4015 0e80 00000000 		.4byte	capsense_sensorRaw
 4016 0e84 16       		.uleb128 0x16
 4017 0e85 6B000000 		.4byte	0x6b
 4018 0e89 940E0000 		.4byte	0xe94
 4019 0e8d 17       		.uleb128 0x17
 4020 0e8e C6000000 		.4byte	0xc6
 4021 0e92 04       		.byte	0x4
 4022 0e93 00       		.byte	0
 4023 0e94 15       		.uleb128 0x15
 4024 0e95 8D060000 		.4byte	.LASF106
 4025 0e99 01       		.byte	0x1
 4026 0e9a 3B       		.byte	0x3b
 4027 0e9b 840E0000 		.4byte	0xe84
 4028 0e9f 05       		.uleb128 0x5
 4029 0ea0 03       		.byte	0x3
 4030 0ea1 00000000 		.4byte	capsense_unscannedSnsDriveMode
 4031 0ea5 15       		.uleb128 0x15
 4032 0ea6 B8040000 		.4byte	.LASF107
 4033 0eaa 01       		.byte	0x1
 4034 0eab 3E       		.byte	0x3e
ARM GAS  C:\Users\puria\AppData\Local\Temp\ccYRkNAS.s 			page 115


 4035 0eac 200E0000 		.4byte	0xe20
 4036 0eb0 05       		.uleb128 0x5
 4037 0eb1 03       		.byte	0x3
 4038 0eb2 00000000 		.4byte	capsense_sensorEnableMaskBackup
 4039 0eb6 15       		.uleb128 0x15
 4040 0eb7 F9090000 		.4byte	.LASF108
 4041 0ebb 01       		.byte	0x1
 4042 0ebc 41       		.byte	0x41
 4043 0ebd 200E0000 		.4byte	0xe20
 4044 0ec1 05       		.uleb128 0x5
 4045 0ec2 03       		.byte	0x3
 4046 0ec3 00000000 		.4byte	capsense_sensorEnableMask
 4047 0ec7 15       		.uleb128 0x15
 4048 0ec8 F1000000 		.4byte	.LASF109
 4049 0ecc 01       		.byte	0x1
 4050 0ecd 64       		.byte	0x64
 4051 0ece 840E0000 		.4byte	0xe84
 4052 0ed2 05       		.uleb128 0x5
 4053 0ed3 03       		.byte	0x3
 4054 0ed4 00000000 		.4byte	capsense_modulationIDAC
 4055 0ed8 15       		.uleb128 0x15
 4056 0ed9 F7050000 		.4byte	.LASF110
 4057 0edd 01       		.byte	0x1
 4058 0ede 65       		.byte	0x65
 4059 0edf 840E0000 		.4byte	0xe84
 4060 0ee3 05       		.uleb128 0x5
 4061 0ee4 03       		.byte	0x3
 4062 0ee5 00000000 		.4byte	capsense_compensationIDAC
 4063 0ee9 16       		.uleb128 0x16
 4064 0eea 83000000 		.4byte	0x83
 4065 0eee F90E0000 		.4byte	0xef9
 4066 0ef2 17       		.uleb128 0x17
 4067 0ef3 C6000000 		.4byte	0xc6
 4068 0ef7 00       		.byte	0
 4069 0ef8 00       		.byte	0
 4070 0ef9 15       		.uleb128 0x15
 4071 0efa 59010000 		.4byte	.LASF111
 4072 0efe 01       		.byte	0x1
 4073 0eff 67       		.byte	0x67
 4074 0f00 E90E0000 		.4byte	0xee9
 4075 0f04 05       		.uleb128 0x5
 4076 0f05 03       		.byte	0x3
 4077 0f06 00000000 		.4byte	capsense_widgetResolution
 4078 0f0a 15       		.uleb128 0x15
 4079 0f0b 3B080000 		.4byte	.LASF112
 4080 0f0f 01       		.byte	0x1
 4081 0f10 6B       		.byte	0x6b
 4082 0f11 840E0000 		.4byte	0xe84
 4083 0f15 05       		.uleb128 0x5
 4084 0f16 03       		.byte	0x3
 4085 0f17 00000000 		.4byte	capsense_senseClkDividerVal
 4086 0f1b 15       		.uleb128 0x15
 4087 0f1c D0090000 		.4byte	.LASF113
 4088 0f20 01       		.byte	0x1
 4089 0f21 6C       		.byte	0x6c
 4090 0f22 840E0000 		.4byte	0xe84
 4091 0f26 05       		.uleb128 0x5
ARM GAS  C:\Users\puria\AppData\Local\Temp\ccYRkNAS.s 			page 116


 4092 0f27 03       		.byte	0x3
 4093 0f28 00000000 		.4byte	capsense_sampleClkDividerVal
 4094 0f2c 16       		.uleb128 0x16
 4095 0f2d E0000000 		.4byte	0xe0
 4096 0f31 3C0F0000 		.4byte	0xf3c
 4097 0f35 17       		.uleb128 0x17
 4098 0f36 C6000000 		.4byte	0xc6
 4099 0f3a 04       		.byte	0x4
 4100 0f3b 00       		.byte	0
 4101 0f3c 15       		.uleb128 0x15
 4102 0f3d 80010000 		.4byte	.LASF114
 4103 0f41 01       		.byte	0x1
 4104 0f42 6E       		.byte	0x6e
 4105 0f43 4D0F0000 		.4byte	0xf4d
 4106 0f47 05       		.uleb128 0x5
 4107 0f48 03       		.byte	0x3
 4108 0f49 00000000 		.4byte	capsense_widgetNumber
 4109 0f4d 07       		.uleb128 0x7
 4110 0f4e 2C0F0000 		.4byte	0xf2c
 4111 0f52 16       		.uleb128 0x16
 4112 0f53 680F0000 		.4byte	0xf68
 4113 0f57 620F0000 		.4byte	0xf62
 4114 0f5b 17       		.uleb128 0x17
 4115 0f5c C6000000 		.4byte	0xc6
 4116 0f60 06       		.byte	0x6
 4117 0f61 00       		.byte	0
 4118 0f62 06       		.uleb128 0x6
 4119 0f63 04       		.byte	0x4
 4120 0f64 B5000000 		.4byte	0xb5
 4121 0f68 07       		.uleb128 0x7
 4122 0f69 620F0000 		.4byte	0xf62
 4123 0f6d 15       		.uleb128 0x15
 4124 0f6e C5000000 		.4byte	.LASF115
 4125 0f72 01       		.byte	0x1
 4126 0f73 72       		.byte	0x72
 4127 0f74 7E0F0000 		.4byte	0xf7e
 4128 0f78 05       		.uleb128 0x5
 4129 0f79 03       		.byte	0x3
 4130 0f7a 00000000 		.4byte	capsense_prtSelTbl
 4131 0f7e 07       		.uleb128 0x7
 4132 0f7f 520F0000 		.4byte	0xf52
 4133 0f83 15       		.uleb128 0x15
 4134 0f84 76080000 		.4byte	.LASF116
 4135 0f88 01       		.byte	0x1
 4136 0f89 7C       		.byte	0x7c
 4137 0f8a 940F0000 		.4byte	0xf94
 4138 0f8e 05       		.uleb128 0x5
 4139 0f8f 03       		.byte	0x3
 4140 0f90 00000000 		.4byte	capsense_prtCfgTbl
 4141 0f94 07       		.uleb128 0x7
 4142 0f95 520F0000 		.4byte	0xf52
 4143 0f99 15       		.uleb128 0x15
 4144 0f9a 65070000 		.4byte	.LASF117
 4145 0f9e 01       		.byte	0x1
 4146 0f9f 86       		.byte	0x86
 4147 0fa0 AA0F0000 		.4byte	0xfaa
 4148 0fa4 05       		.uleb128 0x5
ARM GAS  C:\Users\puria\AppData\Local\Temp\ccYRkNAS.s 			page 117


 4149 0fa5 03       		.byte	0x3
 4150 0fa6 00000000 		.4byte	capsense_prtDRTbl
 4151 0faa 07       		.uleb128 0x7
 4152 0fab 520F0000 		.4byte	0xf52
 4153 0faf 16       		.uleb128 0x16
 4154 0fb0 620F0000 		.4byte	0xf62
 4155 0fb4 BF0F0000 		.4byte	0xfbf
 4156 0fb8 17       		.uleb128 0x17
 4157 0fb9 C6000000 		.4byte	0xc6
 4158 0fbd 04       		.byte	0x4
 4159 0fbe 00       		.byte	0
 4160 0fbf 15       		.uleb128 0x15
 4161 0fc0 200A0000 		.4byte	.LASF118
 4162 0fc4 01       		.byte	0x1
 4163 0fc5 44       		.byte	0x44
 4164 0fc6 AF0F0000 		.4byte	0xfaf
 4165 0fca 05       		.uleb128 0x5
 4166 0fcb 03       		.byte	0x3
 4167 0fcc 00000000 		.4byte	capsense_pcTable
 4168 0fd0 15       		.uleb128 0x15
 4169 0fd1 29060000 		.4byte	.LASF119
 4170 0fd5 01       		.byte	0x1
 4171 0fd6 4C       		.byte	0x4c
 4172 0fd7 E10F0000 		.4byte	0xfe1
 4173 0fdb 05       		.uleb128 0x5
 4174 0fdc 03       		.byte	0x3
 4175 0fdd 00000000 		.4byte	capsense_portTable
 4176 0fe1 07       		.uleb128 0x7
 4177 0fe2 2C0F0000 		.4byte	0xf2c
 4178 0fe6 16       		.uleb128 0x16
 4179 0fe7 F60F0000 		.4byte	0xff6
 4180 0feb F60F0000 		.4byte	0xff6
 4181 0fef 17       		.uleb128 0x17
 4182 0ff0 C6000000 		.4byte	0xc6
 4183 0ff4 04       		.byte	0x4
 4184 0ff5 00       		.byte	0
 4185 0ff6 07       		.uleb128 0x7
 4186 0ff7 83000000 		.4byte	0x83
 4187 0ffb 15       		.uleb128 0x15
 4188 0ffc 92070000 		.4byte	.LASF120
 4189 1000 01       		.byte	0x1
 4190 1001 54       		.byte	0x54
 4191 1002 0C100000 		.4byte	0x100c
 4192 1006 05       		.uleb128 0x5
 4193 1007 03       		.byte	0x3
 4194 1008 00000000 		.4byte	capsense_maskTable
 4195 100c 07       		.uleb128 0x7
 4196 100d E60F0000 		.4byte	0xfe6
 4197 1011 15       		.uleb128 0x15
 4198 1012 D5080000 		.4byte	.LASF121
 4199 1016 01       		.byte	0x1
 4200 1017 5C       		.byte	0x5c
 4201 1018 22100000 		.4byte	0x1022
 4202 101c 05       		.uleb128 0x5
 4203 101d 03       		.byte	0x3
 4204 101e 00000000 		.4byte	capsense_pinShiftTbl
 4205 1022 07       		.uleb128 0x7
ARM GAS  C:\Users\puria\AppData\Local\Temp\ccYRkNAS.s 			page 118


 4206 1023 2C0F0000 		.4byte	0xf2c
 4207 1027 16       		.uleb128 0x16
 4208 1028 E0000000 		.4byte	0xe0
 4209 102c 37100000 		.4byte	0x1037
 4210 1030 17       		.uleb128 0x17
 4211 1031 C6000000 		.4byte	0xc6
 4212 1035 00       		.byte	0
 4213 1036 00       		.byte	0
 4214 1037 18       		.uleb128 0x18
 4215 1038 77060000 		.4byte	.LASF122
 4216 103c 03       		.byte	0x3
 4217 103d 3A01     		.2byte	0x13a
 4218 103f 43100000 		.4byte	0x1043
 4219 1043 07       		.uleb128 0x7
 4220 1044 27100000 		.4byte	0x1027
 4221 1048 18       		.uleb128 0x18
 4222 1049 3C060000 		.4byte	.LASF123
 4223 104d 03       		.byte	0x3
 4224 104e 3B01     		.2byte	0x13b
 4225 1050 54100000 		.4byte	0x1054
 4226 1054 07       		.uleb128 0x7
 4227 1055 27100000 		.4byte	0x1027
 4228 1059 15       		.uleb128 0x15
 4229 105a 22070000 		.4byte	.LASF124
 4230 105e 01       		.byte	0x1
 4231 105f 37       		.byte	0x37
 4232 1060 6B000000 		.4byte	0x6b
 4233 1064 05       		.uleb128 0x5
 4234 1065 03       		.byte	0x3
 4235 1066 00000000 		.4byte	capsense_csdTrim1
 4236 106a 19       		.uleb128 0x19
 4237 106b 09010000 		.4byte	.LASF125
 4238 106f 09010000 		.4byte	.LASF125
 4239 1073 04       		.byte	0x4
 4240 1074 C5       		.byte	0xc5
 4241 1075 19       		.uleb128 0x19
 4242 1076 64040000 		.4byte	.LASF126
 4243 107a 64040000 		.4byte	.LASF126
 4244 107e 04       		.byte	0x4
 4245 107f BD       		.byte	0xbd
 4246 1080 19       		.uleb128 0x19
 4247 1081 00000000 		.4byte	.LASF127
 4248 1085 00000000 		.4byte	.LASF127
 4249 1089 04       		.byte	0x4
 4250 108a C0       		.byte	0xc0
 4251 108b 19       		.uleb128 0x19
 4252 108c CE060000 		.4byte	.LASF128
 4253 1090 CE060000 		.4byte	.LASF128
 4254 1094 05       		.byte	0x5
 4255 1095 27       		.byte	0x27
 4256 1096 19       		.uleb128 0x19
 4257 1097 E2030000 		.4byte	.LASF129
 4258 109b E2030000 		.4byte	.LASF129
 4259 109f 06       		.byte	0x6
 4260 10a0 27       		.byte	0x27
 4261 10a1 19       		.uleb128 0x19
 4262 10a2 A5070000 		.4byte	.LASF130
ARM GAS  C:\Users\puria\AppData\Local\Temp\ccYRkNAS.s 			page 119


 4263 10a6 A5070000 		.4byte	.LASF130
 4264 10aa 06       		.byte	0x6
 4265 10ab 29       		.byte	0x29
 4266 10ac 19       		.uleb128 0x19
 4267 10ad 310A0000 		.4byte	.LASF131
 4268 10b1 310A0000 		.4byte	.LASF131
 4269 10b5 05       		.byte	0x5
 4270 10b6 29       		.byte	0x29
 4271 10b7 19       		.uleb128 0x19
 4272 10b8 1B080000 		.4byte	.LASF132
 4273 10bc 1B080000 		.4byte	.LASF132
 4274 10c0 06       		.byte	0x6
 4275 10c1 1D       		.byte	0x1d
 4276 10c2 19       		.uleb128 0x19
 4277 10c3 D4010000 		.4byte	.LASF133
 4278 10c7 D4010000 		.4byte	.LASF133
 4279 10cb 05       		.byte	0x5
 4280 10cc 1D       		.byte	0x1d
 4281 10cd 19       		.uleb128 0x19
 4282 10ce 08090000 		.4byte	.LASF134
 4283 10d2 08090000 		.4byte	.LASF134
 4284 10d6 04       		.byte	0x4
 4285 10d7 C3       		.byte	0xc3
 4286 10d8 19       		.uleb128 0x19
 4287 10d9 42090000 		.4byte	.LASF135
 4288 10dd 42090000 		.4byte	.LASF135
 4289 10e1 04       		.byte	0x4
 4290 10e2 E5       		.byte	0xe5
 4291 10e3 19       		.uleb128 0x19
 4292 10e4 FF030000 		.4byte	.LASF136
 4293 10e8 FF030000 		.4byte	.LASF136
 4294 10ec 04       		.byte	0x4
 4295 10ed E6       		.byte	0xe6
 4296 10ee 19       		.uleb128 0x19
 4297 10ef 59020000 		.4byte	.LASF137
 4298 10f3 59020000 		.4byte	.LASF137
 4299 10f7 04       		.byte	0x4
 4300 10f8 C8       		.byte	0xc8
 4301 10f9 19       		.uleb128 0x19
 4302 10fa 15040000 		.4byte	.LASF138
 4303 10fe 15040000 		.4byte	.LASF138
 4304 1102 04       		.byte	0x4
 4305 1103 DC       		.byte	0xdc
 4306 1104 1A       		.uleb128 0x1a
 4307 1105 C9030000 		.4byte	.LASF139
 4308 1109 C9030000 		.4byte	.LASF139
 4309 110d 07       		.byte	0x7
 4310 110e CF02     		.2byte	0x2cf
 4311 1110 00       		.byte	0
 4312              		.section	.debug_abbrev,"",%progbits
 4313              	.Ldebug_abbrev0:
 4314 0000 01       		.uleb128 0x1
 4315 0001 11       		.uleb128 0x11
 4316 0002 01       		.byte	0x1
 4317 0003 25       		.uleb128 0x25
 4318 0004 0E       		.uleb128 0xe
 4319 0005 13       		.uleb128 0x13
ARM GAS  C:\Users\puria\AppData\Local\Temp\ccYRkNAS.s 			page 120


 4320 0006 0B       		.uleb128 0xb
 4321 0007 03       		.uleb128 0x3
 4322 0008 0E       		.uleb128 0xe
 4323 0009 1B       		.uleb128 0x1b
 4324 000a 0E       		.uleb128 0xe
 4325 000b 55       		.uleb128 0x55
 4326 000c 17       		.uleb128 0x17
 4327 000d 11       		.uleb128 0x11
 4328 000e 01       		.uleb128 0x1
 4329 000f 10       		.uleb128 0x10
 4330 0010 17       		.uleb128 0x17
 4331 0011 00       		.byte	0
 4332 0012 00       		.byte	0
 4333 0013 02       		.uleb128 0x2
 4334 0014 24       		.uleb128 0x24
 4335 0015 00       		.byte	0
 4336 0016 0B       		.uleb128 0xb
 4337 0017 0B       		.uleb128 0xb
 4338 0018 3E       		.uleb128 0x3e
 4339 0019 0B       		.uleb128 0xb
 4340 001a 03       		.uleb128 0x3
 4341 001b 0E       		.uleb128 0xe
 4342 001c 00       		.byte	0
 4343 001d 00       		.byte	0
 4344 001e 03       		.uleb128 0x3
 4345 001f 24       		.uleb128 0x24
 4346 0020 00       		.byte	0
 4347 0021 0B       		.uleb128 0xb
 4348 0022 0B       		.uleb128 0xb
 4349 0023 3E       		.uleb128 0x3e
 4350 0024 0B       		.uleb128 0xb
 4351 0025 03       		.uleb128 0x3
 4352 0026 08       		.uleb128 0x8
 4353 0027 00       		.byte	0
 4354 0028 00       		.byte	0
 4355 0029 04       		.uleb128 0x4
 4356 002a 16       		.uleb128 0x16
 4357 002b 00       		.byte	0
 4358 002c 03       		.uleb128 0x3
 4359 002d 0E       		.uleb128 0xe
 4360 002e 3A       		.uleb128 0x3a
 4361 002f 0B       		.uleb128 0xb
 4362 0030 3B       		.uleb128 0x3b
 4363 0031 05       		.uleb128 0x5
 4364 0032 49       		.uleb128 0x49
 4365 0033 13       		.uleb128 0x13
 4366 0034 00       		.byte	0
 4367 0035 00       		.byte	0
 4368 0036 05       		.uleb128 0x5
 4369 0037 35       		.uleb128 0x35
 4370 0038 00       		.byte	0
 4371 0039 49       		.uleb128 0x49
 4372 003a 13       		.uleb128 0x13
 4373 003b 00       		.byte	0
 4374 003c 00       		.byte	0
 4375 003d 06       		.uleb128 0x6
 4376 003e 0F       		.uleb128 0xf
ARM GAS  C:\Users\puria\AppData\Local\Temp\ccYRkNAS.s 			page 121


 4377 003f 00       		.byte	0
 4378 0040 0B       		.uleb128 0xb
 4379 0041 0B       		.uleb128 0xb
 4380 0042 49       		.uleb128 0x49
 4381 0043 13       		.uleb128 0x13
 4382 0044 00       		.byte	0
 4383 0045 00       		.byte	0
 4384 0046 07       		.uleb128 0x7
 4385 0047 26       		.uleb128 0x26
 4386 0048 00       		.byte	0
 4387 0049 49       		.uleb128 0x49
 4388 004a 13       		.uleb128 0x13
 4389 004b 00       		.byte	0
 4390 004c 00       		.byte	0
 4391 004d 08       		.uleb128 0x8
 4392 004e 2E       		.uleb128 0x2e
 4393 004f 01       		.byte	0x1
 4394 0050 3F       		.uleb128 0x3f
 4395 0051 19       		.uleb128 0x19
 4396 0052 03       		.uleb128 0x3
 4397 0053 0E       		.uleb128 0xe
 4398 0054 3A       		.uleb128 0x3a
 4399 0055 0B       		.uleb128 0xb
 4400 0056 3B       		.uleb128 0x3b
 4401 0057 0B       		.uleb128 0xb
 4402 0058 27       		.uleb128 0x27
 4403 0059 19       		.uleb128 0x19
 4404 005a 11       		.uleb128 0x11
 4405 005b 01       		.uleb128 0x1
 4406 005c 12       		.uleb128 0x12
 4407 005d 06       		.uleb128 0x6
 4408 005e 40       		.uleb128 0x40
 4409 005f 18       		.uleb128 0x18
 4410 0060 9742     		.uleb128 0x2117
 4411 0062 19       		.uleb128 0x19
 4412 0063 01       		.uleb128 0x1
 4413 0064 13       		.uleb128 0x13
 4414 0065 00       		.byte	0
 4415 0066 00       		.byte	0
 4416 0067 09       		.uleb128 0x9
 4417 0068 34       		.uleb128 0x34
 4418 0069 00       		.byte	0
 4419 006a 03       		.uleb128 0x3
 4420 006b 0E       		.uleb128 0xe
 4421 006c 3A       		.uleb128 0x3a
 4422 006d 0B       		.uleb128 0xb
 4423 006e 3B       		.uleb128 0x3b
 4424 006f 0B       		.uleb128 0xb
 4425 0070 49       		.uleb128 0x49
 4426 0071 13       		.uleb128 0x13
 4427 0072 02       		.uleb128 0x2
 4428 0073 17       		.uleb128 0x17
 4429 0074 00       		.byte	0
 4430 0075 00       		.byte	0
 4431 0076 0A       		.uleb128 0xa
 4432 0077 898201   		.uleb128 0x4109
 4433 007a 01       		.byte	0x1
ARM GAS  C:\Users\puria\AppData\Local\Temp\ccYRkNAS.s 			page 122


 4434 007b 11       		.uleb128 0x11
 4435 007c 01       		.uleb128 0x1
 4436 007d 31       		.uleb128 0x31
 4437 007e 13       		.uleb128 0x13
 4438 007f 01       		.uleb128 0x1
 4439 0080 13       		.uleb128 0x13
 4440 0081 00       		.byte	0
 4441 0082 00       		.byte	0
 4442 0083 0B       		.uleb128 0xb
 4443 0084 8A8201   		.uleb128 0x410a
 4444 0087 00       		.byte	0
 4445 0088 02       		.uleb128 0x2
 4446 0089 18       		.uleb128 0x18
 4447 008a 9142     		.uleb128 0x2111
 4448 008c 18       		.uleb128 0x18
 4449 008d 00       		.byte	0
 4450 008e 00       		.byte	0
 4451 008f 0C       		.uleb128 0xc
 4452 0090 898201   		.uleb128 0x4109
 4453 0093 01       		.byte	0x1
 4454 0094 11       		.uleb128 0x11
 4455 0095 01       		.uleb128 0x1
 4456 0096 31       		.uleb128 0x31
 4457 0097 13       		.uleb128 0x13
 4458 0098 00       		.byte	0
 4459 0099 00       		.byte	0
 4460 009a 0D       		.uleb128 0xd
 4461 009b 2E       		.uleb128 0x2e
 4462 009c 01       		.byte	0x1
 4463 009d 3F       		.uleb128 0x3f
 4464 009e 19       		.uleb128 0x19
 4465 009f 03       		.uleb128 0x3
 4466 00a0 0E       		.uleb128 0xe
 4467 00a1 3A       		.uleb128 0x3a
 4468 00a2 0B       		.uleb128 0xb
 4469 00a3 3B       		.uleb128 0x3b
 4470 00a4 05       		.uleb128 0x5
 4471 00a5 27       		.uleb128 0x27
 4472 00a6 19       		.uleb128 0x19
 4473 00a7 11       		.uleb128 0x11
 4474 00a8 01       		.uleb128 0x1
 4475 00a9 12       		.uleb128 0x12
 4476 00aa 06       		.uleb128 0x6
 4477 00ab 40       		.uleb128 0x40
 4478 00ac 18       		.uleb128 0x18
 4479 00ad 9742     		.uleb128 0x2117
 4480 00af 19       		.uleb128 0x19
 4481 00b0 01       		.uleb128 0x1
 4482 00b1 13       		.uleb128 0x13
 4483 00b2 00       		.byte	0
 4484 00b3 00       		.byte	0
 4485 00b4 0E       		.uleb128 0xe
 4486 00b5 34       		.uleb128 0x34
 4487 00b6 00       		.byte	0
 4488 00b7 03       		.uleb128 0x3
 4489 00b8 0E       		.uleb128 0xe
 4490 00b9 3A       		.uleb128 0x3a
ARM GAS  C:\Users\puria\AppData\Local\Temp\ccYRkNAS.s 			page 123


 4491 00ba 0B       		.uleb128 0xb
 4492 00bb 3B       		.uleb128 0x3b
 4493 00bc 05       		.uleb128 0x5
 4494 00bd 49       		.uleb128 0x49
 4495 00be 13       		.uleb128 0x13
 4496 00bf 02       		.uleb128 0x2
 4497 00c0 17       		.uleb128 0x17
 4498 00c1 00       		.byte	0
 4499 00c2 00       		.byte	0
 4500 00c3 0F       		.uleb128 0xf
 4501 00c4 898201   		.uleb128 0x4109
 4502 00c7 00       		.byte	0
 4503 00c8 11       		.uleb128 0x11
 4504 00c9 01       		.uleb128 0x1
 4505 00ca 31       		.uleb128 0x31
 4506 00cb 13       		.uleb128 0x13
 4507 00cc 00       		.byte	0
 4508 00cd 00       		.byte	0
 4509 00ce 10       		.uleb128 0x10
 4510 00cf 2E       		.uleb128 0x2e
 4511 00d0 00       		.byte	0
 4512 00d1 3F       		.uleb128 0x3f
 4513 00d2 19       		.uleb128 0x19
 4514 00d3 03       		.uleb128 0x3
 4515 00d4 0E       		.uleb128 0xe
 4516 00d5 3A       		.uleb128 0x3a
 4517 00d6 0B       		.uleb128 0xb
 4518 00d7 3B       		.uleb128 0x3b
 4519 00d8 05       		.uleb128 0x5
 4520 00d9 27       		.uleb128 0x27
 4521 00da 19       		.uleb128 0x19
 4522 00db 49       		.uleb128 0x49
 4523 00dc 13       		.uleb128 0x13
 4524 00dd 11       		.uleb128 0x11
 4525 00de 01       		.uleb128 0x1
 4526 00df 12       		.uleb128 0x12
 4527 00e0 06       		.uleb128 0x6
 4528 00e1 40       		.uleb128 0x40
 4529 00e2 18       		.uleb128 0x18
 4530 00e3 9742     		.uleb128 0x2117
 4531 00e5 19       		.uleb128 0x19
 4532 00e6 00       		.byte	0
 4533 00e7 00       		.byte	0
 4534 00e8 11       		.uleb128 0x11
 4535 00e9 2E       		.uleb128 0x2e
 4536 00ea 01       		.byte	0x1
 4537 00eb 3F       		.uleb128 0x3f
 4538 00ec 19       		.uleb128 0x19
 4539 00ed 03       		.uleb128 0x3
 4540 00ee 0E       		.uleb128 0xe
 4541 00ef 3A       		.uleb128 0x3a
 4542 00f0 0B       		.uleb128 0xb
 4543 00f1 3B       		.uleb128 0x3b
 4544 00f2 05       		.uleb128 0x5
 4545 00f3 27       		.uleb128 0x27
 4546 00f4 19       		.uleb128 0x19
 4547 00f5 49       		.uleb128 0x49
ARM GAS  C:\Users\puria\AppData\Local\Temp\ccYRkNAS.s 			page 124


 4548 00f6 13       		.uleb128 0x13
 4549 00f7 11       		.uleb128 0x11
 4550 00f8 01       		.uleb128 0x1
 4551 00f9 12       		.uleb128 0x12
 4552 00fa 06       		.uleb128 0x6
 4553 00fb 40       		.uleb128 0x40
 4554 00fc 18       		.uleb128 0x18
 4555 00fd 9742     		.uleb128 0x2117
 4556 00ff 19       		.uleb128 0x19
 4557 0100 01       		.uleb128 0x1
 4558 0101 13       		.uleb128 0x13
 4559 0102 00       		.byte	0
 4560 0103 00       		.byte	0
 4561 0104 12       		.uleb128 0x12
 4562 0105 05       		.uleb128 0x5
 4563 0106 00       		.byte	0
 4564 0107 03       		.uleb128 0x3
 4565 0108 0E       		.uleb128 0xe
 4566 0109 3A       		.uleb128 0x3a
 4567 010a 0B       		.uleb128 0xb
 4568 010b 3B       		.uleb128 0x3b
 4569 010c 05       		.uleb128 0x5
 4570 010d 49       		.uleb128 0x49
 4571 010e 13       		.uleb128 0x13
 4572 010f 02       		.uleb128 0x2
 4573 0110 17       		.uleb128 0x17
 4574 0111 00       		.byte	0
 4575 0112 00       		.byte	0
 4576 0113 13       		.uleb128 0x13
 4577 0114 05       		.uleb128 0x5
 4578 0115 00       		.byte	0
 4579 0116 03       		.uleb128 0x3
 4580 0117 0E       		.uleb128 0xe
 4581 0118 3A       		.uleb128 0x3a
 4582 0119 0B       		.uleb128 0xb
 4583 011a 3B       		.uleb128 0x3b
 4584 011b 05       		.uleb128 0x5
 4585 011c 49       		.uleb128 0x49
 4586 011d 13       		.uleb128 0x13
 4587 011e 02       		.uleb128 0x2
 4588 011f 18       		.uleb128 0x18
 4589 0120 00       		.byte	0
 4590 0121 00       		.byte	0
 4591 0122 14       		.uleb128 0x14
 4592 0123 34       		.uleb128 0x34
 4593 0124 00       		.byte	0
 4594 0125 03       		.uleb128 0x3
 4595 0126 0E       		.uleb128 0xe
 4596 0127 3A       		.uleb128 0x3a
 4597 0128 0B       		.uleb128 0xb
 4598 0129 3B       		.uleb128 0x3b
 4599 012a 05       		.uleb128 0x5
 4600 012b 49       		.uleb128 0x49
 4601 012c 13       		.uleb128 0x13
 4602 012d 02       		.uleb128 0x2
 4603 012e 18       		.uleb128 0x18
 4604 012f 00       		.byte	0
ARM GAS  C:\Users\puria\AppData\Local\Temp\ccYRkNAS.s 			page 125


 4605 0130 00       		.byte	0
 4606 0131 15       		.uleb128 0x15
 4607 0132 34       		.uleb128 0x34
 4608 0133 00       		.byte	0
 4609 0134 03       		.uleb128 0x3
 4610 0135 0E       		.uleb128 0xe
 4611 0136 3A       		.uleb128 0x3a
 4612 0137 0B       		.uleb128 0xb
 4613 0138 3B       		.uleb128 0x3b
 4614 0139 0B       		.uleb128 0xb
 4615 013a 49       		.uleb128 0x49
 4616 013b 13       		.uleb128 0x13
 4617 013c 3F       		.uleb128 0x3f
 4618 013d 19       		.uleb128 0x19
 4619 013e 02       		.uleb128 0x2
 4620 013f 18       		.uleb128 0x18
 4621 0140 00       		.byte	0
 4622 0141 00       		.byte	0
 4623 0142 16       		.uleb128 0x16
 4624 0143 01       		.uleb128 0x1
 4625 0144 01       		.byte	0x1
 4626 0145 49       		.uleb128 0x49
 4627 0146 13       		.uleb128 0x13
 4628 0147 01       		.uleb128 0x1
 4629 0148 13       		.uleb128 0x13
 4630 0149 00       		.byte	0
 4631 014a 00       		.byte	0
 4632 014b 17       		.uleb128 0x17
 4633 014c 21       		.uleb128 0x21
 4634 014d 00       		.byte	0
 4635 014e 49       		.uleb128 0x49
 4636 014f 13       		.uleb128 0x13
 4637 0150 2F       		.uleb128 0x2f
 4638 0151 0B       		.uleb128 0xb
 4639 0152 00       		.byte	0
 4640 0153 00       		.byte	0
 4641 0154 18       		.uleb128 0x18
 4642 0155 34       		.uleb128 0x34
 4643 0156 00       		.byte	0
 4644 0157 03       		.uleb128 0x3
 4645 0158 0E       		.uleb128 0xe
 4646 0159 3A       		.uleb128 0x3a
 4647 015a 0B       		.uleb128 0xb
 4648 015b 3B       		.uleb128 0x3b
 4649 015c 05       		.uleb128 0x5
 4650 015d 49       		.uleb128 0x49
 4651 015e 13       		.uleb128 0x13
 4652 015f 3F       		.uleb128 0x3f
 4653 0160 19       		.uleb128 0x19
 4654 0161 3C       		.uleb128 0x3c
 4655 0162 19       		.uleb128 0x19
 4656 0163 00       		.byte	0
 4657 0164 00       		.byte	0
 4658 0165 19       		.uleb128 0x19
 4659 0166 2E       		.uleb128 0x2e
 4660 0167 00       		.byte	0
 4661 0168 3F       		.uleb128 0x3f
ARM GAS  C:\Users\puria\AppData\Local\Temp\ccYRkNAS.s 			page 126


 4662 0169 19       		.uleb128 0x19
 4663 016a 3C       		.uleb128 0x3c
 4664 016b 19       		.uleb128 0x19
 4665 016c 6E       		.uleb128 0x6e
 4666 016d 0E       		.uleb128 0xe
 4667 016e 03       		.uleb128 0x3
 4668 016f 0E       		.uleb128 0xe
 4669 0170 3A       		.uleb128 0x3a
 4670 0171 0B       		.uleb128 0xb
 4671 0172 3B       		.uleb128 0x3b
 4672 0173 0B       		.uleb128 0xb
 4673 0174 00       		.byte	0
 4674 0175 00       		.byte	0
 4675 0176 1A       		.uleb128 0x1a
 4676 0177 2E       		.uleb128 0x2e
 4677 0178 00       		.byte	0
 4678 0179 3F       		.uleb128 0x3f
 4679 017a 19       		.uleb128 0x19
 4680 017b 3C       		.uleb128 0x3c
 4681 017c 19       		.uleb128 0x19
 4682 017d 6E       		.uleb128 0x6e
 4683 017e 0E       		.uleb128 0xe
 4684 017f 03       		.uleb128 0x3
 4685 0180 0E       		.uleb128 0xe
 4686 0181 3A       		.uleb128 0x3a
 4687 0182 0B       		.uleb128 0xb
 4688 0183 3B       		.uleb128 0x3b
 4689 0184 05       		.uleb128 0x5
 4690 0185 00       		.byte	0
 4691 0186 00       		.byte	0
 4692 0187 00       		.byte	0
 4693              		.section	.debug_loc,"",%progbits
 4694              	.Ldebug_loc0:
 4695              	.LLST0:
 4696 0000 0C000000 		.4byte	.LVL0
 4697 0004 10000000 		.4byte	.LVL1
 4698 0008 0100     		.2byte	0x1
 4699 000a 53       		.byte	0x53
 4700 000b 12000000 		.4byte	.LVL2
 4701 000f 1C000000 		.4byte	.LVL3
 4702 0013 0100     		.2byte	0x1
 4703 0015 51       		.byte	0x51
 4704 0016 1C000000 		.4byte	.LVL3
 4705 001a 2C000000 		.4byte	.LVL6
 4706 001e 0100     		.2byte	0x1
 4707 0020 53       		.byte	0x53
 4708 0021 2C000000 		.4byte	.LVL6
 4709 0025 2E000000 		.4byte	.LVL7
 4710 0029 0200     		.2byte	0x2
 4711 002b 74       		.byte	0x74
 4712 002c 00       		.sleb128 0
 4713 002d 38000000 		.4byte	.LVL8
 4714 0031 45000000 		.4byte	.LVL11-1
 4715 0035 0100     		.2byte	0x1
 4716 0037 53       		.byte	0x53
 4717 0038 00000000 		.4byte	0
 4718 003c 00000000 		.4byte	0
ARM GAS  C:\Users\puria\AppData\Local\Temp\ccYRkNAS.s 			page 127


 4719              	.LLST1:
 4720 0040 2A000000 		.4byte	.LVL20
 4721 0044 35000000 		.4byte	.LVL22-1
 4722 0048 0100     		.2byte	0x1
 4723 004a 53       		.byte	0x53
 4724 004b 00000000 		.4byte	0
 4725 004f 00000000 		.4byte	0
 4726              	.LLST2:
 4727 0053 00000000 		.4byte	.LVL26
 4728 0057 02000000 		.4byte	.LVL27
 4729 005b 0100     		.2byte	0x1
 4730 005d 50       		.byte	0x50
 4731 005e 02000000 		.4byte	.LVL27
 4732 0062 10000000 		.4byte	.LFE44
 4733 0066 0400     		.2byte	0x4
 4734 0068 F3       		.byte	0xf3
 4735 0069 01       		.uleb128 0x1
 4736 006a 50       		.byte	0x50
 4737 006b 9F       		.byte	0x9f
 4738 006c 00000000 		.4byte	0
 4739 0070 00000000 		.4byte	0
 4740              	.LLST3:
 4741 0074 00000000 		.4byte	.LVL28
 4742 0078 02000000 		.4byte	.LVL29
 4743 007c 0100     		.2byte	0x1
 4744 007e 50       		.byte	0x50
 4745 007f 02000000 		.4byte	.LVL29
 4746 0083 10000000 		.4byte	.LFE45
 4747 0087 0400     		.2byte	0x4
 4748 0089 F3       		.byte	0xf3
 4749 008a 01       		.uleb128 0x1
 4750 008b 50       		.byte	0x50
 4751 008c 9F       		.byte	0x9f
 4752 008d 00000000 		.4byte	0
 4753 0091 00000000 		.4byte	0
 4754              	.LLST4:
 4755 0095 00000000 		.4byte	.LVL30
 4756 0099 02000000 		.4byte	.LVL31
 4757 009d 0100     		.2byte	0x1
 4758 009f 50       		.byte	0x50
 4759 00a0 02000000 		.4byte	.LVL31
 4760 00a4 0C000000 		.4byte	.LFE46
 4761 00a8 0400     		.2byte	0x4
 4762 00aa F3       		.byte	0xf3
 4763 00ab 01       		.uleb128 0x1
 4764 00ac 50       		.byte	0x50
 4765 00ad 9F       		.byte	0x9f
 4766 00ae 00000000 		.4byte	0
 4767 00b2 00000000 		.4byte	0
 4768              	.LLST5:
 4769 00b6 00000000 		.4byte	.LVL32
 4770 00ba 02000000 		.4byte	.LVL33
 4771 00be 0100     		.2byte	0x1
 4772 00c0 50       		.byte	0x50
 4773 00c1 02000000 		.4byte	.LVL33
 4774 00c5 0C000000 		.4byte	.LFE47
 4775 00c9 0400     		.2byte	0x4
ARM GAS  C:\Users\puria\AppData\Local\Temp\ccYRkNAS.s 			page 128


 4776 00cb F3       		.byte	0xf3
 4777 00cc 01       		.uleb128 0x1
 4778 00cd 50       		.byte	0x50
 4779 00ce 9F       		.byte	0x9f
 4780 00cf 00000000 		.4byte	0
 4781 00d3 00000000 		.4byte	0
 4782              	.LLST6:
 4783 00d7 00000000 		.4byte	.LVL34
 4784 00db 08000000 		.4byte	.LVL36
 4785 00df 0100     		.2byte	0x1
 4786 00e1 50       		.byte	0x50
 4787 00e2 08000000 		.4byte	.LVL36
 4788 00e6 48000000 		.4byte	.LFE49
 4789 00ea 0400     		.2byte	0x4
 4790 00ec F3       		.byte	0xf3
 4791 00ed 01       		.uleb128 0x1
 4792 00ee 50       		.byte	0x50
 4793 00ef 9F       		.byte	0x9f
 4794 00f0 00000000 		.4byte	0
 4795 00f4 00000000 		.4byte	0
 4796              	.LLST7:
 4797 00f8 10000000 		.4byte	.LVL37
 4798 00fc 40000000 		.4byte	.LVL47
 4799 0100 0100     		.2byte	0x1
 4800 0102 55       		.byte	0x55
 4801 0103 40000000 		.4byte	.LVL47
 4802 0107 40000000 		.4byte	.LVL48
 4803 010b 1E00     		.2byte	0x1e
 4804 010d 77       		.byte	0x77
 4805 010e 00       		.sleb128 0
 4806 010f F3       		.byte	0xf3
 4807 0110 01       		.uleb128 0x1
 4808 0111 50       		.byte	0x50
 4809 0112 22       		.byte	0x22
 4810 0113 23       		.byte	0x23
 4811 0114 08       		.uleb128 0x8
 4812 0115 94       		.byte	0x94
 4813 0116 01       		.byte	0x1
 4814 0117 08       		.byte	0x8
 4815 0118 FF       		.byte	0xff
 4816 0119 1A       		.byte	0x1a
 4817 011a 31       		.byte	0x31
 4818 011b 24       		.byte	0x24
 4819 011c 77       		.byte	0x77
 4820 011d 00       		.sleb128 0
 4821 011e F3       		.byte	0xf3
 4822 011f 01       		.uleb128 0x1
 4823 0120 50       		.byte	0x50
 4824 0121 22       		.byte	0x22
 4825 0122 23       		.byte	0x23
 4826 0123 08       		.uleb128 0x8
 4827 0124 94       		.byte	0x94
 4828 0125 01       		.byte	0x1
 4829 0126 08       		.byte	0x8
 4830 0127 FF       		.byte	0xff
 4831 0128 1A       		.byte	0x1a
 4832 0129 22       		.byte	0x22
ARM GAS  C:\Users\puria\AppData\Local\Temp\ccYRkNAS.s 			page 129


 4833 012a 9F       		.byte	0x9f
 4834 012b 40000000 		.4byte	.LVL48
 4835 012f 48000000 		.4byte	.LFE49
 4836 0133 2000     		.2byte	0x20
 4837 0135 F3       		.byte	0xf3
 4838 0136 01       		.uleb128 0x1
 4839 0137 50       		.byte	0x50
 4840 0138 03       		.byte	0x3
 4841 0139 08000000 		.4byte	.LANCHOR2+8
 4842 013d 22       		.byte	0x22
 4843 013e 94       		.byte	0x94
 4844 013f 01       		.byte	0x1
 4845 0140 08       		.byte	0x8
 4846 0141 FF       		.byte	0xff
 4847 0142 1A       		.byte	0x1a
 4848 0143 31       		.byte	0x31
 4849 0144 24       		.byte	0x24
 4850 0145 F3       		.byte	0xf3
 4851 0146 01       		.uleb128 0x1
 4852 0147 50       		.byte	0x50
 4853 0148 03       		.byte	0x3
 4854 0149 08000000 		.4byte	.LANCHOR2+8
 4855 014d 22       		.byte	0x22
 4856 014e 94       		.byte	0x94
 4857 014f 01       		.byte	0x1
 4858 0150 08       		.byte	0x8
 4859 0151 FF       		.byte	0xff
 4860 0152 1A       		.byte	0x1a
 4861 0153 22       		.byte	0x22
 4862 0154 9F       		.byte	0x9f
 4863 0155 00000000 		.4byte	0
 4864 0159 00000000 		.4byte	0
 4865              	.LLST8:
 4866 015d 14000000 		.4byte	.LVL38
 4867 0161 30000000 		.4byte	.LVL45
 4868 0165 0100     		.2byte	0x1
 4869 0167 54       		.byte	0x54
 4870 0168 30000000 		.4byte	.LVL45
 4871 016c 40000000 		.4byte	.LVL48
 4872 0170 0D00     		.2byte	0xd
 4873 0172 77       		.byte	0x77
 4874 0173 00       		.sleb128 0
 4875 0174 F3       		.byte	0xf3
 4876 0175 01       		.uleb128 0x1
 4877 0176 50       		.byte	0x50
 4878 0177 22       		.byte	0x22
 4879 0178 23       		.byte	0x23
 4880 0179 08       		.uleb128 0x8
 4881 017a 94       		.byte	0x94
 4882 017b 01       		.byte	0x1
 4883 017c 32       		.byte	0x32
 4884 017d 24       		.byte	0x24
 4885 017e 9F       		.byte	0x9f
 4886 017f 40000000 		.4byte	.LVL48
 4887 0183 48000000 		.4byte	.LFE49
 4888 0187 0E00     		.2byte	0xe
 4889 0189 F3       		.byte	0xf3
ARM GAS  C:\Users\puria\AppData\Local\Temp\ccYRkNAS.s 			page 130


 4890 018a 01       		.uleb128 0x1
 4891 018b 50       		.byte	0x50
 4892 018c 03       		.byte	0x3
 4893 018d 08000000 		.4byte	.LANCHOR2+8
 4894 0191 22       		.byte	0x22
 4895 0192 94       		.byte	0x94
 4896 0193 01       		.byte	0x1
 4897 0194 32       		.byte	0x32
 4898 0195 24       		.byte	0x24
 4899 0196 9F       		.byte	0x9f
 4900 0197 00000000 		.4byte	0
 4901 019b 00000000 		.4byte	0
 4902              	.LLST9:
 4903 019f 18000000 		.4byte	.LVL39
 4904 01a3 3F000000 		.4byte	.LVL46-1
 4905 01a7 0100     		.2byte	0x1
 4906 01a9 50       		.byte	0x50
 4907 01aa 00000000 		.4byte	0
 4908 01ae 00000000 		.4byte	0
 4909              	.LLST10:
 4910 01b2 20000000 		.4byte	.LVL41
 4911 01b6 26000000 		.4byte	.LVL42
 4912 01ba 0100     		.2byte	0x1
 4913 01bc 52       		.byte	0x52
 4914 01bd 28000000 		.4byte	.LVL43
 4915 01c1 2E000000 		.4byte	.LVL44
 4916 01c5 0100     		.2byte	0x1
 4917 01c7 51       		.byte	0x51
 4918 01c8 2E000000 		.4byte	.LVL44
 4919 01cc 3F000000 		.4byte	.LVL46-1
 4920 01d0 0100     		.2byte	0x1
 4921 01d2 52       		.byte	0x52
 4922 01d3 00000000 		.4byte	0
 4923 01d7 00000000 		.4byte	0
 4924              	.LLST11:
 4925 01db 06000000 		.4byte	.LVL35
 4926 01df 1E000000 		.4byte	.LVL40
 4927 01e3 0100     		.2byte	0x1
 4928 01e5 56       		.byte	0x56
 4929 01e6 1E000000 		.4byte	.LVL40
 4930 01ea 40000000 		.4byte	.LVL48
 4931 01ee 0C00     		.2byte	0xc
 4932 01f0 77       		.byte	0x77
 4933 01f1 00       		.sleb128 0
 4934 01f2 F3       		.byte	0xf3
 4935 01f3 01       		.uleb128 0x1
 4936 01f4 50       		.byte	0x50
 4937 01f5 22       		.byte	0x22
 4938 01f6 94       		.byte	0x94
 4939 01f7 01       		.byte	0x1
 4940 01f8 08       		.byte	0x8
 4941 01f9 FF       		.byte	0xff
 4942 01fa 1A       		.byte	0x1a
 4943 01fb 9F       		.byte	0x9f
 4944 01fc 40000000 		.4byte	.LVL48
 4945 0200 48000000 		.4byte	.LFE49
 4946 0204 0F00     		.2byte	0xf
ARM GAS  C:\Users\puria\AppData\Local\Temp\ccYRkNAS.s 			page 131


 4947 0206 F3       		.byte	0xf3
 4948 0207 01       		.uleb128 0x1
 4949 0208 50       		.byte	0x50
 4950 0209 03       		.byte	0x3
 4951 020a 00000000 		.4byte	.LANCHOR2
 4952 020e 22       		.byte	0x22
 4953 020f 94       		.byte	0x94
 4954 0210 01       		.byte	0x1
 4955 0211 08       		.byte	0x8
 4956 0212 FF       		.byte	0xff
 4957 0213 1A       		.byte	0x1a
 4958 0214 9F       		.byte	0x9f
 4959 0215 00000000 		.4byte	0
 4960 0219 00000000 		.4byte	0
 4961              	.LLST12:
 4962 021d 00000000 		.4byte	.LVL49
 4963 0221 18000000 		.4byte	.LVL53
 4964 0225 0100     		.2byte	0x1
 4965 0227 50       		.byte	0x50
 4966 0228 18000000 		.4byte	.LVL53
 4967 022c 70000000 		.4byte	.LFE50
 4968 0230 0400     		.2byte	0x4
 4969 0232 F3       		.byte	0xf3
 4970 0233 01       		.uleb128 0x1
 4971 0234 50       		.byte	0x50
 4972 0235 9F       		.byte	0x9f
 4973 0236 00000000 		.4byte	0
 4974 023a 00000000 		.4byte	0
 4975              	.LLST13:
 4976 023e 3C000000 		.4byte	.LVL56
 4977 0242 59000000 		.4byte	.LVL63-1
 4978 0246 0100     		.2byte	0x1
 4979 0248 50       		.byte	0x50
 4980 0249 00000000 		.4byte	0
 4981 024d 00000000 		.4byte	0
 4982              	.LLST14:
 4983 0251 46000000 		.4byte	.LVL59
 4984 0255 4C000000 		.4byte	.LVL60
 4985 0259 0100     		.2byte	0x1
 4986 025b 53       		.byte	0x53
 4987 025c 4E000000 		.4byte	.LVL61
 4988 0260 54000000 		.4byte	.LVL62
 4989 0264 0100     		.2byte	0x1
 4990 0266 52       		.byte	0x52
 4991 0267 54000000 		.4byte	.LVL62
 4992 026b 59000000 		.4byte	.LVL63-1
 4993 026f 0100     		.2byte	0x1
 4994 0271 53       		.byte	0x53
 4995 0272 00000000 		.4byte	0
 4996 0276 00000000 		.4byte	0
 4997              	.LLST15:
 4998 027a 06000000 		.4byte	.LVL50
 4999 027e 3E000000 		.4byte	.LVL57
 5000 0282 0100     		.2byte	0x1
 5001 0284 54       		.byte	0x54
 5002 0285 3E000000 		.4byte	.LVL57
 5003 0289 40000000 		.4byte	.LVL58
ARM GAS  C:\Users\puria\AppData\Local\Temp\ccYRkNAS.s 			page 132


 5004 028d 0F00     		.2byte	0xf
 5005 028f F3       		.byte	0xf3
 5006 0290 01       		.uleb128 0x1
 5007 0291 50       		.byte	0x50
 5008 0292 03       		.byte	0x3
 5009 0293 00000000 		.4byte	.LANCHOR2
 5010 0297 22       		.byte	0x22
 5011 0298 94       		.byte	0x94
 5012 0299 01       		.byte	0x1
 5013 029a 08       		.byte	0x8
 5014 029b FF       		.byte	0xff
 5015 029c 1A       		.byte	0x1a
 5016 029d 9F       		.byte	0x9f
 5017 029e 40000000 		.4byte	.LVL58
 5018 02a2 46000000 		.4byte	.LVL59
 5019 02a6 0C00     		.2byte	0xc
 5020 02a8 73       		.byte	0x73
 5021 02a9 00       		.sleb128 0
 5022 02aa F3       		.byte	0xf3
 5023 02ab 01       		.uleb128 0x1
 5024 02ac 50       		.byte	0x50
 5025 02ad 22       		.byte	0x22
 5026 02ae 94       		.byte	0x94
 5027 02af 01       		.byte	0x1
 5028 02b0 08       		.byte	0x8
 5029 02b1 FF       		.byte	0xff
 5030 02b2 1A       		.byte	0x1a
 5031 02b3 9F       		.byte	0x9f
 5032 02b4 46000000 		.4byte	.LVL59
 5033 02b8 70000000 		.4byte	.LFE50
 5034 02bc 0F00     		.2byte	0xf
 5035 02be F3       		.byte	0xf3
 5036 02bf 01       		.uleb128 0x1
 5037 02c0 50       		.byte	0x50
 5038 02c1 03       		.byte	0x3
 5039 02c2 00000000 		.4byte	.LANCHOR2
 5040 02c6 22       		.byte	0x22
 5041 02c7 94       		.byte	0x94
 5042 02c8 01       		.byte	0x1
 5043 02c9 08       		.byte	0x8
 5044 02ca FF       		.byte	0xff
 5045 02cb 1A       		.byte	0x1a
 5046 02cc 9F       		.byte	0x9f
 5047 02cd 00000000 		.4byte	0
 5048 02d1 00000000 		.4byte	0
 5049              	.LLST16:
 5050 02d5 0E000000 		.4byte	.LVL51
 5051 02d9 3B000000 		.4byte	.LVL56-1
 5052 02dd 0100     		.2byte	0x1
 5053 02df 51       		.byte	0x51
 5054 02e0 3B000000 		.4byte	.LVL56-1
 5055 02e4 66000000 		.4byte	.LVL66
 5056 02e8 0500     		.2byte	0x5
 5057 02ea 77       		.byte	0x77
 5058 02eb 00       		.sleb128 0
 5059 02ec 32       		.byte	0x32
 5060 02ed 24       		.byte	0x24
ARM GAS  C:\Users\puria\AppData\Local\Temp\ccYRkNAS.s 			page 133


 5061 02ee 9F       		.byte	0x9f
 5062 02ef 66000000 		.4byte	.LVL66
 5063 02f3 70000000 		.4byte	.LFE50
 5064 02f7 0E00     		.2byte	0xe
 5065 02f9 F3       		.byte	0xf3
 5066 02fa 01       		.uleb128 0x1
 5067 02fb 50       		.byte	0x50
 5068 02fc 03       		.byte	0x3
 5069 02fd 08000000 		.4byte	.LANCHOR2+8
 5070 0301 22       		.byte	0x22
 5071 0302 94       		.byte	0x94
 5072 0303 01       		.byte	0x1
 5073 0304 32       		.byte	0x32
 5074 0305 24       		.byte	0x24
 5075 0306 9F       		.byte	0x9f
 5076 0307 00000000 		.4byte	0
 5077 030b 00000000 		.4byte	0
 5078              	.LLST17:
 5079 030f 14000000 		.4byte	.LVL52
 5080 0313 66000000 		.4byte	.LVL64
 5081 0317 0100     		.2byte	0x1
 5082 0319 55       		.byte	0x55
 5083 031a 66000000 		.4byte	.LVL64
 5084 031e 66000000 		.4byte	.LVL66
 5085 0322 0800     		.2byte	0x8
 5086 0324 77       		.byte	0x77
 5087 0325 00       		.sleb128 0
 5088 0326 31       		.byte	0x31
 5089 0327 24       		.byte	0x24
 5090 0328 77       		.byte	0x77
 5091 0329 00       		.sleb128 0
 5092 032a 22       		.byte	0x22
 5093 032b 9F       		.byte	0x9f
 5094 032c 66000000 		.4byte	.LVL66
 5095 0330 70000000 		.4byte	.LFE50
 5096 0334 2000     		.2byte	0x20
 5097 0336 F3       		.byte	0xf3
 5098 0337 01       		.uleb128 0x1
 5099 0338 50       		.byte	0x50
 5100 0339 03       		.byte	0x3
 5101 033a 08000000 		.4byte	.LANCHOR2+8
 5102 033e 22       		.byte	0x22
 5103 033f 94       		.byte	0x94
 5104 0340 01       		.byte	0x1
 5105 0341 08       		.byte	0x8
 5106 0342 FF       		.byte	0xff
 5107 0343 1A       		.byte	0x1a
 5108 0344 31       		.byte	0x31
 5109 0345 24       		.byte	0x24
 5110 0346 F3       		.byte	0xf3
 5111 0347 01       		.uleb128 0x1
 5112 0348 50       		.byte	0x50
 5113 0349 03       		.byte	0x3
 5114 034a 08000000 		.4byte	.LANCHOR2+8
 5115 034e 22       		.byte	0x22
 5116 034f 94       		.byte	0x94
 5117 0350 01       		.byte	0x1
ARM GAS  C:\Users\puria\AppData\Local\Temp\ccYRkNAS.s 			page 134


 5118 0351 08       		.byte	0x8
 5119 0352 FF       		.byte	0xff
 5120 0353 1A       		.byte	0x1a
 5121 0354 22       		.byte	0x22
 5122 0355 9F       		.byte	0x9f
 5123 0356 00000000 		.4byte	0
 5124 035a 00000000 		.4byte	0
 5125              	.LLST18:
 5126 035e 14000000 		.4byte	.LVL52
 5127 0362 38000000 		.4byte	.LVL55
 5128 0366 0200     		.2byte	0x2
 5129 0368 30       		.byte	0x30
 5130 0369 9F       		.byte	0x9f
 5131 036a 38000000 		.4byte	.LVL55
 5132 036e 66000000 		.4byte	.LVL65
 5133 0372 0100     		.2byte	0x1
 5134 0374 56       		.byte	0x56
 5135 0375 00000000 		.4byte	0
 5136 0379 00000000 		.4byte	0
 5137              	.LLST19:
 5138 037d 18000000 		.4byte	.LVL53
 5139 0381 3B000000 		.4byte	.LVL56-1
 5140 0385 0100     		.2byte	0x1
 5141 0387 50       		.byte	0x50
 5142 0388 00000000 		.4byte	0
 5143 038c 00000000 		.4byte	0
 5144              	.LLST20:
 5145 0390 02000000 		.4byte	.LVL67
 5146 0394 06000000 		.4byte	.LVL68
 5147 0398 0200     		.2byte	0x2
 5148 039a 30       		.byte	0x30
 5149 039b 9F       		.byte	0x9f
 5150 039c 06000000 		.4byte	.LVL68
 5151 03a0 12000000 		.4byte	.LVL71
 5152 03a4 0100     		.2byte	0x1
 5153 03a6 54       		.byte	0x54
 5154 03a7 00000000 		.4byte	0
 5155 03ab 00000000 		.4byte	0
 5156              	.LLST21:
 5157 03af 00000000 		.4byte	.LVL72
 5158 03b3 18000000 		.4byte	.LVL77
 5159 03b7 0100     		.2byte	0x1
 5160 03b9 50       		.byte	0x50
 5161 03ba 18000000 		.4byte	.LVL77
 5162 03be 24000000 		.4byte	.LFE53
 5163 03c2 0400     		.2byte	0x4
 5164 03c4 F3       		.byte	0xf3
 5165 03c5 01       		.uleb128 0x1
 5166 03c6 50       		.byte	0x50
 5167 03c7 9F       		.byte	0x9f
 5168 03c8 00000000 		.4byte	0
 5169 03cc 00000000 		.4byte	0
 5170              	.LLST22:
 5171 03d0 00000000 		.4byte	.LVL72
 5172 03d4 06000000 		.4byte	.LVL73
 5173 03d8 0100     		.2byte	0x1
 5174 03da 51       		.byte	0x51
ARM GAS  C:\Users\puria\AppData\Local\Temp\ccYRkNAS.s 			page 135


 5175 03db 06000000 		.4byte	.LVL73
 5176 03df 24000000 		.4byte	.LFE53
 5177 03e3 0400     		.2byte	0x4
 5178 03e5 F3       		.byte	0xf3
 5179 03e6 01       		.uleb128 0x1
 5180 03e7 51       		.byte	0x51
 5181 03e8 9F       		.byte	0x9f
 5182 03e9 00000000 		.4byte	0
 5183 03ed 00000000 		.4byte	0
 5184              	.LLST23:
 5185 03f1 00000000 		.4byte	.LVL72
 5186 03f5 08000000 		.4byte	.LVL74
 5187 03f9 0100     		.2byte	0x1
 5188 03fb 52       		.byte	0x52
 5189 03fc 08000000 		.4byte	.LVL74
 5190 0400 24000000 		.4byte	.LFE53
 5191 0404 0400     		.2byte	0x4
 5192 0406 F3       		.byte	0xf3
 5193 0407 01       		.uleb128 0x1
 5194 0408 52       		.byte	0x52
 5195 0409 9F       		.byte	0x9f
 5196 040a 00000000 		.4byte	0
 5197 040e 00000000 		.4byte	0
 5198              	.LLST24:
 5199 0412 10000000 		.4byte	.LVL75
 5200 0416 1A000000 		.4byte	.LVL78
 5201 041a 0100     		.2byte	0x1
 5202 041c 53       		.byte	0x53
 5203 041d 1A000000 		.4byte	.LVL78
 5204 0421 24000000 		.4byte	.LFE53
 5205 0425 0100     		.2byte	0x1
 5206 0427 50       		.byte	0x50
 5207 0428 00000000 		.4byte	0
 5208 042c 00000000 		.4byte	0
 5209              	.LLST25:
 5210 0430 00000000 		.4byte	.LVL79
 5211 0434 08000000 		.4byte	.LVL81
 5212 0438 0100     		.2byte	0x1
 5213 043a 50       		.byte	0x50
 5214 043b 08000000 		.4byte	.LVL81
 5215 043f 28000000 		.4byte	.LVL89
 5216 0443 0100     		.2byte	0x1
 5217 0445 55       		.byte	0x55
 5218 0446 28000000 		.4byte	.LVL89
 5219 044a 30000000 		.4byte	.LFE51
 5220 044e 0400     		.2byte	0x4
 5221 0450 F3       		.byte	0xf3
 5222 0451 01       		.uleb128 0x1
 5223 0452 50       		.byte	0x50
 5224 0453 9F       		.byte	0x9f
 5225 0454 00000000 		.4byte	0
 5226 0458 00000000 		.4byte	0
 5227              	.LLST26:
 5228 045c 04000000 		.4byte	.LVL80
 5229 0460 08000000 		.4byte	.LVL81
 5230 0464 0200     		.2byte	0x2
 5231 0466 30       		.byte	0x30
ARM GAS  C:\Users\puria\AppData\Local\Temp\ccYRkNAS.s 			page 136


 5232 0467 9F       		.byte	0x9f
 5233 0468 08000000 		.4byte	.LVL81
 5234 046c 18000000 		.4byte	.LVL85
 5235 0470 0100     		.2byte	0x1
 5236 0472 54       		.byte	0x54
 5237 0473 1A000000 		.4byte	.LVL86
 5238 0477 28000000 		.4byte	.LVL88
 5239 047b 0100     		.2byte	0x1
 5240 047d 54       		.byte	0x54
 5241 047e 00000000 		.4byte	0
 5242 0482 00000000 		.4byte	0
 5243              	.LLST27:
 5244 0486 0C000000 		.4byte	.LVL82
 5245 048a 15000000 		.4byte	.LVL84-1
 5246 048e 0100     		.2byte	0x1
 5247 0490 52       		.byte	0x52
 5248 0491 15000000 		.4byte	.LVL84-1
 5249 0495 18000000 		.4byte	.LVL85
 5250 0499 0E00     		.2byte	0xe
 5251 049b 74       		.byte	0x74
 5252 049c 00       		.sleb128 0
 5253 049d 03       		.byte	0x3
 5254 049e 00000000 		.4byte	.LANCHOR2
 5255 04a2 22       		.byte	0x22
 5256 04a3 94       		.byte	0x94
 5257 04a4 01       		.byte	0x1
 5258 04a5 08       		.byte	0x8
 5259 04a6 FF       		.byte	0xff
 5260 04a7 1A       		.byte	0x1a
 5261 04a8 9F       		.byte	0x9f
 5262 04a9 18000000 		.4byte	.LVL85
 5263 04ad 1A000000 		.4byte	.LVL86
 5264 04b1 0E00     		.2byte	0xe
 5265 04b3 74       		.byte	0x74
 5266 04b4 00       		.sleb128 0
 5267 04b5 03       		.byte	0x3
 5268 04b6 FFFFFFFF 		.4byte	.LANCHOR2-1
 5269 04ba 22       		.byte	0x22
 5270 04bb 94       		.byte	0x94
 5271 04bc 01       		.byte	0x1
 5272 04bd 08       		.byte	0x8
 5273 04be FF       		.byte	0xff
 5274 04bf 1A       		.byte	0x1a
 5275 04c0 9F       		.byte	0x9f
 5276 04c1 00000000 		.4byte	0
 5277 04c5 00000000 		.4byte	0
 5278              	.LLST28:
 5279 04c9 10000000 		.4byte	.LVL83
 5280 04cd 15000000 		.4byte	.LVL84-1
 5281 04d1 0100     		.2byte	0x1
 5282 04d3 51       		.byte	0x51
 5283 04d4 15000000 		.4byte	.LVL84-1
 5284 04d8 18000000 		.4byte	.LVL85
 5285 04dc 0E00     		.2byte	0xe
 5286 04de 74       		.byte	0x74
 5287 04df 00       		.sleb128 0
 5288 04e0 03       		.byte	0x3
ARM GAS  C:\Users\puria\AppData\Local\Temp\ccYRkNAS.s 			page 137


 5289 04e1 08000000 		.4byte	.LANCHOR2+8
 5290 04e5 22       		.byte	0x22
 5291 04e6 94       		.byte	0x94
 5292 04e7 01       		.byte	0x1
 5293 04e8 08       		.byte	0x8
 5294 04e9 FF       		.byte	0xff
 5295 04ea 1A       		.byte	0x1a
 5296 04eb 9F       		.byte	0x9f
 5297 04ec 18000000 		.4byte	.LVL85
 5298 04f0 1A000000 		.4byte	.LVL86
 5299 04f4 0E00     		.2byte	0xe
 5300 04f6 74       		.byte	0x74
 5301 04f7 00       		.sleb128 0
 5302 04f8 03       		.byte	0x3
 5303 04f9 07000000 		.4byte	.LANCHOR2+7
 5304 04fd 22       		.byte	0x22
 5305 04fe 94       		.byte	0x94
 5306 04ff 01       		.byte	0x1
 5307 0500 08       		.byte	0x8
 5308 0501 FF       		.byte	0xff
 5309 0502 1A       		.byte	0x1a
 5310 0503 9F       		.byte	0x9f
 5311 0504 00000000 		.4byte	0
 5312 0508 00000000 		.4byte	0
 5313              	.LLST29:
 5314 050c 00000000 		.4byte	.LVL94
 5315 0510 1E000000 		.4byte	.LVL97
 5316 0514 0100     		.2byte	0x1
 5317 0516 50       		.byte	0x50
 5318 0517 1E000000 		.4byte	.LVL97
 5319 051b 34000000 		.4byte	.LFE56
 5320 051f 0400     		.2byte	0x4
 5321 0521 F3       		.byte	0xf3
 5322 0522 01       		.uleb128 0x1
 5323 0523 50       		.byte	0x50
 5324 0524 9F       		.byte	0x9f
 5325 0525 00000000 		.4byte	0
 5326 0529 00000000 		.4byte	0
 5327              	.LLST30:
 5328 052d 00000000 		.4byte	.LVL94
 5329 0531 04000000 		.4byte	.LVL95
 5330 0535 0100     		.2byte	0x1
 5331 0537 51       		.byte	0x51
 5332 0538 04000000 		.4byte	.LVL95
 5333 053c 34000000 		.4byte	.LFE56
 5334 0540 0400     		.2byte	0x4
 5335 0542 F3       		.byte	0xf3
 5336 0543 01       		.uleb128 0x1
 5337 0544 51       		.byte	0x51
 5338 0545 9F       		.byte	0x9f
 5339 0546 00000000 		.4byte	0
 5340 054a 00000000 		.4byte	0
 5341              	.LLST31:
 5342 054e 1C000000 		.4byte	.LVL96
 5343 0552 24000000 		.4byte	.LVL98
 5344 0556 0100     		.2byte	0x1
 5345 0558 53       		.byte	0x53
ARM GAS  C:\Users\puria\AppData\Local\Temp\ccYRkNAS.s 			page 138


 5346 0559 26000000 		.4byte	.LVL99
 5347 055d 2C000000 		.4byte	.LVL100
 5348 0561 0100     		.2byte	0x1
 5349 0563 52       		.byte	0x52
 5350 0564 2C000000 		.4byte	.LVL100
 5351 0568 34000000 		.4byte	.LFE56
 5352 056c 0100     		.2byte	0x1
 5353 056e 53       		.byte	0x53
 5354 056f 00000000 		.4byte	0
 5355 0573 00000000 		.4byte	0
 5356              	.LLST32:
 5357 0577 00000000 		.4byte	.LVL101
 5358 057b 00000000 		.4byte	.LVL101
 5359 057f 0100     		.2byte	0x1
 5360 0581 50       		.byte	0x50
 5361 0582 00000000 		.4byte	.LVL101
 5362 0586 06000000 		.4byte	.LVL103
 5363 058a 0500     		.2byte	0x5
 5364 058c 70       		.byte	0x70
 5365 058d 00       		.sleb128 0
 5366 058e 33       		.byte	0x33
 5367 058f 1A       		.byte	0x1a
 5368 0590 9F       		.byte	0x9f
 5369 0591 06000000 		.4byte	.LVL103
 5370 0595 18000000 		.4byte	.LFE57
 5371 0599 0600     		.2byte	0x6
 5372 059b F3       		.byte	0xf3
 5373 059c 01       		.uleb128 0x1
 5374 059d 50       		.byte	0x50
 5375 059e 33       		.byte	0x33
 5376 059f 1A       		.byte	0x1a
 5377 05a0 9F       		.byte	0x9f
 5378 05a1 00000000 		.4byte	0
 5379 05a5 00000000 		.4byte	0
 5380              	.LLST33:
 5381 05a9 04000000 		.4byte	.LVL102
 5382 05ad 0E000000 		.4byte	.LVL104
 5383 05b1 0100     		.2byte	0x1
 5384 05b3 51       		.byte	0x51
 5385 05b4 0E000000 		.4byte	.LVL104
 5386 05b8 18000000 		.4byte	.LFE57
 5387 05bc 0100     		.2byte	0x1
 5388 05be 50       		.byte	0x50
 5389 05bf 00000000 		.4byte	0
 5390 05c3 00000000 		.4byte	0
 5391              	.LLST34:
 5392 05c7 00000000 		.4byte	.LVL105
 5393 05cb 12000000 		.4byte	.LVL110
 5394 05cf 0100     		.2byte	0x1
 5395 05d1 50       		.byte	0x50
 5396 05d2 12000000 		.4byte	.LVL110
 5397 05d6 14000000 		.4byte	.LVL111
 5398 05da 0400     		.2byte	0x4
 5399 05dc F3       		.byte	0xf3
 5400 05dd 01       		.uleb128 0x1
 5401 05de 50       		.byte	0x50
 5402 05df 9F       		.byte	0x9f
ARM GAS  C:\Users\puria\AppData\Local\Temp\ccYRkNAS.s 			page 139


 5403 05e0 14000000 		.4byte	.LVL111
 5404 05e4 16000000 		.4byte	.LVL112
 5405 05e8 0100     		.2byte	0x1
 5406 05ea 50       		.byte	0x50
 5407 05eb 16000000 		.4byte	.LVL112
 5408 05ef 18000000 		.4byte	.LFE59
 5409 05f3 0400     		.2byte	0x4
 5410 05f5 F3       		.byte	0xf3
 5411 05f6 01       		.uleb128 0x1
 5412 05f7 50       		.byte	0x50
 5413 05f8 9F       		.byte	0x9f
 5414 05f9 00000000 		.4byte	0
 5415 05fd 00000000 		.4byte	0
 5416              	.LLST35:
 5417 0601 00000000 		.4byte	.LVL105
 5418 0605 06000000 		.4byte	.LVL107
 5419 0609 0100     		.2byte	0x1
 5420 060b 51       		.byte	0x51
 5421 060c 06000000 		.4byte	.LVL107
 5422 0610 18000000 		.4byte	.LFE59
 5423 0614 0400     		.2byte	0x4
 5424 0616 F3       		.byte	0xf3
 5425 0617 01       		.uleb128 0x1
 5426 0618 51       		.byte	0x51
 5427 0619 9F       		.byte	0x9f
 5428 061a 00000000 		.4byte	0
 5429 061e 00000000 		.4byte	0
 5430              	.LLST36:
 5431 0622 02000000 		.4byte	.LVL106
 5432 0626 0C000000 		.4byte	.LVL109
 5433 062a 0100     		.2byte	0x1
 5434 062c 52       		.byte	0x52
 5435 062d 0C000000 		.4byte	.LVL109
 5436 0631 18000000 		.4byte	.LFE59
 5437 0635 0600     		.2byte	0x6
 5438 0637 F3       		.byte	0xf3
 5439 0638 01       		.uleb128 0x1
 5440 0639 51       		.byte	0x51
 5441 063a 33       		.byte	0x33
 5442 063b 25       		.byte	0x25
 5443 063c 9F       		.byte	0x9f
 5444 063d 00000000 		.4byte	0
 5445 0641 00000000 		.4byte	0
 5446              	.LLST37:
 5447 0645 00000000 		.4byte	.LVL113
 5448 0649 04000000 		.4byte	.LVL114
 5449 064d 0100     		.2byte	0x1
 5450 064f 50       		.byte	0x50
 5451 0650 04000000 		.4byte	.LVL114
 5452 0654 06000000 		.4byte	.LVL115
 5453 0658 0100     		.2byte	0x1
 5454 065a 54       		.byte	0x54
 5455 065b 08000000 		.4byte	.LVL116
 5456 065f 1C000000 		.4byte	.LVL119
 5457 0663 0100     		.2byte	0x1
 5458 0665 54       		.byte	0x54
 5459 0666 1C000000 		.4byte	.LVL119
ARM GAS  C:\Users\puria\AppData\Local\Temp\ccYRkNAS.s 			page 140


 5460 066a 24000000 		.4byte	.LFE39
 5461 066e 0100     		.2byte	0x1
 5462 0670 50       		.byte	0x50
 5463 0671 00000000 		.4byte	0
 5464 0675 00000000 		.4byte	0
 5465              	.LLST38:
 5466 0679 16000000 		.4byte	.LVL117
 5467 067d 1A000000 		.4byte	.LVL118
 5468 0681 0100     		.2byte	0x1
 5469 0683 50       		.byte	0x50
 5470 0684 00000000 		.4byte	0
 5471 0688 00000000 		.4byte	0
 5472              	.LLST39:
 5473 068c 00000000 		.4byte	.LVL120
 5474 0690 16000000 		.4byte	.LVL125
 5475 0694 0100     		.2byte	0x1
 5476 0696 50       		.byte	0x50
 5477 0697 16000000 		.4byte	.LVL125
 5478 069b 19000000 		.4byte	.LVL126-1
 5479 069f 0100     		.2byte	0x1
 5480 06a1 51       		.byte	0x51
 5481 06a2 19000000 		.4byte	.LVL126-1
 5482 06a6 BC000000 		.4byte	.LVL148
 5483 06aa 0100     		.2byte	0x1
 5484 06ac 54       		.byte	0x54
 5485 06ad BC000000 		.4byte	.LVL148
 5486 06b1 0C010000 		.4byte	.LFE54
 5487 06b5 0400     		.2byte	0x4
 5488 06b7 F3       		.byte	0xf3
 5489 06b8 01       		.uleb128 0x1
 5490 06b9 50       		.byte	0x50
 5491 06ba 9F       		.byte	0x9f
 5492 06bb 00000000 		.4byte	0
 5493 06bf 00000000 		.4byte	0
 5494              	.LLST40:
 5495 06c3 0C000000 		.4byte	.LVL121
 5496 06c7 0E000000 		.4byte	.LVL122
 5497 06cb 0100     		.2byte	0x1
 5498 06cd 53       		.byte	0x53
 5499 06ce 0E000000 		.4byte	.LVL122
 5500 06d2 10000000 		.4byte	.LVL123
 5501 06d6 0B00     		.2byte	0xb
 5502 06d8 70       		.byte	0x70
 5503 06d9 00       		.sleb128 0
 5504 06da 72       		.byte	0x72
 5505 06db 00       		.sleb128 0
 5506 06dc 22       		.byte	0x22
 5507 06dd 03       		.byte	0x3
 5508 06de 00000000 		.4byte	.LANCHOR2
 5509 06e2 22       		.byte	0x22
 5510 06e3 10000000 		.4byte	.LVL123
 5511 06e7 16000000 		.4byte	.LVL125
 5512 06eb 0800     		.2byte	0x8
 5513 06ed 70       		.byte	0x70
 5514 06ee 00       		.sleb128 0
 5515 06ef 03       		.byte	0x3
 5516 06f0 64000000 		.4byte	.LANCHOR2+100
ARM GAS  C:\Users\puria\AppData\Local\Temp\ccYRkNAS.s 			page 141


 5517 06f4 22       		.byte	0x22
 5518 06f5 16000000 		.4byte	.LVL125
 5519 06f9 19000000 		.4byte	.LVL126-1
 5520 06fd 0800     		.2byte	0x8
 5521 06ff 71       		.byte	0x71
 5522 0700 00       		.sleb128 0
 5523 0701 03       		.byte	0x3
 5524 0702 64000000 		.4byte	.LANCHOR2+100
 5525 0706 22       		.byte	0x22
 5526 0707 19000000 		.4byte	.LVL126-1
 5527 070b BC000000 		.4byte	.LVL148
 5528 070f 0800     		.2byte	0x8
 5529 0711 74       		.byte	0x74
 5530 0712 00       		.sleb128 0
 5531 0713 03       		.byte	0x3
 5532 0714 64000000 		.4byte	.LANCHOR2+100
 5533 0718 22       		.byte	0x22
 5534 0719 BC000000 		.4byte	.LVL148
 5535 071d 0C010000 		.4byte	.LFE54
 5536 0721 0900     		.2byte	0x9
 5537 0723 F3       		.byte	0xf3
 5538 0724 01       		.uleb128 0x1
 5539 0725 50       		.byte	0x50
 5540 0726 03       		.byte	0x3
 5541 0727 64000000 		.4byte	.LANCHOR2+100
 5542 072b 22       		.byte	0x22
 5543 072c 00000000 		.4byte	0
 5544 0730 00000000 		.4byte	0
 5545              	.LLST41:
 5546 0734 BC000000 		.4byte	.LVL148
 5547 0738 CE000000 		.4byte	.LVL151
 5548 073c 0100     		.2byte	0x1
 5549 073e 54       		.byte	0x54
 5550 073f 00000000 		.4byte	0
 5551 0743 00000000 		.4byte	0
 5552              	.LLST42:
 5553 0747 8A000000 		.4byte	.LVL139
 5554 074b 9C000000 		.4byte	.LVL141
 5555 074f 0100     		.2byte	0x1
 5556 0751 51       		.byte	0x51
 5557 0752 9C000000 		.4byte	.LVL141
 5558 0756 A2000000 		.4byte	.LVL142
 5559 075a 0100     		.2byte	0x1
 5560 075c 53       		.byte	0x53
 5561 075d A2000000 		.4byte	.LVL142
 5562 0761 CE000000 		.4byte	.LVL153
 5563 0765 0100     		.2byte	0x1
 5564 0767 56       		.byte	0x56
 5565 0768 00000000 		.4byte	0
 5566 076c 00000000 		.4byte	0
 5567              	.LLST43:
 5568 0770 12000000 		.4byte	.LVL124
 5569 0774 CE000000 		.4byte	.LVL152
 5570 0778 0100     		.2byte	0x1
 5571 077a 55       		.byte	0x55
 5572 077b 00000000 		.4byte	0
 5573 077f 00000000 		.4byte	0
ARM GAS  C:\Users\puria\AppData\Local\Temp\ccYRkNAS.s 			page 142


 5574              	.LLST44:
 5575 0783 1A000000 		.4byte	.LVL126
 5576 0787 2B000000 		.4byte	.LVL129-1
 5577 078b 0100     		.2byte	0x1
 5578 078d 50       		.byte	0x50
 5579 078e 00000000 		.4byte	0
 5580 0792 00000000 		.4byte	0
 5581              	.LLST45:
 5582 0796 00000000 		.4byte	.LVL154
 5583 079a 13000000 		.4byte	.LVL155-1
 5584 079e 0100     		.2byte	0x1
 5585 07a0 50       		.byte	0x50
 5586 07a1 13000000 		.4byte	.LVL155-1
 5587 07a5 1C000000 		.4byte	.LFE40
 5588 07a9 0400     		.2byte	0x4
 5589 07ab F3       		.byte	0xf3
 5590 07ac 01       		.uleb128 0x1
 5591 07ad 50       		.byte	0x50
 5592 07ae 9F       		.byte	0x9f
 5593 07af 00000000 		.4byte	0
 5594 07b3 00000000 		.4byte	0
 5595              	.LLST46:
 5596 07b7 00000000 		.4byte	.LVL158
 5597 07bb 2A000000 		.4byte	.LVL162
 5598 07bf 0100     		.2byte	0x1
 5599 07c1 50       		.byte	0x50
 5600 07c2 2A000000 		.4byte	.LVL162
 5601 07c6 2D000000 		.4byte	.LVL163-1
 5602 07ca 0100     		.2byte	0x1
 5603 07cc 51       		.byte	0x51
 5604 07cd 2D000000 		.4byte	.LVL163-1
 5605 07d1 64000000 		.4byte	.LVL173
 5606 07d5 0100     		.2byte	0x1
 5607 07d7 55       		.byte	0x55
 5608 07d8 64000000 		.4byte	.LVL173
 5609 07dc 90000000 		.4byte	.LFE55
 5610 07e0 0400     		.2byte	0x4
 5611 07e2 F3       		.byte	0xf3
 5612 07e3 01       		.uleb128 0x1
 5613 07e4 50       		.byte	0x50
 5614 07e5 9F       		.byte	0x9f
 5615 07e6 00000000 		.4byte	0
 5616 07ea 00000000 		.4byte	0
 5617              	.LLST47:
 5618 07ee 48000000 		.4byte	.LVL167
 5619 07f2 4C000000 		.4byte	.LVL168
 5620 07f6 0100     		.2byte	0x1
 5621 07f8 51       		.byte	0x51
 5622 07f9 4C000000 		.4byte	.LVL168
 5623 07fd 5A000000 		.4byte	.LVL170
 5624 0801 0100     		.2byte	0x1
 5625 0803 53       		.byte	0x53
 5626 0804 5A000000 		.4byte	.LVL170
 5627 0808 5E000000 		.4byte	.LVL171
 5628 080c 0500     		.2byte	0x5
 5629 080e 0C       		.byte	0xc
 5630 080f 04002840 		.4byte	0x40280004
ARM GAS  C:\Users\puria\AppData\Local\Temp\ccYRkNAS.s 			page 143


 5631 0813 00000000 		.4byte	0
 5632 0817 00000000 		.4byte	0
 5633              	.LLST48:
 5634 081b 2E000000 		.4byte	.LVL163
 5635 081f 38000000 		.4byte	.LVL164
 5636 0823 0100     		.2byte	0x1
 5637 0825 50       		.byte	0x50
 5638 0826 00000000 		.4byte	0
 5639 082a 00000000 		.4byte	0
 5640              	.LLST49:
 5641 082e 1A000000 		.4byte	.LVL159
 5642 0832 1C000000 		.4byte	.LVL160
 5643 0836 0100     		.2byte	0x1
 5644 0838 53       		.byte	0x53
 5645 0839 1C000000 		.4byte	.LVL160
 5646 083d 1E000000 		.4byte	.LVL161
 5647 0841 1100     		.2byte	0x11
 5648 0843 70       		.byte	0x70
 5649 0844 00       		.sleb128 0
 5650 0845 72       		.byte	0x72
 5651 0846 00       		.sleb128 0
 5652 0847 22       		.byte	0x22
 5653 0848 03       		.byte	0x3
 5654 0849 00000000 		.4byte	.LANCHOR2
 5655 084d 22       		.byte	0x22
 5656 084e 94       		.byte	0x94
 5657 084f 01       		.byte	0x1
 5658 0850 08       		.byte	0x8
 5659 0851 FF       		.byte	0xff
 5660 0852 1A       		.byte	0x1a
 5661 0853 9F       		.byte	0x9f
 5662 0854 1E000000 		.4byte	.LVL161
 5663 0858 2A000000 		.4byte	.LVL162
 5664 085c 0E00     		.2byte	0xe
 5665 085e 70       		.byte	0x70
 5666 085f 00       		.sleb128 0
 5667 0860 03       		.byte	0x3
 5668 0861 64000000 		.4byte	.LANCHOR2+100
 5669 0865 22       		.byte	0x22
 5670 0866 94       		.byte	0x94
 5671 0867 01       		.byte	0x1
 5672 0868 08       		.byte	0x8
 5673 0869 FF       		.byte	0xff
 5674 086a 1A       		.byte	0x1a
 5675 086b 9F       		.byte	0x9f
 5676 086c 2A000000 		.4byte	.LVL162
 5677 0870 2D000000 		.4byte	.LVL163-1
 5678 0874 0E00     		.2byte	0xe
 5679 0876 71       		.byte	0x71
 5680 0877 00       		.sleb128 0
 5681 0878 03       		.byte	0x3
 5682 0879 64000000 		.4byte	.LANCHOR2+100
 5683 087d 22       		.byte	0x22
 5684 087e 94       		.byte	0x94
 5685 087f 01       		.byte	0x1
 5686 0880 08       		.byte	0x8
 5687 0881 FF       		.byte	0xff
ARM GAS  C:\Users\puria\AppData\Local\Temp\ccYRkNAS.s 			page 144


 5688 0882 1A       		.byte	0x1a
 5689 0883 9F       		.byte	0x9f
 5690 0884 2D000000 		.4byte	.LVL163-1
 5691 0888 64000000 		.4byte	.LVL173
 5692 088c 0E00     		.2byte	0xe
 5693 088e 75       		.byte	0x75
 5694 088f 00       		.sleb128 0
 5695 0890 03       		.byte	0x3
 5696 0891 64000000 		.4byte	.LANCHOR2+100
 5697 0895 22       		.byte	0x22
 5698 0896 94       		.byte	0x94
 5699 0897 01       		.byte	0x1
 5700 0898 08       		.byte	0x8
 5701 0899 FF       		.byte	0xff
 5702 089a 1A       		.byte	0x1a
 5703 089b 9F       		.byte	0x9f
 5704 089c 64000000 		.4byte	.LVL173
 5705 08a0 90000000 		.4byte	.LFE55
 5706 08a4 0F00     		.2byte	0xf
 5707 08a6 F3       		.byte	0xf3
 5708 08a7 01       		.uleb128 0x1
 5709 08a8 50       		.byte	0x50
 5710 08a9 03       		.byte	0x3
 5711 08aa 64000000 		.4byte	.LANCHOR2+100
 5712 08ae 22       		.byte	0x22
 5713 08af 94       		.byte	0x94
 5714 08b0 01       		.byte	0x1
 5715 08b1 08       		.byte	0x8
 5716 08b2 FF       		.byte	0xff
 5717 08b3 1A       		.byte	0x1a
 5718 08b4 9F       		.byte	0x9f
 5719 08b5 00000000 		.4byte	0
 5720 08b9 00000000 		.4byte	0
 5721              	.LLST50:
 5722 08bd 00000000 		.4byte	.LVL174
 5723 08c1 08000000 		.4byte	.LVL176
 5724 08c5 0100     		.2byte	0x1
 5725 08c7 51       		.byte	0x51
 5726 08c8 08000000 		.4byte	.LVL176
 5727 08cc 26000000 		.4byte	.LFE60
 5728 08d0 0400     		.2byte	0x4
 5729 08d2 F3       		.byte	0xf3
 5730 08d3 01       		.uleb128 0x1
 5731 08d4 51       		.byte	0x51
 5732 08d5 9F       		.byte	0x9f
 5733 08d6 00000000 		.4byte	0
 5734 08da 00000000 		.4byte	0
 5735              	.LLST51:
 5736 08de 00000000 		.4byte	.LVL174
 5737 08e2 16000000 		.4byte	.LVL179
 5738 08e6 0100     		.2byte	0x1
 5739 08e8 52       		.byte	0x52
 5740 08e9 16000000 		.4byte	.LVL179
 5741 08ed 1C000000 		.4byte	.LVL181
 5742 08f1 0400     		.2byte	0x4
 5743 08f3 F3       		.byte	0xf3
 5744 08f4 01       		.uleb128 0x1
ARM GAS  C:\Users\puria\AppData\Local\Temp\ccYRkNAS.s 			page 145


 5745 08f5 52       		.byte	0x52
 5746 08f6 9F       		.byte	0x9f
 5747 08f7 1C000000 		.4byte	.LVL181
 5748 08fb 20000000 		.4byte	.LVL183
 5749 08ff 0100     		.2byte	0x1
 5750 0901 52       		.byte	0x52
 5751 0902 20000000 		.4byte	.LVL183
 5752 0906 26000000 		.4byte	.LFE60
 5753 090a 0400     		.2byte	0x4
 5754 090c F3       		.byte	0xf3
 5755 090d 01       		.uleb128 0x1
 5756 090e 52       		.byte	0x52
 5757 090f 9F       		.byte	0x9f
 5758 0910 00000000 		.4byte	0
 5759 0914 00000000 		.4byte	0
 5760              	.LLST52:
 5761 0918 04000000 		.4byte	.LVL175
 5762 091c 14000000 		.4byte	.LVL178
 5763 0920 0100     		.2byte	0x1
 5764 0922 54       		.byte	0x54
 5765 0923 14000000 		.4byte	.LVL178
 5766 0927 1C000000 		.4byte	.LVL181
 5767 092b 0600     		.2byte	0x6
 5768 092d F3       		.byte	0xf3
 5769 092e 01       		.uleb128 0x1
 5770 092f 51       		.byte	0x51
 5771 0930 33       		.byte	0x33
 5772 0931 25       		.byte	0x25
 5773 0932 9F       		.byte	0x9f
 5774 0933 1C000000 		.4byte	.LVL181
 5775 0937 1E000000 		.4byte	.LVL182
 5776 093b 0100     		.2byte	0x1
 5777 093d 54       		.byte	0x54
 5778 093e 1E000000 		.4byte	.LVL182
 5779 0942 26000000 		.4byte	.LFE60
 5780 0946 0600     		.2byte	0x6
 5781 0948 F3       		.byte	0xf3
 5782 0949 01       		.uleb128 0x1
 5783 094a 51       		.byte	0x51
 5784 094b 33       		.byte	0x33
 5785 094c 25       		.byte	0x25
 5786 094d 9F       		.byte	0x9f
 5787 094e 00000000 		.4byte	0
 5788 0952 00000000 		.4byte	0
 5789              	.LLST53:
 5790 0956 0E000000 		.4byte	.LVL177
 5791 095a 18000000 		.4byte	.LVL180
 5792 095e 0100     		.2byte	0x1
 5793 0960 53       		.byte	0x53
 5794 0961 18000000 		.4byte	.LVL180
 5795 0965 1C000000 		.4byte	.LVL181
 5796 0969 0500     		.2byte	0x5
 5797 096b 31       		.byte	0x31
 5798 096c 71       		.byte	0x71
 5799 096d 00       		.sleb128 0
 5800 096e 24       		.byte	0x24
 5801 096f 9F       		.byte	0x9f
ARM GAS  C:\Users\puria\AppData\Local\Temp\ccYRkNAS.s 			page 146


 5802 0970 1C000000 		.4byte	.LVL181
 5803 0974 24000000 		.4byte	.LVL184
 5804 0978 0100     		.2byte	0x1
 5805 097a 53       		.byte	0x53
 5806 097b 24000000 		.4byte	.LVL184
 5807 097f 26000000 		.4byte	.LFE60
 5808 0983 0500     		.2byte	0x5
 5809 0985 31       		.byte	0x31
 5810 0986 71       		.byte	0x71
 5811 0987 00       		.sleb128 0
 5812 0988 24       		.byte	0x24
 5813 0989 9F       		.byte	0x9f
 5814 098a 00000000 		.4byte	0
 5815 098e 00000000 		.4byte	0
 5816              	.LLST54:
 5817 0992 00000000 		.4byte	.LVL185
 5818 0996 30000000 		.4byte	.LVL192
 5819 099a 0100     		.2byte	0x1
 5820 099c 50       		.byte	0x50
 5821 099d 30000000 		.4byte	.LVL192
 5822 09a1 8C000000 		.4byte	.LFE41
 5823 09a5 0400     		.2byte	0x4
 5824 09a7 F3       		.byte	0xf3
 5825 09a8 01       		.uleb128 0x1
 5826 09a9 50       		.byte	0x50
 5827 09aa 9F       		.byte	0x9f
 5828 09ab 00000000 		.4byte	0
 5829 09af 00000000 		.4byte	0
 5830              	.LLST55:
 5831 09b3 0E000000 		.4byte	.LVL186
 5832 09b7 16000000 		.4byte	.LVL188
 5833 09bb 0100     		.2byte	0x1
 5834 09bd 55       		.byte	0x55
 5835 09be 00000000 		.4byte	0
 5836 09c2 00000000 		.4byte	0
 5837              	.LLST56:
 5838 09c6 18000000 		.4byte	.LVL189
 5839 09ca 76000000 		.4byte	.LVL198
 5840 09ce 0100     		.2byte	0x1
 5841 09d0 55       		.byte	0x55
 5842 09d1 00000000 		.4byte	0
 5843 09d5 00000000 		.4byte	0
 5844              	.LLST57:
 5845 09d9 18000000 		.4byte	.LVL189
 5846 09dd 1C000000 		.4byte	.LVL190
 5847 09e1 0200     		.2byte	0x2
 5848 09e3 30       		.byte	0x30
 5849 09e4 9F       		.byte	0x9f
 5850 09e5 1C000000 		.4byte	.LVL190
 5851 09e9 30000000 		.4byte	.LVL192
 5852 09ed 0100     		.2byte	0x1
 5853 09ef 53       		.byte	0x53
 5854 09f0 30000000 		.4byte	.LVL192
 5855 09f4 76000000 		.4byte	.LVL197
 5856 09f8 0100     		.2byte	0x1
 5857 09fa 54       		.byte	0x54
 5858 09fb 00000000 		.4byte	0
ARM GAS  C:\Users\puria\AppData\Local\Temp\ccYRkNAS.s 			page 147


 5859 09ff 00000000 		.4byte	0
 5860              	.LLST58:
 5861 0a03 00000000 		.4byte	.LVL199
 5862 0a07 04000000 		.4byte	.LVL200
 5863 0a0b 0100     		.2byte	0x1
 5864 0a0d 50       		.byte	0x50
 5865 0a0e 04000000 		.4byte	.LVL200
 5866 0a12 0C000000 		.4byte	.LFE61
 5867 0a16 0400     		.2byte	0x4
 5868 0a18 F3       		.byte	0xf3
 5869 0a19 01       		.uleb128 0x1
 5870 0a1a 50       		.byte	0x50
 5871 0a1b 9F       		.byte	0x9f
 5872 0a1c 00000000 		.4byte	0
 5873 0a20 00000000 		.4byte	0
 5874              	.LLST59:
 5875 0a24 00000000 		.4byte	.LVL202
 5876 0a28 04000000 		.4byte	.LVL203
 5877 0a2c 0100     		.2byte	0x1
 5878 0a2e 50       		.byte	0x50
 5879 0a2f 04000000 		.4byte	.LVL203
 5880 0a33 0C000000 		.4byte	.LFE63
 5881 0a37 0400     		.2byte	0x4
 5882 0a39 F3       		.byte	0xf3
 5883 0a3a 01       		.uleb128 0x1
 5884 0a3b 50       		.byte	0x50
 5885 0a3c 9F       		.byte	0x9f
 5886 0a3d 00000000 		.4byte	0
 5887 0a41 00000000 		.4byte	0
 5888              	.LLST60:
 5889 0a45 00000000 		.4byte	.LVL205
 5890 0a49 04000000 		.4byte	.LVL206
 5891 0a4d 0100     		.2byte	0x1
 5892 0a4f 50       		.byte	0x50
 5893 0a50 04000000 		.4byte	.LVL206
 5894 0a54 0C000000 		.4byte	.LFE65
 5895 0a58 0400     		.2byte	0x4
 5896 0a5a F3       		.byte	0xf3
 5897 0a5b 01       		.uleb128 0x1
 5898 0a5c 50       		.byte	0x50
 5899 0a5d 9F       		.byte	0x9f
 5900 0a5e 00000000 		.4byte	0
 5901 0a62 00000000 		.4byte	0
 5902              	.LLST61:
 5903 0a66 00000000 		.4byte	.LVL208
 5904 0a6a 04000000 		.4byte	.LVL209
 5905 0a6e 0100     		.2byte	0x1
 5906 0a70 50       		.byte	0x50
 5907 0a71 04000000 		.4byte	.LVL209
 5908 0a75 0C000000 		.4byte	.LFE67
 5909 0a79 0400     		.2byte	0x4
 5910 0a7b F3       		.byte	0xf3
 5911 0a7c 01       		.uleb128 0x1
 5912 0a7d 50       		.byte	0x50
 5913 0a7e 9F       		.byte	0x9f
 5914 0a7f 00000000 		.4byte	0
 5915 0a83 00000000 		.4byte	0
ARM GAS  C:\Users\puria\AppData\Local\Temp\ccYRkNAS.s 			page 148


 5916              	.LLST62:
 5917 0a87 00000000 		.4byte	.LVL212
 5918 0a8b 0A000000 		.4byte	.LVL214
 5919 0a8f 0100     		.2byte	0x1
 5920 0a91 50       		.byte	0x50
 5921 0a92 0A000000 		.4byte	.LVL214
 5922 0a96 28000000 		.4byte	.LVL222
 5923 0a9a 0100     		.2byte	0x1
 5924 0a9c 56       		.byte	0x56
 5925 0a9d 28000000 		.4byte	.LVL222
 5926 0aa1 2A000000 		.4byte	.LFE71
 5927 0aa5 0400     		.2byte	0x4
 5928 0aa7 F3       		.byte	0xf3
 5929 0aa8 01       		.uleb128 0x1
 5930 0aa9 50       		.byte	0x50
 5931 0aaa 9F       		.byte	0x9f
 5932 0aab 00000000 		.4byte	0
 5933 0aaf 00000000 		.4byte	0
 5934              	.LLST63:
 5935 0ab3 04000000 		.4byte	.LVL213
 5936 0ab7 0A000000 		.4byte	.LVL214
 5937 0abb 0200     		.2byte	0x2
 5938 0abd 30       		.byte	0x30
 5939 0abe 9F       		.byte	0x9f
 5940 0abf 0A000000 		.4byte	.LVL214
 5941 0ac3 28000000 		.4byte	.LVL221
 5942 0ac7 0100     		.2byte	0x1
 5943 0ac9 55       		.byte	0x55
 5944 0aca 00000000 		.4byte	0
 5945 0ace 00000000 		.4byte	0
 5946              	.LLST64:
 5947 0ad2 04000000 		.4byte	.LVL213
 5948 0ad6 0A000000 		.4byte	.LVL214
 5949 0ada 0200     		.2byte	0x2
 5950 0adc 30       		.byte	0x30
 5951 0add 9F       		.byte	0x9f
 5952 0ade 0A000000 		.4byte	.LVL214
 5953 0ae2 28000000 		.4byte	.LVL220
 5954 0ae6 0100     		.2byte	0x1
 5955 0ae8 54       		.byte	0x54
 5956 0ae9 00000000 		.4byte	0
 5957 0aed 00000000 		.4byte	0
 5958              	.LLST65:
 5959 0af1 02000000 		.4byte	.LVL224
 5960 0af5 06000000 		.4byte	.LVL225
 5961 0af9 0200     		.2byte	0x2
 5962 0afb 30       		.byte	0x30
 5963 0afc 9F       		.byte	0x9f
 5964 0afd 06000000 		.4byte	.LVL225
 5965 0b01 22000000 		.4byte	.LVL231
 5966 0b05 0100     		.2byte	0x1
 5967 0b07 54       		.byte	0x54
 5968 0b08 00000000 		.4byte	0
 5969 0b0c 00000000 		.4byte	0
 5970              	.LLST66:
 5971 0b10 02000000 		.4byte	.LVL236
 5972 0b14 06000000 		.4byte	.LVL237
ARM GAS  C:\Users\puria\AppData\Local\Temp\ccYRkNAS.s 			page 149


 5973 0b18 0200     		.2byte	0x2
 5974 0b1a 30       		.byte	0x30
 5975 0b1b 9F       		.byte	0x9f
 5976 0b1c 06000000 		.4byte	.LVL237
 5977 0b20 34000000 		.4byte	.LVL247
 5978 0b24 0100     		.2byte	0x1
 5979 0b26 57       		.byte	0x57
 5980 0b27 00000000 		.4byte	0
 5981 0b2b 00000000 		.4byte	0
 5982              	.LLST67:
 5983 0b2f 0E000000 		.4byte	.LVL239
 5984 0b33 16000000 		.4byte	.LVL241
 5985 0b37 0100     		.2byte	0x1
 5986 0b39 53       		.byte	0x53
 5987 0b3a 16000000 		.4byte	.LVL241
 5988 0b3e 26000000 		.4byte	.LVL244
 5989 0b42 0100     		.2byte	0x1
 5990 0b44 52       		.byte	0x52
 5991 0b45 26000000 		.4byte	.LVL244
 5992 0b49 30000000 		.4byte	.LVL246
 5993 0b4d 0100     		.2byte	0x1
 5994 0b4f 53       		.byte	0x53
 5995 0b50 00000000 		.4byte	0
 5996 0b54 00000000 		.4byte	0
 5997              	.LLST68:
 5998 0b58 10000000 		.4byte	.LVL240
 5999 0b5c 30000000 		.4byte	.LVL246
 6000 0b60 0100     		.2byte	0x1
 6001 0b62 56       		.byte	0x56
 6002 0b63 00000000 		.4byte	0
 6003 0b67 00000000 		.4byte	0
 6004              	.LLST69:
 6005 0b6b 0A000000 		.4byte	.LVL238
 6006 0b6f 10000000 		.4byte	.LVL240
 6007 0b73 0100     		.2byte	0x1
 6008 0b75 56       		.byte	0x56
 6009 0b76 00000000 		.4byte	0
 6010 0b7a 00000000 		.4byte	0
 6011              	.LLST70:
 6012 0b7e 06000000 		.4byte	.LVL237
 6013 0b82 16000000 		.4byte	.LVL241
 6014 0b86 0200     		.2byte	0x2
 6015 0b88 30       		.byte	0x30
 6016 0b89 9F       		.byte	0x9f
 6017 0b8a 16000000 		.4byte	.LVL241
 6018 0b8e 30000000 		.4byte	.LVL246
 6019 0b92 0100     		.2byte	0x1
 6020 0b94 54       		.byte	0x54
 6021 0b95 00000000 		.4byte	0
 6022 0b99 00000000 		.4byte	0
 6023              		.section	.debug_aranges,"",%progbits
 6024 0000 54010000 		.4byte	0x154
 6025 0004 0200     		.2byte	0x2
 6026 0006 00000000 		.4byte	.Ldebug_info0
 6027 000a 04       		.byte	0x4
 6028 000b 00       		.byte	0
 6029 000c 0000     		.2byte	0
ARM GAS  C:\Users\puria\AppData\Local\Temp\ccYRkNAS.s 			page 150


 6030 000e 0000     		.2byte	0
 6031 0010 00000000 		.4byte	.LFB35
 6032 0014 7C000000 		.4byte	.LFE35-.LFB35
 6033 0018 00000000 		.4byte	.LFB36
 6034 001c 40000000 		.4byte	.LFE36-.LFB36
 6035 0020 00000000 		.4byte	.LFB38
 6036 0024 2C000000 		.4byte	.LFE38-.LFB38
 6037 0028 00000000 		.4byte	.LFB43
 6038 002c 10000000 		.4byte	.LFE43-.LFB43
 6039 0030 00000000 		.4byte	.LFB44
 6040 0034 10000000 		.4byte	.LFE44-.LFB44
 6041 0038 00000000 		.4byte	.LFB45
 6042 003c 10000000 		.4byte	.LFE45-.LFB45
 6043 0040 00000000 		.4byte	.LFB46
 6044 0044 0C000000 		.4byte	.LFE46-.LFB46
 6045 0048 00000000 		.4byte	.LFB47
 6046 004c 0C000000 		.4byte	.LFE47-.LFB47
 6047 0050 00000000 		.4byte	.LFB49
 6048 0054 48000000 		.4byte	.LFE49-.LFB49
 6049 0058 00000000 		.4byte	.LFB50
 6050 005c 70000000 		.4byte	.LFE50-.LFB50
 6051 0060 00000000 		.4byte	.LFB48
 6052 0064 14000000 		.4byte	.LFE48-.LFB48
 6053 0068 00000000 		.4byte	.LFB53
 6054 006c 24000000 		.4byte	.LFE53-.LFB53
 6055 0070 00000000 		.4byte	.LFB51
 6056 0074 30000000 		.4byte	.LFE51-.LFB51
 6057 0078 00000000 		.4byte	.LFB52
 6058 007c 1C000000 		.4byte	.LFE52-.LFB52
 6059 0080 00000000 		.4byte	.LFB56
 6060 0084 34000000 		.4byte	.LFE56-.LFB56
 6061 0088 00000000 		.4byte	.LFB57
 6062 008c 18000000 		.4byte	.LFE57-.LFB57
 6063 0090 00000000 		.4byte	.LFB58
 6064 0094 1C000000 		.4byte	.LFE58-.LFB58
 6065 0098 00000000 		.4byte	.LFB59
 6066 009c 18000000 		.4byte	.LFE59-.LFB59
 6067 00a0 00000000 		.4byte	.LFB39
 6068 00a4 24000000 		.4byte	.LFE39-.LFB39
 6069 00a8 00000000 		.4byte	.LFB54
 6070 00ac 0C010000 		.4byte	.LFE54-.LFB54
 6071 00b0 00000000 		.4byte	.LFB40
 6072 00b4 1C000000 		.4byte	.LFE40-.LFB40
 6073 00b8 00000000 		.4byte	.LFB42
 6074 00bc 38000000 		.4byte	.LFE42-.LFB42
 6075 00c0 00000000 		.4byte	.LFB55
 6076 00c4 90000000 		.4byte	.LFE55-.LFB55
 6077 00c8 00000000 		.4byte	.LFB60
 6078 00cc 26000000 		.4byte	.LFE60-.LFB60
 6079 00d0 00000000 		.4byte	.LFB41
 6080 00d4 8C000000 		.4byte	.LFE41-.LFB41
 6081 00d8 00000000 		.4byte	.LFB61
 6082 00dc 0C000000 		.4byte	.LFE61-.LFB61
 6083 00e0 00000000 		.4byte	.LFB62
 6084 00e4 0C000000 		.4byte	.LFE62-.LFB62
 6085 00e8 00000000 		.4byte	.LFB63
 6086 00ec 0C000000 		.4byte	.LFE63-.LFB63
ARM GAS  C:\Users\puria\AppData\Local\Temp\ccYRkNAS.s 			page 151


 6087 00f0 00000000 		.4byte	.LFB64
 6088 00f4 0C000000 		.4byte	.LFE64-.LFB64
 6089 00f8 00000000 		.4byte	.LFB65
 6090 00fc 0C000000 		.4byte	.LFE65-.LFB65
 6091 0100 00000000 		.4byte	.LFB66
 6092 0104 0C000000 		.4byte	.LFE66-.LFB66
 6093 0108 00000000 		.4byte	.LFB67
 6094 010c 0C000000 		.4byte	.LFE67-.LFB67
 6095 0110 00000000 		.4byte	.LFB68
 6096 0114 0C000000 		.4byte	.LFE68-.LFB68
 6097 0118 00000000 		.4byte	.LFB69
 6098 011c 14000000 		.4byte	.LFE69-.LFB69
 6099 0120 00000000 		.4byte	.LFB70
 6100 0124 28000000 		.4byte	.LFE70-.LFB70
 6101 0128 00000000 		.4byte	.LFB71
 6102 012c 2A000000 		.4byte	.LFE71-.LFB71
 6103 0130 00000000 		.4byte	.LFB72
 6104 0134 0C000000 		.4byte	.LFE72-.LFB72
 6105 0138 00000000 		.4byte	.LFB34
 6106 013c 24000000 		.4byte	.LFE34-.LFB34
 6107 0140 00000000 		.4byte	.LFB37
 6108 0144 38000000 		.4byte	.LFE37-.LFB37
 6109 0148 00000000 		.4byte	.LFB73
 6110 014c 40000000 		.4byte	.LFE73-.LFB73
 6111 0150 00000000 		.4byte	0
 6112 0154 00000000 		.4byte	0
 6113              		.section	.debug_ranges,"",%progbits
 6114              	.Ldebug_ranges0:
 6115 0000 00000000 		.4byte	.LFB35
 6116 0004 7C000000 		.4byte	.LFE35
 6117 0008 00000000 		.4byte	.LFB36
 6118 000c 40000000 		.4byte	.LFE36
 6119 0010 00000000 		.4byte	.LFB38
 6120 0014 2C000000 		.4byte	.LFE38
 6121 0018 00000000 		.4byte	.LFB43
 6122 001c 10000000 		.4byte	.LFE43
 6123 0020 00000000 		.4byte	.LFB44
 6124 0024 10000000 		.4byte	.LFE44
 6125 0028 00000000 		.4byte	.LFB45
 6126 002c 10000000 		.4byte	.LFE45
 6127 0030 00000000 		.4byte	.LFB46
 6128 0034 0C000000 		.4byte	.LFE46
 6129 0038 00000000 		.4byte	.LFB47
 6130 003c 0C000000 		.4byte	.LFE47
 6131 0040 00000000 		.4byte	.LFB49
 6132 0044 48000000 		.4byte	.LFE49
 6133 0048 00000000 		.4byte	.LFB50
 6134 004c 70000000 		.4byte	.LFE50
 6135 0050 00000000 		.4byte	.LFB48
 6136 0054 14000000 		.4byte	.LFE48
 6137 0058 00000000 		.4byte	.LFB53
 6138 005c 24000000 		.4byte	.LFE53
 6139 0060 00000000 		.4byte	.LFB51
 6140 0064 30000000 		.4byte	.LFE51
 6141 0068 00000000 		.4byte	.LFB52
 6142 006c 1C000000 		.4byte	.LFE52
 6143 0070 00000000 		.4byte	.LFB56
ARM GAS  C:\Users\puria\AppData\Local\Temp\ccYRkNAS.s 			page 152


 6144 0074 34000000 		.4byte	.LFE56
 6145 0078 00000000 		.4byte	.LFB57
 6146 007c 18000000 		.4byte	.LFE57
 6147 0080 00000000 		.4byte	.LFB58
 6148 0084 1C000000 		.4byte	.LFE58
 6149 0088 00000000 		.4byte	.LFB59
 6150 008c 18000000 		.4byte	.LFE59
 6151 0090 00000000 		.4byte	.LFB39
 6152 0094 24000000 		.4byte	.LFE39
 6153 0098 00000000 		.4byte	.LFB54
 6154 009c 0C010000 		.4byte	.LFE54
 6155 00a0 00000000 		.4byte	.LFB40
 6156 00a4 1C000000 		.4byte	.LFE40
 6157 00a8 00000000 		.4byte	.LFB42
 6158 00ac 38000000 		.4byte	.LFE42
 6159 00b0 00000000 		.4byte	.LFB55
 6160 00b4 90000000 		.4byte	.LFE55
 6161 00b8 00000000 		.4byte	.LFB60
 6162 00bc 26000000 		.4byte	.LFE60
 6163 00c0 00000000 		.4byte	.LFB41
 6164 00c4 8C000000 		.4byte	.LFE41
 6165 00c8 00000000 		.4byte	.LFB61
 6166 00cc 0C000000 		.4byte	.LFE61
 6167 00d0 00000000 		.4byte	.LFB62
 6168 00d4 0C000000 		.4byte	.LFE62
 6169 00d8 00000000 		.4byte	.LFB63
 6170 00dc 0C000000 		.4byte	.LFE63
 6171 00e0 00000000 		.4byte	.LFB64
 6172 00e4 0C000000 		.4byte	.LFE64
 6173 00e8 00000000 		.4byte	.LFB65
 6174 00ec 0C000000 		.4byte	.LFE65
 6175 00f0 00000000 		.4byte	.LFB66
 6176 00f4 0C000000 		.4byte	.LFE66
 6177 00f8 00000000 		.4byte	.LFB67
 6178 00fc 0C000000 		.4byte	.LFE67
 6179 0100 00000000 		.4byte	.LFB68
 6180 0104 0C000000 		.4byte	.LFE68
 6181 0108 00000000 		.4byte	.LFB69
 6182 010c 14000000 		.4byte	.LFE69
 6183 0110 00000000 		.4byte	.LFB70
 6184 0114 28000000 		.4byte	.LFE70
 6185 0118 00000000 		.4byte	.LFB71
 6186 011c 2A000000 		.4byte	.LFE71
 6187 0120 00000000 		.4byte	.LFB72
 6188 0124 0C000000 		.4byte	.LFE72
 6189 0128 00000000 		.4byte	.LFB34
 6190 012c 24000000 		.4byte	.LFE34
 6191 0130 00000000 		.4byte	.LFB37
 6192 0134 38000000 		.4byte	.LFE37
 6193 0138 00000000 		.4byte	.LFB73
 6194 013c 40000000 		.4byte	.LFE73
 6195 0140 00000000 		.4byte	0
 6196 0144 00000000 		.4byte	0
 6197              		.section	.debug_line,"",%progbits
 6198              	.Ldebug_line0:
 6199 0000 F7040000 		.section	.debug_str,"MS",%progbits,1
 6199      0200A000 
ARM GAS  C:\Users\puria\AppData\Local\Temp\ccYRkNAS.s 			page 153


 6199      00000201 
 6199      FB0E0D00 
 6199      01010101 
 6200              	.LASF127:
 6201 0000 4379496E 		.ascii	"CyIntSetPriority\000"
 6201      74536574 
 6201      5072696F 
 6201      72697479 
 6201      00
 6202              	.LASF92:
 6203 0011 63617073 		.ascii	"capsense_Init\000"
 6203      656E7365 
 6203      5F496E69 
 6203      7400
 6204              	.LASF23:
 6205 001f 63617073 		.ascii	"capsense_WriteSensorRaw\000"
 6205      656E7365 
 6205      5F577269 
 6205      74655365 
 6205      6E736F72 
 6206              	.LASF31:
 6207 0037 63617073 		.ascii	"capsense_EnableSensor\000"
 6207      656E7365 
 6207      5F456E61 
 6207      626C6553 
 6207      656E736F 
 6208              	.LASF88:
 6209 004d 63617073 		.ascii	"capsense_GetSensorRaw\000"
 6209      656E7365 
 6209      5F476574 
 6209      53656E73 
 6209      6F725261 
 6210              	.LASF8:
 6211 0063 756E7369 		.ascii	"unsigned int\000"
 6211      676E6564 
 6211      20696E74 
 6211      00
 6212              	.LASF83:
 6213 0070 63617073 		.ascii	"capsense_SetCompensationIDAC\000"
 6213      656E7365 
 6213      5F536574 
 6213      436F6D70 
 6213      656E7361 
 6214              	.LASF93:
 6215 008d 63617073 		.ascii	"capsense_Start\000"
 6215      656E7365 
 6215      5F537461 
 6215      727400
 6216              	.LASF69:
 6217 009c 63617073 		.ascii	"capsense_SetBitValue\000"
 6217      656E7365 
 6217      5F536574 
 6217      42697456 
 6217      616C7565 
 6218              	.LASF34:
 6219 00b1 696E7465 		.ascii	"interruptState\000"
 6219      72727570 
ARM GAS  C:\Users\puria\AppData\Local\Temp\ccYRkNAS.s 			page 154


 6219      74537461 
 6219      746500
 6220              	.LASF15:
 6221 00c0 72656738 		.ascii	"reg8\000"
 6221      00
 6222              	.LASF115:
 6223 00c5 63617073 		.ascii	"capsense_prtSelTbl\000"
 6223      656E7365 
 6223      5F707274 
 6223      53656C54 
 6223      626C00
 6224              	.LASF96:
 6225 00d8 77696467 		.ascii	"widgetsNum\000"
 6225      6574734E 
 6225      756D00
 6226              	.LASF33:
 6227 00e3 70696E48 		.ascii	"pinHSIOMShift\000"
 6227      53494F4D 
 6227      53686966 
 6227      7400
 6228              	.LASF109:
 6229 00f1 63617073 		.ascii	"capsense_modulationIDAC\000"
 6229      656E7365 
 6229      5F6D6F64 
 6229      756C6174 
 6229      696F6E49 
 6230              	.LASF125:
 6231 0109 4379496E 		.ascii	"CyIntDisable\000"
 6231      74446973 
 6231      61626C65 
 6231      00
 6232              	.LASF90:
 6233 0116 61766756 		.ascii	"avgVal\000"
 6233      616C00
 6234              	.LASF142:
 6235 011d 433A5C55 		.ascii	"C:\\Users\\puria\\Documents\\GitHub\\able\\psoc\\ca"
 6235      73657273 
 6235      5C707572 
 6235      69615C44 
 6235      6F63756D 
 6236 0149 7073656E 		.ascii	"psenseled.cydsn\000"
 6236      73656C65 
 6236      642E6379 
 6236      64736E00 
 6237              	.LASF111:
 6238 0159 63617073 		.ascii	"capsense_widgetResolution\000"
 6238      656E7365 
 6238      5F776964 
 6238      67657452 
 6238      65736F6C 
 6239              	.LASF32:
 6240 0173 70696E4D 		.ascii	"pinModeShift\000"
 6240      6F646553 
 6240      68696674 
 6240      00
 6241              	.LASF114:
 6242 0180 63617073 		.ascii	"capsense_widgetNumber\000"
ARM GAS  C:\Users\puria\AppData\Local\Temp\ccYRkNAS.s 			page 155


 6242      656E7365 
 6242      5F776964 
 6242      6765744E 
 6242      756D6265 
 6243              	.LASF86:
 6244 0196 63617073 		.ascii	"capsense_SetIDACRange\000"
 6244      656E7365 
 6244      5F536574 
 6244      49444143 
 6244      52616E67 
 6245              	.LASF61:
 6246 01ac 63617073 		.ascii	"capsense_FindNextSensor\000"
 6246      656E7365 
 6246      5F46696E 
 6246      644E6578 
 6246      7453656E 
 6247              	.LASF38:
 6248 01c4 696E6163 		.ascii	"inactiveConnect\000"
 6248      74697665 
 6248      436F6E6E 
 6248      65637400 
 6249              	.LASF133:
 6250 01d4 63617073 		.ascii	"capsense_SenseClk_StartEx\000"
 6250      656E7365 
 6250      5F53656E 
 6250      7365436C 
 6250      6B5F5374 
 6251              	.LASF56:
 6252 01ee 63617073 		.ascii	"capsense_GetBitValue\000"
 6252      656E7365 
 6252      5F476574 
 6252      42697456 
 6252      616C7565 
 6253              	.LASF12:
 6254 0203 666C6F61 		.ascii	"float\000"
 6254      7400
 6255              	.LASF30:
 6256 0209 63617073 		.ascii	"capsense_GetScanResolution\000"
 6256      656E7365 
 6256      5F476574 
 6256      5363616E 
 6256      5265736F 
 6257              	.LASF7:
 6258 0224 6C6F6E67 		.ascii	"long long unsigned int\000"
 6258      206C6F6E 
 6258      6720756E 
 6258      7369676E 
 6258      65642069 
 6259              	.LASF37:
 6260 023b 63617073 		.ascii	"capsense_DisableSensor\000"
 6260      656E7365 
 6260      5F446973 
 6260      61626C65 
 6260      53656E73 
 6261              	.LASF27:
 6262 0252 77696467 		.ascii	"widget\000"
 6262      657400
ARM GAS  C:\Users\puria\AppData\Local\Temp\ccYRkNAS.s 			page 156


 6263              	.LASF137:
 6264 0259 4379496E 		.ascii	"CyIntClearPending\000"
 6264      74436C65 
 6264      61725065 
 6264      6E64696E 
 6264      6700
 6265              	.LASF26:
 6266 026b 63617073 		.ascii	"capsense_SetScanResolution\000"
 6266      656E7365 
 6266      5F536574 
 6266      5363616E 
 6266      5265736F 
 6267              	.LASF25:
 6268 0286 76616C75 		.ascii	"value\000"
 6268      6500
 6269              	.LASF70:
 6270 028c 63617073 		.ascii	"capsense_ScanWidget\000"
 6270      656E7365 
 6270      5F536361 
 6270      6E576964 
 6270      67657400 
 6271              	.LASF101:
 6272 02a0 63617073 		.ascii	"capsense_lowLevelTuningDone\000"
 6272      656E7365 
 6272      5F6C6F77 
 6272      4C657665 
 6272      6C54756E 
 6273              	.LASF140:
 6274 02bc 474E5520 		.ascii	"GNU C11 5.4.1 20160609 (release) [ARM/embedded-5-br"
 6274      43313120 
 6274      352E342E 
 6274      31203230 
 6274      31363036 
 6275 02ef 616E6368 		.ascii	"anch revision 237715] -mcpu=cortex-m0 -mthumb -g -O"
 6275      20726576 
 6275      6973696F 
 6275      6E203233 
 6275      37373135 
 6276 0322 67202D66 		.ascii	"g -ffunction-sections -ffat-lto-objects\000"
 6276      66756E63 
 6276      74696F6E 
 6276      2D736563 
 6276      74696F6E 
 6277              	.LASF35:
 6278 034a 6E657752 		.ascii	"newRegisterValue\000"
 6278      65676973 
 6278      74657256 
 6278      616C7565 
 6278      00
 6279              	.LASF39:
 6280 035b 73656E73 		.ascii	"sensorState\000"
 6280      6F725374 
 6280      61746500 
 6281              	.LASF59:
 6282 0367 6F666673 		.ascii	"offset\000"
 6282      657400
 6283              	.LASF77:
ARM GAS  C:\Users\puria\AppData\Local\Temp\ccYRkNAS.s 			page 157


 6284 036e 63617073 		.ascii	"capsense_SetModulatorClkDivider\000"
 6284      656E7365 
 6284      5F536574 
 6284      4D6F6475 
 6284      6C61746F 
 6285              	.LASF48:
 6286 038e 7072744E 		.ascii	"prtNumberTmp\000"
 6286      756D6265 
 6286      72546D70 
 6286      00
 6287              	.LASF71:
 6288 039b 73656E73 		.ascii	"sensorsPerWidget\000"
 6288      6F727350 
 6288      65725769 
 6288      64676574 
 6288      00
 6289              	.LASF89:
 6290 03ac 63757253 		.ascii	"curSample\000"
 6290      616D706C 
 6290      6500
 6291              	.LASF105:
 6292 03b6 63617073 		.ascii	"capsense_sensorRaw\000"
 6292      656E7365 
 6292      5F73656E 
 6292      736F7252 
 6292      617700
 6293              	.LASF139:
 6294 03c9 63617073 		.ascii	"capsense_AutoTune\000"
 6294      656E7365 
 6294      5F417574 
 6294      6F54756E 
 6294      6500
 6295              	.LASF24:
 6296 03db 73656E73 		.ascii	"sensor\000"
 6296      6F7200
 6297              	.LASF129:
 6298 03e2 63617073 		.ascii	"capsense_SampleClk_Stop\000"
 6298      656E7365 
 6298      5F53616D 
 6298      706C6543 
 6298      6C6B5F53 
 6299              	.LASF14:
 6300 03fa 63686172 		.ascii	"char\000"
 6300      00
 6301              	.LASF136:
 6302 03ff 43794578 		.ascii	"CyExitCriticalSection\000"
 6302      69744372 
 6302      69746963 
 6302      616C5365 
 6302      6374696F 
 6303              	.LASF138:
 6304 0415 43794465 		.ascii	"CyDelayCycles\000"
 6304      6C617943 
 6304      79636C65 
 6304      7300
 6305              	.LASF76:
 6306 0423 63617073 		.ascii	"capsense_GetModulatorClkDivider\000"
ARM GAS  C:\Users\puria\AppData\Local\Temp\ccYRkNAS.s 			page 158


 6306      656E7365 
 6306      5F476574 
 6306      4D6F6475 
 6306      6C61746F 
 6307              	.LASF66:
 6308 0443 63617073 		.ascii	"capsense_ScanSensor\000"
 6308      656E7365 
 6308      5F536361 
 6308      6E53656E 
 6308      736F7200 
 6309              	.LASF57:
 6310 0457 7461626C 		.ascii	"table\000"
 6310      6500
 6311              	.LASF10:
 6312 045d 75696E74 		.ascii	"uint16\000"
 6312      313600
 6313              	.LASF126:
 6314 0464 4379496E 		.ascii	"CyIntSetVector\000"
 6314      74536574 
 6314      56656374 
 6314      6F7200
 6315              	.LASF28:
 6316 0473 7265736F 		.ascii	"resolution\000"
 6316      6C757469 
 6316      6F6E00
 6317              	.LASF49:
 6318 047e 70696E4E 		.ascii	"pinNumberTmp\000"
 6318      756D6265 
 6318      72546D70 
 6318      00
 6319              	.LASF51:
 6320 048b 63617073 		.ascii	"capsense_EnableShieldElectrode\000"
 6320      656E7365 
 6320      5F456E61 
 6320      626C6553 
 6320      6869656C 
 6321              	.LASF6:
 6322 04aa 6C6F6E67 		.ascii	"long long int\000"
 6322      206C6F6E 
 6322      6720696E 
 6322      7400
 6323              	.LASF107:
 6324 04b8 63617073 		.ascii	"capsense_sensorEnableMaskBackup\000"
 6324      656E7365 
 6324      5F73656E 
 6324      736F7245 
 6324      6E61626C 
 6325              	.LASF62:
 6326 04d8 656E6162 		.ascii	"enableFlag\000"
 6326      6C65466C 
 6326      616700
 6327              	.LASF98:
 6328 04e3 63757272 		.ascii	"currentWidget\000"
 6328      656E7457 
 6328      69646765 
 6328      7400
 6329              	.LASF54:
ARM GAS  C:\Users\puria\AppData\Local\Temp\ccYRkNAS.s 			page 159


 6330 04f1 63617073 		.ascii	"capsense_IsBusy\000"
 6330      656E7365 
 6330      5F497342 
 6330      75737900 
 6331              	.LASF102:
 6332 0501 63617073 		.ascii	"capsense_scanSpeedTbl\000"
 6332      656E7365 
 6332      5F736361 
 6332      6E537065 
 6332      65645462 
 6333              	.LASF74:
 6334 0517 63617073 		.ascii	"capsense_SetSenseClkDivider\000"
 6334      656E7365 
 6334      5F536574 
 6334      53656E73 
 6334      65436C6B 
 6335              	.LASF11:
 6336 0533 75696E74 		.ascii	"uint32\000"
 6336      333200
 6337              	.LASF103:
 6338 053a 63617073 		.ascii	"capsense_csdStatusVar\000"
 6338      656E7365 
 6338      5F637364 
 6338      53746174 
 6338      75735661 
 6339              	.LASF22:
 6340 0550 63617073 		.ascii	"capsense_Stop\000"
 6340      656E7365 
 6340      5F53746F 
 6340      7000
 6341              	.LASF68:
 6342 055e 63617073 		.ascii	"capsense_PostScan\000"
 6342      656E7365 
 6342      5F506F73 
 6342      74536361 
 6342      6E00
 6343              	.LASF104:
 6344 0570 63617073 		.ascii	"capsense_sensorIndex\000"
 6344      656E7365 
 6344      5F73656E 
 6344      736F7249 
 6344      6E646578 
 6345              	.LASF44:
 6346 0585 70696E4E 		.ascii	"pinNumber\000"
 6346      756D6265 
 6346      7200
 6347              	.LASF91:
 6348 058f 63617073 		.ascii	"capsense_SetUnscannedSensorState\000"
 6348      656E7365 
 6348      5F536574 
 6348      556E7363 
 6348      616E6E65 
 6349              	.LASF41:
 6350 05b0 736E7349 		.ascii	"snsIndex\000"
 6350      6E646578 
 6350      00
 6351              	.LASF50:
ARM GAS  C:\Users\puria\AppData\Local\Temp\ccYRkNAS.s 			page 160


 6352 05b9 63617073 		.ascii	"capsense_RestoreDriveModeAllPins\000"
 6352      656E7365 
 6352      5F526573 
 6352      746F7265 
 6352      44726976 
 6353              	.LASF18:
 6354 05da 6C6F6E67 		.ascii	"long double\000"
 6354      20646F75 
 6354      626C6500 
 6355              	.LASF72:
 6356 05e6 6C617374 		.ascii	"lastSensor\000"
 6356      53656E73 
 6356      6F7200
 6357              	.LASF16:
 6358 05f1 72656733 		.ascii	"reg32\000"
 6358      3200
 6359              	.LASF110:
 6360 05f7 63617073 		.ascii	"capsense_compensationIDAC\000"
 6360      656E7365 
 6360      5F636F6D 
 6360      70656E73 
 6360      6174696F 
 6361              	.LASF45:
 6362 0611 706F7274 		.ascii	"portNumber\000"
 6362      4E756D62 
 6362      657200
 6363              	.LASF100:
 6364 061c 6D617850 		.ascii	"maxPerWidget\000"
 6364      65725769 
 6364      64676574 
 6364      00
 6365              	.LASF119:
 6366 0629 63617073 		.ascii	"capsense_portTable\000"
 6366      656E7365 
 6366      5F706F72 
 6366      74546162 
 6366      6C6500
 6367              	.LASF123:
 6368 063c 63617073 		.ascii	"capsense_numberOfSensors\000"
 6368      656E7365 
 6368      5F6E756D 
 6368      6265724F 
 6368      6653656E 
 6369              	.LASF75:
 6370 0655 73656E73 		.ascii	"senseClk\000"
 6370      65436C6B 
 6370      00
 6371              	.LASF2:
 6372 065e 73686F72 		.ascii	"short int\000"
 6372      7420696E 
 6372      7400
 6373              	.LASF4:
 6374 0668 6C6F6E67 		.ascii	"long int\000"
 6374      20696E74 
 6374      00
 6375              	.LASF53:
 6376 0671 64656C61 		.ascii	"delay\000"
ARM GAS  C:\Users\puria\AppData\Local\Temp\ccYRkNAS.s 			page 161


 6376      7900
 6377              	.LASF122:
 6378 0677 63617073 		.ascii	"capsense_rawDataIndex\000"
 6378      656E7365 
 6378      5F726177 
 6378      44617461 
 6378      496E6465 
 6379              	.LASF106:
 6380 068d 63617073 		.ascii	"capsense_unscannedSnsDriveMode\000"
 6380      656E7365 
 6380      5F756E73 
 6380      63616E6E 
 6380      6564536E 
 6381              	.LASF141:
 6382 06ac 47656E65 		.ascii	"Generated_Source\\PSoC4\\capsense.c\000"
 6382      72617465 
 6382      645F536F 
 6382      75726365 
 6382      5C50536F 
 6383              	.LASF128:
 6384 06ce 63617073 		.ascii	"capsense_SenseClk_Stop\000"
 6384      656E7365 
 6384      5F53656E 
 6384      7365436C 
 6384      6B5F5374 
 6385              	.LASF40:
 6386 06e5 63617073 		.ascii	"capsense_ClearSensors\000"
 6386      656E7365 
 6386      5F436C65 
 6386      61725365 
 6386      6E736F72 
 6387              	.LASF46:
 6388 06fb 63617073 		.ascii	"capsense_SetDriveModeAllPins\000"
 6388      656E7365 
 6388      5F536574 
 6388      44726976 
 6388      654D6F64 
 6389              	.LASF87:
 6390 0718 69446163 		.ascii	"iDacRange\000"
 6390      52616E67 
 6390      6500
 6391              	.LASF124:
 6392 0722 63617073 		.ascii	"capsense_csdTrim1\000"
 6392      656E7365 
 6392      5F637364 
 6392      5472696D 
 6392      3100
 6393              	.LASF55:
 6394 0734 63617073 		.ascii	"capsense_ReadCurrentScanningSensor\000"
 6394      656E7365 
 6394      5F526561 
 6394      64437572 
 6394      72656E74 
 6395              	.LASF99:
 6396 0757 63757272 		.ascii	"currentSensor\000"
 6396      656E7453 
 6396      656E736F 
ARM GAS  C:\Users\puria\AppData\Local\Temp\ccYRkNAS.s 			page 162


 6396      7200
 6397              	.LASF117:
 6398 0765 63617073 		.ascii	"capsense_prtDRTbl\000"
 6398      656E7365 
 6398      5F707274 
 6398      44525462 
 6398      6C00
 6399              	.LASF84:
 6400 0777 636F6D70 		.ascii	"compIdacValue\000"
 6400      49646163 
 6400      56616C75 
 6400      6500
 6401              	.LASF81:
 6402 0785 6D6F6449 		.ascii	"modIdacValue\000"
 6402      64616356 
 6402      616C7565 
 6402      00
 6403              	.LASF120:
 6404 0792 63617073 		.ascii	"capsense_maskTable\000"
 6404      656E7365 
 6404      5F6D6173 
 6404      6B546162 
 6404      6C6500
 6405              	.LASF130:
 6406 07a5 63617073 		.ascii	"capsense_SampleClk_SetFractionalDividerRegister\000"
 6406      656E7365 
 6406      5F53616D 
 6406      706C6543 
 6406      6C6B5F53 
 6407              	.LASF17:
 6408 07d5 73697A65 		.ascii	"sizetype\000"
 6408      74797065 
 6408      00
 6409              	.LASF5:
 6410 07de 6C6F6E67 		.ascii	"long unsigned int\000"
 6410      20756E73 
 6410      69676E65 
 6410      6420696E 
 6410      7400
 6411              	.LASF80:
 6412 07f0 63617073 		.ascii	"capsense_SetModulationIDAC\000"
 6412      656E7365 
 6412      5F536574 
 6412      4D6F6475 
 6412      6C617469 
 6413              	.LASF20:
 6414 080b 63617073 		.ascii	"capsense_Enable\000"
 6414      656E7365 
 6414      5F456E61 
 6414      626C6500 
 6415              	.LASF132:
 6416 081b 63617073 		.ascii	"capsense_SampleClk_StartEx\000"
 6416      656E7365 
 6416      5F53616D 
 6416      706C6543 
 6416      6C6B5F53 
 6417              	.LASF36:
ARM GAS  C:\Users\puria\AppData\Local\Temp\ccYRkNAS.s 			page 163


 6418 0836 706F7274 		.ascii	"port\000"
 6418      00
 6419              	.LASF112:
 6420 083b 63617073 		.ascii	"capsense_senseClkDividerVal\000"
 6420      656E7365 
 6420      5F73656E 
 6420      7365436C 
 6420      6B446976 
 6421              	.LASF19:
 6422 0857 63617073 		.ascii	"capsense_CsdHwBlockInit\000"
 6422      656E7365 
 6422      5F437364 
 6422      4877426C 
 6422      6F636B49 
 6423              	.LASF60:
 6424 086f 656E4D61 		.ascii	"enMask\000"
 6424      736B00
 6425              	.LASF116:
 6426 0876 63617073 		.ascii	"capsense_prtCfgTbl\000"
 6426      656E7365 
 6426      5F707274 
 6426      43666754 
 6426      626C00
 6427              	.LASF1:
 6428 0889 756E7369 		.ascii	"unsigned char\000"
 6428      676E6564 
 6428      20636861 
 6428      7200
 6429              	.LASF64:
 6430 0897 636F756E 		.ascii	"counterResolution\000"
 6430      74657252 
 6430      65736F6C 
 6430      7574696F 
 6430      6E00
 6431              	.LASF63:
 6432 08a9 63617073 		.ascii	"capsense_PreScan\000"
 6432      656E7365 
 6432      5F507265 
 6432      5363616E 
 6432      00
 6433              	.LASF79:
 6434 08ba 63617073 		.ascii	"capsense_GetModulationIDAC\000"
 6434      656E7365 
 6434      5F476574 
 6434      4D6F6475 
 6434      6C617469 
 6435              	.LASF121:
 6436 08d5 63617073 		.ascii	"capsense_pinShiftTbl\000"
 6436      656E7365 
 6436      5F70696E 
 6436      53686966 
 6436      7454626C 
 6437              	.LASF78:
 6438 08ea 6D6F6475 		.ascii	"modulatorClk\000"
 6438      6C61746F 
 6438      72436C6B 
 6438      00
ARM GAS  C:\Users\puria\AppData\Local\Temp\ccYRkNAS.s 			page 164


 6439              	.LASF94:
 6440 08f7 63617073 		.ascii	"capsense_initVar\000"
 6440      656E7365 
 6440      5F696E69 
 6440      74566172 
 6440      00
 6441              	.LASF134:
 6442 0908 4379496E 		.ascii	"CyIntEnable\000"
 6442      74456E61 
 6442      626C6500 
 6443              	.LASF85:
 6444 0914 63617073 		.ascii	"capsense_GetIDACRange\000"
 6444      656E7365 
 6444      5F476574 
 6444      49444143 
 6444      52616E67 
 6445              	.LASF52:
 6446 092a 63617073 		.ascii	"capsense_SetShieldDelay\000"
 6446      656E7365 
 6446      5F536574 
 6446      53686965 
 6446      6C644465 
 6447              	.LASF135:
 6448 0942 4379456E 		.ascii	"CyEnterCriticalSection\000"
 6448      74657243 
 6448      72697469 
 6448      63616C53 
 6448      65637469 
 6449              	.LASF67:
 6450 0959 63617073 		.ascii	"capsense_ScanEnabledWidgets\000"
 6450      656E7365 
 6450      5F536361 
 6450      6E456E61 
 6450      626C6564 
 6451              	.LASF82:
 6452 0975 63617073 		.ascii	"capsense_GetCompensationIDAC\000"
 6452      656E7365 
 6452      5F476574 
 6452      436F6D70 
 6452      656E7361 
 6453              	.LASF0:
 6454 0992 7369676E 		.ascii	"signed char\000"
 6454      65642063 
 6454      68617200 
 6455              	.LASF97:
 6456 099e 64617461 		.ascii	"dataPtr\000"
 6456      50747200 
 6457              	.LASF3:
 6458 09a6 73686F72 		.ascii	"short unsigned int\000"
 6458      7420756E 
 6458      7369676E 
 6458      65642069 
 6458      6E7400
 6459              	.LASF29:
 6460 09b9 63617073 		.ascii	"capsense_ReadSensorRaw\000"
 6460      656E7365 
 6460      5F526561 
ARM GAS  C:\Users\puria\AppData\Local\Temp\ccYRkNAS.s 			page 165


 6460      6453656E 
 6460      736F7252 
 6461              	.LASF113:
 6462 09d0 63617073 		.ascii	"capsense_sampleClkDividerVal\000"
 6462      656E7365 
 6462      5F73616D 
 6462      706C6543 
 6462      6C6B4469 
 6463              	.LASF21:
 6464 09ed 6E657752 		.ascii	"newRegValue\000"
 6464      65675661 
 6464      6C756500 
 6465              	.LASF108:
 6466 09f9 63617073 		.ascii	"capsense_sensorEnableMask\000"
 6466      656E7365 
 6466      5F73656E 
 6466      736F7245 
 6466      6E61626C 
 6467              	.LASF9:
 6468 0a13 75696E74 		.ascii	"uint8\000"
 6468      3800
 6469              	.LASF13:
 6470 0a19 646F7562 		.ascii	"double\000"
 6470      6C6500
 6471              	.LASF118:
 6472 0a20 63617073 		.ascii	"capsense_pcTable\000"
 6472      656E7365 
 6472      5F706354 
 6472      61626C65 
 6472      00
 6473              	.LASF131:
 6474 0a31 63617073 		.ascii	"capsense_SenseClk_SetFractionalDividerRegister\000"
 6474      656E7365 
 6474      5F53656E 
 6474      7365436C 
 6474      6B5F5365 
 6475              	.LASF47:
 6476 0a60 63757253 		.ascii	"curSensor\000"
 6476      656E736F 
 6476      7200
 6477              	.LASF42:
 6478 0a6a 63617073 		.ascii	"capsense_SetPinDriveMode\000"
 6478      656E7365 
 6478      5F536574 
 6478      50696E44 
 6478      72697665 
 6479              	.LASF65:
 6480 0a83 6F766572 		.ascii	"oversamplingFactor\000"
 6480      73616D70 
 6480      6C696E67 
 6480      46616374 
 6480      6F7200
 6481              	.LASF43:
 6482 0a96 64726976 		.ascii	"driveMode\000"
 6482      654D6F64 
 6482      6500
 6483              	.LASF95:
ARM GAS  C:\Users\puria\AppData\Local\Temp\ccYRkNAS.s 			page 166


 6484 0aa0 63617073 		.ascii	"capsense_NormalizeWidgets\000"
 6484      656E7365 
 6484      5F4E6F72 
 6484      6D616C69 
 6484      7A655769 
 6485              	.LASF73:
 6486 0aba 63617073 		.ascii	"capsense_GetSenseClkDivider\000"
 6486      656E7365 
 6486      5F476574 
 6486      53656E73 
 6486      65436C6B 
 6487              	.LASF58:
 6488 0ad6 706F7369 		.ascii	"position\000"
 6488      74696F6E 
 6488      00
 6489              		.ident	"GCC: (GNU Tools for ARM Embedded Processors) 5.4.1 20160609 (release) [ARM/embedded-5-bran
