ARM GAS  C:\Users\puria\AppData\Local\Temp\ccBQMf44.s 			page 1


   1              		.syntax unified
   2              		.cpu cortex-m0
   3              		.fpu softvfp
   4              		.eabi_attribute 20, 1
   5              		.eabi_attribute 21, 1
   6              		.eabi_attribute 23, 3
   7              		.eabi_attribute 24, 1
   8              		.eabi_attribute 25, 1
   9              		.eabi_attribute 26, 1
  10              		.eabi_attribute 30, 1
  11              		.eabi_attribute 34, 0
  12              		.eabi_attribute 18, 4
  13              		.thumb
  14              		.syntax unified
  15              		.file	"main.c"
  16              		.text
  17              	.Ltext0:
  18              		.cfi_sections	.debug_frame
  19              		.section	.text.updateLed,"ax",%progbits
  20              		.align	2
  21              		.global	updateLed
  22              		.code	16
  23              		.thumb_func
  24              		.type	updateLed, %function
  25              	updateLed:
  26              	.LFB35:
  27              		.file 1 "main.c"
   1:main.c        **** #include <project.h>
   2:main.c        **** 
   3:main.c        **** uint16 fingerPos    = 0xFFFF;
   4:main.c        **** uint16 fingerPosOld = 0xFFFF;
   5:main.c        **** 
   6:main.c        **** int capsenseNotify;//on if notifications are on, off otherwise
   7:main.c        **** 
   8:main.c        **** /***************************************************************
   9:main.c        ****  * Function to update the LED state in the GATT database
  10:main.c        ****  **************************************************************/
  11:main.c        **** void updateLed()
  12:main.c        **** {
  28              		.loc 1 12 0
  29              		.cfi_startproc
  30              		@ args = 0, pretend = 0, frame = 16
  31              		@ frame_needed = 0, uses_anonymous_args = 0
  32 0000 30B5     		push	{r4, r5, lr}
  33              		.cfi_def_cfa_offset 12
  34              		.cfi_offset 4, -12
  35              		.cfi_offset 5, -8
  36              		.cfi_offset 14, -4
  37 0002 85B0     		sub	sp, sp, #20
  38              		.cfi_def_cfa_offset 32
  13:main.c        ****     CYBLE_GATTS_HANDLE_VALUE_NTF_T 	tempHandle;
  14:main.c        ****    
  15:main.c        ****     uint8 red_State = !red_Read();
  39              		.loc 1 15 0
  40 0004 FFF7FEFF 		bl	red_Read
  41              	.LVL0:
  42 0008 4342     		rsbs	r3, r0, #0
ARM GAS  C:\Users\puria\AppData\Local\Temp\ccBQMf44.s 			page 2


  43 000a 4341     		adcs	r3, r3, r0
  44 000c 6A46     		mov	r2, sp
  45 000e D370     		strb	r3, [r2, #3]
  16:main.c        ****     uint8 green_State = !green_Read(); //led is active low, 0 means on, to not confuse its inverted
  46              		.loc 1 16 0
  47 0010 FFF7FEFF 		bl	green_Read
  48              	.LVL1:
  49 0014 4342     		rsbs	r3, r0, #0
  50 0016 4341     		adcs	r3, r3, r0
  51 0018 6A46     		mov	r2, sp
  52 001a 9370     		strb	r3, [r2, #2]
  17:main.c        ****     uint8 blue_State = !blue_Read();
  53              		.loc 1 17 0
  54 001c FFF7FEFF 		bl	blue_Read
  55              	.LVL2:
  56 0020 4342     		rsbs	r3, r0, #0
  57 0022 4341     		adcs	r3, r3, r0
  58 0024 6A46     		mov	r2, sp
  59 0026 5370     		strb	r3, [r2, #1]
  18:main.c        ****     //CyBLE_getState() checks if the ble is conntected, if connected it is reasonable to update the
  19:main.c        ****   
  20:main.c        ****     if(CyBle_GetState() != CYBLE_STATE_CONNECTED)
  60              		.loc 1 20 0
  61 0028 154B     		ldr	r3, .L4
  62 002a 1B78     		ldrb	r3, [r3]
  63 002c 022B     		cmp	r3, #2
  64 002e 24D1     		bne	.L1
  21:main.c        ****         return; 
  22:main.c        ****     
  23:main.c        ****     tempHandle.attrHandle = CYBLE_LEDCAPSENSE_LED_CHAR_HANDLE;
  65              		.loc 1 23 0
  66 0030 01AC     		add	r4, sp, #4
  67 0032 0C33     		adds	r3, r3, #12
  68 0034 2381     		strh	r3, [r4, #8]
  24:main.c        ****   	tempHandle.value.val = (uint8 *) &red_State;
  69              		.loc 1 24 0
  70 0036 6B46     		mov	r3, sp
  71 0038 0333     		adds	r3, r3, #3
  72 003a 0193     		str	r3, [sp, #4]
  25:main.c        ****     tempHandle.value.len = 1;
  73              		.loc 1 25 0
  74 003c 0123     		movs	r3, #1
  75 003e A380     		strh	r3, [r4, #4]
  26:main.c        ****     CyBle_GattsWriteAttributeValue(&tempHandle,0,&cyBle_connHandle,CYBLE_GATT_DB_LOCALLY_INITIATED)
  76              		.loc 1 26 0
  77 0040 104D     		ldr	r5, .L4+4
  78 0042 0023     		movs	r3, #0
  79 0044 2A00     		movs	r2, r5
  80 0046 0021     		movs	r1, #0
  81 0048 2000     		movs	r0, r4
  82 004a FFF7FEFF 		bl	CyBle_GattsWriteAttributeValue
  83              	.LVL3:
  27:main.c        ****     
  28:main.c        ****     tempHandle.attrHandle = CYBLE_LEDCAPSENSE_GREEN_LED_CHAR_HANDLE;
  84              		.loc 1 28 0
  85 004e 1523     		movs	r3, #21
  86 0050 2381     		strh	r3, [r4, #8]
ARM GAS  C:\Users\puria\AppData\Local\Temp\ccBQMf44.s 			page 3


  29:main.c        ****   	tempHandle.value.val = (uint8 *) &green_State;
  87              		.loc 1 29 0
  88 0052 6B46     		mov	r3, sp
  89 0054 0233     		adds	r3, r3, #2
  90 0056 0193     		str	r3, [sp, #4]
  30:main.c        ****     CyBle_GattsWriteAttributeValue(&tempHandle,0,&cyBle_connHandle,CYBLE_GATT_DB_LOCALLY_INITIATED)
  91              		.loc 1 30 0
  92 0058 0023     		movs	r3, #0
  93 005a 2A00     		movs	r2, r5
  94 005c 0021     		movs	r1, #0
  95 005e 2000     		movs	r0, r4
  96 0060 FFF7FEFF 		bl	CyBle_GattsWriteAttributeValue
  97              	.LVL4:
  31:main.c        ****     
  32:main.c        ****     tempHandle.attrHandle = CYBLE_LEDCAPSENSE_BLUE_LED_CHAR_HANDLE;
  98              		.loc 1 32 0
  99 0064 1823     		movs	r3, #24
 100 0066 2381     		strh	r3, [r4, #8]
  33:main.c        ****   	tempHandle.value.val = (uint8 *) &blue_State;
 101              		.loc 1 33 0
 102 0068 6B46     		mov	r3, sp
 103 006a 0133     		adds	r3, r3, #1
 104 006c 0193     		str	r3, [sp, #4]
  34:main.c        ****     CyBle_GattsWriteAttributeValue(&tempHandle,0,&cyBle_connHandle,CYBLE_GATT_DB_LOCALLY_INITIATED)
 105              		.loc 1 34 0
 106 006e 0023     		movs	r3, #0
 107 0070 2A00     		movs	r2, r5
 108 0072 0021     		movs	r1, #0
 109 0074 2000     		movs	r0, r4
 110 0076 FFF7FEFF 		bl	CyBle_GattsWriteAttributeValue
 111              	.LVL5:
 112              	.L1:
  35:main.c        **** }
 113              		.loc 1 35 0
 114 007a 05B0     		add	sp, sp, #20
 115              		@ sp needed
 116 007c 30BD     		pop	{r4, r5, pc}
 117              	.L5:
 118 007e C046     		.align	2
 119              	.L4:
 120 0080 00000000 		.word	cyBle_state
 121 0084 00000000 		.word	cyBle_connHandle
 122              		.cfi_endproc
 123              	.LFE35:
 124              		.size	updateLed, .-updateLed
 125              		.section	.text.updateCapsense,"ax",%progbits
 126              		.align	2
 127              		.global	updateCapsense
 128              		.code	16
 129              		.thumb_func
 130              		.type	updateCapsense, %function
 131              	updateCapsense:
 132              	.LFB36:
  36:main.c        **** 
  37:main.c        **** /***************************************************************
  38:main.c        ****  * Function to update the CapSesnse state in the GATT database
  39:main.c        ****  **************************************************************/
ARM GAS  C:\Users\puria\AppData\Local\Temp\ccBQMf44.s 			page 4


  40:main.c        **** void updateCapsense()//similiar to upper method but for capsense sensor
  41:main.c        **** {
 133              		.loc 1 41 0
 134              		.cfi_startproc
 135              		@ args = 0, pretend = 0, frame = 16
 136              		@ frame_needed = 0, uses_anonymous_args = 0
 137 0000 00B5     		push	{lr}
 138              		.cfi_def_cfa_offset 4
 139              		.cfi_offset 14, -4
 140 0002 85B0     		sub	sp, sp, #20
 141              		.cfi_def_cfa_offset 24
  42:main.c        ****     if(CyBle_GetState() != CYBLE_STATE_CONNECTED)
 142              		.loc 1 42 0
 143 0004 124B     		ldr	r3, .L10
 144 0006 1B78     		ldrb	r3, [r3]
 145 0008 022B     		cmp	r3, #2
 146 000a 1FD1     		bne	.L6
  43:main.c        ****         return;
  44:main.c        ****     
  45:main.c        **** 	CYBLE_GATTS_HANDLE_VALUE_NTF_T 	tempHandle;
  46:main.c        ****     
  47:main.c        ****     tempHandle.attrHandle = CYBLE_LEDCAPSENSE_CAPSENSE_CHAR_HANDLE;
 147              		.loc 1 47 0
 148 000c 01A8     		add	r0, sp, #4
 149 000e 0F33     		adds	r3, r3, #15
 150 0010 0381     		strh	r3, [r0, #8]
  48:main.c        ****   	tempHandle.value.val = (uint8 *)&fingerPos;//cast to uint8 integerpointer
 151              		.loc 1 48 0
 152 0012 104B     		ldr	r3, .L10+4
 153 0014 0193     		str	r3, [sp, #4]
  49:main.c        ****     tempHandle.value.len = 2; 
 154              		.loc 1 49 0
 155 0016 0223     		movs	r3, #2
 156 0018 8380     		strh	r3, [r0, #4]
  50:main.c        ****     CyBle_GattsWriteAttributeValue(&tempHandle,0,&cyBle_connHandle,CYBLE_GATT_DB_LOCALLY_INITIATED 
 157              		.loc 1 50 0
 158 001a 0023     		movs	r3, #0
 159 001c 0E4A     		ldr	r2, .L10+8
 160 001e 0021     		movs	r1, #0
 161 0020 FFF7FEFF 		bl	CyBle_GattsWriteAttributeValue
 162              	.LVL6:
  51:main.c        ****     //ble accepts clients which connect and register for notifications and therefore sends those ch
  52:main.c        ****     //capsenseNotify gets set if client characteristiy configuration descriptor gets set , option w
  53:main.c        ****     /* send notification to client if notifications are enabled and finger location has changed */
  54:main.c        ****     if (capsenseNotify && (fingerPos != fingerPosOld) )
 163              		.loc 1 54 0
 164 0024 0D4B     		ldr	r3, .L10+12
 165 0026 1B68     		ldr	r3, [r3]
 166 0028 002B     		cmp	r3, #0
 167 002a 0CD0     		beq	.L8
 168              		.loc 1 54 0 is_stmt 0 discriminator 1
 169 002c 094B     		ldr	r3, .L10+4
 170 002e 1A88     		ldrh	r2, [r3]
 171 0030 5B88     		ldrh	r3, [r3, #2]
 172 0032 9A42     		cmp	r2, r3
 173 0034 07D0     		beq	.L8
  55:main.c        ****         CyBle_GattsNotification(cyBle_connHandle,&tempHandle);//this method sends an notification v
ARM GAS  C:\Users\puria\AppData\Local\Temp\ccBQMf44.s 			page 5


 174              		.loc 1 55 0 is_stmt 1
 175 0036 084A     		ldr	r2, .L10+8
 176 0038 1378     		ldrb	r3, [r2]
 177 003a 5078     		ldrb	r0, [r2, #1]
 178 003c 0002     		lsls	r0, r0, #8
 179 003e 1843     		orrs	r0, r3
 180 0040 01A9     		add	r1, sp, #4
 181 0042 FFF7FEFF 		bl	CyBle_GattsNotification
 182              	.LVL7:
 183              	.L8:
  56:main.c        ****         fingerPosOld = fingerPos;
 184              		.loc 1 56 0
 185 0046 034B     		ldr	r3, .L10+4
 186 0048 1A88     		ldrh	r2, [r3]
 187 004a 5A80     		strh	r2, [r3, #2]
 188              	.L6:
  57:main.c        **** }
 189              		.loc 1 57 0
 190 004c 05B0     		add	sp, sp, #20
 191              		@ sp needed
 192 004e 00BD     		pop	{pc}
 193              	.L11:
 194              		.align	2
 195              	.L10:
 196 0050 00000000 		.word	cyBle_state
 197 0054 00000000 		.word	.LANCHOR0
 198 0058 00000000 		.word	cyBle_connHandle
 199 005c 00000000 		.word	capsenseNotify
 200              		.cfi_endproc
 201              	.LFE36:
 202              		.size	updateCapsense, .-updateCapsense
 203              		.section	.text.BleCallBack,"ax",%progbits
 204              		.align	2
 205              		.global	BleCallBack
 206              		.code	16
 207              		.thumb_func
 208              		.type	BleCallBack, %function
 209              	BleCallBack:
 210              	.LFB37:
  58:main.c        **** 
  59:main.c        **** /***************************************************************
  60:main.c        ****  * Function to handle the BLE stack
  61:main.c        ****  **************************************************************/
  62:main.c        **** void BleCallBack(uint32 event, void* eventParam)//ble event handler, statemachine 
  63:main.c        **** {
 211              		.loc 1 63 0
 212              		.cfi_startproc
 213              		@ args = 0, pretend = 0, frame = 0
 214              		@ frame_needed = 0, uses_anonymous_args = 0
 215              	.LVL8:
 216 0000 70B5     		push	{r4, r5, r6, lr}
 217              		.cfi_def_cfa_offset 16
 218              		.cfi_offset 4, -16
 219              		.cfi_offset 5, -12
 220              		.cfi_offset 6, -8
 221              		.cfi_offset 14, -4
 222 0002 0C00     		movs	r4, r1
ARM GAS  C:\Users\puria\AppData\Local\Temp\ccBQMf44.s 			page 6


  64:main.c        ****     CYBLE_GATTS_WRITE_REQ_PARAM_T *wrReqParam;
  65:main.c        **** 
  66:main.c        ****     switch(event)
 223              		.loc 1 66 0
 224 0004 2828     		cmp	r0, #40
 225 0006 08D0     		beq	.L14
 226 0008 02D8     		bhi	.L15
 227 000a 0128     		cmp	r0, #1
 228 000c 05D0     		beq	.L14
 229 000e 5CE0     		b	.L12
 230              	.L15:
 231 0010 4128     		cmp	r0, #65
 232 0012 0BD0     		beq	.L16
 233 0014 4C28     		cmp	r0, #76
 234 0016 10D0     		beq	.L17
 235 0018 57E0     		b	.L12
 236              	.L14:
  67:main.c        ****     {
  68:main.c        ****         /* if there is a disconnect or the stack just turned on from a reset then start the adverti
  69:main.c        ****         case CYBLE_EVT_STACK_ON:
  70:main.c        ****         case CYBLE_EVT_GAP_DEVICE_DISCONNECTED://both cases get same handling
  71:main.c        ****             capsenseNotify = 0;//turn off notifications 
 237              		.loc 1 71 0
 238 001a 0022     		movs	r2, #0
 239 001c 2B4B     		ldr	r3, .L20
 240 001e 1A60     		str	r2, [r3]
  72:main.c        ****             CyBle_GappStartAdvertisement(CYBLE_ADVERTISING_FAST);//start advertising the database a
 241              		.loc 1 72 0
 242 0020 0020     		movs	r0, #0
 243              	.LVL9:
 244 0022 FFF7FEFF 		bl	CyBle_GappStartAdvertisement
 245              	.LVL10:
  73:main.c        ****             pwm_Start();//start the pwm to drive the led 
 246              		.loc 1 73 0
 247 0026 FFF7FEFF 		bl	pwm_Start
 248              	.LVL11:
  74:main.c        ****         break;
 249              		.loc 1 74 0
 250 002a 4EE0     		b	.L12
 251              	.LVL12:
 252              	.L16:
  75:main.c        ****         
  76:main.c        ****         /* when a connection is made, update the LED and Capsense states in the GATT database and s
  77:main.c        ****         case CYBLE_EVT_GATT_CONNECT_IND://what happens if the connection is established by remotesi
  78:main.c        ****             updateLed();//update database with current state of led
 253              		.loc 1 78 0
 254 002c FFF7FEFF 		bl	updateLed
 255              	.LVL13:
  79:main.c        ****             updateCapsense();  //update database with current state of capsense#
 256              		.loc 1 79 0
 257 0030 FFF7FEFF 		bl	updateCapsense
 258              	.LVL14:
  80:main.c        ****             //both functions enable the remote side to read the state of the sensors, handled by bl
  81:main.c        ****             
  82:main.c        ****             pwm_Stop();//somehow this stops the blinking bluelight, probably because the default on
 259              		.loc 1 82 0
 260 0034 FFF7FEFF 		bl	pwm_Stop
ARM GAS  C:\Users\puria\AppData\Local\Temp\ccBQMf44.s 			page 7


 261              	.LVL15:
  83:main.c        **** 		break;
 262              		.loc 1 83 0
 263 0038 47E0     		b	.L12
 264              	.LVL16:
 265              	.L17:
  84:main.c        **** 
  85:main.c        ****         /* handle a write request */
  86:main.c        ****         case CYBLE_EVT_GATTS_WRITE_REQ://this event gets active, if remoteside wants to write data 
  87:main.c        ****             wrReqParam = (CYBLE_GATTS_WRITE_REQ_PARAM_T *) eventParam;//the stack tells which chara
  88:main.c        **** 			      
  89:main.c        ****             /* request write the red LED value */
  90:main.c        ****             if(wrReqParam->handleValPair.attrHandle == CYBLE_LEDCAPSENSE_LED_CHAR_HANDLE)//check if
 266              		.loc 1 90 0
 267 003a 8B89     		ldrh	r3, [r1, #12]
 268 003c 0E2B     		cmp	r3, #14
 269 003e 15D1     		bne	.L18
  91:main.c        ****             //does the remote tries to change the state of the led
  92:main.c        ****             {
  93:main.c        ****                 /* only update the value and write the response if the requested write is allowed *
  94:main.c        ****                 if(CYBLE_GATT_ERR_NONE == CyBle_GattsWriteAttributeValue(&wrReqParam->handleValPair
 270              		.loc 1 94 0
 271 0040 081D     		adds	r0, r1, #4
 272              	.LVL17:
 273 0042 3233     		adds	r3, r3, #50
 274 0044 224A     		ldr	r2, .L20+4
 275 0046 0021     		movs	r1, #0
 276              	.LVL18:
 277 0048 FFF7FEFF 		bl	CyBle_GattsWriteAttributeValue
 278              	.LVL19:
 279 004c 0028     		cmp	r0, #0
 280 004e 0DD1     		bne	.L18
  95:main.c        ****                 {   
  96:main.c        ****                     //if no error the write operation is allowed 
  97:main.c        ****                     red_Write(!wrReqParam->handleValPair.value.val[0]);
 281              		.loc 1 97 0
 282 0050 6368     		ldr	r3, [r4, #4]
 283 0052 1B78     		ldrb	r3, [r3]
 284 0054 5842     		rsbs	r0, r3, #0
 285 0056 5841     		adcs	r0, r0, r3
 286 0058 C0B2     		uxtb	r0, r0
 287 005a FFF7FEFF 		bl	red_Write
 288              	.LVL20:
  98:main.c        ****                     //turn on or off the led considering the wished value, red led is active 0, hav
  99:main.c        ****                     
 100:main.c        ****                     //send an response 
 101:main.c        ****                     CyBle_GattsWriteRsp(cyBle_connHandle);
 289              		.loc 1 101 0
 290 005e 1C4A     		ldr	r2, .L20+4
 291 0060 1378     		ldrb	r3, [r2]
 292 0062 5078     		ldrb	r0, [r2, #1]
 293 0064 0002     		lsls	r0, r0, #8
 294 0066 1843     		orrs	r0, r3
 295 0068 FFF7FEFF 		bl	CyBle_GattsWriteRsp
 296              	.LVL21:
 297              	.L18:
 102:main.c        ****                 }
ARM GAS  C:\Users\puria\AppData\Local\Temp\ccBQMf44.s 			page 8


 103:main.c        ****             }
 104:main.c        ****             
 105:main.c        ****             /* request write the green LED value */
 106:main.c        ****             if(wrReqParam->handleValPair.attrHandle == CYBLE_LEDCAPSENSE_GREEN_LED_CHAR_HANDLE)//ch
 298              		.loc 1 106 0
 299 006c A389     		ldrh	r3, [r4, #12]
 300 006e 152B     		cmp	r3, #21
 301 0070 15D1     		bne	.L19
 107:main.c        ****             //does the remote tries to change the state of the led
 108:main.c        ****             {
 109:main.c        ****                 /* only update the value and write the response if the requested write is allowed *
 110:main.c        ****                 if(CYBLE_GATT_ERR_NONE == CyBle_GattsWriteAttributeValue(&wrReqParam->handleValPair
 302              		.loc 1 110 0
 303 0072 201D     		adds	r0, r4, #4
 304 0074 2B33     		adds	r3, r3, #43
 305 0076 164A     		ldr	r2, .L20+4
 306 0078 0021     		movs	r1, #0
 307 007a FFF7FEFF 		bl	CyBle_GattsWriteAttributeValue
 308              	.LVL22:
 309 007e 0028     		cmp	r0, #0
 310 0080 0DD1     		bne	.L19
 111:main.c        ****                 {   
 112:main.c        ****                     //if no error the write operation is allowed 
 113:main.c        ****                     green_Write(!wrReqParam->handleValPair.value.val[0]);
 311              		.loc 1 113 0
 312 0082 6368     		ldr	r3, [r4, #4]
 313 0084 1B78     		ldrb	r3, [r3]
 314 0086 5842     		rsbs	r0, r3, #0
 315 0088 5841     		adcs	r0, r0, r3
 316 008a C0B2     		uxtb	r0, r0
 317 008c FFF7FEFF 		bl	green_Write
 318              	.LVL23:
 114:main.c        ****                     //turn on or off the led considering the wished value, red led is active 0, hav
 115:main.c        ****                     
 116:main.c        ****                     //send an response 
 117:main.c        ****                     CyBle_GattsWriteRsp(cyBle_connHandle);
 319              		.loc 1 117 0
 320 0090 0F4A     		ldr	r2, .L20+4
 321 0092 1378     		ldrb	r3, [r2]
 322 0094 5078     		ldrb	r0, [r2, #1]
 323 0096 0002     		lsls	r0, r0, #8
 324 0098 1843     		orrs	r0, r3
 325 009a FFF7FEFF 		bl	CyBle_GattsWriteRsp
 326              	.LVL24:
 327              	.L19:
 118:main.c        ****                 }
 119:main.c        ****             }
 120:main.c        ****             
 121:main.c        ****             /* request to update the CapSense notification */
 122:main.c        ****             if(wrReqParam->handleValPair.attrHandle == CYBLE_LEDCAPSENSE_CAPSENSE_CAPSENSECCCD_DESC
 328              		.loc 1 122 0
 329 009e A389     		ldrh	r3, [r4, #12]
 330 00a0 122B     		cmp	r3, #18
 331 00a2 12D1     		bne	.L12
 123:main.c        ****             {
 124:main.c        ****                 
 125:main.c        ****                 CyBle_GattsWriteAttributeValue(&wrReqParam->handleValPair, 0, &cyBle_connHandle, CY
ARM GAS  C:\Users\puria\AppData\Local\Temp\ccBQMf44.s 			page 9


 332              		.loc 1 125 0
 333 00a4 0A4D     		ldr	r5, .L20+4
 334 00a6 201D     		adds	r0, r4, #4
 335 00a8 2E33     		adds	r3, r3, #46
 336 00aa 2A00     		movs	r2, r5
 337 00ac 0021     		movs	r1, #0
 338 00ae FFF7FEFF 		bl	CyBle_GattsWriteAttributeValue
 339              	.LVL25:
 126:main.c        ****                 capsenseNotify = wrReqParam->handleValPair.value.val[0] & 0x01;
 340              		.loc 1 126 0
 341 00b2 6368     		ldr	r3, [r4, #4]
 342 00b4 1B78     		ldrb	r3, [r3]
 343 00b6 0122     		movs	r2, #1
 344 00b8 1340     		ands	r3, r2
 345 00ba 044A     		ldr	r2, .L20
 346 00bc 1360     		str	r3, [r2]
 127:main.c        ****                 
 128:main.c        ****                 //send an response 
 129:main.c        ****                 CyBle_GattsWriteRsp(cyBle_connHandle);
 347              		.loc 1 129 0
 348 00be 2B78     		ldrb	r3, [r5]
 349 00c0 6878     		ldrb	r0, [r5, #1]
 350 00c2 0002     		lsls	r0, r0, #8
 351 00c4 1843     		orrs	r0, r3
 352 00c6 FFF7FEFF 		bl	CyBle_GattsWriteRsp
 353              	.LVL26:
 354              	.L12:
 130:main.c        ****             }		
 131:main.c        **** 			break;  
 132:main.c        ****         
 133:main.c        ****         default:
 134:main.c        ****             break;
 135:main.c        ****     }
 136:main.c        **** } 
 355              		.loc 1 136 0
 356              		@ sp needed
 357              	.LVL27:
 358 00ca 70BD     		pop	{r4, r5, r6, pc}
 359              	.L21:
 360              		.align	2
 361              	.L20:
 362 00cc 00000000 		.word	capsenseNotify
 363 00d0 00000000 		.word	cyBle_connHandle
 364              		.cfi_endproc
 365              	.LFE37:
 366              		.size	BleCallBack, .-BleCallBack
 367              		.section	.text.main,"ax",%progbits
 368              		.align	2
 369              		.global	main
 370              		.code	16
 371              		.thumb_func
 372              		.type	main, %function
 373              	main:
 374              	.LFB38:
 137:main.c        **** 
 138:main.c        **** /***************************************************************
 139:main.c        ****  * Main
ARM GAS  C:\Users\puria\AppData\Local\Temp\ccBQMf44.s 			page 10


 140:main.c        ****  **************************************************************/
 141:main.c        **** int main()
 142:main.c        **** {   
 375              		.loc 1 142 0
 376              		.cfi_startproc
 377              		@ Volatile: function does not return.
 378              		@ args = 0, pretend = 0, frame = 0
 379              		@ frame_needed = 0, uses_anonymous_args = 0
 380 0000 10B5     		push	{r4, lr}
 381              		.cfi_def_cfa_offset 8
 382              		.cfi_offset 4, -8
 383              		.cfi_offset 14, -4
 143:main.c        ****     //initialize: turn on global interrupts, done by CyGlobalIntEnable macro
 144:main.c        ****     CyGlobalIntEnable; 
 384              		.loc 1 144 0
 385              		.syntax divided
 386              	@ 144 "main.c" 1
 387 0002 62B6     		CPSIE   i
 388              	@ 0 "" 2
 145:main.c        ****     
 146:main.c        ****     //starting capsense components, and initilizebaseline noise removes the noise from the sensor
 147:main.c        ****     capsense_Start();
 389              		.loc 1 147 0
 390              		.thumb
 391              		.syntax unified
 392 0004 FFF7FEFF 		bl	capsense_Start
 393              	.LVL28:
 148:main.c        ****     capsense_InitializeEnabledBaselines();
 394              		.loc 1 148 0
 395 0008 FFF7FEFF 		bl	capsense_InitializeEnabledBaselines
 396              	.LVL29:
 149:main.c        ****     
 150:main.c        ****     /* Start BLE stack and register the callback function */
 151:main.c        ****     CyBle_Start(BleCallBack);
 397              		.loc 1 151 0
 398 000c 0B48     		ldr	r0, .L25
 399 000e FFF7FEFF 		bl	CyBle_Start
 400              	.LVL30:
 401              	.L24:
 152:main.c        **** 
 153:main.c        ****     for(;;)
 154:main.c        ****     {        
 155:main.c        ****         /* if Capsense scan is done, read the value and start another scan */
 156:main.c        ****         if(!capsense_IsBusy())
 402              		.loc 1 156 0
 403 0012 FFF7FEFF 		bl	capsense_IsBusy
 404              	.LVL31:
 405 0016 0028     		cmp	r0, #0
 406 0018 09D1     		bne	.L23
 157:main.c        ****         {
 158:main.c        ****             fingerPos=capsense_GetCentroidPos(capsense_LINEARSLIDER0__LS);//get fingerposition valu
 407              		.loc 1 158 0
 408 001a FFF7FEFF 		bl	capsense_GetCentroidPos
 409              	.LVL32:
 410 001e 084B     		ldr	r3, .L25+4
 411 0020 1880     		strh	r0, [r3]
 159:main.c        ****             capsense_UpdateEnabledBaselines();//update baselines?
ARM GAS  C:\Users\puria\AppData\Local\Temp\ccBQMf44.s 			page 11


 412              		.loc 1 159 0
 413 0022 FFF7FEFF 		bl	capsense_UpdateEnabledBaselines
 414              	.LVL33:
 160:main.c        ****             capsense_ScanEnabledWidgets();//start the scan
 415              		.loc 1 160 0
 416 0026 FFF7FEFF 		bl	capsense_ScanEnabledWidgets
 417              	.LVL34:
 161:main.c        ****             updateCapsense();//call function which is described above,get value , write to database
 418              		.loc 1 161 0
 419 002a FFF7FEFF 		bl	updateCapsense
 420              	.LVL35:
 421              	.L23:
 162:main.c        ****         }
 163:main.c        ****    
 164:main.c        ****         CyBle_ProcessEvents();//blackbox somehow processhandling via method
 422              		.loc 1 164 0
 423 002e FFF7FEFF 		bl	CyBle_ProcessEvents
 424              	.LVL36:
 165:main.c        ****         CyBle_EnterLPM(CYBLE_BLESS_DEEPSLEEP); // change to deepsleep to save power if its possible
 425              		.loc 1 165 0
 426 0032 0320     		movs	r0, #3
 427 0034 FFF7FEFF 		bl	CyBle_EnterLPM
 428              	.LVL37:
 166:main.c        ****     }
 429              		.loc 1 166 0
 430 0038 EBE7     		b	.L24
 431              	.L26:
 432 003a C046     		.align	2
 433              	.L25:
 434 003c 00000000 		.word	BleCallBack
 435 0040 00000000 		.word	.LANCHOR0
 436              		.cfi_endproc
 437              	.LFE38:
 438              		.size	main, .-main
 439              		.comm	capsenseNotify,4,4
 440              		.global	fingerPosOld
 441              		.global	fingerPos
 442              		.data
 443              		.align	1
 444              		.set	.LANCHOR0,. + 0
 445              		.type	fingerPos, %object
 446              		.size	fingerPos, 2
 447              	fingerPos:
 448 0000 FFFF     		.short	-1
 449              		.type	fingerPosOld, %object
 450              		.size	fingerPosOld, 2
 451              	fingerPosOld:
 452 0002 FFFF     		.short	-1
 453              		.text
 454              	.Letext0:
 455              		.file 2 "Generated_Source\\PSoC4/cytypes.h"
 456              		.file 3 "Generated_Source\\PSoC4/ble_Stack.h"
 457              		.file 4 "Generated_Source\\PSoC4/ble_StackGatt.h"
 458              		.file 5 "Generated_Source\\PSoC4/ble_StackGattServer.h"
 459              		.file 6 "Generated_Source\\PSoC4/ble_eventHandler.h"
 460              		.file 7 "Generated_Source\\PSoC4/red.h"
 461              		.file 8 "Generated_Source\\PSoC4/green.h"
ARM GAS  C:\Users\puria\AppData\Local\Temp\ccBQMf44.s 			page 12


 462              		.file 9 "Generated_Source\\PSoC4/blue.h"
 463              		.file 10 "Generated_Source\\PSoC4/ble_StackGattDb.h"
 464              		.file 11 "Generated_Source\\PSoC4/ble.h"
 465              		.file 12 "Generated_Source\\PSoC4/pwm.h"
 466              		.file 13 "Generated_Source\\PSoC4/capsense.h"
 467              		.file 14 "Generated_Source\\PSoC4/capsense_CSHL.h"