ARM GAS  C:\Users\Art\AppData\Local\Temp\ccqpb62o.s 			page 1


   1              		.syntax unified
   2              		.cpu cortex-m0
   3              		.fpu softvfp
   4              		.eabi_attribute 20, 1
   5              		.eabi_attribute 21, 1
   6              		.eabi_attribute 23, 3
   7              		.eabi_attribute 24, 1
   8              		.eabi_attribute 25, 1
   9              		.eabi_attribute 26, 1
  10              		.eabi_attribute 30, 1
  11              		.eabi_attribute 34, 0
  12              		.eabi_attribute 18, 4
  13              		.thumb
  14              		.syntax unified
  15              		.file	"ble.c"
  16              		.text
  17              	.Ltext0:
  18              		.cfi_sections	.debug_frame
  19              		.section	.text.CyBle_ChangeAdLocalName,"ax",%progbits
  20              		.align	2
  21              		.code	16
  22              		.thumb_func
  23              		.type	CyBle_ChangeAdLocalName, %function
  24              	CyBle_ChangeAdLocalName:
  25              	.LFB11:
  26              		.file 1 "Generated_Source\\PSoC4\\ble.c"
   1:Generated_Source\PSoC4/ble.c **** /***************************************************************************//**
   2:Generated_Source\PSoC4/ble.c **** * \file CYBLE.c
   3:Generated_Source\PSoC4/ble.c **** * \version 3.30
   4:Generated_Source\PSoC4/ble.c **** * 
   5:Generated_Source\PSoC4/ble.c **** * \brief
   6:Generated_Source\PSoC4/ble.c **** *  This file contains the source code for the Common APIs of the BLE Component.
   7:Generated_Source\PSoC4/ble.c **** * 
   8:Generated_Source\PSoC4/ble.c **** ********************************************************************************
   9:Generated_Source\PSoC4/ble.c **** * \copyright
  10:Generated_Source\PSoC4/ble.c **** * Copyright 2014-2016, Cypress Semiconductor Corporation.  All rights reserved.
  11:Generated_Source\PSoC4/ble.c **** * You may use this file only in accordance with the license, terms, conditions,
  12:Generated_Source\PSoC4/ble.c **** * disclaimers, and limitations in the end user license agreement accompanying
  13:Generated_Source\PSoC4/ble.c **** * the software package with which this file was provided.
  14:Generated_Source\PSoC4/ble.c **** *******************************************************************************/
  15:Generated_Source\PSoC4/ble.c **** 
  16:Generated_Source\PSoC4/ble.c **** #include "ble_eventHandler.h"
  17:Generated_Source\PSoC4/ble.c **** #include "ble_HAL_PVT.h"
  18:Generated_Source\PSoC4/ble.c **** #include <stdlib.h>
  19:Generated_Source\PSoC4/ble.c **** 
  20:Generated_Source\PSoC4/ble.c **** 
  21:Generated_Source\PSoC4/ble.c **** /***************************************
  22:Generated_Source\PSoC4/ble.c **** * Function Prototypes
  23:Generated_Source\PSoC4/ble.c **** ***************************************/
  24:Generated_Source\PSoC4/ble.c **** 
  25:Generated_Source\PSoC4/ble.c **** #if(CYBLE_GATT_ROLE_SERVER)
  26:Generated_Source\PSoC4/ble.c ****     #if(CYBLE_GAP_ROLE_PERIPHERAL)
  27:Generated_Source\PSoC4/ble.c ****         static void CyBle_ChangeAdLocalName(const char8 name[], uint8 dest);
  28:Generated_Source\PSoC4/ble.c ****     #endif /* (CYBLE_GAP_ROLE_PERIPHERAL) */
  29:Generated_Source\PSoC4/ble.c **** #endif /* (CYBLE_GATT_ROLE_SERVER) */
  30:Generated_Source\PSoC4/ble.c ****     
  31:Generated_Source\PSoC4/ble.c **** 
ARM GAS  C:\Users\Art\AppData\Local\Temp\ccqpb62o.s 			page 2


  32:Generated_Source\PSoC4/ble.c **** /***************************************
  33:Generated_Source\PSoC4/ble.c **** * Global Variables
  34:Generated_Source\PSoC4/ble.c **** ***************************************/
  35:Generated_Source\PSoC4/ble.c **** 
  36:Generated_Source\PSoC4/ble.c **** /* Indicates whether the BLE has been initialized. The variable is initialized to
  37:Generated_Source\PSoC4/ble.c ****    0 and set to 1 the first time CyBle_Start() is called. This allows the component
  38:Generated_Source\PSoC4/ble.c ****    to restart without reinitialization after the first call to the CyBle_Start() 
  39:Generated_Source\PSoC4/ble.c ****    routine. If reinitialization of the component is required, the variable should 
  40:Generated_Source\PSoC4/ble.c ****    be set to 0 before the CyBle_Start() routine is called. Alternatively, the BLE
  41:Generated_Source\PSoC4/ble.c ****    can be reinitialized by calling the CyBle_Init() function.
  42:Generated_Source\PSoC4/ble.c **** */
  43:Generated_Source\PSoC4/ble.c **** uint8  cyBle_initVar = 0u;
  44:Generated_Source\PSoC4/ble.c **** 
  45:Generated_Source\PSoC4/ble.c **** /* Allocate RAM memory for stack. This buffer could be reused by application when 
  46:Generated_Source\PSoC4/ble.c ****    BLE component is stopped. For export mode buffer is allocated in heap.
  47:Generated_Source\PSoC4/ble.c **** */
  48:Generated_Source\PSoC4/ble.c **** #if(CYBLE_SHARING_MODE_EXPORT)
  49:Generated_Source\PSoC4/ble.c ****     
  50:Generated_Source\PSoC4/ble.c **** uint8 *cyBle_stackMemoryRam = NULL;
  51:Generated_Source\PSoC4/ble.c **** 
  52:Generated_Source\PSoC4/ble.c **** #else
  53:Generated_Source\PSoC4/ble.c **** 
  54:Generated_Source\PSoC4/ble.c **** CYBLE_CYALIGNED_BEGIN CY_NOINIT uint8 cyBle_stackMemoryRam[CYBLE_STACK_RAM_SIZE] CYBLE_CYALIGNED_EN
  55:Generated_Source\PSoC4/ble.c **** 
  56:Generated_Source\PSoC4/ble.c **** #endif  /* CYBLE_SHARING_MODE_EXPORT */
  57:Generated_Source\PSoC4/ble.c **** 
  58:Generated_Source\PSoC4/ble.c **** #if(CYBLE_GAP_ROLE_PERIPHERAL || CYBLE_GAP_ROLE_BROADCASTER)
  59:Generated_Source\PSoC4/ble.c **** 
  60:Generated_Source\PSoC4/ble.c **** CYBLE_GAPP_DISC_PARAM_T cyBle_discoveryParam =
  61:Generated_Source\PSoC4/ble.c **** {
  62:Generated_Source\PSoC4/ble.c ****     0x0020u,    /* uint16 advertising_interval_min */
  63:Generated_Source\PSoC4/ble.c ****     0x0030u,    /* uint16 advertising_interval_max */
  64:Generated_Source\PSoC4/ble.c ****     CYBLE_GAPP_CONNECTABLE_UNDIRECTED_ADV, /* uint8 advertising_type */
  65:Generated_Source\PSoC4/ble.c ****     0x00u,      /* uint8 own_addr_type */
  66:Generated_Source\PSoC4/ble.c ****     0x00u,      /* uint8 direct_addr_type */
  67:Generated_Source\PSoC4/ble.c ****     {0x00u, 0x00u, 0x00u, 0x50u, 0xA0u, 0x00u}, /* uint8* direct_addr */
  68:Generated_Source\PSoC4/ble.c ****     0x07u,      /* uint8 advertising_channel_map */
  69:Generated_Source\PSoC4/ble.c ****     0x00u,      /* uint8 advertising_filter_policy */
  70:Generated_Source\PSoC4/ble.c **** };
  71:Generated_Source\PSoC4/ble.c **** 
  72:Generated_Source\PSoC4/ble.c **** CYBLE_GAPP_DISC_DATA_T cyBle_discoveryData =
  73:Generated_Source\PSoC4/ble.c **** {
  74:Generated_Source\PSoC4/ble.c ****     { 0x02u, 0x01u, 0x06u, 0x07u, 0x09u, 0x63u, 0x61u,
  75:Generated_Source\PSoC4/ble.c ****     0x70u, 0x6Cu, 0x65u, 0x64u, 0x11u, 0x07u, 0xF0u, 0x34u,
  76:Generated_Source\PSoC4/ble.c ****     0x9Bu, 0x5Fu, 0x80u, 0x00u, 0x00u, 0x80u, 0x00u, 0x10u,
  77:Generated_Source\PSoC4/ble.c ****     0x00u, 0x00u, 0x00u, 0x00u, 0x00u, 0x00u, 0x00u, 0x00u }, /* uint8 advertising_data[CYBLE_MAX_A
  78:Generated_Source\PSoC4/ble.c ****     0x1Du,      /* uint8 adv_data_length */
  79:Generated_Source\PSoC4/ble.c **** };
  80:Generated_Source\PSoC4/ble.c **** 
  81:Generated_Source\PSoC4/ble.c **** CYBLE_GAPP_SCAN_RSP_DATA_T cyBle_scanRspData =
  82:Generated_Source\PSoC4/ble.c **** {
  83:Generated_Source\PSoC4/ble.c ****     { 0x00u, 0x00u, 0x00u, 0x00u, 0x00u, 0x00u, 0x00u,
  84:Generated_Source\PSoC4/ble.c ****     0x00u, 0x00u, 0x00u, 0x00u, 0x00u, 0x00u, 0x00u, 0x00u,
  85:Generated_Source\PSoC4/ble.c ****     0x00u, 0x00u, 0x00u, 0x00u, 0x00u, 0x00u, 0x00u, 0x00u,
  86:Generated_Source\PSoC4/ble.c ****     0x00u, 0x00u, 0x00u, 0x00u, 0x00u, 0x00u, 0x00u, 0x00u }, /* uint8 scan_rsp_data[CYBLE_MAX_SCAN
  87:Generated_Source\PSoC4/ble.c ****     0x00u,      /* uint8 scan_rsp_data_length */
  88:Generated_Source\PSoC4/ble.c **** };
ARM GAS  C:\Users\Art\AppData\Local\Temp\ccqpb62o.s 			page 3


  89:Generated_Source\PSoC4/ble.c **** 
  90:Generated_Source\PSoC4/ble.c **** /* This variable of type CYBLE_GAPP_DISC_MODE_INFO_T is present only when 
  91:Generated_Source\PSoC4/ble.c ****    the BLE component is configured for Peripheral GAP role or Central and 
  92:Generated_Source\PSoC4/ble.c ****    Peripheral GAP role. It contains the Advertisement settings and also the 
  93:Generated_Source\PSoC4/ble.c ****    Advertisement and Scan response data parameters entered in the customizer.
  94:Generated_Source\PSoC4/ble.c ****    This variable can be used by advanced users to change Advertisement settings,
  95:Generated_Source\PSoC4/ble.c ****    Advertisement or Scan response data in runtime. 
  96:Generated_Source\PSoC4/ble.c **** */
  97:Generated_Source\PSoC4/ble.c **** CYBLE_GAPP_DISC_MODE_INFO_T cyBle_discoveryModeInfo =
  98:Generated_Source\PSoC4/ble.c **** {
  99:Generated_Source\PSoC4/ble.c ****     0x02u,      /* uint8 discMode */
 100:Generated_Source\PSoC4/ble.c ****     &cyBle_discoveryParam,
 101:Generated_Source\PSoC4/ble.c ****     &cyBle_discoveryData,
 102:Generated_Source\PSoC4/ble.c ****     &cyBle_scanRspData,
 103:Generated_Source\PSoC4/ble.c ****     0x0000u,    /* uint16 advTo */
 104:Generated_Source\PSoC4/ble.c **** };
 105:Generated_Source\PSoC4/ble.c **** 
 106:Generated_Source\PSoC4/ble.c **** 
 107:Generated_Source\PSoC4/ble.c **** #endif /* CYBLE_GAP_ROLE_PERIPHERAL || CYBLE_GAP_ROLE_BROADCASTER */
 108:Generated_Source\PSoC4/ble.c **** 
 109:Generated_Source\PSoC4/ble.c **** #if(CYBLE_GAP_ROLE_CENTRAL)
 110:Generated_Source\PSoC4/ble.c ****     
 111:Generated_Source\PSoC4/ble.c **** CYBLE_GAPC_CONN_PARAM_T cyBle_connectionParameters;
 112:Generated_Source\PSoC4/ble.c **** 
 113:Generated_Source\PSoC4/ble.c **** /* Connecting timeout is set to 30 seconds in CyBle_Init function. 
 114:Generated_Source\PSoC4/ble.c ****    Not zero value starts timer in CyBle_GapcConnectDevice API.
 115:Generated_Source\PSoC4/ble.c **** */
 116:Generated_Source\PSoC4/ble.c **** uint16 cyBle_connectingTimeout;
 117:Generated_Source\PSoC4/ble.c ****     
 118:Generated_Source\PSoC4/ble.c **** #endif /* CYBLE_GAP_ROLE_CENTRAL */
 119:Generated_Source\PSoC4/ble.c **** 
 120:Generated_Source\PSoC4/ble.c **** #if(CYBLE_GAP_ROLE_CENTRAL || CYBLE_GAP_ROLE_OBSERVER)
 121:Generated_Source\PSoC4/ble.c ****     
 122:Generated_Source\PSoC4/ble.c **** 
 123:Generated_Source\PSoC4/ble.c ****     
 124:Generated_Source\PSoC4/ble.c **** #endif /* CYBLE_GAP_ROLE_CENTRAL || CYBLE_GAP_ROLE_OBSERVER */
 125:Generated_Source\PSoC4/ble.c **** 
 126:Generated_Source\PSoC4/ble.c **** #if((CYBLE_GAP_ROLE_PERIPHERAL || CYBLE_GAP_ROLE_CENTRAL) && (CYBLE_BONDING_REQUIREMENT == CYBLE_BO
 127:Generated_Source\PSoC4/ble.c **** 
 128:Generated_Source\PSoC4/ble.c **** uint8 cyBle_peerBonding;
 129:Generated_Source\PSoC4/ble.c **** uint8 cyBle_pendingFlashWrite;
 130:Generated_Source\PSoC4/ble.c ****     
 131:Generated_Source\PSoC4/ble.c **** #if(CYBLE_GATT_DB_CCCD_COUNT != 0u)
 132:Generated_Source\PSoC4/ble.c ****     static uint8 cyBle_pendingFlashClearCccdHandle;
 133:Generated_Source\PSoC4/ble.c **** #endif /* CYBLE_GATT_DB_CCCD_COUNT != 0u */
 134:Generated_Source\PSoC4/ble.c ****     
 135:Generated_Source\PSoC4/ble.c **** #endif  /* (CYBLE_BONDING_REQUIREMENT == CYBLE_BONDING_YES) */
 136:Generated_Source\PSoC4/ble.c **** 
 137:Generated_Source\PSoC4/ble.c **** CYBLE_CALLBACK_T CyBle_ApplCallback;
 138:Generated_Source\PSoC4/ble.c **** CYBLE_GAP_BD_ADDR_T cyBle_deviceAddress = {{0x00u, 0x00u, 0x00u, 0x50u, 0xA0u, 0x00u}, 0x00u };
 139:Generated_Source\PSoC4/ble.c **** CYBLE_GAP_BD_ADDR_T * cyBle_sflashDeviceAddress = CYBLE_SFLASH_DEVICE_ADDRESS_PTR;
 140:Generated_Source\PSoC4/ble.c **** 
 141:Generated_Source\PSoC4/ble.c **** 
 142:Generated_Source\PSoC4/ble.c **** /******************************************************************************
 143:Generated_Source\PSoC4/ble.c **** * Function Name: CyBle_Init
 144:Generated_Source\PSoC4/ble.c **** ***************************************************************************//**
 145:Generated_Source\PSoC4/ble.c **** *
ARM GAS  C:\Users\Art\AppData\Local\Temp\ccqpb62o.s 			page 4


 146:Generated_Source\PSoC4/ble.c **** *   Initializes the component with the parameters set in the customizer.
 147:Generated_Source\PSoC4/ble.c **** * 
 148:Generated_Source\PSoC4/ble.c **** *  \return
 149:Generated_Source\PSoC4/ble.c **** *   None
 150:Generated_Source\PSoC4/ble.c **** * 
 151:Generated_Source\PSoC4/ble.c **** ******************************************************************************/
 152:Generated_Source\PSoC4/ble.c **** void CyBle_Init(void)
 153:Generated_Source\PSoC4/ble.c **** {
 154:Generated_Source\PSoC4/ble.c ****     cyBle_eventHandlerFlag = 0u;
 155:Generated_Source\PSoC4/ble.c ****     cyBle_busyStatus = CYBLE_STACK_STATE_FREE;
 156:Generated_Source\PSoC4/ble.c **** 
 157:Generated_Source\PSoC4/ble.c ****     #if(CYBLE_GAP_ROLE_PERIPHERAL || CYBLE_GAP_ROLE_BROADCASTER) 
 158:Generated_Source\PSoC4/ble.c ****         cyBle_advertisingIntervalType = CYBLE_ADVERTISING_FAST; 
 159:Generated_Source\PSoC4/ble.c ****     #endif /* (CYBLE_GAP_ROLE_PERIPHERAL || CYBLE_GAP_ROLE_BROADCASTER)  */
 160:Generated_Source\PSoC4/ble.c ****     #if(CYBLE_GAP_ROLE_CENTRAL || CYBLE_GAP_ROLE_OBSERVER)
 161:Generated_Source\PSoC4/ble.c ****         cyBle_scanningIntervalType = CYBLE_SCANNING_FAST; 
 162:Generated_Source\PSoC4/ble.c ****     #endif /* (CYBLE_GAP_ROLE_CENTRAL || CYBLE_GAP_ROLE_OBSERVER) */
 163:Generated_Source\PSoC4/ble.c ****         
 164:Generated_Source\PSoC4/ble.c ****     /* Init default connection parameters. 
 165:Generated_Source\PSoC4/ble.c ****        Application may change it before initiating a connection */
 166:Generated_Source\PSoC4/ble.c ****     #if(CYBLE_GAP_ROLE_CENTRAL)
 167:Generated_Source\PSoC4/ble.c ****         cyBle_connectionParameters.scanIntv = cyBle_discoveryInfo.scanIntv;
 168:Generated_Source\PSoC4/ble.c ****         cyBle_connectionParameters.scanWindow = cyBle_discoveryInfo.scanWindow;
 169:Generated_Source\PSoC4/ble.c ****         cyBle_connectionParameters.ownAddrType = cyBle_discoveryInfo.ownAddrType;
 170:Generated_Source\PSoC4/ble.c ****         cyBle_connectionParameters.initiatorFilterPolicy = cyBle_discoveryInfo.scanFilterPolicy;
 171:Generated_Source\PSoC4/ble.c ****         cyBle_connectionParameters.connIntvMin = CYBLE_GAPC_CONNECTION_INTERVAL_MIN;
 172:Generated_Source\PSoC4/ble.c ****         cyBle_connectionParameters.connIntvMax = CYBLE_GAPC_CONNECTION_INTERVAL_MAX;
 173:Generated_Source\PSoC4/ble.c ****         cyBle_connectionParameters.connLatency = CYBLE_GAPC_CONNECTION_SLAVE_LATENCY;
 174:Generated_Source\PSoC4/ble.c ****         cyBle_connectionParameters.supervisionTO = CYBLE_GAPC_CONNECTION_TIME_OUT;
 175:Generated_Source\PSoC4/ble.c ****         cyBle_connectionParameters.minCeLength = 0x0000u;
 176:Generated_Source\PSoC4/ble.c ****         cyBle_connectionParameters.maxCeLength = 0xFFFFu;
 177:Generated_Source\PSoC4/ble.c ****         
 178:Generated_Source\PSoC4/ble.c ****         cyBle_connectingTimeout = CYBLE_GAPC_CONNECTING_TIMEOUT;
 179:Generated_Source\PSoC4/ble.c ****     #endif /* CYBLE_GAP_ROLE_CENTRAL */
 180:Generated_Source\PSoC4/ble.c **** 
 181:Generated_Source\PSoC4/ble.c ****     CyBle_ServiceInit();
 182:Generated_Source\PSoC4/ble.c **** 
 183:Generated_Source\PSoC4/ble.c ****     #if((CYBLE_GAP_ROLE_PERIPHERAL || CYBLE_GAP_ROLE_CENTRAL) && (CYBLE_BONDING_REQUIREMENT == CYBL
 184:Generated_Source\PSoC4/ble.c ****         cyBle_pendingFlashWrite = 0u;
 185:Generated_Source\PSoC4/ble.c ****         cyBle_peerBonding = CYBLE_GAP_BONDING_NONE;
 186:Generated_Source\PSoC4/ble.c ****     #endif  /* (CYBLE_BONDING_REQUIREMENT == CYBLE_BONDING_YES) */
 187:Generated_Source\PSoC4/ble.c **** 
 188:Generated_Source\PSoC4/ble.c **** }
 189:Generated_Source\PSoC4/ble.c **** 
 190:Generated_Source\PSoC4/ble.c **** 
 191:Generated_Source\PSoC4/ble.c **** /******************************************************************************
 192:Generated_Source\PSoC4/ble.c **** * Function Name: CyBle_ServiceInit
 193:Generated_Source\PSoC4/ble.c **** ***************************************************************************//**
 194:Generated_Source\PSoC4/ble.c **** * 
 195:Generated_Source\PSoC4/ble.c **** *  Initializes all included services.
 196:Generated_Source\PSoC4/ble.c **** * 
 197:Generated_Source\PSoC4/ble.c **** * \return
 198:Generated_Source\PSoC4/ble.c **** *  None
 199:Generated_Source\PSoC4/ble.c **** * 
 200:Generated_Source\PSoC4/ble.c **** ******************************************************************************/
 201:Generated_Source\PSoC4/ble.c **** void CyBle_ServiceInit(void)
 202:Generated_Source\PSoC4/ble.c **** {
ARM GAS  C:\Users\Art\AppData\Local\Temp\ccqpb62o.s 			page 5


 203:Generated_Source\PSoC4/ble.c ****     #if(CYBLE_GATT_ROLE_CLIENT)
 204:Generated_Source\PSoC4/ble.c ****         /* Check service range before clearing to support partial discovery */
 205:Generated_Source\PSoC4/ble.c ****         if(cyBle_serverInfo[CYBLE_SRVI_GAP].range.startHandle == CYBLE_GATT_INVALID_ATTR_HANDLE_VAL
 206:Generated_Source\PSoC4/ble.c ****         {
 207:Generated_Source\PSoC4/ble.c ****             (void)memset(&cyBle_gapc, 0, sizeof(cyBle_gapc));
 208:Generated_Source\PSoC4/ble.c ****         }
 209:Generated_Source\PSoC4/ble.c ****         if(cyBle_serverInfo[CYBLE_SRVI_GATT].range.startHandle == CYBLE_GATT_INVALID_ATTR_HANDLE_VA
 210:Generated_Source\PSoC4/ble.c ****         {
 211:Generated_Source\PSoC4/ble.c ****             (void)memset(&cyBle_gattc, 0, sizeof(cyBle_gattc));
 212:Generated_Source\PSoC4/ble.c ****         }
 213:Generated_Source\PSoC4/ble.c ****     #endif /* CYBLE_GATT_ROLE_CLIENT */
 214:Generated_Source\PSoC4/ble.c **** 
 215:Generated_Source\PSoC4/ble.c ****    	#ifdef CYBLE_AIOS
 216:Generated_Source\PSoC4/ble.c ****         CyBle_AiosInit();
 217:Generated_Source\PSoC4/ble.c ****     #endif /* CYBLE_AIOS */
 218:Generated_Source\PSoC4/ble.c **** 
 219:Generated_Source\PSoC4/ble.c **** 	#ifdef CYBLE_ANCS
 220:Generated_Source\PSoC4/ble.c ****         CyBle_AncsInit();
 221:Generated_Source\PSoC4/ble.c ****     #endif /* CYBLE_ANCS */
 222:Generated_Source\PSoC4/ble.c **** 	
 223:Generated_Source\PSoC4/ble.c ****     #ifdef CYBLE_ANS
 224:Generated_Source\PSoC4/ble.c ****         CyBle_AnsInit();
 225:Generated_Source\PSoC4/ble.c ****     #endif /* CYBLE_ANS */
 226:Generated_Source\PSoC4/ble.c ****     
 227:Generated_Source\PSoC4/ble.c ****     #ifdef CYBLE_BAS
 228:Generated_Source\PSoC4/ble.c ****         CyBle_BasInit();
 229:Generated_Source\PSoC4/ble.c ****     #endif /* CYBLE_BAS */
 230:Generated_Source\PSoC4/ble.c ****     
 231:Generated_Source\PSoC4/ble.c ****     #ifdef CYBLE_BCS
 232:Generated_Source\PSoC4/ble.c ****         CyBle_BcsInit();
 233:Generated_Source\PSoC4/ble.c ****     #endif /* CYBLE_BCS */
 234:Generated_Source\PSoC4/ble.c **** 
 235:Generated_Source\PSoC4/ble.c ****     #ifdef CYBLE_BLS
 236:Generated_Source\PSoC4/ble.c ****         CyBle_BlsInit();
 237:Generated_Source\PSoC4/ble.c ****     #endif /* CYBLE_BLS */
 238:Generated_Source\PSoC4/ble.c ****     
 239:Generated_Source\PSoC4/ble.c ****     #ifdef CYBLE_BMS
 240:Generated_Source\PSoC4/ble.c ****         CyBle_BmsInit();
 241:Generated_Source\PSoC4/ble.c ****     #endif /* CYBLE_BMS */
 242:Generated_Source\PSoC4/ble.c ****     
 243:Generated_Source\PSoC4/ble.c ****     #ifdef CYBLE_CGMS
 244:Generated_Source\PSoC4/ble.c ****         CyBle_CgmsInit();
 245:Generated_Source\PSoC4/ble.c ****     #endif /* CYBLE_CGMS */
 246:Generated_Source\PSoC4/ble.c **** 
 247:Generated_Source\PSoC4/ble.c ****     #ifdef CYBLE_CPS
 248:Generated_Source\PSoC4/ble.c ****         CyBle_CpsInit();
 249:Generated_Source\PSoC4/ble.c ****     #endif /* CYBLE_CPS */
 250:Generated_Source\PSoC4/ble.c **** 
 251:Generated_Source\PSoC4/ble.c ****     #ifdef CYBLE_CSCS
 252:Generated_Source\PSoC4/ble.c ****         CyBle_CscsInit();
 253:Generated_Source\PSoC4/ble.c ****     #endif /* CYBLE_CSCS */
 254:Generated_Source\PSoC4/ble.c ****     
 255:Generated_Source\PSoC4/ble.c ****     #ifdef CYBLE_CTS
 256:Generated_Source\PSoC4/ble.c ****         CyBle_CtsInit();
 257:Generated_Source\PSoC4/ble.c ****     #endif /* CYBLE_CTS */
 258:Generated_Source\PSoC4/ble.c **** 
 259:Generated_Source\PSoC4/ble.c ****     #ifdef CYBLE_CUSTOM
ARM GAS  C:\Users\Art\AppData\Local\Temp\ccqpb62o.s 			page 6


 260:Generated_Source\PSoC4/ble.c ****         CyBle_CustomInit();
 261:Generated_Source\PSoC4/ble.c ****     #endif /* CYBLE_CUSTOM */
 262:Generated_Source\PSoC4/ble.c **** 
 263:Generated_Source\PSoC4/ble.c ****     #ifdef CYBLE_DIS
 264:Generated_Source\PSoC4/ble.c ****         CyBle_DisInit();
 265:Generated_Source\PSoC4/ble.c ****     #endif /* CYBLE_DIS */
 266:Generated_Source\PSoC4/ble.c **** 
 267:Generated_Source\PSoC4/ble.c ****     #ifdef CYBLE_ESS
 268:Generated_Source\PSoC4/ble.c ****         CyBle_EssInit();
 269:Generated_Source\PSoC4/ble.c ****     #endif /* CYBLE_ESS */
 270:Generated_Source\PSoC4/ble.c ****     
 271:Generated_Source\PSoC4/ble.c ****     #ifdef CYBLE_GLS
 272:Generated_Source\PSoC4/ble.c ****         CyBle_GlsInit();
 273:Generated_Source\PSoC4/ble.c ****     #endif /* CYBLE_GLS */
 274:Generated_Source\PSoC4/ble.c ****     
 275:Generated_Source\PSoC4/ble.c ****     #ifdef CYBLE_HIDS
 276:Generated_Source\PSoC4/ble.c ****         CyBle_HidsInit();
 277:Generated_Source\PSoC4/ble.c ****     #endif /* CYBLE_HIDS */
 278:Generated_Source\PSoC4/ble.c **** 
 279:Generated_Source\PSoC4/ble.c ****     #ifdef CYBLE_HPS
 280:Generated_Source\PSoC4/ble.c ****         CyBle_HpsInit();
 281:Generated_Source\PSoC4/ble.c ****     #endif /* CYBLE_HPS */
 282:Generated_Source\PSoC4/ble.c **** 
 283:Generated_Source\PSoC4/ble.c ****     #ifdef CYBLE_HRS
 284:Generated_Source\PSoC4/ble.c ****         CyBle_HrsInit();
 285:Generated_Source\PSoC4/ble.c ****     #endif /* CYBLE_HRS */
 286:Generated_Source\PSoC4/ble.c ****     
 287:Generated_Source\PSoC4/ble.c ****     #ifdef CYBLE_HTS
 288:Generated_Source\PSoC4/ble.c ****         CyBle_HtsInit();
 289:Generated_Source\PSoC4/ble.c ****     #endif /* CYBLE_RSCS */
 290:Generated_Source\PSoC4/ble.c **** 
 291:Generated_Source\PSoC4/ble.c ****     #ifdef CYBLE_IAS
 292:Generated_Source\PSoC4/ble.c ****         CyBle_IasInit();
 293:Generated_Source\PSoC4/ble.c ****     #endif /* CYBLE_IAS */
 294:Generated_Source\PSoC4/ble.c **** 
 295:Generated_Source\PSoC4/ble.c ****     #ifdef CYBLE_IPS
 296:Generated_Source\PSoC4/ble.c ****         CyBle_IpsInit();
 297:Generated_Source\PSoC4/ble.c ****     #endif /* CYBLE_IPS */
 298:Generated_Source\PSoC4/ble.c ****     
 299:Generated_Source\PSoC4/ble.c ****     #ifdef CYBLE_LLS
 300:Generated_Source\PSoC4/ble.c ****         CyBle_LlsInit();
 301:Generated_Source\PSoC4/ble.c ****     #endif /* CYBLE_LLS */
 302:Generated_Source\PSoC4/ble.c **** 
 303:Generated_Source\PSoC4/ble.c ****     #ifdef CYBLE_LNS
 304:Generated_Source\PSoC4/ble.c ****         CyBle_LnsInit();
 305:Generated_Source\PSoC4/ble.c ****     #endif /* CYBLE_LNS */
 306:Generated_Source\PSoC4/ble.c ****     
 307:Generated_Source\PSoC4/ble.c ****     #ifdef CYBLE_NDCS
 308:Generated_Source\PSoC4/ble.c ****         CyBle_NdcsInit();
 309:Generated_Source\PSoC4/ble.c ****     #endif /* CYBLE_NDCS */
 310:Generated_Source\PSoC4/ble.c ****     
 311:Generated_Source\PSoC4/ble.c ****     #ifdef CYBLE_PASS
 312:Generated_Source\PSoC4/ble.c ****         CyBle_PassInit();
 313:Generated_Source\PSoC4/ble.c ****     #endif /* CYBLE_PASS */
 314:Generated_Source\PSoC4/ble.c ****     
 315:Generated_Source\PSoC4/ble.c ****     #ifdef CYBLE_PLXS
 316:Generated_Source\PSoC4/ble.c ****         CyBle_PlxsInit();
ARM GAS  C:\Users\Art\AppData\Local\Temp\ccqpb62o.s 			page 7


 317:Generated_Source\PSoC4/ble.c ****     #endif /* CYBLE_PLXS */
 318:Generated_Source\PSoC4/ble.c ****     
 319:Generated_Source\PSoC4/ble.c ****     #ifdef CYBLE_RSCS
 320:Generated_Source\PSoC4/ble.c ****         CyBle_RscsInit();
 321:Generated_Source\PSoC4/ble.c ****     #endif /* CYBLE_RSCS */
 322:Generated_Source\PSoC4/ble.c **** 
 323:Generated_Source\PSoC4/ble.c ****     #ifdef CYBLE_RTUS
 324:Generated_Source\PSoC4/ble.c ****         CyBle_RtusInit();
 325:Generated_Source\PSoC4/ble.c ****     #endif /* CYBLE_RTUS */
 326:Generated_Source\PSoC4/ble.c **** 
 327:Generated_Source\PSoC4/ble.c ****     #ifdef CYBLE_SCPS
 328:Generated_Source\PSoC4/ble.c ****         CyBle_ScpsInit();
 329:Generated_Source\PSoC4/ble.c ****     #endif /* CYBLE_SCPS */
 330:Generated_Source\PSoC4/ble.c ****     
 331:Generated_Source\PSoC4/ble.c ****     #ifdef CYBLE_TPS
 332:Generated_Source\PSoC4/ble.c ****         CyBle_TpsInit();
 333:Generated_Source\PSoC4/ble.c ****     #endif /* CYBLE_TPS */
 334:Generated_Source\PSoC4/ble.c ****     
 335:Generated_Source\PSoC4/ble.c ****     #ifdef CYBLE_UDS
 336:Generated_Source\PSoC4/ble.c ****         CyBle_UdsInit();
 337:Generated_Source\PSoC4/ble.c ****     #endif /* CYBLE_UDS */
 338:Generated_Source\PSoC4/ble.c **** 
 339:Generated_Source\PSoC4/ble.c ****     #ifdef CYBLE_WPTS
 340:Generated_Source\PSoC4/ble.c ****         CyBle_WptsInit();
 341:Generated_Source\PSoC4/ble.c ****     #endif /* CYBLE_WPTS */
 342:Generated_Source\PSoC4/ble.c **** 
 343:Generated_Source\PSoC4/ble.c ****     #ifdef CYBLE_WSS
 344:Generated_Source\PSoC4/ble.c ****         CyBle_WssInit();
 345:Generated_Source\PSoC4/ble.c ****     #endif /* CYBLE_WSS */
 346:Generated_Source\PSoC4/ble.c **** }
 347:Generated_Source\PSoC4/ble.c **** 
 348:Generated_Source\PSoC4/ble.c **** 
 349:Generated_Source\PSoC4/ble.c **** /******************************************************************************
 350:Generated_Source\PSoC4/ble.c **** * Function Name: CyBle_Start
 351:Generated_Source\PSoC4/ble.c **** ***************************************************************************//**
 352:Generated_Source\PSoC4/ble.c **** * 
 353:Generated_Source\PSoC4/ble.c **** *  This function initializes the BLE Stack, which consists of the BLE Stack 
 354:Generated_Source\PSoC4/ble.c **** *  Manager, BLE Controller, and BLE Host modules. It takes care of initializing
 355:Generated_Source\PSoC4/ble.c **** *  the Profile layer, schedulers, Timer and other platform related
 356:Generated_Source\PSoC4/ble.c **** *  resources required for the BLE component. It also registers the callback 
 357:Generated_Source\PSoC4/ble.c **** *  function for BLE events that will be registered in the BLE stack.
 358:Generated_Source\PSoC4/ble.c **** * 
 359:Generated_Source\PSoC4/ble.c **** *  Note that this function does not reset the BLE Stack.
 360:Generated_Source\PSoC4/ble.c **** * 
 361:Generated_Source\PSoC4/ble.c **** *  For HCI-Mode of operation, this function will not initialize the BLE Host 
 362:Generated_Source\PSoC4/ble.c **** *  module.
 363:Generated_Source\PSoC4/ble.c **** * 
 364:Generated_Source\PSoC4/ble.c **** *  Calling this function results in the generation of CYBLE_EVT_STACK_ON event
 365:Generated_Source\PSoC4/ble.c **** *  on successful initialization of the BLE Stack.
 366:Generated_Source\PSoC4/ble.c **** * 
 367:Generated_Source\PSoC4/ble.c **** *  \param callbackFunc: Event callback function to receive events from BLE stack.
 368:Generated_Source\PSoC4/ble.c **** *   CYBLE_CALLBACK_T is a function pointer type.
 369:Generated_Source\PSoC4/ble.c **** * 
 370:Generated_Source\PSoC4/ble.c **** * \return
 371:Generated_Source\PSoC4/ble.c **** *  CYBLE_API_RESULT_T : Return value indicates if the function succeeded or 
 372:Generated_Source\PSoC4/ble.c **** *  failed. Following are the possible error codes.
 373:Generated_Source\PSoC4/ble.c **** * 
ARM GAS  C:\Users\Art\AppData\Local\Temp\ccqpb62o.s 			page 8


 374:Generated_Source\PSoC4/ble.c **** *   <table>
 375:Generated_Source\PSoC4/ble.c **** *  	  <tr>
 376:Generated_Source\PSoC4/ble.c **** *       <th>Error codes</th>
 377:Generated_Source\PSoC4/ble.c **** *       <th>Description</th>
 378:Generated_Source\PSoC4/ble.c **** *     </tr>
 379:Generated_Source\PSoC4/ble.c **** *     <tr>
 380:Generated_Source\PSoC4/ble.c **** *       <td>CYBLE_ERROR_OK</td>
 381:Generated_Source\PSoC4/ble.c **** *       <td>On successful operation.</td>
 382:Generated_Source\PSoC4/ble.c **** *     </tr>
 383:Generated_Source\PSoC4/ble.c **** *     <tr>
 384:Generated_Source\PSoC4/ble.c **** *       <td>CYBLE_ERROR_INVALID_PARAMETER</td>
 385:Generated_Source\PSoC4/ble.c **** *       <td>On passing a NULL pointer to the function. 
 386:Generated_Source\PSoC4/ble.c **** *		</td>
 387:Generated_Source\PSoC4/ble.c **** *     </tr>
 388:Generated_Source\PSoC4/ble.c **** *     <tr>
 389:Generated_Source\PSoC4/ble.c **** *       <td>CYBLE_ERROR_REPEATED_ATTEMPTS</td>
 390:Generated_Source\PSoC4/ble.c **** *       <td>On invoking this function more than once without calling CyBle_Shutdown() 
 391:Generated_Source\PSoC4/ble.c **** *           function between calls to this function.</td>
 392:Generated_Source\PSoC4/ble.c **** *     </tr>
 393:Generated_Source\PSoC4/ble.c **** *     <tr>
 394:Generated_Source\PSoC4/ble.c **** *       <td>CYBLE_ERROR_MEMORY_ALLOCATION_FAILED</td>
 395:Generated_Source\PSoC4/ble.c **** *       <td>There is insufficient memory available.</td>
 396:Generated_Source\PSoC4/ble.c **** *     </tr>
 397:Generated_Source\PSoC4/ble.c **** *   </table>
 398:Generated_Source\PSoC4/ble.c **** * 
 399:Generated_Source\PSoC4/ble.c **** *  \globalvars
 400:Generated_Source\PSoC4/ble.c **** *   The CyBle_initVar variable is used to indicate initial
 401:Generated_Source\PSoC4/ble.c **** *   configuration of this component. The variable is initialized to zero (0u)
 402:Generated_Source\PSoC4/ble.c **** *   and set to one (1u) the first time CyBle_Start() is called. This
 403:Generated_Source\PSoC4/ble.c **** *   allows for component initialization without re-initialization in all
 404:Generated_Source\PSoC4/ble.c **** *   subsequent calls to the CyBle_Start() routine.
 405:Generated_Source\PSoC4/ble.c **** * 
 406:Generated_Source\PSoC4/ble.c **** ******************************************************************************/
 407:Generated_Source\PSoC4/ble.c **** CYBLE_API_RESULT_T CyBle_Start(CYBLE_CALLBACK_T callbackFunc)
 408:Generated_Source\PSoC4/ble.c **** {
 409:Generated_Source\PSoC4/ble.c ****     CYBLE_API_RESULT_T apiResult = CYBLE_ERROR_OK;
 410:Generated_Source\PSoC4/ble.c ****     
 411:Generated_Source\PSoC4/ble.c ****     #if(CYBLE_MODE_PROFILE)
 412:Generated_Source\PSoC4/ble.c ****     
 413:Generated_Source\PSoC4/ble.c ****     CYBLE_STK_APP_DATA_BUFF_T cyBle_stackDataBuff[CYBLE_STACK_APP_MIN_POOL] = 
 414:Generated_Source\PSoC4/ble.c ****     {
 415:Generated_Source\PSoC4/ble.c ****         {CYBLE_GATT_MTU_PLUS_L2CAP_MEM_EXT, CYBLE_GATT_MTU_BUFF_COUNT + CYBLE_GATT_MAX_ATTR_BUFF_CO
 416:Generated_Source\PSoC4/ble.c ****         {CYBLE_L2CAP_PSM_PLUS_L2CAP_MEM_EXT, CYBLE_L2CAP_PSM_COUNT},
 417:Generated_Source\PSoC4/ble.c ****         {CYBLE_L2CAP_CBFC_PLUS_L2CAP_MEM_EXT, 2u * CYBLE_L2CAP_LOGICAL_CHANNEL_COUNT},
 418:Generated_Source\PSoC4/ble.c ****         {CYBLE_L2CAP_MTU_PLUS_L2CAP_MEM_EXT, CYBLE_L2CAP_LOGICAL_CHANNEL_COUNT},
 419:Generated_Source\PSoC4/ble.c ****         {CYBLE_L2CAP_MPS_PLUS_L2CAP_MEM_EXT, CYBLE_L2CAP_LOGICAL_CHANNEL_COUNT * (CYBLE_L2CAP_MTU_M
 420:Generated_Source\PSoC4/ble.c ****     }; 
 421:Generated_Source\PSoC4/ble.c **** 
 422:Generated_Source\PSoC4/ble.c ****     #endif /* CYBLE_MODE_PROFILE */
 423:Generated_Source\PSoC4/ble.c ****     
 424:Generated_Source\PSoC4/ble.c ****     /* If not initialized then initialize all the required hardware and software */
 425:Generated_Source\PSoC4/ble.c ****     if(cyBle_initVar == 0u)
 426:Generated_Source\PSoC4/ble.c ****     {
 427:Generated_Source\PSoC4/ble.c ****         CyBle_Init();
 428:Generated_Source\PSoC4/ble.c ****         cyBle_initVar = 1u;
 429:Generated_Source\PSoC4/ble.c ****     }
 430:Generated_Source\PSoC4/ble.c ****     
ARM GAS  C:\Users\Art\AppData\Local\Temp\ccqpb62o.s 			page 9


 431:Generated_Source\PSoC4/ble.c ****     if(callbackFunc != NULL)
 432:Generated_Source\PSoC4/ble.c ****     {
 433:Generated_Source\PSoC4/ble.c ****         CyBle_ApplCallback = callbackFunc;
 434:Generated_Source\PSoC4/ble.c ****         
 435:Generated_Source\PSoC4/ble.c ****     #if(CYBLE_SHARING_MODE_EXPORT)
 436:Generated_Source\PSoC4/ble.c ****         if(cyBle_stackMemoryRam == NULL)
 437:Generated_Source\PSoC4/ble.c ****         {
 438:Generated_Source\PSoC4/ble.c ****             cyBle_stackMemoryRam = (uint8 *)malloc(CYBLE_STACK_RAM_SIZE);
 439:Generated_Source\PSoC4/ble.c ****             if(cyBle_stackMemoryRam == NULL)
 440:Generated_Source\PSoC4/ble.c ****             {
 441:Generated_Source\PSoC4/ble.c ****                 apiResult = CYBLE_ERROR_MEMORY_ALLOCATION_FAILED;
 442:Generated_Source\PSoC4/ble.c ****             }
 443:Generated_Source\PSoC4/ble.c ****         }
 444:Generated_Source\PSoC4/ble.c ****     #endif /* CYBLE_SHARING_MODE_EXPORT */
 445:Generated_Source\PSoC4/ble.c ****         if(apiResult == CYBLE_ERROR_OK)
 446:Generated_Source\PSoC4/ble.c ****         {
 447:Generated_Source\PSoC4/ble.c ****             CYBLE_DLE_CONFIG_PARAM_T dleConfigParams;
 448:Generated_Source\PSoC4/ble.c ****             CYBLE_PRIVACY_1_2_CONFIG_PARAM_T privacyConfigParams;
 449:Generated_Source\PSoC4/ble.c ****             CYBLE_STACK_CONFIG_PARAM_T stackConfig;
 450:Generated_Source\PSoC4/ble.c ****             uint16 featureHeapReq;
 451:Generated_Source\PSoC4/ble.c ****             
 452:Generated_Source\PSoC4/ble.c ****             stackConfig.privacyConfig = &privacyConfigParams;
 453:Generated_Source\PSoC4/ble.c ****             stackConfig.dleConfig = &dleConfigParams;
 454:Generated_Source\PSoC4/ble.c ****             
 455:Generated_Source\PSoC4/ble.c ****             /* Configure default BLE 4.1 features and enabled 4.2 features */
 456:Generated_Source\PSoC4/ble.c ****             stackConfig.feature_mask = CYBLE_DLE_FEATURE | CYBLE_LL_PRIVACY_FEATURE | 
 457:Generated_Source\PSoC4/ble.c ****                                        CYBLE_SECURE_CONN_FEATURE;
 458:Generated_Source\PSoC4/ble.c **** 
 459:Generated_Source\PSoC4/ble.c ****             /* Configure DLE */
 460:Generated_Source\PSoC4/ble.c ****             dleConfigParams.dleMaxTxCapability = CYBLE_LL_MAX_TX_PAYLOAD_SIZE;
 461:Generated_Source\PSoC4/ble.c ****             dleConfigParams.dleMaxRxCapability = CYBLE_LL_MAX_RX_PAYLOAD_SIZE;
 462:Generated_Source\PSoC4/ble.c ****             dleConfigParams.dleNumTxBuffer = CYBLE_LL_DEFAULT_NUM_ACL_TX_PACKETS;
 463:Generated_Source\PSoC4/ble.c ****         #if(CYBLE_DLE_FEATURE_ENABLED)
 464:Generated_Source\PSoC4/ble.c ****             CyBle_EnableDleFeature();              /* Enable DLE code in stack */
 465:Generated_Source\PSoC4/ble.c ****         #endif /* CYBLE_DLE_FEATURE_ENABLED */
 466:Generated_Source\PSoC4/ble.c ****         
 467:Generated_Source\PSoC4/ble.c ****             /* Configure LL Privacy */
 468:Generated_Source\PSoC4/ble.c ****             privacyConfigParams.resolvingListSize = CYBLE_MAX_RESOLVABLE_DEVICES;
 469:Generated_Source\PSoC4/ble.c ****         #if(CYBLE_LL_PRIVACY_FEATURE_ENABLED)
 470:Generated_Source\PSoC4/ble.c ****             CyBle_EnablePrivacyFeature();          /* Enable LL Privacy code in stack */
 471:Generated_Source\PSoC4/ble.c ****         #endif /* CYBLE_LL_PRIVACY_FEATURE_ENABLED */
 472:Generated_Source\PSoC4/ble.c **** 
 473:Generated_Source\PSoC4/ble.c ****             apiResult = CyBle_StackSetFeatureConfig(&stackConfig, &featureHeapReq);
 474:Generated_Source\PSoC4/ble.c ****             }
 475:Generated_Source\PSoC4/ble.c ****     
 476:Generated_Source\PSoC4/ble.c ****         if(apiResult == CYBLE_ERROR_OK)
 477:Generated_Source\PSoC4/ble.c ****         {
 478:Generated_Source\PSoC4/ble.c ****         
 479:Generated_Source\PSoC4/ble.c ****         #if(CYBLE_MODE_PROFILE)
 480:Generated_Source\PSoC4/ble.c ****             #if(CYBLE_BONDING_REQUIREMENT == CYBLE_BONDING_YES)
 481:Generated_Source\PSoC4/ble.c ****                 apiResult = CyBle_StackInit(&CyBle_EventHandler, cyBle_stackMemoryRam, 
 482:Generated_Source\PSoC4/ble.c ****                     CYBLE_STACK_RAM_SIZE - CYBLE_GATT_PREPARE_WRITE_BUFF_LEN, cyBle_stackDataBuff, 
 483:Generated_Source\PSoC4/ble.c ****                     CYBLE_STACK_APP_MIN_POOL, cyBle_flashStorage.stackFlashptr, CYBLE_STACK_FLASH_S
 484:Generated_Source\PSoC4/ble.c ****             #else
 485:Generated_Source\PSoC4/ble.c ****                 apiResult = CyBle_StackInit(&CyBle_EventHandler, cyBle_stackMemoryRam, 
 486:Generated_Source\PSoC4/ble.c ****                     CYBLE_STACK_RAM_SIZE - CYBLE_GATT_PREPARE_WRITE_BUFF_LEN, cyBle_stackDataBuff, 
 487:Generated_Source\PSoC4/ble.c ****                     CYBLE_STACK_APP_MIN_POOL, NULL, 0u);
ARM GAS  C:\Users\Art\AppData\Local\Temp\ccqpb62o.s 			page 10


 488:Generated_Source\PSoC4/ble.c ****             #endif  /* CYBLE_BONDING_REQUIREMENT == CYBLE_BONDING_YES */
 489:Generated_Source\PSoC4/ble.c ****         #else /* HCI mode */
 490:Generated_Source\PSoC4/ble.c ****             /* The following will perform preparation to use HCI over UART or over
 491:Generated_Source\PSoC4/ble.c ****                software. But the following fucntions will not initialize the HCI
 492:Generated_Source\PSoC4/ble.c ****                Transport. This will be done as part of Stack initialization, so
 493:Generated_Source\PSoC4/ble.c ****                the functions should be called prior CyBle_StackInit().
 494:Generated_Source\PSoC4/ble.c ****             */
 495:Generated_Source\PSoC4/ble.c ****             #if (CYBLE_HCI_TYPE == CYBLE_HCI_OVER_UART)
 496:Generated_Source\PSoC4/ble.c ****                 CyBle_HciUartTransportEnable();
 497:Generated_Source\PSoC4/ble.c ****             #else
 498:Generated_Source\PSoC4/ble.c ****                 CyBle_HciSoftTransportEnable();
 499:Generated_Source\PSoC4/ble.c ****             #endif /* (CYBLE_HCI_TYPE == CYBLE_HCI_OVER_UART) */
 500:Generated_Source\PSoC4/ble.c ****             /* This will initialize BLE stack for HCI mode operation */
 501:Generated_Source\PSoC4/ble.c ****             apiResult = CyBle_StackInit(&CyBle_EventHandler, cyBle_stackMemoryRam, CYBLE_STACK_RAM_
 502:Generated_Source\PSoC4/ble.c ****                 NULL, 0u, NULL, 0u);
 503:Generated_Source\PSoC4/ble.c ****         #endif /* CYBLE_MODE_PROFILE */
 504:Generated_Source\PSoC4/ble.c **** 
 505:Generated_Source\PSoC4/ble.c ****             if(apiResult == CYBLE_ERROR_OK)
 506:Generated_Source\PSoC4/ble.c ****             {
 507:Generated_Source\PSoC4/ble.c ****                 CyBle_SetState(CYBLE_STATE_INITIALIZING);
 508:Generated_Source\PSoC4/ble.c ****                 
 509:Generated_Source\PSoC4/ble.c ****             #if (CYBLE_GATT_ROLE_CLIENT)
 510:Generated_Source\PSoC4/ble.c ****                 CyBle_SetClientState(CYBLE_CLIENT_STATE_DISCONNECTED);
 511:Generated_Source\PSoC4/ble.c ****             #endif /* CYBLE_GATT_ROLE_CLIENT */
 512:Generated_Source\PSoC4/ble.c ****                 
 513:Generated_Source\PSoC4/ble.c ****             #if(CYBLE_GATT_ROLE_SERVER)
 514:Generated_Source\PSoC4/ble.c ****                 apiResult = CyBle_GattsDbRegister(cyBle_gattDB, CYBLE_GATT_DB_INDEX_COUNT, CYBLE_GA
 515:Generated_Source\PSoC4/ble.c ****             #endif /* CYBLE_GATT_ROLE_SERVER */
 516:Generated_Source\PSoC4/ble.c ****             }
 517:Generated_Source\PSoC4/ble.c ****         }
 518:Generated_Source\PSoC4/ble.c ****     }
 519:Generated_Source\PSoC4/ble.c ****     else
 520:Generated_Source\PSoC4/ble.c ****     {
 521:Generated_Source\PSoC4/ble.c ****         apiResult = CYBLE_ERROR_INVALID_PARAMETER;
 522:Generated_Source\PSoC4/ble.c ****     }
 523:Generated_Source\PSoC4/ble.c **** 
 524:Generated_Source\PSoC4/ble.c ****     return (apiResult);
 525:Generated_Source\PSoC4/ble.c **** }
 526:Generated_Source\PSoC4/ble.c **** 
 527:Generated_Source\PSoC4/ble.c **** 
 528:Generated_Source\PSoC4/ble.c **** /******************************************************************************
 529:Generated_Source\PSoC4/ble.c **** * Function Name: CyBle_Stop
 530:Generated_Source\PSoC4/ble.c **** ***************************************************************************//**
 531:Generated_Source\PSoC4/ble.c **** * 
 532:Generated_Source\PSoC4/ble.c **** *  This function stops any ongoing operation in the BLE Stack and forces the 
 533:Generated_Source\PSoC4/ble.c **** *  BLE Stack to shut down. The only function that can be called after calling
 534:Generated_Source\PSoC4/ble.c **** *  this function is CyBle_Start(). 
 535:Generated_Source\PSoC4/ble.c **** * 
 536:Generated_Source\PSoC4/ble.c **** * \return
 537:Generated_Source\PSoC4/ble.c **** *  None
 538:Generated_Source\PSoC4/ble.c **** * 
 539:Generated_Source\PSoC4/ble.c **** ******************************************************************************/
 540:Generated_Source\PSoC4/ble.c **** void CyBle_Stop(void)
 541:Generated_Source\PSoC4/ble.c **** {
 542:Generated_Source\PSoC4/ble.c ****     CyBle_Shutdown();                         /* Stop all ongoing activities */
 543:Generated_Source\PSoC4/ble.c ****     CyBle_SetState(CYBLE_STATE_STOPPED);
 544:Generated_Source\PSoC4/ble.c ****     #if(CYBLE_SHARING_MODE_EXPORT)
ARM GAS  C:\Users\Art\AppData\Local\Temp\ccqpb62o.s 			page 11


 545:Generated_Source\PSoC4/ble.c ****         if(cyBle_stackMemoryRam != NULL)
 546:Generated_Source\PSoC4/ble.c ****         {
 547:Generated_Source\PSoC4/ble.c ****             free(cyBle_stackMemoryRam);
 548:Generated_Source\PSoC4/ble.c ****         }
 549:Generated_Source\PSoC4/ble.c ****     #endif /* CYBLE_SHARING_MODE_EXPORT */
 550:Generated_Source\PSoC4/ble.c **** }
 551:Generated_Source\PSoC4/ble.c **** 
 552:Generated_Source\PSoC4/ble.c **** 
 553:Generated_Source\PSoC4/ble.c **** #if((CYBLE_GAP_ROLE_PERIPHERAL || CYBLE_GAP_ROLE_CENTRAL) && (CYBLE_BONDING_REQUIREMENT == CYBLE_BO
 554:Generated_Source\PSoC4/ble.c **** 
 555:Generated_Source\PSoC4/ble.c ****     
 556:Generated_Source\PSoC4/ble.c **** /******************************************************************************
 557:Generated_Source\PSoC4/ble.c **** * Function Name: CyBle_StoreBondingData
 558:Generated_Source\PSoC4/ble.c **** ***************************************************************************//**
 559:Generated_Source\PSoC4/ble.c **** * 
 560:Generated_Source\PSoC4/ble.c **** *  This function writes the new bonding data from RAM to the dedicated Flash 
 561:Generated_Source\PSoC4/ble.c **** *  location as defined by the component. It performs data comparing between RAM
 562:Generated_Source\PSoC4/ble.c **** *  and Flash before writing to Flash. If there is no change between RAM and Flash
 563:Generated_Source\PSoC4/ble.c **** *  data, then no write is performed. It writes only one flash row in one call.
 564:Generated_Source\PSoC4/ble.c **** *  Application should keep calling this function till API return CYBLE_ERROR_OK. 
 565:Generated_Source\PSoC4/ble.c **** *  This function is available only when Bonding requirement is selected in
 566:Generated_Source\PSoC4/ble.c **** *  Security settings.    
 567:Generated_Source\PSoC4/ble.c **** * 
 568:Generated_Source\PSoC4/ble.c **** *  \param isForceWrite:  If value is set to 0, then stack will check if flash write 
 569:Generated_Source\PSoC4/ble.c **** *                 is permissible. 
 570:Generated_Source\PSoC4/ble.c **** *  
 571:Generated_Source\PSoC4/ble.c **** * \return
 572:Generated_Source\PSoC4/ble.c **** *  Return value is of type CYBLE_API_RESULT_T.
 573:Generated_Source\PSoC4/ble.c **** *
 574:Generated_Source\PSoC4/ble.c **** *   Errors codes                         | Description
 575:Generated_Source\PSoC4/ble.c **** *   ----------------------------------   | ------------------------------------
 576:Generated_Source\PSoC4/ble.c **** *   CYBLE_ERROR_OK                       | On successful operation
 577:Generated_Source\PSoC4/ble.c **** *   CYBLE_ERROR_FLASH_WRITE_NOT_PERMITED | Flash Write is not complete
 578:Generated_Source\PSoC4/ble.c **** *   CYBLE_ERROR_INVALID_PARAMETER        | Invalid input parameter  
 579:Generated_Source\PSoC4/ble.c **** *   CYBLE_ERROR_FLASH_WRITE              | Error in flash Write	
 580:Generated_Source\PSoC4/ble.c ****     
 581:Generated_Source\PSoC4/ble.c **** *  \sideeffect
 582:Generated_Source\PSoC4/ble.c **** *   For BLE devices with 128K of Flash memory this API will automatically 
 583:Generated_Source\PSoC4/ble.c **** *   modify the clock settings for the device.
 584:Generated_Source\PSoC4/ble.c **** *   Writing to flash requires changes to be done to the IMO (set to 48 MHz)
 585:Generated_Source\PSoC4/ble.c **** *   and HFCLK (source set to IMO) settings. The configuration is restored before
 586:Generated_Source\PSoC4/ble.c **** *   returning. This will impact the operation of most of the hardware in the
 587:Generated_Source\PSoC4/ble.c **** *   device.
 588:Generated_Source\PSoC4/ble.c **** * 
 589:Generated_Source\PSoC4/ble.c **** *  \globalvars
 590:Generated_Source\PSoC4/ble.c **** *   The cyBle_pendingFlashWrite variable is used to detect status
 591:Generated_Source\PSoC4/ble.c **** *   of pending write to flash operation for stack data and CCCD.
 592:Generated_Source\PSoC4/ble.c **** *   This API automatically clears pending bits after write operation complete.
 593:Generated_Source\PSoC4/ble.c **** *     
 594:Generated_Source\PSoC4/ble.c **** ******************************************************************************/
 595:Generated_Source\PSoC4/ble.c **** CYBLE_API_RESULT_T CyBle_StoreBondingData(uint8 isForceWrite)
 596:Generated_Source\PSoC4/ble.c **** {
 597:Generated_Source\PSoC4/ble.c ****     CYBLE_API_RESULT_T apiResult = CYBLE_ERROR_OK;
 598:Generated_Source\PSoC4/ble.c ****     
 599:Generated_Source\PSoC4/ble.c ****     /* Store Stack data */
 600:Generated_Source\PSoC4/ble.c ****     if((cyBle_pendingFlashWrite & CYBLE_PENDING_STACK_FLASH_WRITE_BIT) != 0u)
 601:Generated_Source\PSoC4/ble.c ****     {
ARM GAS  C:\Users\Art\AppData\Local\Temp\ccqpb62o.s 			page 12


 602:Generated_Source\PSoC4/ble.c ****         apiResult = CyBle_StoreStackData(isForceWrite);
 603:Generated_Source\PSoC4/ble.c ****         if(apiResult == CYBLE_ERROR_OK)
 604:Generated_Source\PSoC4/ble.c ****         {
 605:Generated_Source\PSoC4/ble.c ****             cyBle_pendingFlashWrite &= (uint8)~CYBLE_PENDING_STACK_FLASH_WRITE_BIT;
 606:Generated_Source\PSoC4/ble.c ****             /* Change apiResult if there are more pending data to store */
 607:Generated_Source\PSoC4/ble.c ****             if((cyBle_pendingFlashWrite & CYBLE_PENDING_CCCD_FLASH_WRITE_BIT) != 0u)
 608:Generated_Source\PSoC4/ble.c ****             {
 609:Generated_Source\PSoC4/ble.c ****                 apiResult = CYBLE_ERROR_FLASH_WRITE_NOT_PERMITED;
 610:Generated_Source\PSoC4/ble.c ****             }
 611:Generated_Source\PSoC4/ble.c ****         }
 612:Generated_Source\PSoC4/ble.c ****     }
 613:Generated_Source\PSoC4/ble.c **** #if(CYBLE_GATT_DB_CCCD_COUNT != 0u)
 614:Generated_Source\PSoC4/ble.c ****     /* Store CCCD values */
 615:Generated_Source\PSoC4/ble.c ****     if( ((apiResult == CYBLE_ERROR_OK) || (isForceWrite != 0u)) && 
 616:Generated_Source\PSoC4/ble.c ****         ((cyBle_pendingFlashWrite & CYBLE_PENDING_CCCD_FLASH_WRITE_BIT) != 0u) &&
 617:Generated_Source\PSoC4/ble.c ****         (cyBle_connHandle.bdHandle <= CYBLE_GAP_MAX_BONDED_DEVICE))
 618:Generated_Source\PSoC4/ble.c ****     {
 619:Generated_Source\PSoC4/ble.c ****         apiResult = CyBle_StoreAppData(cyBle_attValuesCCCD, cyBle_flashStorage.attValuesCCCDFlashMe
 620:Generated_Source\PSoC4/ble.c ****                         cyBle_connHandle.bdHandle], CYBLE_GATT_DB_CCCD_COUNT, isForceWrite);
 621:Generated_Source\PSoC4/ble.c ****         if(apiResult == CYBLE_ERROR_OK)
 622:Generated_Source\PSoC4/ble.c ****         {
 623:Generated_Source\PSoC4/ble.c ****             cyBle_pendingFlashWrite &= (uint8)~CYBLE_PENDING_CCCD_FLASH_WRITE_BIT;
 624:Generated_Source\PSoC4/ble.c ****         }
 625:Generated_Source\PSoC4/ble.c ****     }
 626:Generated_Source\PSoC4/ble.c ****     /* Clear requested CCCD values */
 627:Generated_Source\PSoC4/ble.c ****     if( ((apiResult == CYBLE_ERROR_OK) || (isForceWrite != 0u)) && 
 628:Generated_Source\PSoC4/ble.c ****         ((cyBle_pendingFlashWrite & CYBLE_PENDING_CCCD_FLASH_CLEAR_MASK) != 0u) )
 629:Generated_Source\PSoC4/ble.c ****     {
 630:Generated_Source\PSoC4/ble.c ****         if((cyBle_pendingFlashWrite & CYBLE_PENDING_CCCD_FLASH_CLEAR_ALL_BIT) != 0u)
 631:Generated_Source\PSoC4/ble.c ****         {
 632:Generated_Source\PSoC4/ble.c ****             /* Remove cccd values for all bonded devices */
 633:Generated_Source\PSoC4/ble.c ****             uint8 defaultValuesCCCD[CYBLE_GAP_MAX_BONDED_DEVICE + 1u][CYBLE_GATT_DB_CCCD_COUNT];
 634:Generated_Source\PSoC4/ble.c ****             
 635:Generated_Source\PSoC4/ble.c ****             (void)memset(defaultValuesCCCD, 0, sizeof(defaultValuesCCCD));
 636:Generated_Source\PSoC4/ble.c **** 
 637:Generated_Source\PSoC4/ble.c ****             apiResult = CyBle_StoreAppData((uint8 *)defaultValuesCCCD, 
 638:Generated_Source\PSoC4/ble.c ****                 (const uint8 *)cyBle_flashStorage.attValuesCCCDFlashMemory, sizeof(defaultValuesCCC
 639:Generated_Source\PSoC4/ble.c ****             if(apiResult == CYBLE_ERROR_OK)
 640:Generated_Source\PSoC4/ble.c ****             {
 641:Generated_Source\PSoC4/ble.c ****                 cyBle_pendingFlashWrite &= (uint8)~CYBLE_PENDING_CCCD_FLASH_CLEAR_ALL_BIT;
 642:Generated_Source\PSoC4/ble.c ****             }
 643:Generated_Source\PSoC4/ble.c ****         }
 644:Generated_Source\PSoC4/ble.c ****         else /* Remove cccd values for particular device */
 645:Generated_Source\PSoC4/ble.c ****         {
 646:Generated_Source\PSoC4/ble.c ****             uint8 defaultValuesCCCD[CYBLE_GATT_DB_CCCD_COUNT] = {0u};
 647:Generated_Source\PSoC4/ble.c ****             
 648:Generated_Source\PSoC4/ble.c ****             apiResult = CyBle_StoreAppData(defaultValuesCCCD, cyBle_flashStorage.attValuesCCCDFlash
 649:Generated_Source\PSoC4/ble.c ****                                     cyBle_pendingFlashClearCccdHandle], CYBLE_GATT_DB_CCCD_COUNT, i
 650:Generated_Source\PSoC4/ble.c ****             if(apiResult == CYBLE_ERROR_OK)
 651:Generated_Source\PSoC4/ble.c ****             {
 652:Generated_Source\PSoC4/ble.c ****                 cyBle_pendingFlashWrite &= (uint8)~CYBLE_PENDING_CCCD_FLASH_CLEAR_BIT;
 653:Generated_Source\PSoC4/ble.c ****             }
 654:Generated_Source\PSoC4/ble.c ****         }
 655:Generated_Source\PSoC4/ble.c ****     }
 656:Generated_Source\PSoC4/ble.c **** #endif /* CYBLE_GATT_DB_CCCD_COUNT != 0u */
 657:Generated_Source\PSoC4/ble.c ****     return(apiResult);
 658:Generated_Source\PSoC4/ble.c **** }
ARM GAS  C:\Users\Art\AppData\Local\Temp\ccqpb62o.s 			page 13


 659:Generated_Source\PSoC4/ble.c **** 
 660:Generated_Source\PSoC4/ble.c **** 
 661:Generated_Source\PSoC4/ble.c **** /******************************************************************************
 662:Generated_Source\PSoC4/ble.c **** * Function Name: CyBle_GapRemoveBondedDevice
 663:Generated_Source\PSoC4/ble.c **** ***************************************************************************//**
 664:Generated_Source\PSoC4/ble.c **** * 
 665:Generated_Source\PSoC4/ble.c **** *  This function marks the device untrusted. It removes the bonding information
 666:Generated_Source\PSoC4/ble.c **** *  of the device including CCCD values. This function removes device from the
 667:Generated_Source\PSoC4/ble.c **** *  white list also when autopopulate white list with bonded devices option is
 668:Generated_Source\PSoC4/ble.c **** *  enabled.
 669:Generated_Source\PSoC4/ble.c **** * 
 670:Generated_Source\PSoC4/ble.c **** *  This function is available only when Bonding requirement is selected in
 671:Generated_Source\PSoC4/ble.c **** *  Security settings.    
 672:Generated_Source\PSoC4/ble.c **** *
 673:Generated_Source\PSoC4/ble.c **** *  \param bdAddr: Pointer to peer device address, of type CYBLE_GAP_BD_ADDR_T.
 674:Generated_Source\PSoC4/ble.c **** *                 If device address is set to 0, then all devices shall be
 675:Generated_Source\PSoC4/ble.c **** *                 removed from trusted list and white list.
 676:Generated_Source\PSoC4/ble.c **** *
 677:Generated_Source\PSoC4/ble.c **** * \return
 678:Generated_Source\PSoC4/ble.c **** *  CYBLE_API_RESULT_T : Return value indicates if the function succeeded or
 679:Generated_Source\PSoC4/ble.c **** *  failed. Following are the possible error codes.
 680:Generated_Source\PSoC4/ble.c **** *
 681:Generated_Source\PSoC4/ble.c **** *   Errors codes                     | Description
 682:Generated_Source\PSoC4/ble.c **** *   ---------------------------------| ------------------------------------
 683:Generated_Source\PSoC4/ble.c **** *   CYBLE_ERROR_OK                   | On successful operation.
 684:Generated_Source\PSoC4/ble.c **** *   CYBLE_ERROR_INVALID_PARAMETER    | On specifying NULL as input parameter for 'bdAddr'.
 685:Generated_Source\PSoC4/ble.c **** *   CYBLE_ERROR_INVALID_OPERATION    | Whitelist is already in use or there is pending write to fla
 686:Generated_Source\PSoC4/ble.c **** *   CYBLE_ERROR_NO_DEVICE_ENTITY     | Device does not exist in the bond list.
 687:Generated_Source\PSoC4/ble.c **** *
 688:Generated_Source\PSoC4/ble.c **** *  \globalvars
 689:Generated_Source\PSoC4/ble.c **** *   The bdHandle is set in cyBle_pendingFlashWrite variable to indicate that
 690:Generated_Source\PSoC4/ble.c **** *   data should be stored to flash by CyBle_StoreBondingData afterwards. 
 691:Generated_Source\PSoC4/ble.c **** *     
 692:Generated_Source\PSoC4/ble.c **** ******************************************************************************/
 693:Generated_Source\PSoC4/ble.c **** CYBLE_API_RESULT_T CyBle_GapRemoveBondedDevice(CYBLE_GAP_BD_ADDR_T* bdAddr)
 694:Generated_Source\PSoC4/ble.c **** {
 695:Generated_Source\PSoC4/ble.c ****     CYBLE_API_RESULT_T apiResult = CYBLE_ERROR_OK;
 696:Generated_Source\PSoC4/ble.c ****     
 697:Generated_Source\PSoC4/ble.c ****     if(cyBle_pendingFlashWrite == 0u)
 698:Generated_Source\PSoC4/ble.c ****     {
 699:Generated_Source\PSoC4/ble.c ****         
 700:Generated_Source\PSoC4/ble.c ****     #if(CYBLE_GATT_DB_CCCD_COUNT != 0u)
 701:Generated_Source\PSoC4/ble.c ****         /* Request to clear CCCD values which will be done by CyBle_StoreBondingData API */
 702:Generated_Source\PSoC4/ble.c ****         uint8 bDevHandle;
 703:Generated_Source\PSoC4/ble.c ****         CYBLE_GAP_BD_ADDR_T invalidBdAddr = {{0u,0u,0u,0u,0u,0u}, 0u};
 704:Generated_Source\PSoC4/ble.c **** 
 705:Generated_Source\PSoC4/ble.c ****         if(memcmp(((uint8 *) &(bdAddr->bdAddr)), ((uint8 *) &(invalidBdAddr.bdAddr)), CYBLE_GAP_BD_
 706:Generated_Source\PSoC4/ble.c **** 	    {
 707:Generated_Source\PSoC4/ble.c ****             /* Request to remove all bonded devices by cyBle_StoreBondingData API */
 708:Generated_Source\PSoC4/ble.c ****             cyBle_pendingFlashWrite |= CYBLE_PENDING_CCCD_FLASH_CLEAR_ALL_BIT;
 709:Generated_Source\PSoC4/ble.c ****         }
 710:Generated_Source\PSoC4/ble.c ****         else
 711:Generated_Source\PSoC4/ble.c ****         {
 712:Generated_Source\PSoC4/ble.c ****             /* Get the BD handle from Address */
 713:Generated_Source\PSoC4/ble.c ****             apiResult = CyBle_GapGetPeerBdHandle(&bDevHandle, bdAddr);
 714:Generated_Source\PSoC4/ble.c ****             if(apiResult == CYBLE_ERROR_OK)
 715:Generated_Source\PSoC4/ble.c ****             {
ARM GAS  C:\Users\Art\AppData\Local\Temp\ccqpb62o.s 			page 14


 716:Generated_Source\PSoC4/ble.c ****                 /* Store BD handle to clear cccd values by CyBle_StoreBondingData API */
 717:Generated_Source\PSoC4/ble.c ****                 cyBle_pendingFlashWrite |= CYBLE_PENDING_CCCD_FLASH_CLEAR_BIT;
 718:Generated_Source\PSoC4/ble.c ****                 cyBle_pendingFlashClearCccdHandle = bDevHandle;
 719:Generated_Source\PSoC4/ble.c ****             }
 720:Generated_Source\PSoC4/ble.c ****         }
 721:Generated_Source\PSoC4/ble.c ****     #endif /* CYBLE_GATT_DB_CCCD_COUNT != 0u */
 722:Generated_Source\PSoC4/ble.c ****         if(apiResult == CYBLE_ERROR_OK)
 723:Generated_Source\PSoC4/ble.c ****         {
 724:Generated_Source\PSoC4/ble.c ****             apiResult = CyBle_GapRemoveDeviceFromWhiteList(bdAddr);
 725:Generated_Source\PSoC4/ble.c ****         }
 726:Generated_Source\PSoC4/ble.c ****     }
 727:Generated_Source\PSoC4/ble.c ****     else
 728:Generated_Source\PSoC4/ble.c ****     {
 729:Generated_Source\PSoC4/ble.c ****         apiResult = CYBLE_ERROR_INVALID_OPERATION;
 730:Generated_Source\PSoC4/ble.c ****     }
 731:Generated_Source\PSoC4/ble.c ****     
 732:Generated_Source\PSoC4/ble.c ****     return(apiResult);
 733:Generated_Source\PSoC4/ble.c **** }
 734:Generated_Source\PSoC4/ble.c **** 
 735:Generated_Source\PSoC4/ble.c **** 
 736:Generated_Source\PSoC4/ble.c **** #endif /* (CYBLE_GAP_ROLE_PERIPHERAL || CYBLE_GAP_ROLE_CENTRAL) && (CYBLE_BONDING_REQUIREMENT == CY
 737:Generated_Source\PSoC4/ble.c **** 
 738:Generated_Source\PSoC4/ble.c **** 
 739:Generated_Source\PSoC4/ble.c **** #if(CYBLE_GAP_ROLE_PERIPHERAL || CYBLE_GAP_ROLE_BROADCASTER)
 740:Generated_Source\PSoC4/ble.c **** 
 741:Generated_Source\PSoC4/ble.c ****     /******************************************************************************
 742:Generated_Source\PSoC4/ble.c ****     *  Function Name: CyBle_GappStartAdvertisement
 743:Generated_Source\PSoC4/ble.c ****     ***************************************************************************//**
 744:Generated_Source\PSoC4/ble.c ****     *     
 745:Generated_Source\PSoC4/ble.c ****     *  This function is used to start the advertisement using the advertisement data 
 746:Generated_Source\PSoC4/ble.c ****     *  set in the component customizer's GUI. After invoking this API, the device 
 747:Generated_Source\PSoC4/ble.c ****     *  will be available for connection by the devices configured for GAP central 
 748:Generated_Source\PSoC4/ble.c ****     *  role. It is only included if the device is configured for GAP Peripheral or 
 749:Generated_Source\PSoC4/ble.c ****     *  GAP Peripheral + Central role.
 750:Generated_Source\PSoC4/ble.c ****     *  
 751:Generated_Source\PSoC4/ble.c ****     *  On start of advertisement, GAP Peripheral receives the
 752:Generated_Source\PSoC4/ble.c ****     *  CYBLE_EVT_GAPP_ADVERTISEMENT_START_STOP event. The following events are 
 753:Generated_Source\PSoC4/ble.c ****     *  possible on invoking this function:
 754:Generated_Source\PSoC4/ble.c ****     *  
 755:Generated_Source\PSoC4/ble.c ****     *  * CYBLE_EVT_GAP_DEVICE_CONNECTED - If the device connects to a GAP Central and 
 756:Generated_Source\PSoC4/ble.c ****     *    Link Layer Privacy is disabled in component customizer.
 757:Generated_Source\PSoC4/ble.c ****     *  * CYBLE_EVT_GAP_ENHANCE_CONN_COMPLETE - If the device connects to a GAP Central and 
 758:Generated_Source\PSoC4/ble.c ****     *    Link Layer Privacy is enabled in component customizer.
 759:Generated_Source\PSoC4/ble.c ****     *  * CYBLE_EVT_TIMEOUT: If no device in GAP Central mode connects to this 
 760:Generated_Source\PSoC4/ble.c ****     *                       device within the specified timeout limit. Stack 
 761:Generated_Source\PSoC4/ble.c ****     *                       automatically initiate stop advertising when Slow 
 762:Generated_Source\PSoC4/ble.c ****     *                       advertising was initiated, or starts Slow advertising
 763:Generated_Source\PSoC4/ble.c ****     *                       after Fast advertising timeout occur.
 764:Generated_Source\PSoC4/ble.c ****     *  * CYBLE_EVT_GAPP_ADVERTISEMENT_START_STOP: If device started or stopped
 765:Generated_Source\PSoC4/ble.c ****     *                                               advertising. Use CyBle_GetState()
 766:Generated_Source\PSoC4/ble.c ****     *                                               to determine the state. Sequential 
 767:Generated_Source\PSoC4/ble.c ****     *                                               advertising could be started when
 768:Generated_Source\PSoC4/ble.c ****     *                                               CYBLE_STATE_DISCONNECTED state is
 769:Generated_Source\PSoC4/ble.c ****     *                                               returned.
 770:Generated_Source\PSoC4/ble.c ****     * 
 771:Generated_Source\PSoC4/ble.c ****     *  \param advertisingIntervalType: Fast or slow advertising interval with timings
 772:Generated_Source\PSoC4/ble.c ****     *                                 entered in Advertising settings section of the
ARM GAS  C:\Users\Art\AppData\Local\Temp\ccqpb62o.s 			page 15


 773:Generated_Source\PSoC4/ble.c ****     *                                 customizer.
 774:Generated_Source\PSoC4/ble.c ****     *  * CYBLE_ADVERTISING_FAST   0x00u
 775:Generated_Source\PSoC4/ble.c ****     *  * CYBLE_ADVERTISING_SLOW   0x01u
 776:Generated_Source\PSoC4/ble.c ****     *  * CYBLE_ADVERTISING_CUSTOM 0x02u
 777:Generated_Source\PSoC4/ble.c ****     * 
 778:Generated_Source\PSoC4/ble.c ****     * \return
 779:Generated_Source\PSoC4/ble.c ****     *  CYBLE_API_RESULT_T : Return value indicates if the function succeeded or
 780:Generated_Source\PSoC4/ble.c ****     *  failed. Following are the possible error codes.
 781:Generated_Source\PSoC4/ble.c ****     * 
 782:Generated_Source\PSoC4/ble.c ****     *   Errors codes                      |  Description
 783:Generated_Source\PSoC4/ble.c ****     *   --------------------------------- |  --------------------------------
 784:Generated_Source\PSoC4/ble.c ****     *   CYBLE_ERROR_OK                    |  On successful operation.
 785:Generated_Source\PSoC4/ble.c ****     *   CYBLE_ERROR_INVALID_PARAMETER     |  On passing an invalid parameter.
 786:Generated_Source\PSoC4/ble.c ****     *   CYBLE_ERROR_INVALID_STATE         |  On calling this API not in Disconnected state.
 787:Generated_Source\PSoC4/ble.c ****     *
 788:Generated_Source\PSoC4/ble.c ****     * 
 789:Generated_Source\PSoC4/ble.c ****     *******************************************************************************/
 790:Generated_Source\PSoC4/ble.c ****     CYBLE_API_RESULT_T CyBle_GappStartAdvertisement(uint8 advertisingIntervalType)
 791:Generated_Source\PSoC4/ble.c ****     {
 792:Generated_Source\PSoC4/ble.c ****         CYBLE_API_RESULT_T apiResult;
 793:Generated_Source\PSoC4/ble.c ****         
 794:Generated_Source\PSoC4/ble.c ****         if(advertisingIntervalType > CYBLE_ADVERTISING_CUSTOM)
 795:Generated_Source\PSoC4/ble.c ****         {
 796:Generated_Source\PSoC4/ble.c ****             apiResult = CYBLE_ERROR_INVALID_PARAMETER;
 797:Generated_Source\PSoC4/ble.c ****         }
 798:Generated_Source\PSoC4/ble.c ****         else if((CYBLE_STATE_DISCONNECTED == CyBle_GetState()) && ((cyBle_eventHandlerFlag & CYBLE_
 799:Generated_Source\PSoC4/ble.c ****         {   
 800:Generated_Source\PSoC4/ble.c ****             if(advertisingIntervalType == CYBLE_ADVERTISING_FAST)
 801:Generated_Source\PSoC4/ble.c ****             {
 802:Generated_Source\PSoC4/ble.c ****                 cyBle_discoveryModeInfo.advTo = CYBLE_FAST_ADV_TIMEOUT;
 803:Generated_Source\PSoC4/ble.c ****                 cyBle_discoveryModeInfo.advParam->advIntvMin = CYBLE_FAST_ADV_INT_MIN;
 804:Generated_Source\PSoC4/ble.c ****                 cyBle_discoveryModeInfo.advParam->advIntvMax = CYBLE_FAST_ADV_INT_MAX;
 805:Generated_Source\PSoC4/ble.c ****             }
 806:Generated_Source\PSoC4/ble.c ****             else if(advertisingIntervalType == CYBLE_ADVERTISING_SLOW)
 807:Generated_Source\PSoC4/ble.c ****             {
 808:Generated_Source\PSoC4/ble.c ****                 cyBle_discoveryModeInfo.advTo = CYBLE_SLOW_ADV_TIMEOUT;
 809:Generated_Source\PSoC4/ble.c ****                 cyBle_discoveryModeInfo.advParam->advIntvMin = CYBLE_SLOW_ADV_INT_MIN;
 810:Generated_Source\PSoC4/ble.c ****                 cyBle_discoveryModeInfo.advParam->advIntvMax = CYBLE_SLOW_ADV_INT_MAX;
 811:Generated_Source\PSoC4/ble.c ****             }       
 812:Generated_Source\PSoC4/ble.c ****             else /* Do not update advertising intervals */
 813:Generated_Source\PSoC4/ble.c ****             {
 814:Generated_Source\PSoC4/ble.c ****             }
 815:Generated_Source\PSoC4/ble.c ****             cyBle_advertisingIntervalType = advertisingIntervalType;
 816:Generated_Source\PSoC4/ble.c ****             apiResult = CyBle_GappEnterDiscoveryMode(&cyBle_discoveryModeInfo);
 817:Generated_Source\PSoC4/ble.c ****         
 818:Generated_Source\PSoC4/ble.c ****             if(apiResult == CYBLE_ERROR_OK)
 819:Generated_Source\PSoC4/ble.c ****             {
 820:Generated_Source\PSoC4/ble.c ****                 cyBle_eventHandlerFlag |= CYBLE_START_FLAG;
 821:Generated_Source\PSoC4/ble.c ****             }
 822:Generated_Source\PSoC4/ble.c ****         }
 823:Generated_Source\PSoC4/ble.c ****         else
 824:Generated_Source\PSoC4/ble.c ****         {
 825:Generated_Source\PSoC4/ble.c ****             apiResult = CYBLE_ERROR_INVALID_STATE;
 826:Generated_Source\PSoC4/ble.c ****         }
 827:Generated_Source\PSoC4/ble.c **** 
 828:Generated_Source\PSoC4/ble.c ****         return (apiResult);
 829:Generated_Source\PSoC4/ble.c ****     }
ARM GAS  C:\Users\Art\AppData\Local\Temp\ccqpb62o.s 			page 16


 830:Generated_Source\PSoC4/ble.c **** 
 831:Generated_Source\PSoC4/ble.c ****     
 832:Generated_Source\PSoC4/ble.c ****     /******************************************************************************
 833:Generated_Source\PSoC4/ble.c ****     * Function Name: CyBle_GappStopAdvertisement
 834:Generated_Source\PSoC4/ble.c ****     ***************************************************************************//**
 835:Generated_Source\PSoC4/ble.c ****     * 
 836:Generated_Source\PSoC4/ble.c ****     *   This function can be used to exit from discovery mode. After the execution 
 837:Generated_Source\PSoC4/ble.c ****     *   of this function, there will no longer be any advertisements. On stopping 
 838:Generated_Source\PSoC4/ble.c ****     *   advertising, GAP Peripheral receives CYBLE_EVT_GAPP_ADVERTISEMENT_START_STOP
 839:Generated_Source\PSoC4/ble.c ****     *   event. It is expected that the application layer tracks the function call 
 840:Generated_Source\PSoC4/ble.c ****     *   performed before occurrence of this event as this event can occur on making 
 841:Generated_Source\PSoC4/ble.c ****     *   a call to Cy_BleGappStartAdvertisement(), CyBle_GappEnterDiscoveryMode(), 
 842:Generated_Source\PSoC4/ble.c ****     *   or CyBle_GappStartAdvertisement() functions as well.
 843:Generated_Source\PSoC4/ble.c ****     *   
 844:Generated_Source\PSoC4/ble.c ****     *   The following event occurs on invoking this function:
 845:Generated_Source\PSoC4/ble.c ****     *   * CYBLE_EVT_GAPP_ADVERTISEMENT_START_STOP
 846:Generated_Source\PSoC4/ble.c ****     * 
 847:Generated_Source\PSoC4/ble.c ****     *  \return
 848:Generated_Source\PSoC4/ble.c ****     *   None
 849:Generated_Source\PSoC4/ble.c ****     * 
 850:Generated_Source\PSoC4/ble.c ****     *******************************************************************************/
 851:Generated_Source\PSoC4/ble.c ****     void CyBle_GappStopAdvertisement(void)
 852:Generated_Source\PSoC4/ble.c ****     {
 853:Generated_Source\PSoC4/ble.c ****         CyBle_GappExitDiscoveryMode();
 854:Generated_Source\PSoC4/ble.c ****         cyBle_eventHandlerFlag |= CYBLE_STOP_FLAG;
 855:Generated_Source\PSoC4/ble.c ****     }
 856:Generated_Source\PSoC4/ble.c ****     
 857:Generated_Source\PSoC4/ble.c ****     
 858:Generated_Source\PSoC4/ble.c ****     /******************************************************************************
 859:Generated_Source\PSoC4/ble.c ****     * Function Name: CyBle_ChangeAdDeviceAddress
 860:Generated_Source\PSoC4/ble.c ****     ***************************************************************************//**
 861:Generated_Source\PSoC4/ble.c ****     * 
 862:Generated_Source\PSoC4/ble.c ****     *  This API is used to set the Bluetooth device address into the advertisement 
 863:Generated_Source\PSoC4/ble.c ****     *  or scan response data structure.
 864:Generated_Source\PSoC4/ble.c ****     * 
 865:Generated_Source\PSoC4/ble.c ****     *  \param bdAddr: Bluetooth Device address. The variable is of type CYBLE_GAP_BD_ADDR_T
 866:Generated_Source\PSoC4/ble.c ****     *  \param dest: 0 - selects advertisement structure, not zero value selects scan 
 867:Generated_Source\PSoC4/ble.c ****     *               response structure.
 868:Generated_Source\PSoC4/ble.c ****     * 
 869:Generated_Source\PSoC4/ble.c ****     * \return
 870:Generated_Source\PSoC4/ble.c ****     *  None
 871:Generated_Source\PSoC4/ble.c ****     *  
 872:Generated_Source\PSoC4/ble.c ****     *******************************************************************************/
 873:Generated_Source\PSoC4/ble.c ****     void CyBle_ChangeAdDeviceAddress(const CYBLE_GAP_BD_ADDR_T* bdAddr, uint8 dest)
 874:Generated_Source\PSoC4/ble.c ****     {
 875:Generated_Source\PSoC4/ble.c ****         uint8 i;
 876:Generated_Source\PSoC4/ble.c ****         uint8 *destBuffer = NULL;
 877:Generated_Source\PSoC4/ble.c ****         
 878:Generated_Source\PSoC4/ble.c ****         if(dest == 0u)      /* Destination - advertising structure */
 879:Generated_Source\PSoC4/ble.c ****         {
 880:Generated_Source\PSoC4/ble.c ****             #ifdef CYBLE_ADV_PKT_INDEX_BLUETOOTH_DEVICE_ADDRESS
 881:Generated_Source\PSoC4/ble.c ****                 destBuffer = &cyBle_discoveryData.advData[CYBLE_ADV_PKT_INDEX_BLUETOOTH_DEVICE_ADDR
 882:Generated_Source\PSoC4/ble.c ****             #endif /* CYBLE_ADV_PKT_INDEX_BLUETOOTH_DEVICE_ADDRESS */
 883:Generated_Source\PSoC4/ble.c ****         }
 884:Generated_Source\PSoC4/ble.c ****         else                /* Destination - scan response structure */
 885:Generated_Source\PSoC4/ble.c ****         {
 886:Generated_Source\PSoC4/ble.c ****             #ifdef CYBLE_SCN_PKT_INDEX_BLUETOOTH_DEVICE_ADDRESS
ARM GAS  C:\Users\Art\AppData\Local\Temp\ccqpb62o.s 			page 17


 887:Generated_Source\PSoC4/ble.c ****                 destBuffer = &cyBle_scanRspData.scanRspData[CYBLE_SCN_PKT_INDEX_BLUETOOTH_DEVICE_AD
 888:Generated_Source\PSoC4/ble.c ****             #endif /* CYBLE_SCN_PKT_INDEX_BLUETOOTH_DEVICE_ADDRESS */    
 889:Generated_Source\PSoC4/ble.c ****         }
 890:Generated_Source\PSoC4/ble.c ****         
 891:Generated_Source\PSoC4/ble.c ****         if(destBuffer != NULL)
 892:Generated_Source\PSoC4/ble.c ****         {
 893:Generated_Source\PSoC4/ble.c ****             /* Update Device Address type */
 894:Generated_Source\PSoC4/ble.c ****             destBuffer[0u] = bdAddr->type;
 895:Generated_Source\PSoC4/ble.c ****             
 896:Generated_Source\PSoC4/ble.c ****             for(i = 0u; i < CYBLE_GAP_BD_ADDR_SIZE; i++)
 897:Generated_Source\PSoC4/ble.c ****             {
 898:Generated_Source\PSoC4/ble.c ****                 destBuffer[i + 1u] = bdAddr->bdAddr[i];
 899:Generated_Source\PSoC4/ble.c ****             }
 900:Generated_Source\PSoC4/ble.c ****         }
 901:Generated_Source\PSoC4/ble.c ****     }
 902:Generated_Source\PSoC4/ble.c ****   
 903:Generated_Source\PSoC4/ble.c **** #endif /* CYBLE_GAP_ROLE_PERIPHERAL || CYBLE_GAP_ROLE_BROADCASTER */
 904:Generated_Source\PSoC4/ble.c **** 
 905:Generated_Source\PSoC4/ble.c **** 
 906:Generated_Source\PSoC4/ble.c **** #if(CYBLE_GAP_ROLE_CENTRAL || CYBLE_GAP_ROLE_OBSERVER)
 907:Generated_Source\PSoC4/ble.c **** 
 908:Generated_Source\PSoC4/ble.c ****     /******************************************************************************
 909:Generated_Source\PSoC4/ble.c ****     * Function Name: CyBle_GapcStartScan
 910:Generated_Source\PSoC4/ble.c ****     ***************************************************************************//**
 911:Generated_Source\PSoC4/ble.c ****     * 
 912:Generated_Source\PSoC4/ble.c ****     *   This function is used for discovering GAP peripheral devices that are 
 913:Generated_Source\PSoC4/ble.c ****     *   available for connection. It performs the scanning routine using the 
 914:Generated_Source\PSoC4/ble.c ****     *   parameters entered in the component's customizer.
 915:Generated_Source\PSoC4/ble.c ****     *   
 916:Generated_Source\PSoC4/ble.c ****     *   As soon as the discovery operation starts, CYBLE_EVT_GAPC_SCAN_START_STOP 
 917:Generated_Source\PSoC4/ble.c ****     *   event is generated. The CYBLE_EVT_GAPC_SCAN_PROGRESS_RESULT event is 
 918:Generated_Source\PSoC4/ble.c ****     *   generated when a GAP peripheral device is located. There are three discovery
 919:Generated_Source\PSoC4/ble.c ****     *   procedures can be selected in the customizer's GUI:
 920:Generated_Source\PSoC4/ble.c ****     *   
 921:Generated_Source\PSoC4/ble.c ****     *   * Observation procedure: A device performing the observer role receives only
 922:Generated_Source\PSoC4/ble.c ****     *                            advertisement data from devices irrespective of 
 923:Generated_Source\PSoC4/ble.c ****     *                            their discoverable mode settings. Advertisement 
 924:Generated_Source\PSoC4/ble.c ****     *                            data received is provided by the event,      
 925:Generated_Source\PSoC4/ble.c ****     *                            CYBLE_EVT_GAPC_SCAN_PROGRESS_RESULT. This procedure
 926:Generated_Source\PSoC4/ble.c ****     *                            requires the scanType sub parameter to be passive
 927:Generated_Source\PSoC4/ble.c ****     *                            scanning. 
 928:Generated_Source\PSoC4/ble.c ****     *   
 929:Generated_Source\PSoC4/ble.c ****     *   * Limited Discovery procedure: A device performing the limited discovery
 930:Generated_Source\PSoC4/ble.c ****     *                                  procedure receives advertisement data and 
 931:Generated_Source\PSoC4/ble.c ****     *                                  scan# response data from devices in the 
 932:Generated_Source\PSoC4/ble.c ****     *                                  limited discoverable mode only. Received data
 933:Generated_Source\PSoC4/ble.c ****     *                                  is provided by the event, 
 934:Generated_Source\PSoC4/ble.c ****     *                                  CYBLE_EVT_GAPC_SCAN_PROGRESS_RESULT. This 
 935:Generated_Source\PSoC4/ble.c ****     *                                  procedure requires the scanType sub-parameter 
 936:Generated_Source\PSoC4/ble.c ****     *                                  to be active scanning.
 937:Generated_Source\PSoC4/ble.c ****     *   
 938:Generated_Source\PSoC4/ble.c ****     *   * General Discovery procedure: A device performing the general discovery 
 939:Generated_Source\PSoC4/ble.c ****     *                                  procedure receives the advertisement data and
 940:Generated_Source\PSoC4/ble.c ****     *                                  scan response data from devices in both 
 941:Generated_Source\PSoC4/ble.c ****     *                                  limited discoverable mode and the general 
 942:Generated_Source\PSoC4/ble.c ****     *                                  discoverable mode. Received data is provided
 943:Generated_Source\PSoC4/ble.c ****     *                                  by the event,
ARM GAS  C:\Users\Art\AppData\Local\Temp\ccqpb62o.s 			page 18


 944:Generated_Source\PSoC4/ble.c ****     *                                  CYBLE_EVT_GAPC_SCAN_PROGRESS_RESULT. This 
 945:Generated_Source\PSoC4/ble.c ****     *                                  procedure requires the scanType sub-parameter
 946:Generated_Source\PSoC4/ble.c ****     *                                  to be active scanning.
 947:Generated_Source\PSoC4/ble.c ****     *   
 948:Generated_Source\PSoC4/ble.c ****     *   Every Advertisement / Scan response packet received results in a new event, 
 949:Generated_Source\PSoC4/ble.c ****     *   CYBLE_EVT_GAPC_SCAN_PROGRESS_RESULT.
 950:Generated_Source\PSoC4/ble.c ****     *   If 'scanTo' sub-parameter is a non-zero value, then upon commencement of 
 951:Generated_Source\PSoC4/ble.c ****     *   discovery procedure and elapsed time = 'scanTo', CYBLE_EVT_TIMEOUT event
 952:Generated_Source\PSoC4/ble.c ****     *   is generated with the event parameter indicating CYBLE_GAP_SCAN_TO.
 953:Generated_Source\PSoC4/ble.c ****     *   Possible generated events are:
 954:Generated_Source\PSoC4/ble.c ****     *   * CYBLE_EVT_GAPC_SCAN_START_STOP: If a device started or stopped scanning. 
 955:Generated_Source\PSoC4/ble.c ****     *                                     Use CyBle_GetState() to determine the 
 956:Generated_Source\PSoC4/ble.c ****     *                                     state. Sequential scanning could be 
 957:Generated_Source\PSoC4/ble.c ****     *                                     started when CYBLE_STATE_DISCONNECTED 
 958:Generated_Source\PSoC4/ble.c ****     *                                     state is returned. 
 959:Generated_Source\PSoC4/ble.c ****     *   * CYBLE_EVT_GAPC_SCAN_PROGRESS_RESULT 
 960:Generated_Source\PSoC4/ble.c ****     *   * CYBLE_EVT_TIMEOUT (CYBLE_GAP_SCAN_TO)
 961:Generated_Source\PSoC4/ble.c ****     * 
 962:Generated_Source\PSoC4/ble.c ****     *   \param scanningIntervalType:  Fast or slow scanning interval with
 963:Generated_Source\PSoC4/ble.c ****     *       timings entered in Scan settings section of the customizer.
 964:Generated_Source\PSoC4/ble.c ****     * 	  * CYBLE_SCANNING_FAST   0x00u
 965:Generated_Source\PSoC4/ble.c ****     * 	  * CYBLE_SCANNING_SLOW   0x01u
 966:Generated_Source\PSoC4/ble.c ****     * 	  * CYBLE_SCANNING_CUSTOM 0x02u
 967:Generated_Source\PSoC4/ble.c ****     * 
 968:Generated_Source\PSoC4/ble.c ****     * \return
 969:Generated_Source\PSoC4/ble.c ****     *  CYBLE_API_RESULT_T : Return value indicates if the function succeeded or
 970:Generated_Source\PSoC4/ble.c ****     *  failed. Following are the possible error codes.
 971:Generated_Source\PSoC4/ble.c ****     *
 972:Generated_Source\PSoC4/ble.c ****     *   Errors codes                       | Description
 973:Generated_Source\PSoC4/ble.c ****     *   ---------------------------------- | -----------------------------------
 974:Generated_Source\PSoC4/ble.c ****     *   CYBLE_ERROR_OK                     | On successful operation.
 975:Generated_Source\PSoC4/ble.c ****     *   CYBLE_ERROR_STACK_INTERNAL         | An error occurred in the BLE stack.
 976:Generated_Source\PSoC4/ble.c ****     *   CYBLE_ERROR_INVALID_PARAMETER      | On passing an invalid parameter.
 977:Generated_Source\PSoC4/ble.c ****     *  
 978:Generated_Source\PSoC4/ble.c ****     *******************************************************************************/
 979:Generated_Source\PSoC4/ble.c ****     CYBLE_API_RESULT_T CyBle_GapcStartScan(uint8 scanningIntervalType)
 980:Generated_Source\PSoC4/ble.c ****     {
 981:Generated_Source\PSoC4/ble.c ****         CYBLE_API_RESULT_T apiResult;
 982:Generated_Source\PSoC4/ble.c **** 
 983:Generated_Source\PSoC4/ble.c ****         if(scanningIntervalType > CYBLE_SCANNING_CUSTOM)
 984:Generated_Source\PSoC4/ble.c ****         {
 985:Generated_Source\PSoC4/ble.c ****             apiResult = CYBLE_ERROR_INVALID_PARAMETER;
 986:Generated_Source\PSoC4/ble.c ****         }
 987:Generated_Source\PSoC4/ble.c ****         else
 988:Generated_Source\PSoC4/ble.c ****         {
 989:Generated_Source\PSoC4/ble.c ****             if(scanningIntervalType == CYBLE_SCANNING_FAST)
 990:Generated_Source\PSoC4/ble.c ****             {
 991:Generated_Source\PSoC4/ble.c ****                 cyBle_discoveryInfo.scanTo = CYBLE_FAST_SCAN_TIMEOUT;
 992:Generated_Source\PSoC4/ble.c ****                 cyBle_discoveryInfo.scanIntv = CYBLE_FAST_SCAN_INTERVAL;
 993:Generated_Source\PSoC4/ble.c ****                 cyBle_discoveryInfo.scanWindow = CYBLE_FAST_SCAN_WINDOW;
 994:Generated_Source\PSoC4/ble.c ****             }
 995:Generated_Source\PSoC4/ble.c ****             else if(scanningIntervalType == CYBLE_SCANNING_SLOW)
 996:Generated_Source\PSoC4/ble.c ****             {
 997:Generated_Source\PSoC4/ble.c ****                 cyBle_discoveryInfo.scanTo = CYBLE_SLOW_SCAN_TIMEOUT;
 998:Generated_Source\PSoC4/ble.c ****                 cyBle_discoveryInfo.scanIntv = CYBLE_SLOW_SCAN_INTERVAL;
 999:Generated_Source\PSoC4/ble.c ****                 cyBle_discoveryInfo.scanWindow = CYBLE_SLOW_SCAN_WINDOW;
1000:Generated_Source\PSoC4/ble.c ****             }       
ARM GAS  C:\Users\Art\AppData\Local\Temp\ccqpb62o.s 			page 19


1001:Generated_Source\PSoC4/ble.c ****             else /* Do not update scanning intervals */
1002:Generated_Source\PSoC4/ble.c ****             {
1003:Generated_Source\PSoC4/ble.c ****             }
1004:Generated_Source\PSoC4/ble.c ****             
1005:Generated_Source\PSoC4/ble.c ****             cyBle_scanningIntervalType = scanningIntervalType;
1006:Generated_Source\PSoC4/ble.c ****             apiResult = CyBle_GapcStartDiscovery(&cyBle_discoveryInfo);
1007:Generated_Source\PSoC4/ble.c ****         
1008:Generated_Source\PSoC4/ble.c ****             if(apiResult == CYBLE_ERROR_OK)
1009:Generated_Source\PSoC4/ble.c ****             {
1010:Generated_Source\PSoC4/ble.c ****                 cyBle_eventHandlerFlag |= CYBLE_START_FLAG;
1011:Generated_Source\PSoC4/ble.c ****             }
1012:Generated_Source\PSoC4/ble.c ****         }
1013:Generated_Source\PSoC4/ble.c ****        
1014:Generated_Source\PSoC4/ble.c ****         return (apiResult);
1015:Generated_Source\PSoC4/ble.c ****     }
1016:Generated_Source\PSoC4/ble.c ****     
1017:Generated_Source\PSoC4/ble.c ****     
1018:Generated_Source\PSoC4/ble.c ****     /******************************************************************************
1019:Generated_Source\PSoC4/ble.c ****     * Function Name: CyBle_GapcStopScan
1020:Generated_Source\PSoC4/ble.c ****     ***************************************************************************//**
1021:Generated_Source\PSoC4/ble.c ****     * 
1022:Generated_Source\PSoC4/ble.c ****     *   This function used to stop the discovery of devices. On stopping discovery
1023:Generated_Source\PSoC4/ble.c ****     *   operation, CYBLE_EVT_GAPC_SCAN_START_STOP event is generated. Application
1024:Generated_Source\PSoC4/ble.c ****     *   layer needs to keep track of the function call made before receiving this
1025:Generated_Source\PSoC4/ble.c ****     *   event to associate this event with either the start or stop discovery
1026:Generated_Source\PSoC4/ble.c ****     *   function.
1027:Generated_Source\PSoC4/ble.c ****     * 
1028:Generated_Source\PSoC4/ble.c ****     *   Possible events generated are:
1029:Generated_Source\PSoC4/ble.c ****     *    * CYBLE_EVT_GAPC_SCAN_START_STOP
1030:Generated_Source\PSoC4/ble.c ****     * 
1031:Generated_Source\PSoC4/ble.c ****     *  \return
1032:Generated_Source\PSoC4/ble.c ****     *   None
1033:Generated_Source\PSoC4/ble.c ****     * 
1034:Generated_Source\PSoC4/ble.c ****     *******************************************************************************/
1035:Generated_Source\PSoC4/ble.c ****     void CyBle_GapcStopScan(void)
1036:Generated_Source\PSoC4/ble.c ****     {
1037:Generated_Source\PSoC4/ble.c ****         CyBle_GapcStopDiscovery();
1038:Generated_Source\PSoC4/ble.c ****         
1039:Generated_Source\PSoC4/ble.c ****         cyBle_eventHandlerFlag |= CYBLE_STOP_FLAG;
1040:Generated_Source\PSoC4/ble.c ****     }
1041:Generated_Source\PSoC4/ble.c **** 
1042:Generated_Source\PSoC4/ble.c ****     
1043:Generated_Source\PSoC4/ble.c **** #endif /* CYBLE_GAP_ROLE_CENTRAL || CYBLE_GAP_ROLE_OBSERVER */
1044:Generated_Source\PSoC4/ble.c **** 
1045:Generated_Source\PSoC4/ble.c **** 
1046:Generated_Source\PSoC4/ble.c **** #if(CYBLE_GAP_ROLE_CENTRAL)
1047:Generated_Source\PSoC4/ble.c **** 
1048:Generated_Source\PSoC4/ble.c ****     /******************************************************************************
1049:Generated_Source\PSoC4/ble.c ****     * Function Name: CyBle_GapcConnectDevice
1050:Generated_Source\PSoC4/ble.c ****     ***************************************************************************//**
1051:Generated_Source\PSoC4/ble.c ****     * 
1052:Generated_Source\PSoC4/ble.c ****     *  This function is used to send a connection request to the remote device with
1053:Generated_Source\PSoC4/ble.c ****     *  the connection parameters set in the component customizer. This function needs
1054:Generated_Source\PSoC4/ble.c ****     *  to be called only once after the target device is discovered by 
1055:Generated_Source\PSoC4/ble.c ****     *  CyBle_GapcStartScan() and further scanning has stopped. Scanning is 
1056:Generated_Source\PSoC4/ble.c ****     *  successfully stopped on invoking CyBle_GapcStopScan() and then receiving the
1057:Generated_Source\PSoC4/ble.c ****     *  event CYBLE_EVT_GAPC_SCAN_START_STOP with sub-parameter 'success' = 0x01u.
ARM GAS  C:\Users\Art\AppData\Local\Temp\ccqpb62o.s 			page 20


1058:Generated_Source\PSoC4/ble.c ****     *  
1059:Generated_Source\PSoC4/ble.c ****     *  On successful connection, the following events are generated at the GAP 
1060:Generated_Source\PSoC4/ble.c ****     *  Central device (as well as the GAP Peripheral device), in the following order.
1061:Generated_Source\PSoC4/ble.c ****     *  * CYBLE_EVT_GATT_CONNECT_IND
1062:Generated_Source\PSoC4/ble.c ****     *  * CYBLE_EVT_GAP_DEVICE_CONNECTED - If the device connects to a GAP Central and 
1063:Generated_Source\PSoC4/ble.c ****     *    Link Layer Privacy is disabled in component customizer.
1064:Generated_Source\PSoC4/ble.c ****     *  * CYBLE_EVT_GAP_ENHANCE_CONN_COMPLETE - If the device connects to a GAP Central and 
1065:Generated_Source\PSoC4/ble.c ****     *    Link Layer Privacy is enabled in component customizer.
1066:Generated_Source\PSoC4/ble.c ****     *  * CYBLE_EVT_GAP_DEVICE_CONNECTED
1067:Generated_Source\PSoC4/ble.c ****     *  
1068:Generated_Source\PSoC4/ble.c ****     *  A procedure is considered to have timed out if a connection response packet is 
1069:Generated_Source\PSoC4/ble.c ****     *  not received within time set by cyBle_connectingTimeout global variable
1070:Generated_Source\PSoC4/ble.c ****     *  (30 seconds by default). CYBLE_EVT_TIMEOUT event with CYBLE_GENERIC_TO parameter
1071:Generated_Source\PSoC4/ble.c ****     *  will indicate about connection procedure timeout. Connection will automatically
1072:Generated_Source\PSoC4/ble.c ****     *  be canceled and state will be changed to CYBLE_STATE_DISCONNECTED.
1073:Generated_Source\PSoC4/ble.c ****     * 
1074:Generated_Source\PSoC4/ble.c ****     *  \param address: The device address of the remote device to connect to. 
1075:Generated_Source\PSoC4/ble.c ****     *  
1076:Generated_Source\PSoC4/ble.c ****     * \return
1077:Generated_Source\PSoC4/ble.c ****     *  CYBLE_API_RESULT_T : Return value indicates if the function succeeded or 
1078:Generated_Source\PSoC4/ble.c ****     *  failed. Following are the possible error codes.
1079:Generated_Source\PSoC4/ble.c ****     *
1080:Generated_Source\PSoC4/ble.c ****     *   Errors codes                       | Description
1081:Generated_Source\PSoC4/ble.c ****     *   ------------                       | -----------
1082:Generated_Source\PSoC4/ble.c ****     *   CYBLE_ERROR_OK                     | On successful operation.
1083:Generated_Source\PSoC4/ble.c ****     *   CYBLE_ERROR_STACK_INTERNAL         | On error occurred in the BLE stack.
1084:Generated_Source\PSoC4/ble.c ****     *   CYBLE_ERROR_INVALID_PARAMETER      | On passing an invalid parameter.
1085:Generated_Source\PSoC4/ble.c ****     *   CYBLE_ERROR_INVALID_STATE          | On calling this API not in Disconnected state.
1086:Generated_Source\PSoC4/ble.c ****     *  
1087:Generated_Source\PSoC4/ble.c ****     ******************************************************************************/
1088:Generated_Source\PSoC4/ble.c ****     CYBLE_API_RESULT_T CyBle_GapcConnectDevice(const CYBLE_GAP_BD_ADDR_T * address)
1089:Generated_Source\PSoC4/ble.c ****     {
1090:Generated_Source\PSoC4/ble.c ****         CYBLE_API_RESULT_T apiResult;
1091:Generated_Source\PSoC4/ble.c ****         uint8 i;
1092:Generated_Source\PSoC4/ble.c **** 
1093:Generated_Source\PSoC4/ble.c ****         if(CyBle_GetState() != CYBLE_STATE_DISCONNECTED)
1094:Generated_Source\PSoC4/ble.c ****         {
1095:Generated_Source\PSoC4/ble.c ****             apiResult = CYBLE_ERROR_INVALID_STATE;
1096:Generated_Source\PSoC4/ble.c ****         }
1097:Generated_Source\PSoC4/ble.c ****         else if(address == NULL)
1098:Generated_Source\PSoC4/ble.c ****         {
1099:Generated_Source\PSoC4/ble.c ****             apiResult = CYBLE_ERROR_INVALID_PARAMETER;
1100:Generated_Source\PSoC4/ble.c ****         }
1101:Generated_Source\PSoC4/ble.c ****         else
1102:Generated_Source\PSoC4/ble.c ****         {
1103:Generated_Source\PSoC4/ble.c ****             for(i = 0u; i < CYBLE_GAP_BD_ADDR_SIZE; i++)
1104:Generated_Source\PSoC4/ble.c ****             {
1105:Generated_Source\PSoC4/ble.c ****                 cyBle_connectionParameters.peerBdAddr[i] = address->bdAddr[i];
1106:Generated_Source\PSoC4/ble.c ****             }
1107:Generated_Source\PSoC4/ble.c ****             cyBle_connectionParameters.peerAddrType = address -> type;
1108:Generated_Source\PSoC4/ble.c ****             apiResult = CyBle_GapcInitConnection(&cyBle_connectionParameters);
1109:Generated_Source\PSoC4/ble.c ****             
1110:Generated_Source\PSoC4/ble.c ****             if(apiResult == CYBLE_ERROR_OK)
1111:Generated_Source\PSoC4/ble.c ****             {
1112:Generated_Source\PSoC4/ble.c ****                 CyBle_SetState(CYBLE_STATE_CONNECTING);
1113:Generated_Source\PSoC4/ble.c ****                 if(cyBle_connectingTimeout != 0u)
1114:Generated_Source\PSoC4/ble.c ****                 {
ARM GAS  C:\Users\Art\AppData\Local\Temp\ccqpb62o.s 			page 21


1115:Generated_Source\PSoC4/ble.c ****                     (void)CyBle_StartTimer(cyBle_connectingTimeout);
1116:Generated_Source\PSoC4/ble.c ****                 }
1117:Generated_Source\PSoC4/ble.c ****             }
1118:Generated_Source\PSoC4/ble.c ****         }
1119:Generated_Source\PSoC4/ble.c ****         return (apiResult);
1120:Generated_Source\PSoC4/ble.c ****     }
1121:Generated_Source\PSoC4/ble.c ****     
1122:Generated_Source\PSoC4/ble.c **** 
1123:Generated_Source\PSoC4/ble.c ****     /******************************************************************************
1124:Generated_Source\PSoC4/ble.c ****     * Function Name: CyBle_GapcCancelDeviceConnection
1125:Generated_Source\PSoC4/ble.c ****     ***************************************************************************//**
1126:Generated_Source\PSoC4/ble.c ****     * 
1127:Generated_Source\PSoC4/ble.c ****     *  This function cancels a previously initiated connection with the remote 
1128:Generated_Source\PSoC4/ble.c ****     *  device. It is a blocking function. No event is generated on calling this 
1129:Generated_Source\PSoC4/ble.c ****     *  function. If the devices are already connected then this function should not
1130:Generated_Source\PSoC4/ble.c ****     *  be used. If you intend to disconnect from an existing connection, the function
1131:Generated_Source\PSoC4/ble.c ****     *  CyBle_GapDisconnect() should be used.
1132:Generated_Source\PSoC4/ble.c ****     * 
1133:Generated_Source\PSoC4/ble.c ****     * \return
1134:Generated_Source\PSoC4/ble.c ****     *  CYBLE_API_RESULT_T : Return value indicates if the function succeeded or 
1135:Generated_Source\PSoC4/ble.c ****     *  failed. Following are the possible error codes.
1136:Generated_Source\PSoC4/ble.c ****     *
1137:Generated_Source\PSoC4/ble.c ****     *   Errors codes                       | Description
1138:Generated_Source\PSoC4/ble.c ****     *   ---------------------------------- | --------------------------------------
1139:Generated_Source\PSoC4/ble.c ****     *   CYBLE_ERROR_OK                     | On successful operation.
1140:Generated_Source\PSoC4/ble.c ****     *   CYBLE_ERROR_STACK_INTERNAL         | An error occurred in the BLE stack.
1141:Generated_Source\PSoC4/ble.c ****     *   CYBLE_ERROR_INVALID_STATE          | On calling this API not in Connecting state.
1142:Generated_Source\PSoC4/ble.c ****     *  
1143:Generated_Source\PSoC4/ble.c ****     *******************************************************************************/
1144:Generated_Source\PSoC4/ble.c ****     CYBLE_API_RESULT_T CyBle_GapcCancelDeviceConnection(void)
1145:Generated_Source\PSoC4/ble.c ****     {
1146:Generated_Source\PSoC4/ble.c ****         CYBLE_API_RESULT_T apiResult;
1147:Generated_Source\PSoC4/ble.c ****         
1148:Generated_Source\PSoC4/ble.c ****         if(CyBle_GetState() != CYBLE_STATE_CONNECTING)
1149:Generated_Source\PSoC4/ble.c ****         {
1150:Generated_Source\PSoC4/ble.c ****             apiResult = CYBLE_ERROR_INVALID_STATE;
1151:Generated_Source\PSoC4/ble.c ****         }
1152:Generated_Source\PSoC4/ble.c ****         else 
1153:Generated_Source\PSoC4/ble.c ****         {
1154:Generated_Source\PSoC4/ble.c ****             apiResult = CyBle_GapcCancelConnection();
1155:Generated_Source\PSoC4/ble.c ****             
1156:Generated_Source\PSoC4/ble.c ****             if(cyBle_connectingTimeout != 0u)
1157:Generated_Source\PSoC4/ble.c ****             {
1158:Generated_Source\PSoC4/ble.c ****                 (void)CyBle_StopTimer();
1159:Generated_Source\PSoC4/ble.c ****             }
1160:Generated_Source\PSoC4/ble.c **** 
1161:Generated_Source\PSoC4/ble.c ****             if(apiResult == CYBLE_ERROR_OK)
1162:Generated_Source\PSoC4/ble.c ****             {
1163:Generated_Source\PSoC4/ble.c ****                 CyBle_SetState(CYBLE_STATE_DISCONNECTED);
1164:Generated_Source\PSoC4/ble.c ****             }
1165:Generated_Source\PSoC4/ble.c ****         }
1166:Generated_Source\PSoC4/ble.c ****         return (apiResult);
1167:Generated_Source\PSoC4/ble.c ****     }    
1168:Generated_Source\PSoC4/ble.c **** 
1169:Generated_Source\PSoC4/ble.c ****     
1170:Generated_Source\PSoC4/ble.c **** #endif /* CYBLE_GAP_ROLE_CENTRAL */
1171:Generated_Source\PSoC4/ble.c **** 
ARM GAS  C:\Users\Art\AppData\Local\Temp\ccqpb62o.s 			page 22


1172:Generated_Source\PSoC4/ble.c **** 
1173:Generated_Source\PSoC4/ble.c **** #if(CYBLE_GATT_ROLE_SERVER)
1174:Generated_Source\PSoC4/ble.c **** 
1175:Generated_Source\PSoC4/ble.c **** #if(CYBLE_GAP_ROLE_PERIPHERAL)
1176:Generated_Source\PSoC4/ble.c **** 
1177:Generated_Source\PSoC4/ble.c ****         /******************************************************************************
1178:Generated_Source\PSoC4/ble.c ****         * Function Name: CyBle_ChangeAdLocalName
1179:Generated_Source\PSoC4/ble.c ****         ***************************************************************************//**
1180:Generated_Source\PSoC4/ble.c ****         *  This API is used to set the local device name in the advertisement or scan 
1181:Generated_Source\PSoC4/ble.c ****         *  response data structure.
1182:Generated_Source\PSoC4/ble.c ****         * 
1183:Generated_Source\PSoC4/ble.c ****         *  \param name: The local device name string to be set in advertisement data 
1184:Generated_Source\PSoC4/ble.c ****         *            structure.
1185:Generated_Source\PSoC4/ble.c ****         *  \param dest: 0 - advertisement structure, not zero value selects scan response
1186:Generated_Source\PSoC4/ble.c ****         *              structure.
1187:Generated_Source\PSoC4/ble.c ****         * 
1188:Generated_Source\PSoC4/ble.c ****         * \return
1189:Generated_Source\PSoC4/ble.c ****         *  None
1190:Generated_Source\PSoC4/ble.c ****         *  
1191:Generated_Source\PSoC4/ble.c ****         *******************************************************************************/
1192:Generated_Source\PSoC4/ble.c ****         static void CyBle_ChangeAdLocalName(const char8 name[], uint8 dest)
1193:Generated_Source\PSoC4/ble.c ****         {
  27              		.loc 1 1193 0
  28              		.cfi_startproc
  29              		@ args = 0, pretend = 0, frame = 0
  30              		@ frame_needed = 0, uses_anonymous_args = 0
  31              	.LVL0:
  32 0000 70B5     		push	{r4, r5, r6, lr}
  33              		.cfi_def_cfa_offset 16
  34              		.cfi_offset 4, -16
  35              		.cfi_offset 5, -12
  36              		.cfi_offset 6, -8
  37              		.cfi_offset 14, -4
  38              	.LVL1:
1194:Generated_Source\PSoC4/ble.c ****             uint8 i;
1195:Generated_Source\PSoC4/ble.c ****             uint8 flag = 0u;
1196:Generated_Source\PSoC4/ble.c ****             uint8 adLength = 0u;
1197:Generated_Source\PSoC4/ble.c ****             uint8 byteCounter = 0u;
1198:Generated_Source\PSoC4/ble.c ****             uint8 *destBuffer;
1199:Generated_Source\PSoC4/ble.c ****             uint8 maxLength;
1200:Generated_Source\PSoC4/ble.c ****             
1201:Generated_Source\PSoC4/ble.c ****             if(dest == 0u)      /* Destination - advertising structure */
  39              		.loc 1 1201 0
  40 0002 0029     		cmp	r1, #0
  41 0004 05D1     		bne	.L2
  42              	.LVL2:
1202:Generated_Source\PSoC4/ble.c ****             {
1203:Generated_Source\PSoC4/ble.c ****                 destBuffer = cyBle_discoveryData.advData;
1204:Generated_Source\PSoC4/ble.c ****                 maxLength = cyBle_discoveryData.advDataLen;
  43              		.loc 1 1204 0
  44 0006 1A49     		ldr	r1, .L14
  45              	.LVL3:
  46 0008 CE7F     		ldrb	r6, [r1, #31]
  47              	.LVL4:
  48              	.L4:
1205:Generated_Source\PSoC4/ble.c ****             }
1206:Generated_Source\PSoC4/ble.c ****             else                /* Destination - scan response structure */
ARM GAS  C:\Users\Art\AppData\Local\Temp\ccqpb62o.s 			page 23


1207:Generated_Source\PSoC4/ble.c ****             {
1208:Generated_Source\PSoC4/ble.c ****                 destBuffer = cyBle_scanRspData.scanRspData;
1209:Generated_Source\PSoC4/ble.c ****                 maxLength = cyBle_scanRspData.scanRspDataLen;
1210:Generated_Source\PSoC4/ble.c ****             }
1211:Generated_Source\PSoC4/ble.c ****             
1212:Generated_Source\PSoC4/ble.c ****             while((byteCounter < maxLength) && (flag == 0u))
1213:Generated_Source\PSoC4/ble.c ****             {
1214:Generated_Source\PSoC4/ble.c ****                 adLength = destBuffer[byteCounter];
1215:Generated_Source\PSoC4/ble.c ****                 
1216:Generated_Source\PSoC4/ble.c ****                 if(0u != adLength)
1217:Generated_Source\PSoC4/ble.c ****                 {
1218:Generated_Source\PSoC4/ble.c ****                     /* Increment byte counter so it can point to AD type */
1219:Generated_Source\PSoC4/ble.c ****                     byteCounter++;
1220:Generated_Source\PSoC4/ble.c ****                     
1221:Generated_Source\PSoC4/ble.c ****                     if((destBuffer[byteCounter] == CYBLE_SHORT_LOCAL_NAME) || 
1222:Generated_Source\PSoC4/ble.c ****                        (destBuffer[byteCounter] == CYBLE_COMPLETE_LOCAL_NAME))
1223:Generated_Source\PSoC4/ble.c ****                     {
1224:Generated_Source\PSoC4/ble.c ****                         /* Start of the Local Name AD type was fount. Set flag and exit the loop. *
1225:Generated_Source\PSoC4/ble.c ****                         flag = 1u;
  49              		.loc 1 1225 0
  50 000a 0023     		movs	r3, #0
  51 000c 0024     		movs	r4, #0
  52 000e 0025     		movs	r5, #0
  53 0010 10E0     		b	.L3
  54              	.LVL5:
  55              	.L2:
1209:Generated_Source\PSoC4/ble.c ****             }
  56              		.loc 1 1209 0
  57 0012 1849     		ldr	r1, .L14+4
  58              	.LVL6:
  59 0014 CE7F     		ldrb	r6, [r1, #31]
  60              	.LVL7:
  61 0016 F8E7     		b	.L4
  62              	.LVL8:
  63              	.L7:
1214:Generated_Source\PSoC4/ble.c ****                 
  64              		.loc 1 1214 0
  65 0018 CC5C     		ldrb	r4, [r1, r3]
  66              	.LVL9:
1216:Generated_Source\PSoC4/ble.c ****                 {
  67              		.loc 1 1216 0
  68 001a 002C     		cmp	r4, #0
  69 001c 0ED0     		beq	.L5
1219:Generated_Source\PSoC4/ble.c ****                     
  70              		.loc 1 1219 0
  71 001e 0133     		adds	r3, r3, #1
  72              	.LVL10:
  73 0020 DBB2     		uxtb	r3, r3
  74              	.LVL11:
1221:Generated_Source\PSoC4/ble.c ****                        (destBuffer[byteCounter] == CYBLE_COMPLETE_LOCAL_NAME))
  75              		.loc 1 1221 0
  76 0022 CA5C     		ldrb	r2, [r1, r3]
  77 0024 083A     		subs	r2, r2, #8
  78 0026 D2B2     		uxtb	r2, r2
  79 0028 012A     		cmp	r2, #1
  80 002a 02D9     		bls	.L13
1226:Generated_Source\PSoC4/ble.c ****                     }
ARM GAS  C:\Users\Art\AppData\Local\Temp\ccqpb62o.s 			page 24


1227:Generated_Source\PSoC4/ble.c ****                     else
1228:Generated_Source\PSoC4/ble.c ****                     {
1229:Generated_Source\PSoC4/ble.c ****                         byteCounter += adLength;
  81              		.loc 1 1229 0
  82 002c E318     		adds	r3, r4, r3
  83              	.LVL12:
  84 002e DBB2     		uxtb	r3, r3
  85              	.LVL13:
  86 0030 00E0     		b	.L3
  87              	.L13:
1225:Generated_Source\PSoC4/ble.c ****                     }
  88              		.loc 1 1225 0
  89 0032 0125     		movs	r5, #1
  90              	.LVL14:
  91              	.L3:
1212:Generated_Source\PSoC4/ble.c ****             {
  92              		.loc 1 1212 0
  93 0034 B342     		cmp	r3, r6
  94 0036 01D2     		bcs	.L5
1212:Generated_Source\PSoC4/ble.c ****             {
  95              		.loc 1 1212 0 is_stmt 0 discriminator 1
  96 0038 002D     		cmp	r5, #0
  97 003a EDD0     		beq	.L7
  98              	.L5:
1230:Generated_Source\PSoC4/ble.c ****                     }
1231:Generated_Source\PSoC4/ble.c ****                 }
1232:Generated_Source\PSoC4/ble.c ****                 else
1233:Generated_Source\PSoC4/ble.c ****                 {
1234:Generated_Source\PSoC4/ble.c ****                     /* The end of advertisement data structure was encountered though exit the loop
1235:Generated_Source\PSoC4/ble.c ****                     break;
1236:Generated_Source\PSoC4/ble.c ****                 }
1237:Generated_Source\PSoC4/ble.c ****             }
1238:Generated_Source\PSoC4/ble.c ****             
1239:Generated_Source\PSoC4/ble.c ****             if(0u != flag)
  99              		.loc 1 1239 0 is_stmt 1
 100 003c 002D     		cmp	r5, #0
 101 003e 16D0     		beq	.L1
1240:Generated_Source\PSoC4/ble.c ****             {
1241:Generated_Source\PSoC4/ble.c ****                 /* Reuse "adLength" to hold location of the last character of local name in 
1242:Generated_Source\PSoC4/ble.c ****                    AD structure. */
1243:Generated_Source\PSoC4/ble.c ****                 adLength += byteCounter;
 102              		.loc 1 1243 0
 103 0040 E418     		adds	r4, r4, r3
 104              	.LVL15:
 105 0042 E4B2     		uxtb	r4, r4
 106              	.LVL16:
1244:Generated_Source\PSoC4/ble.c ****                 
1245:Generated_Source\PSoC4/ble.c ****                 /* Increment byte counter to point to start of the local Name string */
1246:Generated_Source\PSoC4/ble.c ****                 byteCounter++;
 107              		.loc 1 1246 0
 108 0044 0133     		adds	r3, r3, #1
 109              	.LVL17:
 110 0046 DBB2     		uxtb	r3, r3
 111              	.LVL18:
1247:Generated_Source\PSoC4/ble.c ****                 
1248:Generated_Source\PSoC4/ble.c ****                 for(i = byteCounter; ((i < (adLength)) && (CYBLE_NULL_CHARCTER != name[i - byteCoun
 112              		.loc 1 1248 0
ARM GAS  C:\Users\Art\AppData\Local\Temp\ccqpb62o.s 			page 25


 113 0048 1A00     		movs	r2, r3
 114 004a 02E0     		b	.L9
 115              	.LVL19:
 116              	.L11:
1249:Generated_Source\PSoC4/ble.c ****                 {
1250:Generated_Source\PSoC4/ble.c ****                     destBuffer[i] = (uint8)name[i - byteCounter];
 117              		.loc 1 1250 0 discriminator 4
 118 004c 8D54     		strb	r5, [r1, r2]
1248:Generated_Source\PSoC4/ble.c ****                 {
 119              		.loc 1 1248 0 discriminator 4
 120 004e 0132     		adds	r2, r2, #1
 121              	.LVL20:
 122 0050 D2B2     		uxtb	r2, r2
 123              	.LVL21:
 124              	.L9:
1248:Generated_Source\PSoC4/ble.c ****                 {
 125              		.loc 1 1248 0 is_stmt 0 discriminator 1
 126 0052 A242     		cmp	r2, r4
 127 0054 09D2     		bcs	.L10
1248:Generated_Source\PSoC4/ble.c ****                 {
 128              		.loc 1 1248 0 discriminator 3
 129 0056 D51A     		subs	r5, r2, r3
 130 0058 455D     		ldrb	r5, [r0, r5]
 131 005a 002D     		cmp	r5, #0
 132 005c F6D1     		bne	.L11
 133 005e 04E0     		b	.L10
 134              	.LVL22:
 135              	.L12:
1251:Generated_Source\PSoC4/ble.c ****                 }
1252:Generated_Source\PSoC4/ble.c ****                 
1253:Generated_Source\PSoC4/ble.c ****                 /* This loop handles the case when new local name is shorted than old one.
1254:Generated_Source\PSoC4/ble.c ****                    In this case all remaining characters should be null characters. */
1255:Generated_Source\PSoC4/ble.c ****                 while(adLength > i)
1256:Generated_Source\PSoC4/ble.c ****                 {
1257:Generated_Source\PSoC4/ble.c ****                     /* Terminate string */
1258:Generated_Source\PSoC4/ble.c ****                     destBuffer[i] = (uint8)CYBLE_NULL_CHARCTER;
 136              		.loc 1 1258 0 is_stmt 1
 137 0060 8B18     		adds	r3, r1, r2
 138 0062 0020     		movs	r0, #0
 139 0064 1870     		strb	r0, [r3]
1259:Generated_Source\PSoC4/ble.c ****                     i++;
 140              		.loc 1 1259 0
 141 0066 0132     		adds	r2, r2, #1
 142              	.LVL23:
 143 0068 D2B2     		uxtb	r2, r2
 144              	.LVL24:
 145              	.L10:
1255:Generated_Source\PSoC4/ble.c ****                 {
 146              		.loc 1 1255 0
 147 006a A242     		cmp	r2, r4
 148 006c F8D3     		bcc	.L12
 149              	.LVL25:
 150              	.L1:
1260:Generated_Source\PSoC4/ble.c ****                 }
1261:Generated_Source\PSoC4/ble.c ****             }
1262:Generated_Source\PSoC4/ble.c ****         }
 151              		.loc 1 1262 0
ARM GAS  C:\Users\Art\AppData\Local\Temp\ccqpb62o.s 			page 26


 152              		@ sp needed
 153              	.LVL26:
 154              	.LVL27:
 155 006e 70BD     		pop	{r4, r5, r6, pc}
 156              	.L15:
 157              		.align	2
 158              	.L14:
 159 0070 00000000 		.word	.LANCHOR0
 160 0074 00000000 		.word	.LANCHOR1
 161              		.cfi_endproc
 162              	.LFE11:
 163              		.size	CyBle_ChangeAdLocalName, .-CyBle_ChangeAdLocalName
 164              		.section	.text.CyBle_ServiceInit,"ax",%progbits
 165              		.align	2
 166              		.global	CyBle_ServiceInit
 167              		.code	16
 168              		.thumb_func
 169              		.type	CyBle_ServiceInit, %function
 170              	CyBle_ServiceInit:
 171              	.LFB3:
 202:Generated_Source\PSoC4/ble.c ****     #if(CYBLE_GATT_ROLE_CLIENT)
 172              		.loc 1 202 0
 173              		.cfi_startproc
 174              		@ args = 0, pretend = 0, frame = 0
 175              		@ frame_needed = 0, uses_anonymous_args = 0
 176 0000 10B5     		push	{r4, lr}
 177              		.cfi_def_cfa_offset 8
 178              		.cfi_offset 4, -8
 179              		.cfi_offset 14, -4
 260:Generated_Source\PSoC4/ble.c ****     #endif /* CYBLE_CUSTOM */
 180              		.loc 1 260 0
 181 0002 FFF7FEFF 		bl	CyBle_CustomInit
 182              	.LVL28:
 346:Generated_Source\PSoC4/ble.c **** 
 183              		.loc 1 346 0
 184              		@ sp needed
 185 0006 10BD     		pop	{r4, pc}
 186              		.cfi_endproc
 187              	.LFE3:
 188              		.size	CyBle_ServiceInit, .-CyBle_ServiceInit
 189              		.section	.text.CyBle_Init,"ax",%progbits
 190              		.align	2
 191              		.global	CyBle_Init
 192              		.code	16
 193              		.thumb_func
 194              		.type	CyBle_Init, %function
 195              	CyBle_Init:
 196              	.LFB2:
 153:Generated_Source\PSoC4/ble.c ****     cyBle_eventHandlerFlag = 0u;
 197              		.loc 1 153 0
 198              		.cfi_startproc
 199              		@ args = 0, pretend = 0, frame = 0
 200              		@ frame_needed = 0, uses_anonymous_args = 0
 201 0000 10B5     		push	{r4, lr}
 202              		.cfi_def_cfa_offset 8
 203              		.cfi_offset 4, -8
 204              		.cfi_offset 14, -4
ARM GAS  C:\Users\Art\AppData\Local\Temp\ccqpb62o.s 			page 27


 154:Generated_Source\PSoC4/ble.c ****     cyBle_busyStatus = CYBLE_STACK_STATE_FREE;
 205              		.loc 1 154 0
 206 0002 0024     		movs	r4, #0
 207 0004 064B     		ldr	r3, .L18
 208 0006 1C70     		strb	r4, [r3]
 155:Generated_Source\PSoC4/ble.c **** 
 209              		.loc 1 155 0
 210 0008 064B     		ldr	r3, .L18+4
 211 000a 1C70     		strb	r4, [r3]
 158:Generated_Source\PSoC4/ble.c ****     #endif /* (CYBLE_GAP_ROLE_PERIPHERAL || CYBLE_GAP_ROLE_BROADCASTER)  */
 212              		.loc 1 158 0
 213 000c 064B     		ldr	r3, .L18+8
 214 000e 1C70     		strb	r4, [r3]
 181:Generated_Source\PSoC4/ble.c **** 
 215              		.loc 1 181 0
 216 0010 FFF7FEFF 		bl	CyBle_ServiceInit
 217              	.LVL29:
 184:Generated_Source\PSoC4/ble.c ****         cyBle_peerBonding = CYBLE_GAP_BONDING_NONE;
 218              		.loc 1 184 0
 219 0014 054B     		ldr	r3, .L18+12
 220 0016 1C70     		strb	r4, [r3]
 185:Generated_Source\PSoC4/ble.c ****     #endif  /* (CYBLE_BONDING_REQUIREMENT == CYBLE_BONDING_YES) */
 221              		.loc 1 185 0
 222 0018 054B     		ldr	r3, .L18+16
 223 001a 1C70     		strb	r4, [r3]
 188:Generated_Source\PSoC4/ble.c **** 
 224              		.loc 1 188 0
 225              		@ sp needed
 226 001c 10BD     		pop	{r4, pc}
 227              	.L19:
 228 001e C046     		.align	2
 229              	.L18:
 230 0020 00000000 		.word	cyBle_eventHandlerFlag
 231 0024 00000000 		.word	cyBle_busyStatus
 232 0028 00000000 		.word	cyBle_advertisingIntervalType
 233 002c 00000000 		.word	cyBle_pendingFlashWrite
 234 0030 00000000 		.word	cyBle_peerBonding
 235              		.cfi_endproc
 236              	.LFE2:
 237              		.size	CyBle_Init, .-CyBle_Init
 238              		.section	.text.CyBle_Start,"ax",%progbits
 239              		.align	2
 240              		.global	CyBle_Start
 241              		.code	16
 242              		.thumb_func
 243              		.type	CyBle_Start, %function
 244              	CyBle_Start:
 245              	.LFB4:
 408:Generated_Source\PSoC4/ble.c ****     CYBLE_API_RESULT_T apiResult = CYBLE_ERROR_OK;
 246              		.loc 1 408 0
 247              		.cfi_startproc
 248              		@ args = 0, pretend = 0, frame = 48
 249              		@ frame_needed = 0, uses_anonymous_args = 0
 250              	.LVL30:
 251 0000 10B5     		push	{r4, lr}
 252              		.cfi_def_cfa_offset 8
 253              		.cfi_offset 4, -8
ARM GAS  C:\Users\Art\AppData\Local\Temp\ccqpb62o.s 			page 28


 254              		.cfi_offset 14, -4
 255 0002 90B0     		sub	sp, sp, #64
 256              		.cfi_def_cfa_offset 72
 257 0004 0400     		movs	r4, r0
 258              	.LVL31:
 413:Generated_Source\PSoC4/ble.c ****     {
 259              		.loc 1 413 0
 260 0006 1422     		movs	r2, #20
 261 0008 2049     		ldr	r1, .L24
 262 000a 0BA8     		add	r0, sp, #44
 263              	.LVL32:
 264 000c FFF7FEFF 		bl	memcpy
 265              	.LVL33:
 425:Generated_Source\PSoC4/ble.c ****     {
 266              		.loc 1 425 0
 267 0010 2023     		movs	r3, #32
 268 0012 1F4A     		ldr	r2, .L24+4
 269 0014 D35C     		ldrb	r3, [r2, r3]
 270 0016 002B     		cmp	r3, #0
 271 0018 05D1     		bne	.L21
 427:Generated_Source\PSoC4/ble.c ****         cyBle_initVar = 1u;
 272              		.loc 1 427 0
 273 001a FFF7FEFF 		bl	CyBle_Init
 274              	.LVL34:
 428:Generated_Source\PSoC4/ble.c ****     }
 275              		.loc 1 428 0
 276 001e 0121     		movs	r1, #1
 277 0020 2023     		movs	r3, #32
 278 0022 1B4A     		ldr	r2, .L24+4
 279 0024 D154     		strb	r1, [r2, r3]
 280              	.L21:
 431:Generated_Source\PSoC4/ble.c ****     {
 281              		.loc 1 431 0
 282 0026 002C     		cmp	r4, #0
 283 0028 2DD0     		beq	.L23
 433:Generated_Source\PSoC4/ble.c ****         
 284              		.loc 1 433 0
 285 002a 1A4B     		ldr	r3, .L24+8
 286 002c 1C60     		str	r4, [r3]
 287              	.LBB2:
 452:Generated_Source\PSoC4/ble.c ****             stackConfig.dleConfig = &dleConfigParams;
 288              		.loc 1 452 0
 289 002e 08A8     		add	r0, sp, #32
 290 0030 05AA     		add	r2, sp, #20
 291 0032 4260     		str	r2, [r0, #4]
 453:Generated_Source\PSoC4/ble.c ****             
 292              		.loc 1 453 0
 293 0034 06AB     		add	r3, sp, #24
 294 0036 0893     		str	r3, [sp, #32]
 456:Generated_Source\PSoC4/ble.c ****                                        CYBLE_SECURE_CONN_FEATURE;
 295              		.loc 1 456 0
 296 0038 0021     		movs	r1, #0
 297 003a 0181     		strh	r1, [r0, #8]
 460:Generated_Source\PSoC4/ble.c ****             dleConfigParams.dleMaxRxCapability = CYBLE_LL_MAX_RX_PAYLOAD_SIZE;
 298              		.loc 1 460 0
 299 003c 1B31     		adds	r1, r1, #27
 300 003e 1980     		strh	r1, [r3]
ARM GAS  C:\Users\Art\AppData\Local\Temp\ccqpb62o.s 			page 29


 461:Generated_Source\PSoC4/ble.c ****             dleConfigParams.dleNumTxBuffer = CYBLE_LL_DEFAULT_NUM_ACL_TX_PACKETS;
 301              		.loc 1 461 0
 302 0040 5980     		strh	r1, [r3, #2]
 462:Generated_Source\PSoC4/ble.c ****         #if(CYBLE_DLE_FEATURE_ENABLED)
 303              		.loc 1 462 0
 304 0042 1739     		subs	r1, r1, #23
 305 0044 1971     		strb	r1, [r3, #4]
 468:Generated_Source\PSoC4/ble.c ****         #if(CYBLE_LL_PRIVACY_FEATURE_ENABLED)
 306              		.loc 1 468 0
 307 0046 0023     		movs	r3, #0
 308 0048 1370     		strb	r3, [r2]
 473:Generated_Source\PSoC4/ble.c ****             }
 309              		.loc 1 473 0
 310 004a 1231     		adds	r1, r1, #18
 311 004c 6944     		add	r1, r1, sp
 312 004e FFF7FEFF 		bl	CyBle_StackSetFeatureConfig
 313              	.LVL35:
 314              	.LBE2:
 476:Generated_Source\PSoC4/ble.c ****         {
 315              		.loc 1 476 0
 316 0052 0028     		cmp	r0, #0
 317 0054 18D1     		bne	.L22
 481:Generated_Source\PSoC4/ble.c ****                     CYBLE_STACK_RAM_SIZE - CYBLE_GATT_PREPARE_WRITE_BUFF_LEN, cyBle_stackDataBuff, 
 318              		.loc 1 481 0
 319 0056 104B     		ldr	r3, .L24+12
 320 0058 0293     		str	r3, [sp, #8]
 321 005a 104B     		ldr	r3, .L24+16
 322 005c 0193     		str	r3, [sp, #4]
 323 005e 0523     		movs	r3, #5
 324 0060 0093     		str	r3, [sp]
 325 0062 0BAB     		add	r3, sp, #44
 326 0064 AE22     		movs	r2, #174
 327 0066 1201     		lsls	r2, r2, #4
 328 0068 0D49     		ldr	r1, .L24+20
 329 006a 0E48     		ldr	r0, .L24+24
 330              	.LVL36:
 331 006c FFF7FEFF 		bl	CyBle_StackInit
 332              	.LVL37:
 505:Generated_Source\PSoC4/ble.c ****             {
 333              		.loc 1 505 0
 334 0070 0028     		cmp	r0, #0
 335 0072 09D1     		bne	.L22
 507:Generated_Source\PSoC4/ble.c ****                 
 336              		.loc 1 507 0
 337 0074 0122     		movs	r2, #1
 338 0076 0C4B     		ldr	r3, .L24+28
 339 0078 1A70     		strb	r2, [r3]
 514:Generated_Source\PSoC4/ble.c ****             #endif /* CYBLE_GATT_ROLE_SERVER */
 340              		.loc 1 514 0
 341 007a 0E32     		adds	r2, r2, #14
 342 007c 1321     		movs	r1, #19
 343 007e 0B48     		ldr	r0, .L24+32
 344              	.LVL38:
 345 0080 FFF7FEFF 		bl	CyBle_GattsDbRegister
 346              	.LVL39:
 347 0084 00E0     		b	.L22
 348              	.LVL40:
ARM GAS  C:\Users\Art\AppData\Local\Temp\ccqpb62o.s 			page 30


 349              	.L23:
 521:Generated_Source\PSoC4/ble.c ****     }
 350              		.loc 1 521 0
 351 0086 0120     		movs	r0, #1
 352              	.LVL41:
 353              	.L22:
 525:Generated_Source\PSoC4/ble.c **** 
 354              		.loc 1 525 0
 355 0088 10B0     		add	sp, sp, #64
 356              		@ sp needed
 357              	.LVL42:
 358 008a 10BD     		pop	{r4, pc}
 359              	.L25:
 360              		.align	2
 361              	.L24:
 362 008c 00000000 		.word	.LANCHOR2
 363 0090 00000000 		.word	.LANCHOR1
 364 0094 00000000 		.word	CyBle_ApplCallback
 365 0098 79020000 		.word	633
 366 009c 00000000 		.word	cyBle_flashStorage
 367 00a0 00000000 		.word	.LANCHOR3
 368 00a4 00000000 		.word	CyBle_EventHandler
 369 00a8 00000000 		.word	cyBle_state
 370 00ac 00000000 		.word	cyBle_gattDB
 371              		.cfi_endproc
 372              	.LFE4:
 373              		.size	CyBle_Start, .-CyBle_Start
 374              		.section	.text.CyBle_Stop,"ax",%progbits
 375              		.align	2
 376              		.global	CyBle_Stop
 377              		.code	16
 378              		.thumb_func
 379              		.type	CyBle_Stop, %function
 380              	CyBle_Stop:
 381              	.LFB5:
 541:Generated_Source\PSoC4/ble.c ****     CyBle_Shutdown();                         /* Stop all ongoing activities */
 382              		.loc 1 541 0
 383              		.cfi_startproc
 384              		@ args = 0, pretend = 0, frame = 0
 385              		@ frame_needed = 0, uses_anonymous_args = 0
 386 0000 10B5     		push	{r4, lr}
 387              		.cfi_def_cfa_offset 8
 388              		.cfi_offset 4, -8
 389              		.cfi_offset 14, -4
 542:Generated_Source\PSoC4/ble.c ****     CyBle_SetState(CYBLE_STATE_STOPPED);
 390              		.loc 1 542 0
 391 0002 FFF7FEFF 		bl	CyBle_Shutdown
 392              	.LVL43:
 543:Generated_Source\PSoC4/ble.c ****     #if(CYBLE_SHARING_MODE_EXPORT)
 393              		.loc 1 543 0
 394 0006 0022     		movs	r2, #0
 395 0008 014B     		ldr	r3, .L27
 396 000a 1A70     		strb	r2, [r3]
 550:Generated_Source\PSoC4/ble.c **** 
 397              		.loc 1 550 0
 398              		@ sp needed
 399 000c 10BD     		pop	{r4, pc}
ARM GAS  C:\Users\Art\AppData\Local\Temp\ccqpb62o.s 			page 31


 400              	.L28:
 401 000e C046     		.align	2
 402              	.L27:
 403 0010 00000000 		.word	cyBle_state
 404              		.cfi_endproc
 405              	.LFE5:
 406              		.size	CyBle_Stop, .-CyBle_Stop
 407              		.section	.text.CyBle_StoreBondingData,"ax",%progbits
 408              		.align	2
 409              		.global	CyBle_StoreBondingData
 410              		.code	16
 411              		.thumb_func
 412              		.type	CyBle_StoreBondingData, %function
 413              	CyBle_StoreBondingData:
 414              	.LFB6:
 596:Generated_Source\PSoC4/ble.c ****     CYBLE_API_RESULT_T apiResult = CYBLE_ERROR_OK;
 415              		.loc 1 596 0
 416              		.cfi_startproc
 417              		@ args = 0, pretend = 0, frame = 24
 418              		@ frame_needed = 0, uses_anonymous_args = 0
 419              	.LVL44:
 420 0000 10B5     		push	{r4, lr}
 421              		.cfi_def_cfa_offset 8
 422              		.cfi_offset 4, -8
 423              		.cfi_offset 14, -4
 424 0002 86B0     		sub	sp, sp, #24
 425              		.cfi_def_cfa_offset 32
 426 0004 0400     		movs	r4, r0
 427              	.LVL45:
 600:Generated_Source\PSoC4/ble.c ****     {
 428              		.loc 1 600 0
 429 0006 334B     		ldr	r3, .L40
 430 0008 1B78     		ldrb	r3, [r3]
 431 000a DB07     		lsls	r3, r3, #31
 432 000c 0BD5     		bpl	.L38
 602:Generated_Source\PSoC4/ble.c ****         if(apiResult == CYBLE_ERROR_OK)
 433              		.loc 1 602 0
 434 000e FFF7FEFF 		bl	CyBle_StoreStackData
 435              	.LVL46:
 603:Generated_Source\PSoC4/ble.c ****         {
 436              		.loc 1 603 0
 437 0012 0028     		cmp	r0, #0
 438 0014 0AD1     		bne	.L30
 605:Generated_Source\PSoC4/ble.c ****             /* Change apiResult if there are more pending data to store */
 439              		.loc 1 605 0
 440 0016 2F4A     		ldr	r2, .L40
 441 0018 1378     		ldrb	r3, [r2]
 442 001a 0121     		movs	r1, #1
 443 001c 8B43     		bics	r3, r1
 444 001e 1370     		strb	r3, [r2]
 607:Generated_Source\PSoC4/ble.c ****             {
 445              		.loc 1 607 0
 446 0020 9B07     		lsls	r3, r3, #30
 447 0022 02D4     		bmi	.L39
 448 0024 02E0     		b	.L30
 449              	.LVL47:
 450              	.L38:
ARM GAS  C:\Users\Art\AppData\Local\Temp\ccqpb62o.s 			page 32


 597:Generated_Source\PSoC4/ble.c ****     
 451              		.loc 1 597 0
 452 0026 0020     		movs	r0, #0
 453              	.LVL48:
 454 0028 00E0     		b	.L30
 455              	.LVL49:
 456              	.L39:
 609:Generated_Source\PSoC4/ble.c ****             }
 457              		.loc 1 609 0
 458 002a 2820     		movs	r0, #40
 459              	.LVL50:
 460              	.L30:
 615:Generated_Source\PSoC4/ble.c ****         ((cyBle_pendingFlashWrite & CYBLE_PENDING_CCCD_FLASH_WRITE_BIT) != 0u) &&
 461              		.loc 1 615 0
 462 002c 0028     		cmp	r0, #0
 463 002e 01D0     		beq	.L31
 615:Generated_Source\PSoC4/ble.c ****         ((cyBle_pendingFlashWrite & CYBLE_PENDING_CCCD_FLASH_WRITE_BIT) != 0u) &&
 464              		.loc 1 615 0 is_stmt 0 discriminator 2
 465 0030 002C     		cmp	r4, #0
 466 0032 18D0     		beq	.L32
 467              	.L31:
 616:Generated_Source\PSoC4/ble.c ****         (cyBle_connHandle.bdHandle <= CYBLE_GAP_MAX_BONDED_DEVICE))
 468              		.loc 1 616 0 is_stmt 1 discriminator 3
 469 0034 274B     		ldr	r3, .L40
 470 0036 1B78     		ldrb	r3, [r3]
 615:Generated_Source\PSoC4/ble.c ****         ((cyBle_pendingFlashWrite & CYBLE_PENDING_CCCD_FLASH_WRITE_BIT) != 0u) &&
 471              		.loc 1 615 0 discriminator 3
 472 0038 9B07     		lsls	r3, r3, #30
 473 003a 14D5     		bpl	.L32
 617:Generated_Source\PSoC4/ble.c ****     {
 474              		.loc 1 617 0
 475 003c 264B     		ldr	r3, .L40+4
 476 003e 1978     		ldrb	r1, [r3]
 616:Generated_Source\PSoC4/ble.c ****         (cyBle_connHandle.bdHandle <= CYBLE_GAP_MAX_BONDED_DEVICE))
 477              		.loc 1 616 0
 478 0040 0429     		cmp	r1, #4
 479 0042 10D8     		bhi	.L32
 619:Generated_Source\PSoC4/ble.c ****                         cyBle_connHandle.bdHandle], CYBLE_GATT_DB_CCCD_COUNT, isForceWrite);
 480              		.loc 1 619 0
 481 0044 9E31     		adds	r1, r1, #158
 482 0046 8900     		lsls	r1, r1, #2
 483 0048 244B     		ldr	r3, .L40+8
 484 004a C918     		adds	r1, r1, r3
 485 004c 0131     		adds	r1, r1, #1
 486 004e 2300     		movs	r3, r4
 487 0050 0422     		movs	r2, #4
 488 0052 2348     		ldr	r0, .L40+12
 489              	.LVL51:
 490 0054 FFF7FEFF 		bl	CyBle_StoreAppData
 491              	.LVL52:
 621:Generated_Source\PSoC4/ble.c ****         {
 492              		.loc 1 621 0
 493 0058 0028     		cmp	r0, #0
 494 005a 04D1     		bne	.L32
 623:Generated_Source\PSoC4/ble.c ****         }
 495              		.loc 1 623 0
 496 005c 1D4A     		ldr	r2, .L40
ARM GAS  C:\Users\Art\AppData\Local\Temp\ccqpb62o.s 			page 33


 497 005e 1378     		ldrb	r3, [r2]
 498 0060 0221     		movs	r1, #2
 499 0062 8B43     		bics	r3, r1
 500 0064 1370     		strb	r3, [r2]
 501              	.LVL53:
 502              	.L32:
 627:Generated_Source\PSoC4/ble.c ****         ((cyBle_pendingFlashWrite & CYBLE_PENDING_CCCD_FLASH_CLEAR_MASK) != 0u) )
 503              		.loc 1 627 0
 504 0066 0028     		cmp	r0, #0
 505 0068 01D0     		beq	.L33
 627:Generated_Source\PSoC4/ble.c ****         ((cyBle_pendingFlashWrite & CYBLE_PENDING_CCCD_FLASH_CLEAR_MASK) != 0u) )
 506              		.loc 1 627 0 is_stmt 0 discriminator 2
 507 006a 002C     		cmp	r4, #0
 508 006c 2FD0     		beq	.L34
 509              	.L33:
 628:Generated_Source\PSoC4/ble.c ****     {
 510              		.loc 1 628 0 is_stmt 1 discriminator 3
 511 006e 194B     		ldr	r3, .L40
 512 0070 1B78     		ldrb	r3, [r3]
 627:Generated_Source\PSoC4/ble.c ****         ((cyBle_pendingFlashWrite & CYBLE_PENDING_CCCD_FLASH_CLEAR_MASK) != 0u) )
 513              		.loc 1 627 0 discriminator 3
 514 0072 0C22     		movs	r2, #12
 515 0074 1A42     		tst	r2, r3
 516 0076 2AD0     		beq	.L34
 630:Generated_Source\PSoC4/ble.c ****         {
 517              		.loc 1 630 0
 518 0078 1B07     		lsls	r3, r3, #28
 519 007a 12D5     		bpl	.L35
 520              	.LBB3:
 635:Generated_Source\PSoC4/ble.c **** 
 521              		.loc 1 635 0
 522 007c 0832     		adds	r2, r2, #8
 523 007e 0021     		movs	r1, #0
 524 0080 01A8     		add	r0, sp, #4
 525              	.LVL54:
 526 0082 FFF7FEFF 		bl	memset
 527              	.LVL55:
 637:Generated_Source\PSoC4/ble.c ****                 (const uint8 *)cyBle_flashStorage.attValuesCCCDFlashMemory, sizeof(defaultValuesCCC
 528              		.loc 1 637 0
 529 0086 2300     		movs	r3, r4
 530 0088 1422     		movs	r2, #20
 531 008a 1649     		ldr	r1, .L40+16
 532 008c 01A8     		add	r0, sp, #4
 533 008e FFF7FEFF 		bl	CyBle_StoreAppData
 534              	.LVL56:
 639:Generated_Source\PSoC4/ble.c ****             {
 535              		.loc 1 639 0
 536 0092 0028     		cmp	r0, #0
 537 0094 1BD1     		bne	.L34
 641:Generated_Source\PSoC4/ble.c ****             }
 538              		.loc 1 641 0
 539 0096 0F4A     		ldr	r2, .L40
 540 0098 1378     		ldrb	r3, [r2]
 541 009a 0821     		movs	r1, #8
 542 009c 8B43     		bics	r3, r1
 543 009e 1370     		strb	r3, [r2]
 544 00a0 15E0     		b	.L34
ARM GAS  C:\Users\Art\AppData\Local\Temp\ccqpb62o.s 			page 34


 545              	.L35:
 546              	.LBE3:
 547              	.LBB4:
 646:Generated_Source\PSoC4/ble.c ****             
 548              		.loc 1 646 0
 549 00a2 0023     		movs	r3, #0
 550 00a4 0193     		str	r3, [sp, #4]
 648:Generated_Source\PSoC4/ble.c ****                                     cyBle_pendingFlashClearCccdHandle], CYBLE_GATT_DB_CCCD_COUNT, i
 551              		.loc 1 648 0
 552 00a6 2133     		adds	r3, r3, #33
 553 00a8 0F4A     		ldr	r2, .L40+20
 554 00aa D15C     		ldrb	r1, [r2, r3]
 555 00ac 9E31     		adds	r1, r1, #158
 556 00ae 8900     		lsls	r1, r1, #2
 557 00b0 0A4B     		ldr	r3, .L40+8
 558 00b2 C918     		adds	r1, r1, r3
 559 00b4 0131     		adds	r1, r1, #1
 560 00b6 2300     		movs	r3, r4
 561 00b8 0422     		movs	r2, #4
 562 00ba 01A8     		add	r0, sp, #4
 563              	.LVL57:
 564 00bc FFF7FEFF 		bl	CyBle_StoreAppData
 565              	.LVL58:
 650:Generated_Source\PSoC4/ble.c ****             {
 566              		.loc 1 650 0
 567 00c0 0028     		cmp	r0, #0
 568 00c2 04D1     		bne	.L34
 652:Generated_Source\PSoC4/ble.c ****             }
 569              		.loc 1 652 0
 570 00c4 034A     		ldr	r2, .L40
 571 00c6 1378     		ldrb	r3, [r2]
 572 00c8 0421     		movs	r1, #4
 573 00ca 8B43     		bics	r3, r1
 574 00cc 1370     		strb	r3, [r2]
 575              	.LVL59:
 576              	.L34:
 577              	.LBE4:
 658:Generated_Source\PSoC4/ble.c **** 
 578              		.loc 1 658 0
 579 00ce 06B0     		add	sp, sp, #24
 580              		@ sp needed
 581 00d0 10BD     		pop	{r4, pc}
 582              	.L41:
 583 00d2 C046     		.align	2
 584              	.L40:
 585 00d4 00000000 		.word	cyBle_pendingFlashWrite
 586 00d8 00000000 		.word	cyBle_connHandle
 587 00dc 00000000 		.word	cyBle_flashStorage
 588 00e0 00000000 		.word	cyBle_attValuesCCCD
 589 00e4 79020000 		.word	cyBle_flashStorage+633
 590 00e8 00000000 		.word	.LANCHOR1
 591              		.cfi_endproc
 592              	.LFE6:
 593              		.size	CyBle_StoreBondingData, .-CyBle_StoreBondingData
 594              		.section	.text.CyBle_GapRemoveBondedDevice,"ax",%progbits
 595              		.align	2
 596              		.global	CyBle_GapRemoveBondedDevice
ARM GAS  C:\Users\Art\AppData\Local\Temp\ccqpb62o.s 			page 35


 597              		.code	16
 598              		.thumb_func
 599              		.type	CyBle_GapRemoveBondedDevice, %function
 600              	CyBle_GapRemoveBondedDevice:
 601              	.LFB7:
 694:Generated_Source\PSoC4/ble.c ****     CYBLE_API_RESULT_T apiResult = CYBLE_ERROR_OK;
 602              		.loc 1 694 0
 603              		.cfi_startproc
 604              		@ args = 0, pretend = 0, frame = 16
 605              		@ frame_needed = 0, uses_anonymous_args = 0
 606              	.LVL60:
 607 0000 30B5     		push	{r4, r5, lr}
 608              		.cfi_def_cfa_offset 12
 609              		.cfi_offset 4, -12
 610              		.cfi_offset 5, -8
 611              		.cfi_offset 14, -4
 612 0002 85B0     		sub	sp, sp, #20
 613              		.cfi_def_cfa_offset 32
 614 0004 0500     		movs	r5, r0
 615              	.LVL61:
 697:Generated_Source\PSoC4/ble.c ****     {
 616              		.loc 1 697 0
 617 0006 174B     		ldr	r3, .L48
 618 0008 1C78     		ldrb	r4, [r3]
 619 000a 002C     		cmp	r4, #0
 620 000c 27D1     		bne	.L47
 621              	.LBB5:
 703:Generated_Source\PSoC4/ble.c **** 
 622              		.loc 1 703 0
 623 000e 0722     		movs	r2, #7
 624 0010 0021     		movs	r1, #0
 625 0012 02A8     		add	r0, sp, #8
 626              	.LVL62:
 627 0014 FFF7FEFF 		bl	memset
 628              	.LVL63:
 705:Generated_Source\PSoC4/ble.c **** 	    {
 629              		.loc 1 705 0
 630 0018 0622     		movs	r2, #6
 631 001a 02A9     		add	r1, sp, #8
 632 001c 2800     		movs	r0, r5
 633 001e FFF7FEFF 		bl	memcmp
 634              	.LVL64:
 635 0022 0028     		cmp	r0, #0
 636 0024 04D1     		bne	.L44
 708:Generated_Source\PSoC4/ble.c ****         }
 637              		.loc 1 708 0
 638 0026 0823     		movs	r3, #8
 639 0028 1C43     		orrs	r4, r3
 640 002a 0E4B     		ldr	r3, .L48
 641 002c 1C70     		strb	r4, [r3]
 642 002e 10E0     		b	.L45
 643              	.L44:
 713:Generated_Source\PSoC4/ble.c ****             if(apiResult == CYBLE_ERROR_OK)
 644              		.loc 1 713 0
 645 0030 2900     		movs	r1, r5
 646 0032 6B46     		mov	r3, sp
 647 0034 D81D     		adds	r0, r3, #7
ARM GAS  C:\Users\Art\AppData\Local\Temp\ccqpb62o.s 			page 36


 648 0036 FFF7FEFF 		bl	CyBle_GapGetPeerBdHandle
 649              	.LVL65:
 714:Generated_Source\PSoC4/ble.c ****             {
 650              		.loc 1 714 0
 651 003a 0028     		cmp	r0, #0
 652 003c 09D1     		bne	.L45
 717:Generated_Source\PSoC4/ble.c ****                 cyBle_pendingFlashClearCccdHandle = bDevHandle;
 653              		.loc 1 717 0
 654 003e 094A     		ldr	r2, .L48
 655 0040 1178     		ldrb	r1, [r2]
 656 0042 0423     		movs	r3, #4
 657 0044 0B43     		orrs	r3, r1
 658 0046 1370     		strb	r3, [r2]
 718:Generated_Source\PSoC4/ble.c ****             }
 659              		.loc 1 718 0
 660 0048 6B46     		mov	r3, sp
 661 004a D979     		ldrb	r1, [r3, #7]
 662 004c 2123     		movs	r3, #33
 663 004e 064A     		ldr	r2, .L48+4
 664 0050 D154     		strb	r1, [r2, r3]
 665              	.LVL66:
 666              	.L45:
 722:Generated_Source\PSoC4/ble.c ****         {
 667              		.loc 1 722 0
 668 0052 0028     		cmp	r0, #0
 669 0054 04D1     		bne	.L43
 724:Generated_Source\PSoC4/ble.c ****         }
 670              		.loc 1 724 0
 671 0056 2800     		movs	r0, r5
 672              	.LVL67:
 673 0058 FFF7FEFF 		bl	CyBle_GapRemoveDeviceFromWhiteList
 674              	.LVL68:
 675 005c 00E0     		b	.L43
 676              	.LVL69:
 677              	.L47:
 678              	.LBE5:
 729:Generated_Source\PSoC4/ble.c ****     }
 679              		.loc 1 729 0
 680 005e 0220     		movs	r0, #2
 681              	.LVL70:
 682              	.L43:
 733:Generated_Source\PSoC4/ble.c **** 
 683              		.loc 1 733 0
 684 0060 05B0     		add	sp, sp, #20
 685              		@ sp needed
 686              	.LVL71:
 687 0062 30BD     		pop	{r4, r5, pc}
 688              	.L49:
 689              		.align	2
 690              	.L48:
 691 0064 00000000 		.word	cyBle_pendingFlashWrite
 692 0068 00000000 		.word	.LANCHOR1
 693              		.cfi_endproc
 694              	.LFE7:
 695              		.size	CyBle_GapRemoveBondedDevice, .-CyBle_GapRemoveBondedDevice
 696              		.section	.text.CyBle_GappStartAdvertisement,"ax",%progbits
 697              		.align	2
ARM GAS  C:\Users\Art\AppData\Local\Temp\ccqpb62o.s 			page 37


 698              		.global	CyBle_GappStartAdvertisement
 699              		.code	16
 700              		.thumb_func
 701              		.type	CyBle_GappStartAdvertisement, %function
 702              	CyBle_GappStartAdvertisement:
 703              	.LFB8:
 791:Generated_Source\PSoC4/ble.c ****         CYBLE_API_RESULT_T apiResult;
 704              		.loc 1 791 0
 705              		.cfi_startproc
 706              		@ args = 0, pretend = 0, frame = 0
 707              		@ frame_needed = 0, uses_anonymous_args = 0
 708              	.LVL72:
 709 0000 10B5     		push	{r4, lr}
 710              		.cfi_def_cfa_offset 8
 711              		.cfi_offset 4, -8
 712              		.cfi_offset 14, -4
 794:Generated_Source\PSoC4/ble.c ****         {
 713              		.loc 1 794 0
 714 0002 0228     		cmp	r0, #2
 715 0004 2FD8     		bhi	.L54
 798:Generated_Source\PSoC4/ble.c ****         {   
 716              		.loc 1 798 0
 717 0006 1C4B     		ldr	r3, .L57
 718 0008 1B78     		ldrb	r3, [r3]
 719 000a 042B     		cmp	r3, #4
 720 000c 2DD1     		bne	.L55
 798:Generated_Source\PSoC4/ble.c ****         {   
 721              		.loc 1 798 0 is_stmt 0 discriminator 1
 722 000e 1B4B     		ldr	r3, .L57+4
 723 0010 1B78     		ldrb	r3, [r3]
 724 0012 5B07     		lsls	r3, r3, #29
 725 0014 2CD4     		bmi	.L56
 800:Generated_Source\PSoC4/ble.c ****             {
 726              		.loc 1 800 0 is_stmt 1
 727 0016 0028     		cmp	r0, #0
 728 0018 09D1     		bne	.L52
 802:Generated_Source\PSoC4/ble.c ****                 cyBle_discoveryModeInfo.advParam->advIntvMin = CYBLE_FAST_ADV_INT_MIN;
 729              		.loc 1 802 0
 730 001a 194B     		ldr	r3, .L57+8
 731 001c 0022     		movs	r2, #0
 732 001e 1A86     		strh	r2, [r3, #48]
 803:Generated_Source\PSoC4/ble.c ****                 cyBle_discoveryModeInfo.advParam->advIntvMax = CYBLE_FAST_ADV_INT_MAX;
 733              		.loc 1 803 0
 734 0020 2032     		adds	r2, r2, #32
 735 0022 596A     		ldr	r1, [r3, #36]
 736 0024 0A80     		strh	r2, [r1]
 804:Generated_Source\PSoC4/ble.c ****             }
 737              		.loc 1 804 0
 738 0026 5B6A     		ldr	r3, [r3, #36]
 739 0028 1032     		adds	r2, r2, #16
 740 002a 5A80     		strh	r2, [r3, #2]
 741 002c 0CE0     		b	.L53
 742              	.L52:
 806:Generated_Source\PSoC4/ble.c ****             {
 743              		.loc 1 806 0
 744 002e 0128     		cmp	r0, #1
 745 0030 0AD1     		bne	.L53
ARM GAS  C:\Users\Art\AppData\Local\Temp\ccqpb62o.s 			page 38


 808:Generated_Source\PSoC4/ble.c ****                 cyBle_discoveryModeInfo.advParam->advIntvMin = CYBLE_SLOW_ADV_INT_MIN;
 746              		.loc 1 808 0
 747 0032 134B     		ldr	r3, .L57+8
 748 0034 9622     		movs	r2, #150
 749 0036 1A86     		strh	r2, [r3, #48]
 809:Generated_Source\PSoC4/ble.c ****                 cyBle_discoveryModeInfo.advParam->advIntvMax = CYBLE_SLOW_ADV_INT_MAX;
 750              		.loc 1 809 0
 751 0038 C822     		movs	r2, #200
 752 003a D200     		lsls	r2, r2, #3
 753 003c 596A     		ldr	r1, [r3, #36]
 754 003e 0A80     		strh	r2, [r1]
 810:Generated_Source\PSoC4/ble.c ****             }       
 755              		.loc 1 810 0
 756 0040 5B6A     		ldr	r3, [r3, #36]
 757 0042 8022     		movs	r2, #128
 758 0044 D201     		lsls	r2, r2, #7
 759 0046 5A80     		strh	r2, [r3, #2]
 760              	.L53:
 815:Generated_Source\PSoC4/ble.c ****             apiResult = CyBle_GappEnterDiscoveryMode(&cyBle_discoveryModeInfo);
 761              		.loc 1 815 0
 762 0048 0E4B     		ldr	r3, .L57+12
 763 004a 1870     		strb	r0, [r3]
 816:Generated_Source\PSoC4/ble.c ****         
 764              		.loc 1 816 0
 765 004c 0C48     		ldr	r0, .L57+8
 766              	.LVL73:
 767 004e 2030     		adds	r0, r0, #32
 768 0050 FFF7FEFF 		bl	CyBle_GappEnterDiscoveryMode
 769              	.LVL74:
 818:Generated_Source\PSoC4/ble.c ****             {
 770              		.loc 1 818 0
 771 0054 0028     		cmp	r0, #0
 772 0056 0DD1     		bne	.L51
 820:Generated_Source\PSoC4/ble.c ****             }
 773              		.loc 1 820 0
 774 0058 084A     		ldr	r2, .L57+4
 775 005a 1178     		ldrb	r1, [r2]
 776 005c 0423     		movs	r3, #4
 777 005e 0B43     		orrs	r3, r1
 778 0060 DBB2     		uxtb	r3, r3
 779 0062 1370     		strb	r3, [r2]
 780 0064 06E0     		b	.L51
 781              	.LVL75:
 782              	.L54:
 796:Generated_Source\PSoC4/ble.c ****         }
 783              		.loc 1 796 0
 784 0066 0120     		movs	r0, #1
 785              	.LVL76:
 786 0068 04E0     		b	.L51
 787              	.LVL77:
 788              	.L55:
 825:Generated_Source\PSoC4/ble.c ****         }
 789              		.loc 1 825 0
 790 006a 0420     		movs	r0, #4
 791              	.LVL78:
 792 006c FF30     		adds	r0, r0, #255
 793 006e 01E0     		b	.L51
ARM GAS  C:\Users\Art\AppData\Local\Temp\ccqpb62o.s 			page 39


 794              	.LVL79:
 795              	.L56:
 796 0070 0420     		movs	r0, #4
 797              	.LVL80:
 798 0072 FF30     		adds	r0, r0, #255
 799              	.L51:
 800              	.LVL81:
 829:Generated_Source\PSoC4/ble.c **** 
 801              		.loc 1 829 0
 802              		@ sp needed
 803 0074 10BD     		pop	{r4, pc}
 804              	.L58:
 805 0076 C046     		.align	2
 806              	.L57:
 807 0078 00000000 		.word	cyBle_state
 808 007c 00000000 		.word	cyBle_eventHandlerFlag
 809 0080 00000000 		.word	.LANCHOR0
 810 0084 00000000 		.word	cyBle_advertisingIntervalType
 811              		.cfi_endproc
 812              	.LFE8:
 813              		.size	CyBle_GappStartAdvertisement, .-CyBle_GappStartAdvertisement
 814              		.section	.text.CyBle_GappStopAdvertisement,"ax",%progbits
 815              		.align	2
 816              		.global	CyBle_GappStopAdvertisement
 817              		.code	16
 818              		.thumb_func
 819              		.type	CyBle_GappStopAdvertisement, %function
 820              	CyBle_GappStopAdvertisement:
 821              	.LFB9:
 852:Generated_Source\PSoC4/ble.c ****         CyBle_GappExitDiscoveryMode();
 822              		.loc 1 852 0
 823              		.cfi_startproc
 824              		@ args = 0, pretend = 0, frame = 0
 825              		@ frame_needed = 0, uses_anonymous_args = 0
 826 0000 10B5     		push	{r4, lr}
 827              		.cfi_def_cfa_offset 8
 828              		.cfi_offset 4, -8
 829              		.cfi_offset 14, -4
 853:Generated_Source\PSoC4/ble.c ****         cyBle_eventHandlerFlag |= CYBLE_STOP_FLAG;
 830              		.loc 1 853 0
 831 0002 FFF7FEFF 		bl	CyBle_GappExitDiscoveryMode
 832              	.LVL82:
 854:Generated_Source\PSoC4/ble.c ****     }
 833              		.loc 1 854 0
 834 0006 034A     		ldr	r2, .L60
 835 0008 1178     		ldrb	r1, [r2]
 836 000a 0823     		movs	r3, #8
 837 000c 0B43     		orrs	r3, r1
 838 000e DBB2     		uxtb	r3, r3
 839 0010 1370     		strb	r3, [r2]
 855:Generated_Source\PSoC4/ble.c ****     
 840              		.loc 1 855 0
 841              		@ sp needed
 842 0012 10BD     		pop	{r4, pc}
 843              	.L61:
 844              		.align	2
 845              	.L60:
ARM GAS  C:\Users\Art\AppData\Local\Temp\ccqpb62o.s 			page 40


 846 0014 00000000 		.word	cyBle_eventHandlerFlag
 847              		.cfi_endproc
 848              	.LFE9:
 849              		.size	CyBle_GappStopAdvertisement, .-CyBle_GappStopAdvertisement
 850              		.section	.text.CyBle_ChangeAdDeviceAddress,"ax",%progbits
 851              		.align	2
 852              		.global	CyBle_ChangeAdDeviceAddress
 853              		.code	16
 854              		.thumb_func
 855              		.type	CyBle_ChangeAdDeviceAddress, %function
 856              	CyBle_ChangeAdDeviceAddress:
 857              	.LFB10:
 874:Generated_Source\PSoC4/ble.c ****         uint8 i;
 858              		.loc 1 874 0
 859              		.cfi_startproc
 860              		@ args = 0, pretend = 0, frame = 0
 861              		@ frame_needed = 0, uses_anonymous_args = 0
 862              		@ link register save eliminated.
 863              	.LVL83:
 901:Generated_Source\PSoC4/ble.c ****   
 864              		.loc 1 901 0
 865              		@ sp needed
 866 0000 7047     		bx	lr
 867              		.cfi_endproc
 868              	.LFE10:
 869              		.size	CyBle_ChangeAdDeviceAddress, .-CyBle_ChangeAdDeviceAddress
 870 0002 C046     		.section	.text.CyBle_GapSetLocalName,"ax",%progbits
 871              		.align	2
 872              		.global	CyBle_GapSetLocalName
 873              		.code	16
 874              		.thumb_func
 875              		.type	CyBle_GapSetLocalName, %function
 876              	CyBle_GapSetLocalName:
 877              	.LFB12:
1263:Generated_Source\PSoC4/ble.c ****         
1264:Generated_Source\PSoC4/ble.c **** #endif /* (CYBLE_GAP_ROLE_PERIPHERAL) */  
1265:Generated_Source\PSoC4/ble.c ****     
1266:Generated_Source\PSoC4/ble.c ****     
1267:Generated_Source\PSoC4/ble.c ****     /******************************************************************************
1268:Generated_Source\PSoC4/ble.c ****     * Function Name: CyBle_GapSetLocalName
1269:Generated_Source\PSoC4/ble.c ****     ***************************************************************************//**
1270:Generated_Source\PSoC4/ble.c ****     *  This API is used to set the local device name - a Characteristic of the 
1271:Generated_Source\PSoC4/ble.c ****     *  GAP Service. If the characteristic length entered in the component customizer
1272:Generated_Source\PSoC4/ble.c ****     *  is shorter than the string specified by the "name" parameter, the local device
1273:Generated_Source\PSoC4/ble.c ****     *  name will be cut to the length specified in the customizer.
1274:Generated_Source\PSoC4/ble.c ****     * 
1275:Generated_Source\PSoC4/ble.c ****     *  \param name: The local device name string. The name string to be written as
1276:Generated_Source\PSoC4/ble.c ****     *              the local device name. It represents a UTF-8 encoded User
1277:Generated_Source\PSoC4/ble.c ****     *              Friendly Descriptive Name for the device. The length of the local
1278:Generated_Source\PSoC4/ble.c ****     *              device string is entered into the component customizer and it can
1279:Generated_Source\PSoC4/ble.c ****     *              be set to a value from 0 to 248 bytes. If the name contained in
1280:Generated_Source\PSoC4/ble.c ****     *              the parameter is shorter than the length from the customizer, the
1281:Generated_Source\PSoC4/ble.c ****     *              end of the name is indicated by a NULL octet (0x00).
1282:Generated_Source\PSoC4/ble.c ****     * 
1283:Generated_Source\PSoC4/ble.c ****     * \return
1284:Generated_Source\PSoC4/ble.c ****     *  CYBLE_API_RESULT_T : Return value indicates if the function succeeded or 
1285:Generated_Source\PSoC4/ble.c ****     *  failed. Following are the possible error codes.
ARM GAS  C:\Users\Art\AppData\Local\Temp\ccqpb62o.s 			page 41


1286:Generated_Source\PSoC4/ble.c ****     *
1287:Generated_Source\PSoC4/ble.c ****     *   Errors codes                       | Description
1288:Generated_Source\PSoC4/ble.c ****     *   ------------                       | -----------
1289:Generated_Source\PSoC4/ble.c ****     *   CYBLE_ERROR_OK                     | Function completed successfully.
1290:Generated_Source\PSoC4/ble.c ****     *   CYBLE_ERROR_INVALID_PARAMETER      | On specifying NULL as input parameter
1291:Generated_Source\PSoC4/ble.c ****     *  
1292:Generated_Source\PSoC4/ble.c ****     *******************************************************************************/
1293:Generated_Source\PSoC4/ble.c ****     CYBLE_API_RESULT_T CyBle_GapSetLocalName(const char8 name[])
1294:Generated_Source\PSoC4/ble.c ****     {
 878              		.loc 1 1294 0
 879              		.cfi_startproc
 880              		@ args = 0, pretend = 0, frame = 0
 881              		@ frame_needed = 0, uses_anonymous_args = 0
 882              	.LVL84:
 883 0000 70B5     		push	{r4, r5, r6, lr}
 884              		.cfi_def_cfa_offset 16
 885              		.cfi_offset 4, -16
 886              		.cfi_offset 5, -12
 887              		.cfi_offset 6, -8
 888              		.cfi_offset 14, -4
 889 0002 041E     		subs	r4, r0, #0
 890              	.LVL85:
1295:Generated_Source\PSoC4/ble.c ****         CYBLE_API_RESULT_T apiResult = CYBLE_ERROR_OK;
1296:Generated_Source\PSoC4/ble.c ****         uint8 i;
1297:Generated_Source\PSoC4/ble.c ****         char8 *ptr;
1298:Generated_Source\PSoC4/ble.c ****         uint8 charLen;
1299:Generated_Source\PSoC4/ble.c **** 
1300:Generated_Source\PSoC4/ble.c ****         if(NULL != name)
 891              		.loc 1 1300 0
 892 0004 26D0     		beq	.L69
1301:Generated_Source\PSoC4/ble.c ****         {
1302:Generated_Source\PSoC4/ble.c ****             /* Get the pointer to the Device Name characteristic  */
1303:Generated_Source\PSoC4/ble.c ****             ptr = (char8 *) CYBLE_GATT_DB_ATTR_GET_ATTR_GEN_PTR(cyBle_gaps.deviceNameCharHandle);
 893              		.loc 1 1303 0
 894 0006 144B     		ldr	r3, .L70
 895 0008 5B88     		ldrh	r3, [r3, #2]
 896 000a 013B     		subs	r3, r3, #1
 897 000c 134D     		ldr	r5, .L70+4
 898 000e 9A00     		lsls	r2, r3, #2
 899 0010 D018     		adds	r0, r2, r3
 900              	.LVL86:
 901 0012 8100     		lsls	r1, r0, #2
 902 0014 6918     		adds	r1, r5, r1
 903 0016 0969     		ldr	r1, [r1, #16]
 904 0018 4868     		ldr	r0, [r1, #4]
 905              	.LVL87:
1304:Generated_Source\PSoC4/ble.c **** 
1305:Generated_Source\PSoC4/ble.c ****             /* First need to get the maximum length of the characteristic data in the GATT
1306:Generated_Source\PSoC4/ble.c ****                 database to make sure there is enough place for the data. The length
1307:Generated_Source\PSoC4/ble.c ****                 can't be longer than 248, so only the LSB of 16 bit of length is to
1308:Generated_Source\PSoC4/ble.c ****                 be used. */
1309:Generated_Source\PSoC4/ble.c ****             charLen = (uint8)CYBLE_GATT_DB_ATTR_GET_ATTR_GEN_MAX_LEN(cyBle_gaps.deviceNameCharHandl
 906              		.loc 1 1309 0
 907 001a D318     		adds	r3, r2, r3
 908 001c 9A00     		lsls	r2, r3, #2
 909 001e AA18     		adds	r2, r5, r2
 910 0020 117B     		ldrb	r1, [r2, #12]
ARM GAS  C:\Users\Art\AppData\Local\Temp\ccqpb62o.s 			page 42


 911              	.LVL88:
1310:Generated_Source\PSoC4/ble.c **** 
1311:Generated_Source\PSoC4/ble.c ****             /* Copy name into characteristic */
1312:Generated_Source\PSoC4/ble.c ****             for(i = 0u; ((i < charLen) && (CYBLE_NULL_CHARCTER != name[i])); i++)
 912              		.loc 1 1312 0
 913 0022 0023     		movs	r3, #0
 914 0024 02E0     		b	.L65
 915              	.LVL89:
 916              	.L67:
1313:Generated_Source\PSoC4/ble.c ****             {
1314:Generated_Source\PSoC4/ble.c ****                 ptr[i] = name[i];
 917              		.loc 1 1314 0 discriminator 4
 918 0026 C254     		strb	r2, [r0, r3]
1312:Generated_Source\PSoC4/ble.c ****             {
 919              		.loc 1 1312 0 discriminator 4
 920 0028 0133     		adds	r3, r3, #1
 921              	.LVL90:
 922 002a DBB2     		uxtb	r3, r3
 923              	.LVL91:
 924              	.L65:
1312:Generated_Source\PSoC4/ble.c ****             {
 925              		.loc 1 1312 0 is_stmt 0 discriminator 1
 926 002c 8B42     		cmp	r3, r1
 927 002e 02D2     		bcs	.L66
1312:Generated_Source\PSoC4/ble.c ****             {
 928              		.loc 1 1312 0 discriminator 3
 929 0030 E25C     		ldrb	r2, [r4, r3]
 930 0032 002A     		cmp	r2, #0
 931 0034 F7D1     		bne	.L67
 932              	.L66:
1315:Generated_Source\PSoC4/ble.c ****             }
1316:Generated_Source\PSoC4/ble.c **** 
1317:Generated_Source\PSoC4/ble.c ****             if(i < charLen)
 933              		.loc 1 1317 0 is_stmt 1
 934 0036 8B42     		cmp	r3, r1
 935 0038 02D2     		bcs	.L68
1318:Generated_Source\PSoC4/ble.c ****             {
1319:Generated_Source\PSoC4/ble.c ****                 /* Terminate string */
1320:Generated_Source\PSoC4/ble.c ****                 ptr[i] = CYBLE_NULL_CHARCTER;
 936              		.loc 1 1320 0
 937 003a C318     		adds	r3, r0, r3
 938              	.LVL92:
 939 003c 0022     		movs	r2, #0
 940 003e 1A70     		strb	r2, [r3]
 941              	.L68:
1321:Generated_Source\PSoC4/ble.c ****             }
1322:Generated_Source\PSoC4/ble.c ****             
1323:Generated_Source\PSoC4/ble.c ****             /* Set new actual length */
1324:Generated_Source\PSoC4/ble.c ****             
1325:Generated_Source\PSoC4/ble.c ****             /* Update device name in advertising and scan response structure */
1326:Generated_Source\PSoC4/ble.c ****             #if(CYBLE_GAP_ROLE_PERIPHERAL)
1327:Generated_Source\PSoC4/ble.c ****                 CyBle_ChangeAdLocalName(name, 0u);
 942              		.loc 1 1327 0
 943 0040 0021     		movs	r1, #0
 944              	.LVL93:
 945 0042 2000     		movs	r0, r4
 946              	.LVL94:
ARM GAS  C:\Users\Art\AppData\Local\Temp\ccqpb62o.s 			page 43


 947 0044 FFF7FEFF 		bl	CyBle_ChangeAdLocalName
 948              	.LVL95:
1328:Generated_Source\PSoC4/ble.c ****                 CyBle_ChangeAdLocalName(name, 1u);
 949              		.loc 1 1328 0
 950 0048 0121     		movs	r1, #1
 951 004a 2000     		movs	r0, r4
 952 004c FFF7FEFF 		bl	CyBle_ChangeAdLocalName
 953              	.LVL96:
1295:Generated_Source\PSoC4/ble.c ****         uint8 i;
 954              		.loc 1 1295 0
 955 0050 0020     		movs	r0, #0
 956 0052 00E0     		b	.L64
 957              	.LVL97:
 958              	.L69:
1329:Generated_Source\PSoC4/ble.c ****             #endif /* (CYBLE_GAP_ROLE_PERIPHERAL) */
1330:Generated_Source\PSoC4/ble.c ****         }
1331:Generated_Source\PSoC4/ble.c ****         else
1332:Generated_Source\PSoC4/ble.c ****         {
1333:Generated_Source\PSoC4/ble.c ****             apiResult = CYBLE_ERROR_INVALID_PARAMETER;
 959              		.loc 1 1333 0
 960 0054 0120     		movs	r0, #1
 961              	.LVL98:
 962              	.L64:
1334:Generated_Source\PSoC4/ble.c ****         }
1335:Generated_Source\PSoC4/ble.c ****         
1336:Generated_Source\PSoC4/ble.c ****         return(apiResult);
1337:Generated_Source\PSoC4/ble.c ****     }
 963              		.loc 1 1337 0
 964              		@ sp needed
 965              	.LVL99:
 966 0056 70BD     		pop	{r4, r5, r6, pc}
 967              	.L71:
 968              		.align	2
 969              	.L70:
 970 0058 00000000 		.word	cyBle_gaps
 971 005c 00000000 		.word	cyBle_gattDB
 972              		.cfi_endproc
 973              	.LFE12:
 974              		.size	CyBle_GapSetLocalName, .-CyBle_GapSetLocalName
 975              		.section	.text.CyBle_GapGetLocalName,"ax",%progbits
 976              		.align	2
 977              		.global	CyBle_GapGetLocalName
 978              		.code	16
 979              		.thumb_func
 980              		.type	CyBle_GapGetLocalName, %function
 981              	CyBle_GapGetLocalName:
 982              	.LFB13:
1338:Generated_Source\PSoC4/ble.c **** 
1339:Generated_Source\PSoC4/ble.c **** 
1340:Generated_Source\PSoC4/ble.c ****     /******************************************************************************
1341:Generated_Source\PSoC4/ble.c ****     * Function Name: CyBle_GapGetLocalName
1342:Generated_Source\PSoC4/ble.c ****     ***************************************************************************//**
1343:Generated_Source\PSoC4/ble.c ****     *  
1344:Generated_Source\PSoC4/ble.c ****     *  This API is used to read the local device name - a Characteristic of the 
1345:Generated_Source\PSoC4/ble.c ****     *  GAP Service.
1346:Generated_Source\PSoC4/ble.c ****     * 
1347:Generated_Source\PSoC4/ble.c ****     * \param name: The local device name string. Used to read the local name to the
ARM GAS  C:\Users\Art\AppData\Local\Temp\ccqpb62o.s 			page 44


1348:Generated_Source\PSoC4/ble.c ****     *             given string array. It represents a UTF-8 encoded User Friendly 
1349:Generated_Source\PSoC4/ble.c ****     *             Descriptive Name for the device. The length of the local device
1350:Generated_Source\PSoC4/ble.c ****     *             string is entered into the component customizer and it can be set
1351:Generated_Source\PSoC4/ble.c ****     *             to a value from 0 to 248 bytes. If the name contained in the
1352:Generated_Source\PSoC4/ble.c ****     *             parameter is shorter than the length from the customizer, the end
1353:Generated_Source\PSoC4/ble.c ****     *             of the name is indicated by a NULL octet (0x00).
1354:Generated_Source\PSoC4/ble.c ****     * 
1355:Generated_Source\PSoC4/ble.c ****     * \return
1356:Generated_Source\PSoC4/ble.c ****     *  CYBLE_API_RESULT_T : Return value indicates if the function succeeded or 
1357:Generated_Source\PSoC4/ble.c ****     *  failed. Following are the possible error codes.
1358:Generated_Source\PSoC4/ble.c ****     *
1359:Generated_Source\PSoC4/ble.c ****     *   Errors codes                       | Description
1360:Generated_Source\PSoC4/ble.c ****     *   ------------                       | -----------
1361:Generated_Source\PSoC4/ble.c ****     *   CYBLE_ERROR_OK                     | Function completed successfully.
1362:Generated_Source\PSoC4/ble.c ****     *   CYBLE_ERROR_INVALID_PARAMETER      | On specifying NULL as input parameter
1363:Generated_Source\PSoC4/ble.c ****     *
1364:Generated_Source\PSoC4/ble.c ****     *******************************************************************************/
1365:Generated_Source\PSoC4/ble.c ****     CYBLE_API_RESULT_T CyBle_GapGetLocalName(char8 name[])
1366:Generated_Source\PSoC4/ble.c ****     {
 983              		.loc 1 1366 0
 984              		.cfi_startproc
 985              		@ args = 0, pretend = 0, frame = 0
 986              		@ frame_needed = 0, uses_anonymous_args = 0
 987              	.LVL100:
 988 0000 10B5     		push	{r4, lr}
 989              		.cfi_def_cfa_offset 8
 990              		.cfi_offset 4, -8
 991              		.cfi_offset 14, -4
 992              	.LVL101:
1367:Generated_Source\PSoC4/ble.c ****         CYBLE_API_RESULT_T apiResult = CYBLE_ERROR_OK;
1368:Generated_Source\PSoC4/ble.c ****         uint8 charLen;
1369:Generated_Source\PSoC4/ble.c ****         uint8 i;
1370:Generated_Source\PSoC4/ble.c ****         char8 *ptr;
1371:Generated_Source\PSoC4/ble.c **** 
1372:Generated_Source\PSoC4/ble.c ****         if(NULL != name)
 993              		.loc 1 1372 0
 994 0002 0028     		cmp	r0, #0
 995 0004 19D0     		beq	.L77
1373:Generated_Source\PSoC4/ble.c ****         {
1374:Generated_Source\PSoC4/ble.c ****             /* Get the pointer to the Device Name characteristic  */
1375:Generated_Source\PSoC4/ble.c ****             ptr = (char8 *) CYBLE_GATT_DB_ATTR_GET_ATTR_GEN_PTR(cyBle_gaps.deviceNameCharHandle);
 996              		.loc 1 1375 0
 997 0006 0E4B     		ldr	r3, .L78
 998 0008 5B88     		ldrh	r3, [r3, #2]
 999 000a 013B     		subs	r3, r3, #1
 1000 000c 9A00     		lsls	r2, r3, #2
 1001 000e D318     		adds	r3, r2, r3
 1002 0010 9A00     		lsls	r2, r3, #2
 1003 0012 0C4B     		ldr	r3, .L78+4
 1004 0014 9A18     		adds	r2, r3, r2
 1005 0016 1369     		ldr	r3, [r2, #16]
 1006 0018 5C68     		ldr	r4, [r3, #4]
 1007              	.LVL102:
1376:Generated_Source\PSoC4/ble.c **** 
1377:Generated_Source\PSoC4/ble.c ****             /* First need to get the length of the characteristic data in the GATT
1378:Generated_Source\PSoC4/ble.c ****                 database to make sure there is enough place for the data. The length
1379:Generated_Source\PSoC4/ble.c ****                 can't be longer than 248, so only the LSB of 16 bit of length is to
ARM GAS  C:\Users\Art\AppData\Local\Temp\ccqpb62o.s 			page 45


1380:Generated_Source\PSoC4/ble.c ****                 be used. */
1381:Generated_Source\PSoC4/ble.c ****             charLen = (uint8)CYBLE_GATT_DB_ATTR_GET_ATTR_GEN_LEN(cyBle_gaps.deviceNameCharHandle);
 1008              		.loc 1 1381 0
 1009 001a 1978     		ldrb	r1, [r3]
 1010              	.LVL103:
1382:Generated_Source\PSoC4/ble.c **** 
1383:Generated_Source\PSoC4/ble.c ****             /* Copy name from characteristic */
1384:Generated_Source\PSoC4/ble.c ****             for(i = 0u; ((i < charLen) && (CYBLE_NULL_CHARCTER != ptr[i])); i++)
 1011              		.loc 1 1384 0
 1012 001c 0023     		movs	r3, #0
 1013 001e 02E0     		b	.L74
 1014              	.LVL104:
 1015              	.L76:
1385:Generated_Source\PSoC4/ble.c ****             {
1386:Generated_Source\PSoC4/ble.c ****                 name[i] = ptr[i];
 1016              		.loc 1 1386 0 discriminator 4
 1017 0020 C254     		strb	r2, [r0, r3]
1384:Generated_Source\PSoC4/ble.c ****             {
 1018              		.loc 1 1384 0 discriminator 4
 1019 0022 0133     		adds	r3, r3, #1
 1020              	.LVL105:
 1021 0024 DBB2     		uxtb	r3, r3
 1022              	.LVL106:
 1023              	.L74:
1384:Generated_Source\PSoC4/ble.c ****             {
 1024              		.loc 1 1384 0 is_stmt 0 discriminator 1
 1025 0026 8B42     		cmp	r3, r1
 1026 0028 02D2     		bcs	.L75
1384:Generated_Source\PSoC4/ble.c ****             {
 1027              		.loc 1 1384 0 discriminator 3
 1028 002a E25C     		ldrb	r2, [r4, r3]
 1029 002c 002A     		cmp	r2, #0
 1030 002e F7D1     		bne	.L76
 1031              	.L75:
1387:Generated_Source\PSoC4/ble.c ****             }
1388:Generated_Source\PSoC4/ble.c **** 
1389:Generated_Source\PSoC4/ble.c ****             /* Terminate string */
1390:Generated_Source\PSoC4/ble.c ****             name[i] = CYBLE_NULL_CHARCTER;
 1032              		.loc 1 1390 0 is_stmt 1
 1033 0030 C318     		adds	r3, r0, r3
 1034              	.LVL107:
 1035 0032 0022     		movs	r2, #0
 1036 0034 1A70     		strb	r2, [r3]
1367:Generated_Source\PSoC4/ble.c ****         uint8 charLen;
 1037              		.loc 1 1367 0
 1038 0036 0020     		movs	r0, #0
 1039              	.LVL108:
 1040 0038 00E0     		b	.L73
 1041              	.LVL109:
 1042              	.L77:
1391:Generated_Source\PSoC4/ble.c ****         }
1392:Generated_Source\PSoC4/ble.c ****         else
1393:Generated_Source\PSoC4/ble.c ****         {
1394:Generated_Source\PSoC4/ble.c ****             apiResult = CYBLE_ERROR_INVALID_PARAMETER;
 1043              		.loc 1 1394 0
 1044 003a 0120     		movs	r0, #1
 1045              	.LVL110:
ARM GAS  C:\Users\Art\AppData\Local\Temp\ccqpb62o.s 			page 46


 1046              	.L73:
1395:Generated_Source\PSoC4/ble.c ****         }
1396:Generated_Source\PSoC4/ble.c ****         
1397:Generated_Source\PSoC4/ble.c ****         return(apiResult);
1398:Generated_Source\PSoC4/ble.c ****     }
 1047              		.loc 1 1398 0
 1048              		@ sp needed
 1049 003c 10BD     		pop	{r4, pc}
 1050              	.L79:
 1051 003e C046     		.align	2
 1052              	.L78:
 1053 0040 00000000 		.word	cyBle_gaps
 1054 0044 00000000 		.word	cyBle_gattDB
 1055              		.cfi_endproc
 1056              	.LFE13:
 1057              		.size	CyBle_GapGetLocalName, .-CyBle_GapGetLocalName
 1058              		.section	.text.CyBle_Get16ByPtr,"ax",%progbits
 1059              		.align	2
 1060              		.global	CyBle_Get16ByPtr
 1061              		.code	16
 1062              		.thumb_func
 1063              		.type	CyBle_Get16ByPtr, %function
 1064              	CyBle_Get16ByPtr:
 1065              	.LFB14:
1399:Generated_Source\PSoC4/ble.c **** 
1400:Generated_Source\PSoC4/ble.c **** #endif /* (CYBLE_GATT_ROLE_SERVER) */
1401:Generated_Source\PSoC4/ble.c **** 
1402:Generated_Source\PSoC4/ble.c **** 
1403:Generated_Source\PSoC4/ble.c **** /******************************************************************************
1404:Generated_Source\PSoC4/ble.c **** * Function Name: CyBle_Get16ByPtr
1405:Generated_Source\PSoC4/ble.c **** ***************************************************************************//**
1406:Generated_Source\PSoC4/ble.c **** * 
1407:Generated_Source\PSoC4/ble.c **** *  Returns the two-bytes value by using a pointer to the LSB.
1408:Generated_Source\PSoC4/ble.c **** * 
1409:Generated_Source\PSoC4/ble.c **** *  \param ptr: Pointer to the LSB of two-bytes data (little endian).
1410:Generated_Source\PSoC4/ble.c **** * 
1411:Generated_Source\PSoC4/ble.c **** *  \return
1412:Generated_Source\PSoC4/ble.c **** *  uint16: Two-bytes data.
1413:Generated_Source\PSoC4/ble.c **** * 
1414:Generated_Source\PSoC4/ble.c **** ******************************************************************************/
1415:Generated_Source\PSoC4/ble.c **** uint16 CyBle_Get16ByPtr(const uint8 ptr[])
1416:Generated_Source\PSoC4/ble.c **** {
 1066              		.loc 1 1416 0
 1067              		.cfi_startproc
 1068              		@ args = 0, pretend = 0, frame = 0
 1069              		@ frame_needed = 0, uses_anonymous_args = 0
 1070              		@ link register save eliminated.
 1071              	.LVL111:
1417:Generated_Source\PSoC4/ble.c ****     return ((uint16) ptr[0u] | ((uint16) (((uint16) ptr[1u]) << 8u)));
 1072              		.loc 1 1417 0
 1073 0000 0378     		ldrb	r3, [r0]
 1074 0002 4078     		ldrb	r0, [r0, #1]
 1075              	.LVL112:
 1076 0004 0002     		lsls	r0, r0, #8
 1077 0006 1843     		orrs	r0, r3
1418:Generated_Source\PSoC4/ble.c **** }
 1078              		.loc 1 1418 0
ARM GAS  C:\Users\Art\AppData\Local\Temp\ccqpb62o.s 			page 47


 1079              		@ sp needed
 1080 0008 7047     		bx	lr
 1081              		.cfi_endproc
 1082              	.LFE14:
 1083              		.size	CyBle_Get16ByPtr, .-CyBle_Get16ByPtr
 1084 000a C046     		.section	.text.CyBle_Set16ByPtr,"ax",%progbits
 1085              		.align	2
 1086              		.global	CyBle_Set16ByPtr
 1087              		.code	16
 1088              		.thumb_func
 1089              		.type	CyBle_Set16ByPtr, %function
 1090              	CyBle_Set16ByPtr:
 1091              	.LFB15:
1419:Generated_Source\PSoC4/ble.c **** 
1420:Generated_Source\PSoC4/ble.c **** 
1421:Generated_Source\PSoC4/ble.c **** /******************************************************************************
1422:Generated_Source\PSoC4/ble.c **** * Function Name: CyBle_Set16ByPtr
1423:Generated_Source\PSoC4/ble.c **** ***************************************************************************//**
1424:Generated_Source\PSoC4/ble.c **** * 
1425:Generated_Source\PSoC4/ble.c **** *  Sets the two-bytes value by using a pointer to the LSB.
1426:Generated_Source\PSoC4/ble.c **** * 
1427:Generated_Source\PSoC4/ble.c **** *  \param ptr:    Pointer to the LSB of two-bytes data (little endian).
1428:Generated_Source\PSoC4/ble.c **** *  \param value:  Two-bytes data to be written.
1429:Generated_Source\PSoC4/ble.c **** * 
1430:Generated_Source\PSoC4/ble.c **** *  \return
1431:Generated_Source\PSoC4/ble.c **** *  None
1432:Generated_Source\PSoC4/ble.c **** * 
1433:Generated_Source\PSoC4/ble.c **** ******************************************************************************/
1434:Generated_Source\PSoC4/ble.c **** void CyBle_Set16ByPtr(uint8 ptr[], uint16 value)
1435:Generated_Source\PSoC4/ble.c **** {
 1092              		.loc 1 1435 0
 1093              		.cfi_startproc
 1094              		@ args = 0, pretend = 0, frame = 0
 1095              		@ frame_needed = 0, uses_anonymous_args = 0
 1096              		@ link register save eliminated.
 1097              	.LVL113:
1436:Generated_Source\PSoC4/ble.c ****     ptr[0u] = (uint8) value;
 1098              		.loc 1 1436 0
 1099 0000 0170     		strb	r1, [r0]
1437:Generated_Source\PSoC4/ble.c ****     ptr[1u] = (uint8) (value >> 8u);
 1100              		.loc 1 1437 0
 1101 0002 090A     		lsrs	r1, r1, #8
 1102              	.LVL114:
 1103 0004 4170     		strb	r1, [r0, #1]
1438:Generated_Source\PSoC4/ble.c **** }
 1104              		.loc 1 1438 0
 1105              		@ sp needed
 1106 0006 7047     		bx	lr
 1107              		.cfi_endproc
 1108              	.LFE15:
 1109              		.size	CyBle_Set16ByPtr, .-CyBle_Set16ByPtr
 1110              		.global	cyBle_sflashDeviceAddress
 1111              		.global	cyBle_deviceAddress
 1112              		.comm	CyBle_ApplCallback,4,4
 1113              		.comm	cyBle_pendingFlashWrite,1,1
 1114              		.comm	cyBle_peerBonding,1,1
 1115              		.global	cyBle_discoveryModeInfo
ARM GAS  C:\Users\Art\AppData\Local\Temp\ccqpb62o.s 			page 48


 1116              		.global	cyBle_scanRspData
 1117              		.global	cyBle_discoveryData
 1118              		.global	cyBle_discoveryParam
 1119              		.global	cyBle_stackMemoryRam
 1120              		.global	cyBle_initVar
 1121              		.section	.rodata
 1122              		.align	2
 1123              		.set	.LANCHOR2,. + 0
 1124              	.LC0:
 1125 0000 2400     		.short	36
 1126 0002 03       		.byte	3
 1127 0003 00       		.space	1
 1128 0004 3000     		.short	48
 1129 0006 01       		.byte	1
 1130 0007 00       		.space	1
 1131 0008 2800     		.short	40
 1132 000a 02       		.byte	2
 1133 000b 00       		.space	1
 1134 000c 2400     		.short	36
 1135 000e 01       		.byte	1
 1136 000f 00       		.space	1
 1137 0010 2400     		.short	36
 1138 0012 01       		.byte	1
 1139 0013 00       		.space	1
 1140              		.data
 1141              		.align	2
 1142              		.set	.LANCHOR0,. + 0
 1143              		.type	cyBle_discoveryData, %object
 1144              		.size	cyBle_discoveryData, 32
 1145              	cyBle_discoveryData:
 1146 0000 02       		.byte	2
 1147 0001 01       		.byte	1
 1148 0002 06       		.byte	6
 1149 0003 07       		.byte	7
 1150 0004 09       		.byte	9
 1151 0005 63       		.byte	99
 1152 0006 61       		.byte	97
 1153 0007 70       		.byte	112
 1154 0008 6C       		.byte	108
 1155 0009 65       		.byte	101
 1156 000a 64       		.byte	100
 1157 000b 11       		.byte	17
 1158 000c 07       		.byte	7
 1159 000d F0       		.byte	-16
 1160 000e 34       		.byte	52
 1161 000f 9B       		.byte	-101
 1162 0010 5F       		.byte	95
 1163 0011 80       		.byte	-128
 1164 0012 00       		.byte	0
 1165 0013 00       		.byte	0
 1166 0014 80       		.byte	-128
 1167 0015 00       		.byte	0
 1168 0016 10       		.byte	16
 1169 0017 00       		.byte	0
 1170 0018 00       		.byte	0
 1171 0019 00       		.byte	0
 1172 001a 00       		.byte	0
ARM GAS  C:\Users\Art\AppData\Local\Temp\ccqpb62o.s 			page 49


 1173 001b 00       		.byte	0
 1174 001c 00       		.byte	0
 1175 001d 00       		.byte	0
 1176 001e 00       		.byte	0
 1177 001f 1D       		.byte	29
 1178              		.type	cyBle_discoveryModeInfo, %object
 1179              		.size	cyBle_discoveryModeInfo, 20
 1180              	cyBle_discoveryModeInfo:
 1181 0020 02       		.byte	2
 1182 0021 000000   		.space	3
 1183 0024 00000000 		.word	cyBle_discoveryParam
 1184 0028 00000000 		.word	cyBle_discoveryData
 1185 002c 00000000 		.word	cyBle_scanRspData
 1186 0030 0000     		.short	0
 1187 0032 0000     		.space	2
 1188              		.type	cyBle_sflashDeviceAddress, %object
 1189              		.size	cyBle_sflashDeviceAddress, 4
 1190              	cyBle_sflashDeviceAddress:
 1191 0034 00F2FF0F 		.word	268431872
 1192              		.type	cyBle_deviceAddress, %object
 1193              		.size	cyBle_deviceAddress, 7
 1194              	cyBle_deviceAddress:
 1195 0038 00       		.byte	0
 1196 0039 00       		.byte	0
 1197 003a 00       		.byte	0
 1198 003b 50       		.byte	80
 1199 003c A0       		.byte	-96
 1200 003d 00       		.byte	0
 1201 003e 00       		.byte	0
 1202 003f 00       		.space	1
 1203              		.type	cyBle_discoveryParam, %object
 1204              		.size	cyBle_discoveryParam, 16
 1205              	cyBle_discoveryParam:
 1206 0040 2000     		.short	32
 1207 0042 3000     		.short	48
 1208 0044 00       		.byte	0
 1209 0045 00       		.byte	0
 1210 0046 00       		.byte	0
 1211 0047 00       		.byte	0
 1212 0048 00       		.byte	0
 1213 0049 00       		.byte	0
 1214 004a 50       		.byte	80
 1215 004b A0       		.byte	-96
 1216 004c 00       		.byte	0
 1217 004d 07       		.byte	7
 1218 004e 00       		.byte	0
 1219 004f 00       		.space	1
 1220              		.section	.noinit,"aw",%progbits
 1221              		.align	3
 1222              		.set	.LANCHOR3,. + 0
 1223              		.type	cyBle_stackMemoryRam, %object
 1224              		.size	cyBle_stackMemoryRam, 2784
 1225              	cyBle_stackMemoryRam:
 1226 0000 00000000 		.space	2784
 1226      00000000 
 1226      00000000 
 1226      00000000 
ARM GAS  C:\Users\Art\AppData\Local\Temp\ccqpb62o.s 			page 50


 1226      00000000 
 1227              		.bss
 1228              		.align	2
 1229              		.set	.LANCHOR1,. + 0
 1230              		.type	cyBle_scanRspData, %object
 1231              		.size	cyBle_scanRspData, 32
 1232              	cyBle_scanRspData:
 1233 0000 00000000 		.space	32
 1233      00000000 
 1233      00000000 
 1233      00000000 
 1233      00000000 
 1234              		.type	cyBle_initVar, %object
 1235              		.size	cyBle_initVar, 1
 1236              	cyBle_initVar:
 1237 0020 00       		.space	1
 1238              		.type	cyBle_pendingFlashClearCccdHandle, %object
 1239              		.size	cyBle_pendingFlashClearCccdHandle, 1
 1240              	cyBle_pendingFlashClearCccdHandle:
 1241 0021 00       		.space	1
 1242              		.text
 1243              	.Letext0:
 1244              		.file 2 "Generated_Source\\PSoC4\\cytypes.h"
 1245              		.file 3 "Generated_Source\\PSoC4\\ble_Stack.h"
 1246              		.file 4 "Generated_Source\\PSoC4\\ble_StackGap.h"
 1247              		.file 5 "Generated_Source\\PSoC4\\ble_StackGatt.h"
 1248              		.file 6 "Generated_Source\\PSoC4\\ble_StackGattDb.h"
 1249              		.file 7 "Generated_Source\\PSoC4\\ble.h"
 1250              		.file 8 "Generated_Source\\PSoC4\\ble_gatt.h"
 1251              		.file 9 "Generated_Source\\PSoC4\\ble_eventHandler.h"
 1252              		.file 10 "Generated_Source\\PSoC4\\ble_custom.h"
 1253              		.file 11 "Generated_Source\\PSoC4\\ble_StackHostMain.h"
 1254              		.file 12 "c:\\program files (x86)\\cypress\\psoc creator\\4.1\\psoc creator\\import\\gnu\\arm\\5.4
 1255              		.section	.debug_info,"",%progbits
 1256              	.Ldebug_info0:
 1257 0000 8D100000 		.4byte	0x108d
 1258 0004 0400     		.2byte	0x4
 1259 0006 00000000 		.4byte	.Ldebug_abbrev0
 1260 000a 04       		.byte	0x4
 1261 000b 01       		.uleb128 0x1
 1262 000c 53010000 		.4byte	.LASF272
 1263 0010 0C       		.byte	0xc
 1264 0011 1B090000 		.4byte	.LASF273
 1265 0015 E9160000 		.4byte	.LASF274
 1266 0019 00000000 		.4byte	.Ldebug_ranges0+0
 1267 001d 00000000 		.4byte	0
 1268 0021 00000000 		.4byte	.Ldebug_line0
 1269 0025 02       		.uleb128 0x2
 1270 0026 01       		.byte	0x1
 1271 0027 06       		.byte	0x6
 1272 0028 E0040000 		.4byte	.LASF0
 1273 002c 02       		.uleb128 0x2
 1274 002d 01       		.byte	0x1
 1275 002e 08       		.byte	0x8
 1276 002f 77050000 		.4byte	.LASF1
 1277 0033 02       		.uleb128 0x2
 1278 0034 02       		.byte	0x2
ARM GAS  C:\Users\Art\AppData\Local\Temp\ccqpb62o.s 			page 51


 1279 0035 05       		.byte	0x5
 1280 0036 F8130000 		.4byte	.LASF2
 1281 003a 02       		.uleb128 0x2
 1282 003b 02       		.byte	0x2
 1283 003c 07       		.byte	0x7
 1284 003d 92170000 		.4byte	.LASF3
 1285 0041 02       		.uleb128 0x2
 1286 0042 04       		.byte	0x4
 1287 0043 05       		.byte	0x5
 1288 0044 4B030000 		.4byte	.LASF4
 1289 0048 02       		.uleb128 0x2
 1290 0049 04       		.byte	0x4
 1291 004a 07       		.byte	0x7
 1292 004b 540A0000 		.4byte	.LASF5
 1293 004f 02       		.uleb128 0x2
 1294 0050 08       		.byte	0x8
 1295 0051 05       		.byte	0x5
 1296 0052 130C0000 		.4byte	.LASF6
 1297 0056 02       		.uleb128 0x2
 1298 0057 08       		.byte	0x8
 1299 0058 07       		.byte	0x7
 1300 0059 12110000 		.4byte	.LASF7
 1301 005d 03       		.uleb128 0x3
 1302 005e 04       		.byte	0x4
 1303 005f 05       		.byte	0x5
 1304 0060 696E7400 		.ascii	"int\000"
 1305 0064 02       		.uleb128 0x2
 1306 0065 04       		.byte	0x4
 1307 0066 07       		.byte	0x7
 1308 0067 FF0D0000 		.4byte	.LASF8
 1309 006b 04       		.uleb128 0x4
 1310 006c AF130000 		.4byte	.LASF9
 1311 0070 02       		.byte	0x2
 1312 0071 D201     		.2byte	0x1d2
 1313 0073 2C000000 		.4byte	0x2c
 1314 0077 04       		.uleb128 0x4
 1315 0078 F7180000 		.4byte	.LASF10
 1316 007c 02       		.byte	0x2
 1317 007d D301     		.2byte	0x1d3
 1318 007f 3A000000 		.4byte	0x3a
 1319 0083 04       		.uleb128 0x4
 1320 0084 AC000000 		.4byte	.LASF11
 1321 0088 02       		.byte	0x2
 1322 0089 D401     		.2byte	0x1d4
 1323 008b 48000000 		.4byte	0x48
 1324 008f 02       		.uleb128 0x2
 1325 0090 04       		.byte	0x4
 1326 0091 04       		.byte	0x4
 1327 0092 8A0D0000 		.4byte	.LASF12
 1328 0096 02       		.uleb128 0x2
 1329 0097 08       		.byte	0x8
 1330 0098 04       		.byte	0x4
 1331 0099 6D0C0000 		.4byte	.LASF13
 1332 009d 04       		.uleb128 0x4
 1333 009e 2A010000 		.4byte	.LASF14
 1334 00a2 02       		.byte	0x2
 1335 00a3 E301     		.2byte	0x1e3
ARM GAS  C:\Users\Art\AppData\Local\Temp\ccqpb62o.s 			page 52


 1336 00a5 A9000000 		.4byte	0xa9
 1337 00a9 02       		.uleb128 0x2
 1338 00aa 01       		.byte	0x1
 1339 00ab 08       		.byte	0x8
 1340 00ac 94060000 		.4byte	.LASF15
 1341 00b0 05       		.uleb128 0x5
 1342 00b1 6B000000 		.4byte	0x6b
 1343 00b5 02       		.uleb128 0x2
 1344 00b6 08       		.byte	0x8
 1345 00b7 04       		.byte	0x4
 1346 00b8 4C100000 		.4byte	.LASF16
 1347 00bc 02       		.uleb128 0x2
 1348 00bd 04       		.byte	0x4
 1349 00be 07       		.byte	0x7
 1350 00bf 1E000000 		.4byte	.LASF17
 1351 00c3 06       		.uleb128 0x6
 1352 00c4 04       		.byte	0x4
 1353 00c5 07       		.uleb128 0x7
 1354 00c6 04       		.byte	0x4
 1355 00c7 CB000000 		.4byte	0xcb
 1356 00cb 08       		.uleb128 0x8
 1357 00cc DB000000 		.4byte	0xdb
 1358 00d0 09       		.uleb128 0x9
 1359 00d1 83000000 		.4byte	0x83
 1360 00d5 09       		.uleb128 0x9
 1361 00d6 C3000000 		.4byte	0xc3
 1362 00da 00       		.byte	0
 1363 00db 0A       		.uleb128 0xa
 1364 00dc 01       		.byte	0x1
 1365 00dd 2C000000 		.4byte	0x2c
 1366 00e1 03       		.byte	0x3
 1367 00e2 4D01     		.2byte	0x14d
 1368 00e4 99020000 		.4byte	0x299
 1369 00e8 0B       		.uleb128 0xb
 1370 00e9 D6060000 		.4byte	.LASF18
 1371 00ed 00       		.byte	0
 1372 00ee 0B       		.uleb128 0xb
 1373 00ef C3030000 		.4byte	.LASF19
 1374 00f3 01       		.byte	0x1
 1375 00f4 0B       		.uleb128 0xb
 1376 00f5 29110000 		.4byte	.LASF20
 1377 00f9 02       		.byte	0x2
 1378 00fa 0B       		.uleb128 0xb
 1379 00fb 14050000 		.4byte	.LASF21
 1380 00ff 03       		.byte	0x3
 1381 0100 0B       		.uleb128 0xb
 1382 0101 3A180000 		.4byte	.LASF22
 1383 0105 04       		.byte	0x4
 1384 0106 0B       		.uleb128 0xb
 1385 0107 A9160000 		.4byte	.LASF23
 1386 010b 05       		.byte	0x5
 1387 010c 0B       		.uleb128 0xb
 1388 010d 63100000 		.4byte	.LASF24
 1389 0111 06       		.byte	0x6
 1390 0112 0B       		.uleb128 0xb
 1391 0113 03150000 		.4byte	.LASF25
 1392 0117 20       		.byte	0x20
ARM GAS  C:\Users\Art\AppData\Local\Temp\ccqpb62o.s 			page 53


 1393 0118 0B       		.uleb128 0xb
 1394 0119 2E020000 		.4byte	.LASF26
 1395 011d 21       		.byte	0x21
 1396 011e 0B       		.uleb128 0xb
 1397 011f AE0B0000 		.4byte	.LASF27
 1398 0123 22       		.byte	0x22
 1399 0124 0B       		.uleb128 0xb
 1400 0125 470F0000 		.4byte	.LASF28
 1401 0129 23       		.byte	0x23
 1402 012a 0B       		.uleb128 0xb
 1403 012b B0090000 		.4byte	.LASF29
 1404 012f 24       		.byte	0x24
 1405 0130 0B       		.uleb128 0xb
 1406 0131 DC090000 		.4byte	.LASF30
 1407 0135 25       		.byte	0x25
 1408 0136 0B       		.uleb128 0xb
 1409 0137 59130000 		.4byte	.LASF31
 1410 013b 26       		.byte	0x26
 1411 013c 0B       		.uleb128 0xb
 1412 013d 5A000000 		.4byte	.LASF32
 1413 0141 27       		.byte	0x27
 1414 0142 0B       		.uleb128 0xb
 1415 0143 B4180000 		.4byte	.LASF33
 1416 0147 28       		.byte	0x28
 1417 0148 0B       		.uleb128 0xb
 1418 0149 A2100000 		.4byte	.LASF34
 1419 014d 29       		.byte	0x29
 1420 014e 0B       		.uleb128 0xb
 1421 014f 130B0000 		.4byte	.LASF35
 1422 0153 2A       		.byte	0x2a
 1423 0154 0B       		.uleb128 0xb
 1424 0155 960E0000 		.4byte	.LASF36
 1425 0159 2B       		.byte	0x2b
 1426 015a 0B       		.uleb128 0xb
 1427 015b C5160000 		.4byte	.LASF37
 1428 015f 2C       		.byte	0x2c
 1429 0160 0B       		.uleb128 0xb
 1430 0161 27000000 		.4byte	.LASF38
 1431 0165 2D       		.byte	0x2d
 1432 0166 0B       		.uleb128 0xb
 1433 0167 C3130000 		.4byte	.LASF39
 1434 016b 2E       		.byte	0x2e
 1435 016c 0B       		.uleb128 0xb
 1436 016d BF020000 		.4byte	.LASF40
 1437 0171 2F       		.byte	0x2f
 1438 0172 0B       		.uleb128 0xb
 1439 0173 73060000 		.4byte	.LASF41
 1440 0177 30       		.byte	0x30
 1441 0178 0B       		.uleb128 0xb
 1442 0179 F60C0000 		.4byte	.LASF42
 1443 017d 31       		.byte	0x31
 1444 017e 0B       		.uleb128 0xb
 1445 017f 1F070000 		.4byte	.LASF43
 1446 0183 32       		.byte	0x32
 1447 0184 0B       		.uleb128 0xb
 1448 0185 A3050000 		.4byte	.LASF44
 1449 0189 33       		.byte	0x33
ARM GAS  C:\Users\Art\AppData\Local\Temp\ccqpb62o.s 			page 54


 1450 018a 0B       		.uleb128 0xb
 1451 018b CA050000 		.4byte	.LASF45
 1452 018f 34       		.byte	0x34
 1453 0190 0B       		.uleb128 0xb
 1454 0191 73150000 		.4byte	.LASF46
 1455 0195 35       		.byte	0x35
 1456 0196 0B       		.uleb128 0xb
 1457 0197 86020000 		.4byte	.LASF47
 1458 019b 36       		.byte	0x36
 1459 019c 0B       		.uleb128 0xb
 1460 019d DD100000 		.4byte	.LASF48
 1461 01a1 37       		.byte	0x37
 1462 01a2 0B       		.uleb128 0xb
 1463 01a3 7A140000 		.4byte	.LASF49
 1464 01a7 40       		.byte	0x40
 1465 01a8 0B       		.uleb128 0xb
 1466 01a9 79000000 		.4byte	.LASF50
 1467 01ad 41       		.byte	0x41
 1468 01ae 0B       		.uleb128 0xb
 1469 01af 4F180000 		.4byte	.LASF51
 1470 01b3 42       		.byte	0x42
 1471 01b4 0B       		.uleb128 0xb
 1472 01b5 BF100000 		.4byte	.LASF52
 1473 01b9 43       		.byte	0x43
 1474 01ba 0B       		.uleb128 0xb
 1475 01bb 85050000 		.4byte	.LASF53
 1476 01bf 44       		.byte	0x44
 1477 01c0 0B       		.uleb128 0xb
 1478 01c1 3C050000 		.4byte	.LASF54
 1479 01c5 45       		.byte	0x45
 1480 01c6 0B       		.uleb128 0xb
 1481 01c7 7C120000 		.4byte	.LASF55
 1482 01cb 46       		.byte	0x46
 1483 01cc 0B       		.uleb128 0xb
 1484 01cd 5E120000 		.4byte	.LASF56
 1485 01d1 47       		.byte	0x47
 1486 01d2 0B       		.uleb128 0xb
 1487 01d3 4C060000 		.4byte	.LASF57
 1488 01d7 48       		.byte	0x48
 1489 01d8 0B       		.uleb128 0xb
 1490 01d9 9F0F0000 		.4byte	.LASF58
 1491 01dd 49       		.byte	0x49
 1492 01de 0B       		.uleb128 0xb
 1493 01df 5D070000 		.4byte	.LASF59
 1494 01e3 4A       		.byte	0x4a
 1495 01e4 0B       		.uleb128 0xb
 1496 01e5 B7060000 		.4byte	.LASF60
 1497 01e9 4B       		.byte	0x4b
 1498 01ea 0B       		.uleb128 0xb
 1499 01eb D70E0000 		.4byte	.LASF61
 1500 01ef 4C       		.byte	0x4c
 1501 01f0 0B       		.uleb128 0xb
 1502 01f1 EF120000 		.4byte	.LASF62
 1503 01f5 4D       		.byte	0x4d
 1504 01f6 0B       		.uleb128 0xb
 1505 01f7 0A030000 		.4byte	.LASF63
 1506 01fb 4E       		.byte	0x4e
ARM GAS  C:\Users\Art\AppData\Local\Temp\ccqpb62o.s 			page 55


 1507 01fc 0B       		.uleb128 0xb
 1508 01fd 190E0000 		.4byte	.LASF64
 1509 0201 4F       		.byte	0x4f
 1510 0202 0B       		.uleb128 0xb
 1511 0203 E4140000 		.4byte	.LASF65
 1512 0207 50       		.byte	0x50
 1513 0208 0B       		.uleb128 0xb
 1514 0209 7B070000 		.4byte	.LASF66
 1515 020d 51       		.byte	0x51
 1516 020e 0B       		.uleb128 0xb
 1517 020f 0D020000 		.4byte	.LASF67
 1518 0213 52       		.byte	0x52
 1519 0214 0B       		.uleb128 0xb
 1520 0215 63160000 		.4byte	.LASF68
 1521 0219 53       		.byte	0x53
 1522 021a 0B       		.uleb128 0xb
 1523 021b D6180000 		.4byte	.LASF69
 1524 021f 54       		.byte	0x54
 1525 0220 0B       		.uleb128 0xb
 1526 0221 F90E0000 		.4byte	.LASF70
 1527 0225 55       		.byte	0x55
 1528 0226 0B       		.uleb128 0xb
 1529 0227 A5070000 		.4byte	.LASF71
 1530 022b 56       		.byte	0x56
 1531 022c 0B       		.uleb128 0xb
 1532 022d B50D0000 		.4byte	.LASF72
 1533 0231 57       		.byte	0x57
 1534 0232 0B       		.uleb128 0xb
 1535 0233 91180000 		.4byte	.LASF73
 1536 0237 58       		.byte	0x58
 1537 0238 0B       		.uleb128 0xb
 1538 0239 43170000 		.4byte	.LASF74
 1539 023d 70       		.byte	0x70
 1540 023e 0B       		.uleb128 0xb
 1541 023f 48090000 		.4byte	.LASF75
 1542 0243 71       		.byte	0x71
 1543 0244 0B       		.uleb128 0xb
 1544 0245 8A040000 		.4byte	.LASF76
 1545 0249 72       		.byte	0x72
 1546 024a 0B       		.uleb128 0xb
 1547 024b C6140000 		.4byte	.LASF77
 1548 024f 73       		.byte	0x73
 1549 0250 0B       		.uleb128 0xb
 1550 0251 E40F0000 		.4byte	.LASF78
 1551 0255 74       		.byte	0x74
 1552 0256 0B       		.uleb128 0xb
 1553 0257 820B0000 		.4byte	.LASF79
 1554 025b 75       		.byte	0x75
 1555 025c 0B       		.uleb128 0xb
 1556 025d 2B060000 		.4byte	.LASF80
 1557 0261 76       		.byte	0x76
 1558 0262 0B       		.uleb128 0xb
 1559 0263 7E110000 		.4byte	.LASF81
 1560 0267 77       		.byte	0x77
 1561 0268 0B       		.uleb128 0xb
 1562 0269 30010000 		.4byte	.LASF82
 1563 026d 78       		.byte	0x78
ARM GAS  C:\Users\Art\AppData\Local\Temp\ccqpb62o.s 			page 56


 1564 026e 0B       		.uleb128 0xb
 1565 026f 28030000 		.4byte	.LASF83
 1566 0273 79       		.byte	0x79
 1567 0274 0B       		.uleb128 0xb
 1568 0275 6D180000 		.4byte	.LASF84
 1569 0279 7A       		.byte	0x7a
 1570 027a 0B       		.uleb128 0xb
 1571 027b 960C0000 		.4byte	.LASF85
 1572 027f FA       		.byte	0xfa
 1573 0280 0B       		.uleb128 0xb
 1574 0281 1D160000 		.4byte	.LASF86
 1575 0285 FB       		.byte	0xfb
 1576 0286 0B       		.uleb128 0xb
 1577 0287 6E090000 		.4byte	.LASF87
 1578 028b FC       		.byte	0xfc
 1579 028c 0B       		.uleb128 0xb
 1580 028d 34100000 		.4byte	.LASF88
 1581 0291 FD       		.byte	0xfd
 1582 0292 0B       		.uleb128 0xb
 1583 0293 880E0000 		.4byte	.LASF89
 1584 0297 FF       		.byte	0xff
 1585 0298 00       		.byte	0
 1586 0299 0A       		.uleb128 0xa
 1587 029a 02       		.byte	0x2
 1588 029b 3A000000 		.4byte	0x3a
 1589 029f 03       		.byte	0x3
 1590 02a0 0204     		.2byte	0x402
 1591 02a2 72030000 		.4byte	0x372
 1592 02a6 0B       		.uleb128 0xb
 1593 02a7 2D050000 		.4byte	.LASF90
 1594 02ab 00       		.byte	0
 1595 02ac 0B       		.uleb128 0xb
 1596 02ad 47080000 		.4byte	.LASF91
 1597 02b1 01       		.byte	0x1
 1598 02b2 0B       		.uleb128 0xb
 1599 02b3 13180000 		.4byte	.LASF92
 1600 02b7 02       		.byte	0x2
 1601 02b8 0B       		.uleb128 0xb
 1602 02b9 C3080000 		.4byte	.LASF93
 1603 02bd 03       		.byte	0x3
 1604 02be 0B       		.uleb128 0xb
 1605 02bf 310A0000 		.4byte	.LASF94
 1606 02c3 04       		.byte	0x4
 1607 02c4 0B       		.uleb128 0xb
 1608 02c5 4F0C0000 		.4byte	.LASF95
 1609 02c9 05       		.byte	0x5
 1610 02ca 0B       		.uleb128 0xb
 1611 02cb F0150000 		.4byte	.LASF96
 1612 02cf 06       		.byte	0x6
 1613 02d0 0B       		.uleb128 0xb
 1614 02d1 40070000 		.4byte	.LASF97
 1615 02d5 07       		.byte	0x7
 1616 02d6 0B       		.uleb128 0xb
 1617 02d7 6C0D0000 		.4byte	.LASF98
 1618 02db 08       		.byte	0x8
 1619 02dc 0B       		.uleb128 0xb
 1620 02dd 49150000 		.4byte	.LASF99
ARM GAS  C:\Users\Art\AppData\Local\Temp\ccqpb62o.s 			page 57


 1621 02e1 09       		.byte	0x9
 1622 02e2 0B       		.uleb128 0xb
 1623 02e3 0A190000 		.4byte	.LASF100
 1624 02e7 0A       		.byte	0xa
 1625 02e8 0B       		.uleb128 0xb
 1626 02e9 66020000 		.4byte	.LASF101
 1627 02ed 0B       		.byte	0xb
 1628 02ee 0B       		.uleb128 0xb
 1629 02ef 84160000 		.4byte	.LASF102
 1630 02f3 0C       		.byte	0xc
 1631 02f4 0B       		.uleb128 0xb
 1632 02f5 5B0E0000 		.4byte	.LASF103
 1633 02f9 0D       		.byte	0xd
 1634 02fa 0B       		.uleb128 0xb
 1635 02fb C00A0000 		.4byte	.LASF104
 1636 02ff 0E       		.byte	0xe
 1637 0300 0B       		.uleb128 0xb
 1638 0301 2A0C0000 		.4byte	.LASF105
 1639 0305 0F       		.byte	0xf
 1640 0306 0B       		.uleb128 0xb
 1641 0307 C7000000 		.4byte	.LASF106
 1642 030b 10       		.byte	0x10
 1643 030c 0B       		.uleb128 0xb
 1644 030d 1A0D0000 		.4byte	.LASF107
 1645 0311 11       		.byte	0x11
 1646 0312 0B       		.uleb128 0xb
 1647 0313 D6030000 		.4byte	.LASF108
 1648 0317 12       		.byte	0x12
 1649 0318 0B       		.uleb128 0xb
 1650 0319 B8040000 		.4byte	.LASF109
 1651 031d 13       		.byte	0x13
 1652 031e 0B       		.uleb128 0xb
 1653 031f 740C0000 		.4byte	.LASF110
 1654 0323 27       		.byte	0x27
 1655 0324 0B       		.uleb128 0xb
 1656 0325 900D0000 		.4byte	.LASF111
 1657 0329 28       		.byte	0x28
 1658 032a 0B       		.uleb128 0xb
 1659 032b F5000000 		.4byte	.LASF112
 1660 032f 29       		.byte	0x29
 1661 0330 0B       		.uleb128 0xb
 1662 0331 47140000 		.4byte	.LASF113
 1663 0335 2A       		.byte	0x2a
 1664 0336 0B       		.uleb128 0xb
 1665 0337 660A0000 		.4byte	.LASF114
 1666 033b 2B       		.byte	0x2b
 1667 033c 0B       		.uleb128 0xb
 1668 033d BF110000 		.4byte	.LASF115
 1669 0341 2C       		.byte	0x2c
 1670 0342 0B       		.uleb128 0xb
 1671 0343 2B080000 		.4byte	.LASF116
 1672 0347 FE       		.byte	0xfe
 1673 0348 0B       		.uleb128 0xb
 1674 0349 38090000 		.4byte	.LASF117
 1675 034d FF       		.byte	0xff
 1676 034e 0C       		.uleb128 0xc
 1677 034f 860F0000 		.4byte	.LASF118
ARM GAS  C:\Users\Art\AppData\Local\Temp\ccqpb62o.s 			page 58


 1678 0353 0001     		.2byte	0x100
 1679 0355 0C       		.uleb128 0xc
 1680 0356 6D0F0000 		.4byte	.LASF119
 1681 035a 0101     		.2byte	0x101
 1682 035c 0C       		.uleb128 0xc
 1683 035d 35040000 		.4byte	.LASF120
 1684 0361 0201     		.2byte	0x102
 1685 0363 0C       		.uleb128 0xc
 1686 0364 48110000 		.4byte	.LASF121
 1687 0368 0301     		.2byte	0x103
 1688 036a 0C       		.uleb128 0xc
 1689 036b F6090000 		.4byte	.LASF122
 1690 036f 0401     		.2byte	0x104
 1691 0371 00       		.byte	0
 1692 0372 04       		.uleb128 0x4
 1693 0373 3C160000 		.4byte	.LASF123
 1694 0377 03       		.byte	0x3
 1695 0378 7104     		.2byte	0x471
 1696 037a 99020000 		.4byte	0x299
 1697 037e 0D       		.uleb128 0xd
 1698 037f 07       		.byte	0x7
 1699 0380 03       		.byte	0x3
 1700 0381 3F05     		.2byte	0x53f
 1701 0383 A2030000 		.4byte	0x3a2
 1702 0387 0E       		.uleb128 0xe
 1703 0388 B0150000 		.4byte	.LASF124
 1704 038c 03       		.byte	0x3
 1705 038d 4205     		.2byte	0x542
 1706 038f A2030000 		.4byte	0x3a2
 1707 0393 00       		.byte	0
 1708 0394 0E       		.uleb128 0xe
 1709 0395 F7010000 		.4byte	.LASF125
 1710 0399 03       		.byte	0x3
 1711 039a 4405     		.2byte	0x544
 1712 039c 6B000000 		.4byte	0x6b
 1713 03a0 06       		.byte	0x6
 1714 03a1 00       		.byte	0
 1715 03a2 0F       		.uleb128 0xf
 1716 03a3 6B000000 		.4byte	0x6b
 1717 03a7 B2030000 		.4byte	0x3b2
 1718 03ab 10       		.uleb128 0x10
 1719 03ac BC000000 		.4byte	0xbc
 1720 03b0 05       		.byte	0x5
 1721 03b1 00       		.byte	0
 1722 03b2 04       		.uleb128 0x4
 1723 03b3 E4110000 		.4byte	.LASF126
 1724 03b7 03       		.byte	0x3
 1725 03b8 4505     		.2byte	0x545
 1726 03ba 7E030000 		.4byte	0x37e
 1727 03be 0D       		.uleb128 0xd
 1728 03bf 04       		.byte	0x4
 1729 03c0 03       		.byte	0x3
 1730 03c1 4F05     		.2byte	0x54f
 1731 03c3 E2030000 		.4byte	0x3e2
 1732 03c7 0E       		.uleb128 0xe
 1733 03c8 58100000 		.4byte	.LASF127
 1734 03cc 03       		.byte	0x3
ARM GAS  C:\Users\Art\AppData\Local\Temp\ccqpb62o.s 			page 59


 1735 03cd 5205     		.2byte	0x552
 1736 03cf 77000000 		.4byte	0x77
 1737 03d3 00       		.byte	0
 1738 03d4 0E       		.uleb128 0xe
 1739 03d5 08050000 		.4byte	.LASF128
 1740 03d9 03       		.byte	0x3
 1741 03da 5405     		.2byte	0x554
 1742 03dc 6B000000 		.4byte	0x6b
 1743 03e0 02       		.byte	0x2
 1744 03e1 00       		.byte	0
 1745 03e2 04       		.uleb128 0x4
 1746 03e3 7E030000 		.4byte	.LASF129
 1747 03e7 03       		.byte	0x3
 1748 03e8 5505     		.2byte	0x555
 1749 03ea BE030000 		.4byte	0x3be
 1750 03ee 0D       		.uleb128 0xd
 1751 03ef 06       		.byte	0x6
 1752 03f0 03       		.byte	0x3
 1753 03f1 5905     		.2byte	0x559
 1754 03f3 1F040000 		.4byte	0x41f
 1755 03f7 0E       		.uleb128 0xe
 1756 03f8 ED0B0000 		.4byte	.LASF130
 1757 03fc 03       		.byte	0x3
 1758 03fd 5C05     		.2byte	0x55c
 1759 03ff 77000000 		.4byte	0x77
 1760 0403 00       		.byte	0
 1761 0404 0E       		.uleb128 0xe
 1762 0405 C6170000 		.4byte	.LASF131
 1763 0409 03       		.byte	0x3
 1764 040a 5F05     		.2byte	0x55f
 1765 040c 77000000 		.4byte	0x77
 1766 0410 02       		.byte	0x2
 1767 0411 0E       		.uleb128 0xe
 1768 0412 F00D0000 		.4byte	.LASF132
 1769 0416 03       		.byte	0x3
 1770 0417 6205     		.2byte	0x562
 1771 0419 6B000000 		.4byte	0x6b
 1772 041d 04       		.byte	0x4
 1773 041e 00       		.byte	0
 1774 041f 04       		.uleb128 0x4
 1775 0420 F1020000 		.4byte	.LASF133
 1776 0424 03       		.byte	0x3
 1777 0425 6305     		.2byte	0x563
 1778 0427 EE030000 		.4byte	0x3ee
 1779 042b 0D       		.uleb128 0xd
 1780 042c 01       		.byte	0x1
 1781 042d 03       		.byte	0x3
 1782 042e 6605     		.2byte	0x566
 1783 0430 42040000 		.4byte	0x442
 1784 0434 0E       		.uleb128 0xe
 1785 0435 AE0A0000 		.4byte	.LASF134
 1786 0439 03       		.byte	0x3
 1787 043a 6905     		.2byte	0x569
 1788 043c 6B000000 		.4byte	0x6b
 1789 0440 00       		.byte	0
 1790 0441 00       		.byte	0
 1791 0442 04       		.uleb128 0x4
ARM GAS  C:\Users\Art\AppData\Local\Temp\ccqpb62o.s 			page 60


 1792 0443 3E0D0000 		.4byte	.LASF135
 1793 0447 03       		.byte	0x3
 1794 0448 6A05     		.2byte	0x56a
 1795 044a 2B040000 		.4byte	0x42b
 1796 044e 0D       		.uleb128 0xd
 1797 044f 0C       		.byte	0xc
 1798 0450 03       		.byte	0x3
 1799 0451 7005     		.2byte	0x570
 1800 0453 7F040000 		.4byte	0x47f
 1801 0457 0E       		.uleb128 0xe
 1802 0458 98030000 		.4byte	.LASF136
 1803 045c 03       		.byte	0x3
 1804 045d 7305     		.2byte	0x573
 1805 045f 7F040000 		.4byte	0x47f
 1806 0463 00       		.byte	0
 1807 0464 0E       		.uleb128 0xe
 1808 0465 FF110000 		.4byte	.LASF137
 1809 0469 03       		.byte	0x3
 1810 046a 7605     		.2byte	0x576
 1811 046c 85040000 		.4byte	0x485
 1812 0470 04       		.byte	0x4
 1813 0471 0E       		.uleb128 0xe
 1814 0472 0C0E0000 		.4byte	.LASF138
 1815 0476 03       		.byte	0x3
 1816 0477 7C05     		.2byte	0x57c
 1817 0479 77000000 		.4byte	0x77
 1818 047d 08       		.byte	0x8
 1819 047e 00       		.byte	0
 1820 047f 07       		.uleb128 0x7
 1821 0480 04       		.byte	0x4
 1822 0481 1F040000 		.4byte	0x41f
 1823 0485 07       		.uleb128 0x7
 1824 0486 04       		.byte	0x4
 1825 0487 42040000 		.4byte	0x442
 1826 048b 04       		.uleb128 0x4
 1827 048c D20B0000 		.4byte	.LASF139
 1828 0490 03       		.byte	0x3
 1829 0491 7D05     		.2byte	0x57d
 1830 0493 4E040000 		.4byte	0x44e
 1831 0497 07       		.uleb128 0x7
 1832 0498 04       		.byte	0x4
 1833 0499 6B000000 		.4byte	0x6b
 1834 049d 11       		.uleb128 0x11
 1835 049e 01       		.byte	0x1
 1836 049f 2C000000 		.4byte	0x2c
 1837 04a3 04       		.byte	0x4
 1838 04a4 E0       		.byte	0xe0
 1839 04a5 C8040000 		.4byte	0x4c8
 1840 04a9 0B       		.uleb128 0xb
 1841 04aa E7170000 		.4byte	.LASF140
 1842 04ae 00       		.byte	0
 1843 04af 0B       		.uleb128 0xb
 1844 04b0 B80F0000 		.4byte	.LASF141
 1845 04b4 01       		.byte	0x1
 1846 04b5 0B       		.uleb128 0xb
 1847 04b6 A2140000 		.4byte	.LASF142
 1848 04ba 02       		.byte	0x2
ARM GAS  C:\Users\Art\AppData\Local\Temp\ccqpb62o.s 			page 61


 1849 04bb 0B       		.uleb128 0xb
 1850 04bc 60040000 		.4byte	.LASF143
 1851 04c0 03       		.byte	0x3
 1852 04c1 0B       		.uleb128 0xb
 1853 04c2 98080000 		.4byte	.LASF144
 1854 04c6 04       		.byte	0x4
 1855 04c7 00       		.byte	0
 1856 04c8 12       		.uleb128 0x12
 1857 04c9 C60E0000 		.4byte	.LASF145
 1858 04cd 04       		.byte	0x4
 1859 04ce F0       		.byte	0xf0
 1860 04cf 9D040000 		.4byte	0x49d
 1861 04d3 0D       		.uleb128 0xd
 1862 04d4 10       		.byte	0x10
 1863 04d5 04       		.byte	0x4
 1864 04d6 2102     		.2byte	0x221
 1865 04d8 45050000 		.4byte	0x545
 1866 04dc 0E       		.uleb128 0xe
 1867 04dd E2050000 		.4byte	.LASF146
 1868 04e1 04       		.byte	0x4
 1869 04e2 2702     		.2byte	0x227
 1870 04e4 77000000 		.4byte	0x77
 1871 04e8 00       		.byte	0
 1872 04e9 0E       		.uleb128 0xe
 1873 04ea 24190000 		.4byte	.LASF147
 1874 04ee 04       		.byte	0x4
 1875 04ef 2D02     		.2byte	0x22d
 1876 04f1 77000000 		.4byte	0x77
 1877 04f5 02       		.byte	0x2
 1878 04f6 0E       		.uleb128 0xe
 1879 04f7 290A0000 		.4byte	.LASF148
 1880 04fb 04       		.byte	0x4
 1881 04fc 3602     		.2byte	0x236
 1882 04fe C8040000 		.4byte	0x4c8
 1883 0502 04       		.byte	0x4
 1884 0503 0E       		.uleb128 0xe
 1885 0504 FE180000 		.4byte	.LASF149
 1886 0508 04       		.byte	0x4
 1887 0509 3E02     		.2byte	0x23e
 1888 050b 6B000000 		.4byte	0x6b
 1889 050f 05       		.byte	0x5
 1890 0510 0E       		.uleb128 0xe
 1891 0511 E70C0000 		.4byte	.LASF150
 1892 0515 04       		.byte	0x4
 1893 0516 4502     		.2byte	0x245
 1894 0518 6B000000 		.4byte	0x6b
 1895 051c 06       		.byte	0x6
 1896 051d 0E       		.uleb128 0xe
 1897 051e A5170000 		.4byte	.LASF151
 1898 0522 04       		.byte	0x4
 1899 0523 4B02     		.2byte	0x24b
 1900 0525 A2030000 		.4byte	0x3a2
 1901 0529 07       		.byte	0x7
 1902 052a 0E       		.uleb128 0xe
 1903 052b D9170000 		.4byte	.LASF152
 1904 052f 04       		.byte	0x4
 1905 0530 5302     		.2byte	0x253
ARM GAS  C:\Users\Art\AppData\Local\Temp\ccqpb62o.s 			page 62


 1906 0532 6B000000 		.4byte	0x6b
 1907 0536 0D       		.byte	0xd
 1908 0537 0E       		.uleb128 0xe
 1909 0538 CC090000 		.4byte	.LASF153
 1910 053c 04       		.byte	0x4
 1911 053d 5F02     		.2byte	0x25f
 1912 053f 6B000000 		.4byte	0x6b
 1913 0543 0E       		.byte	0xe
 1914 0544 00       		.byte	0
 1915 0545 04       		.uleb128 0x4
 1916 0546 8E090000 		.4byte	.LASF154
 1917 054a 04       		.byte	0x4
 1918 054b 6102     		.2byte	0x261
 1919 054d D3040000 		.4byte	0x4d3
 1920 0551 0D       		.uleb128 0xd
 1921 0552 20       		.byte	0x20
 1922 0553 04       		.byte	0x4
 1923 0554 6402     		.2byte	0x264
 1924 0556 75050000 		.4byte	0x575
 1925 055a 0E       		.uleb128 0xe
 1926 055b F10E0000 		.4byte	.LASF155
 1927 055f 04       		.byte	0x4
 1928 0560 6702     		.2byte	0x267
 1929 0562 75050000 		.4byte	0x575
 1930 0566 00       		.byte	0
 1931 0567 0E       		.uleb128 0xe
 1932 0568 1A120000 		.4byte	.LASF156
 1933 056c 04       		.byte	0x4
 1934 056d 6A02     		.2byte	0x26a
 1935 056f 6B000000 		.4byte	0x6b
 1936 0573 1F       		.byte	0x1f
 1937 0574 00       		.byte	0
 1938 0575 0F       		.uleb128 0xf
 1939 0576 6B000000 		.4byte	0x6b
 1940 057a 85050000 		.4byte	0x585
 1941 057e 10       		.uleb128 0x10
 1942 057f BC000000 		.4byte	0xbc
 1943 0583 1E       		.byte	0x1e
 1944 0584 00       		.byte	0
 1945 0585 04       		.uleb128 0x4
 1946 0586 14060000 		.4byte	.LASF157
 1947 058a 04       		.byte	0x4
 1948 058b 6C02     		.2byte	0x26c
 1949 058d 51050000 		.4byte	0x551
 1950 0591 0D       		.uleb128 0xd
 1951 0592 20       		.byte	0x20
 1952 0593 04       		.byte	0x4
 1953 0594 6F02     		.2byte	0x26f
 1954 0596 B5050000 		.4byte	0x5b5
 1955 059a 0E       		.uleb128 0xe
 1956 059b 12000000 		.4byte	.LASF158
 1957 059f 04       		.byte	0x4
 1958 05a0 7302     		.2byte	0x273
 1959 05a2 75050000 		.4byte	0x575
 1960 05a6 00       		.byte	0
 1961 05a7 0E       		.uleb128 0xe
 1962 05a8 38140000 		.4byte	.LASF159
ARM GAS  C:\Users\Art\AppData\Local\Temp\ccqpb62o.s 			page 63


 1963 05ac 04       		.byte	0x4
 1964 05ad 7602     		.2byte	0x276
 1965 05af 6B000000 		.4byte	0x6b
 1966 05b3 1F       		.byte	0x1f
 1967 05b4 00       		.byte	0
 1968 05b5 04       		.uleb128 0x4
 1969 05b6 81130000 		.4byte	.LASF160
 1970 05ba 04       		.byte	0x4
 1971 05bb 7802     		.2byte	0x278
 1972 05bd 91050000 		.4byte	0x591
 1973 05c1 0D       		.uleb128 0xd
 1974 05c2 14       		.byte	0x14
 1975 05c3 04       		.byte	0x4
 1976 05c4 7B02     		.2byte	0x27b
 1977 05c6 0C060000 		.4byte	0x60c
 1978 05ca 0E       		.uleb128 0xe
 1979 05cb BE000000 		.4byte	.LASF161
 1980 05cf 04       		.byte	0x4
 1981 05d0 8302     		.2byte	0x283
 1982 05d2 6B000000 		.4byte	0x6b
 1983 05d6 00       		.byte	0
 1984 05d7 0E       		.uleb128 0xe
 1985 05d8 210C0000 		.4byte	.LASF162
 1986 05dc 04       		.byte	0x4
 1987 05dd 8602     		.2byte	0x286
 1988 05df 0C060000 		.4byte	0x60c
 1989 05e3 04       		.byte	0x4
 1990 05e4 0E       		.uleb128 0xe
 1991 05e5 F10E0000 		.4byte	.LASF155
 1992 05e9 04       		.byte	0x4
 1993 05ea 8802     		.2byte	0x288
 1994 05ec 12060000 		.4byte	0x612
 1995 05f0 08       		.byte	0x8
 1996 05f1 0E       		.uleb128 0xe
 1997 05f2 12000000 		.4byte	.LASF158
 1998 05f6 04       		.byte	0x4
 1999 05f7 8A02     		.2byte	0x28a
 2000 05f9 18060000 		.4byte	0x618
 2001 05fd 0C       		.byte	0xc
 2002 05fe 0E       		.uleb128 0xe
 2003 05ff C7070000 		.4byte	.LASF163
 2004 0603 04       		.byte	0x4
 2005 0604 9402     		.2byte	0x294
 2006 0606 77000000 		.4byte	0x77
 2007 060a 10       		.byte	0x10
 2008 060b 00       		.byte	0
 2009 060c 07       		.uleb128 0x7
 2010 060d 04       		.byte	0x4
 2011 060e 45050000 		.4byte	0x545
 2012 0612 07       		.uleb128 0x7
 2013 0613 04       		.byte	0x4
 2014 0614 85050000 		.4byte	0x585
 2015 0618 07       		.uleb128 0x7
 2016 0619 04       		.byte	0x4
 2017 061a B5050000 		.4byte	0x5b5
 2018 061e 04       		.uleb128 0x4
 2019 061f 2A120000 		.4byte	.LASF164
ARM GAS  C:\Users\Art\AppData\Local\Temp\ccqpb62o.s 			page 64


 2020 0623 04       		.byte	0x4
 2021 0624 9602     		.2byte	0x296
 2022 0626 C1050000 		.4byte	0x5c1
 2023 062a 04       		.uleb128 0x4
 2024 062b 62110000 		.4byte	.LASF165
 2025 062f 05       		.byte	0x5
 2026 0630 8901     		.2byte	0x189
 2027 0632 77000000 		.4byte	0x77
 2028 0636 0D       		.uleb128 0xd
 2029 0637 02       		.byte	0x2
 2030 0638 05       		.byte	0x5
 2031 0639 9301     		.2byte	0x193
 2032 063b 5A060000 		.4byte	0x65a
 2033 063f 0E       		.uleb128 0xe
 2034 0640 E8020000 		.4byte	.LASF166
 2035 0644 05       		.byte	0x5
 2036 0645 9A01     		.2byte	0x19a
 2037 0647 6B000000 		.4byte	0x6b
 2038 064b 00       		.byte	0
 2039 064c 0E       		.uleb128 0xe
 2040 064d 0D180000 		.4byte	.LASF167
 2041 0651 05       		.byte	0x5
 2042 0652 A001     		.2byte	0x1a0
 2043 0654 6B000000 		.4byte	0x6b
 2044 0658 01       		.byte	0x1
 2045 0659 00       		.byte	0
 2046 065a 04       		.uleb128 0x4
 2047 065b 45020000 		.4byte	.LASF168
 2048 065f 05       		.byte	0x5
 2049 0660 A201     		.2byte	0x1a2
 2050 0662 36060000 		.4byte	0x636
 2051 0666 13       		.uleb128 0x13
 2052 0667 08       		.byte	0x8
 2053 0668 06       		.byte	0x6
 2054 0669 C8       		.byte	0xc8
 2055 066a 87060000 		.4byte	0x687
 2056 066e 14       		.uleb128 0x14
 2057 066f 0D120000 		.4byte	.LASF169
 2058 0673 06       		.byte	0x6
 2059 0674 CB       		.byte	0xcb
 2060 0675 77000000 		.4byte	0x77
 2061 0679 00       		.byte	0
 2062 067a 14       		.uleb128 0x14
 2063 067b 9C130000 		.4byte	.LASF170
 2064 067f 06       		.byte	0x6
 2065 0680 D0       		.byte	0xd0
 2066 0681 C3000000 		.4byte	0xc3
 2067 0685 04       		.byte	0x4
 2068 0686 00       		.byte	0
 2069 0687 12       		.uleb128 0x12
 2070 0688 16100000 		.4byte	.LASF171
 2071 068c 06       		.byte	0x6
 2072 068d D2       		.byte	0xd2
 2073 068e 66060000 		.4byte	0x666
 2074 0692 13       		.uleb128 0x13
 2075 0693 08       		.byte	0x8
 2076 0694 06       		.byte	0x6
ARM GAS  C:\Users\Art\AppData\Local\Temp\ccqpb62o.s 			page 65


 2077 0695 D5       		.byte	0xd5
 2078 0696 B3060000 		.4byte	0x6b3
 2079 069a 14       		.uleb128 0x14
 2080 069b A9060000 		.4byte	.LASF172
 2081 069f 06       		.byte	0x6
 2082 06a0 D8       		.byte	0xd8
 2083 06a1 77000000 		.4byte	0x77
 2084 06a5 00       		.byte	0
 2085 06a6 14       		.uleb128 0x14
 2086 06a7 18140000 		.4byte	.LASF173
 2087 06ab 06       		.byte	0x6
 2088 06ac DD       		.byte	0xdd
 2089 06ad B3060000 		.4byte	0x6b3
 2090 06b1 04       		.byte	0x4
 2091 06b2 00       		.byte	0
 2092 06b3 07       		.uleb128 0x7
 2093 06b4 04       		.byte	0x4
 2094 06b5 87060000 		.4byte	0x687
 2095 06b9 12       		.uleb128 0x12
 2096 06ba 3A130000 		.4byte	.LASF174
 2097 06be 06       		.byte	0x6
 2098 06bf DF       		.byte	0xdf
 2099 06c0 92060000 		.4byte	0x692
 2100 06c4 15       		.uleb128 0x15
 2101 06c5 08       		.byte	0x8
 2102 06c6 06       		.byte	0x6
 2103 06c7 E2       		.byte	0xe2
 2104 06c8 E3060000 		.4byte	0x6e3
 2105 06cc 16       		.uleb128 0x16
 2106 06cd 29140000 		.4byte	.LASF175
 2107 06d1 06       		.byte	0x6
 2108 06d2 E9       		.byte	0xe9
 2109 06d3 B9060000 		.4byte	0x6b9
 2110 06d7 16       		.uleb128 0x16
 2111 06d8 E90A0000 		.4byte	.LASF176
 2112 06dc 06       		.byte	0x6
 2113 06dd EC       		.byte	0xec
 2114 06de 77000000 		.4byte	0x77
 2115 06e2 00       		.byte	0
 2116 06e3 12       		.uleb128 0x12
 2117 06e4 22130000 		.4byte	.LASF177
 2118 06e8 06       		.byte	0x6
 2119 06e9 EE       		.byte	0xee
 2120 06ea C4060000 		.4byte	0x6c4
 2121 06ee 13       		.uleb128 0x13
 2122 06ef 14       		.byte	0x14
 2123 06f0 06       		.byte	0x6
 2124 06f1 F1       		.byte	0xf1
 2125 06f2 36070000 		.4byte	0x736
 2126 06f6 14       		.uleb128 0x14
 2127 06f7 ED050000 		.4byte	.LASF178
 2128 06fb 06       		.byte	0x6
 2129 06fc F4       		.byte	0xf4
 2130 06fd 77000000 		.4byte	0x77
 2131 0701 00       		.byte	0
 2132 0702 14       		.uleb128 0x14
 2133 0703 58040000 		.4byte	.LASF179
ARM GAS  C:\Users\Art\AppData\Local\Temp\ccqpb62o.s 			page 66


 2134 0707 06       		.byte	0x6
 2135 0708 FA       		.byte	0xfa
 2136 0709 77000000 		.4byte	0x77
 2137 070d 02       		.byte	0x2
 2138 070e 0E       		.uleb128 0xe
 2139 070f EC010000 		.4byte	.LASF180
 2140 0713 06       		.byte	0x6
 2141 0714 0501     		.2byte	0x105
 2142 0716 83000000 		.4byte	0x83
 2143 071a 04       		.byte	0x4
 2144 071b 0E       		.uleb128 0xe
 2145 071c 380E0000 		.4byte	.LASF181
 2146 0720 06       		.byte	0x6
 2147 0721 0801     		.2byte	0x108
 2148 0723 77000000 		.4byte	0x77
 2149 0727 08       		.byte	0x8
 2150 0728 0E       		.uleb128 0xe
 2151 0729 A3110000 		.4byte	.LASF182
 2152 072d 06       		.byte	0x6
 2153 072e 1101     		.2byte	0x111
 2154 0730 E3060000 		.4byte	0x6e3
 2155 0734 0C       		.byte	0xc
 2156 0735 00       		.byte	0
 2157 0736 04       		.uleb128 0x4
 2158 0737 CD070000 		.4byte	.LASF183
 2159 073b 06       		.byte	0x6
 2160 073c 1201     		.2byte	0x112
 2161 073e EE060000 		.4byte	0x6ee
 2162 0742 04       		.uleb128 0x4
 2163 0743 FC010000 		.4byte	.LASF184
 2164 0747 07       		.byte	0x7
 2165 0748 0302     		.2byte	0x203
 2166 074a C5000000 		.4byte	0xc5
 2167 074e 17       		.uleb128 0x17
 2168 074f 8F02     		.2byte	0x28f
 2169 0751 08       		.byte	0x8
 2170 0752 9C       		.byte	0x9c
 2171 0753 8B070000 		.4byte	0x78b
 2172 0757 14       		.uleb128 0x14
 2173 0758 80090000 		.4byte	.LASF185
 2174 075c 08       		.byte	0x8
 2175 075d 9F       		.byte	0x9f
 2176 075e 8B070000 		.4byte	0x78b
 2177 0762 00       		.byte	0
 2178 0763 18       		.uleb128 0x18
 2179 0764 02090000 		.4byte	.LASF186
 2180 0768 08       		.byte	0x8
 2181 0769 A2       		.byte	0xa2
 2182 076a 9C070000 		.4byte	0x79c
 2183 076e 7902     		.2byte	0x279
 2184 0770 18       		.uleb128 0x18
 2185 0771 27150000 		.4byte	.LASF187
 2186 0775 08       		.byte	0x8
 2187 0776 A5       		.byte	0xa5
 2188 0777 6B000000 		.4byte	0x6b
 2189 077b 8D02     		.2byte	0x28d
 2190 077d 18       		.uleb128 0x18
ARM GAS  C:\Users\Art\AppData\Local\Temp\ccqpb62o.s 			page 67


 2191 077e 79080000 		.4byte	.LASF188
 2192 0782 08       		.byte	0x8
 2193 0783 A8       		.byte	0xa8
 2194 0784 6B000000 		.4byte	0x6b
 2195 0788 8E02     		.2byte	0x28e
 2196 078a 00       		.byte	0
 2197 078b 0F       		.uleb128 0xf
 2198 078c 6B000000 		.4byte	0x6b
 2199 0790 9C070000 		.4byte	0x79c
 2200 0794 19       		.uleb128 0x19
 2201 0795 BC000000 		.4byte	0xbc
 2202 0799 7802     		.2byte	0x278
 2203 079b 00       		.byte	0
 2204 079c 0F       		.uleb128 0xf
 2205 079d 6B000000 		.4byte	0x6b
 2206 07a1 B2070000 		.4byte	0x7b2
 2207 07a5 10       		.uleb128 0x10
 2208 07a6 BC000000 		.4byte	0xbc
 2209 07aa 04       		.byte	0x4
 2210 07ab 10       		.uleb128 0x10
 2211 07ac BC000000 		.4byte	0xbc
 2212 07b0 03       		.byte	0x3
 2213 07b1 00       		.byte	0
 2214 07b2 12       		.uleb128 0x12
 2215 07b3 990A0000 		.4byte	.LASF189
 2216 07b7 08       		.byte	0x8
 2217 07b8 A9       		.byte	0xa9
 2218 07b9 4E070000 		.4byte	0x74e
 2219 07bd 0A       		.uleb128 0xa
 2220 07be 01       		.byte	0x1
 2221 07bf 2C000000 		.4byte	0x2c
 2222 07c3 09       		.byte	0x9
 2223 07c4 5008     		.2byte	0x850
 2224 07c6 E9070000 		.4byte	0x7e9
 2225 07ca 0B       		.uleb128 0xb
 2226 07cb 63050000 		.4byte	.LASF190
 2227 07cf 00       		.byte	0
 2228 07d0 0B       		.uleb128 0xb
 2229 07d1 690B0000 		.4byte	.LASF191
 2230 07d5 01       		.byte	0x1
 2231 07d6 0B       		.uleb128 0xb
 2232 07d7 B0170000 		.4byte	.LASF192
 2233 07db 02       		.byte	0x2
 2234 07dc 0B       		.uleb128 0xb
 2235 07dd A7020000 		.4byte	.LASF193
 2236 07e1 03       		.byte	0x3
 2237 07e2 0B       		.uleb128 0xb
 2238 07e3 09130000 		.4byte	.LASF194
 2239 07e7 04       		.byte	0x4
 2240 07e8 00       		.byte	0
 2241 07e9 04       		.uleb128 0x4
 2242 07ea 94140000 		.4byte	.LASF195
 2243 07ee 09       		.byte	0x9
 2244 07ef 5E08     		.2byte	0x85e
 2245 07f1 BD070000 		.4byte	0x7bd
 2246 07f5 0D       		.uleb128 0xd
 2247 07f6 0C       		.byte	0xc
ARM GAS  C:\Users\Art\AppData\Local\Temp\ccqpb62o.s 			page 68


 2248 07f7 09       		.byte	0x9
 2249 07f8 9909     		.2byte	0x999
 2250 07fa 4D080000 		.4byte	0x84d
 2251 07fe 0E       		.uleb128 0xe
 2252 07ff 7D170000 		.4byte	.LASF196
 2253 0803 09       		.byte	0x9
 2254 0804 9C09     		.2byte	0x99c
 2255 0806 2A060000 		.4byte	0x62a
 2256 080a 00       		.byte	0
 2257 080b 0E       		.uleb128 0xe
 2258 080c D20C0000 		.4byte	.LASF197
 2259 0810 09       		.byte	0x9
 2260 0811 9E09     		.2byte	0x99e
 2261 0813 2A060000 		.4byte	0x62a
 2262 0817 02       		.byte	0x2
 2263 0818 0E       		.uleb128 0xe
 2264 0819 8D100000 		.4byte	.LASF198
 2265 081d 09       		.byte	0x9
 2266 081e A009     		.2byte	0x9a0
 2267 0820 2A060000 		.4byte	0x62a
 2268 0824 04       		.byte	0x4
 2269 0825 0E       		.uleb128 0xe
 2270 0826 2F0F0000 		.4byte	.LASF199
 2271 082a 09       		.byte	0x9
 2272 082b A309     		.2byte	0x9a3
 2273 082d 2A060000 		.4byte	0x62a
 2274 0831 06       		.byte	0x6
 2275 0832 0E       		.uleb128 0xe
 2276 0833 90150000 		.4byte	.LASF200
 2277 0837 09       		.byte	0x9
 2278 0838 A509     		.2byte	0x9a5
 2279 083a 2A060000 		.4byte	0x62a
 2280 083e 08       		.byte	0x8
 2281 083f 0E       		.uleb128 0xe
 2282 0840 A6040000 		.4byte	.LASF201
 2283 0844 09       		.byte	0x9
 2284 0845 A709     		.2byte	0x9a7
 2285 0847 2A060000 		.4byte	0x62a
 2286 084b 0A       		.byte	0xa
 2287 084c 00       		.byte	0
 2288 084d 04       		.uleb128 0x4
 2289 084e D7110000 		.4byte	.LASF202
 2290 0852 09       		.byte	0x9
 2291 0853 A809     		.2byte	0x9a8
 2292 0855 F5070000 		.4byte	0x7f5
 2293 0859 1A       		.uleb128 0x1a
 2294 085a 94000000 		.4byte	.LASF275
 2295 085e 01       		.byte	0x1
 2296 085f A804     		.2byte	0x4a8
 2297 0861 00000000 		.4byte	.LFB11
 2298 0865 78000000 		.4byte	.LFE11-.LFB11
 2299 0869 01       		.uleb128 0x1
 2300 086a 9C       		.byte	0x9c
 2301 086b EE080000 		.4byte	0x8ee
 2302 086f 1B       		.uleb128 0x1b
 2303 0870 AA130000 		.4byte	.LASF203
 2304 0874 01       		.byte	0x1
ARM GAS  C:\Users\Art\AppData\Local\Temp\ccqpb62o.s 			page 69


 2305 0875 A804     		.2byte	0x4a8
 2306 0877 EE080000 		.4byte	0x8ee
 2307 087b 00000000 		.4byte	.LLST0
 2308 087f 1B       		.uleb128 0x1b
 2309 0880 25120000 		.4byte	.LASF204
 2310 0884 01       		.byte	0x1
 2311 0885 A804     		.2byte	0x4a8
 2312 0887 6B000000 		.4byte	0x6b
 2313 088b 21000000 		.4byte	.LLST1
 2314 088f 1C       		.uleb128 0x1c
 2315 0890 6900     		.ascii	"i\000"
 2316 0892 01       		.byte	0x1
 2317 0893 AA04     		.2byte	0x4aa
 2318 0895 6B000000 		.4byte	0x6b
 2319 0899 5B000000 		.4byte	.LLST2
 2320 089d 1D       		.uleb128 0x1d
 2321 089e 450E0000 		.4byte	.LASF205
 2322 08a2 01       		.byte	0x1
 2323 08a3 AB04     		.2byte	0x4ab
 2324 08a5 6B000000 		.4byte	0x6b
 2325 08a9 8F000000 		.4byte	.LLST3
 2326 08ad 1D       		.uleb128 0x1d
 2327 08ae 31180000 		.4byte	.LASF206
 2328 08b2 01       		.byte	0x1
 2329 08b3 AC04     		.2byte	0x4ac
 2330 08b5 6B000000 		.4byte	0x6b
 2331 08b9 AE000000 		.4byte	.LLST4
 2332 08bd 1D       		.uleb128 0x1d
 2333 08be 11160000 		.4byte	.LASF207
 2334 08c2 01       		.byte	0x1
 2335 08c3 AD04     		.2byte	0x4ad
 2336 08c5 6B000000 		.4byte	0x6b
 2337 08c9 D8000000 		.4byte	.LLST5
 2338 08cd 1D       		.uleb128 0x1d
 2339 08ce B3000000 		.4byte	.LASF208
 2340 08d2 01       		.byte	0x1
 2341 08d3 AE04     		.2byte	0x4ae
 2342 08d5 97040000 		.4byte	0x497
 2343 08d9 18010000 		.4byte	.LLST6
 2344 08dd 1D       		.uleb128 0x1d
 2345 08de A6090000 		.4byte	.LASF209
 2346 08e2 01       		.byte	0x1
 2347 08e3 AF04     		.2byte	0x4af
 2348 08e5 6B000000 		.4byte	0x6b
 2349 08e9 4B010000 		.4byte	.LLST7
 2350 08ed 00       		.byte	0
 2351 08ee 07       		.uleb128 0x7
 2352 08ef 04       		.byte	0x4
 2353 08f0 F4080000 		.4byte	0x8f4
 2354 08f4 1E       		.uleb128 0x1e
 2355 08f5 9D000000 		.4byte	0x9d
 2356 08f9 1F       		.uleb128 0x1f
 2357 08fa 54030000 		.4byte	.LASF210
 2358 08fe 01       		.byte	0x1
 2359 08ff C9       		.byte	0xc9
 2360 0900 00000000 		.4byte	.LFB3
 2361 0904 08000000 		.4byte	.LFE3-.LFB3
ARM GAS  C:\Users\Art\AppData\Local\Temp\ccqpb62o.s 			page 70


 2362 0908 01       		.uleb128 0x1
 2363 0909 9C       		.byte	0x9c
 2364 090a 18090000 		.4byte	0x918
 2365 090e 20       		.uleb128 0x20
 2366 090f 06000000 		.4byte	.LVL28
 2367 0913 F20F0000 		.4byte	0xff2
 2368 0917 00       		.byte	0
 2369 0918 1F       		.uleb128 0x1f
 2370 0919 9A070000 		.4byte	.LASF211
 2371 091d 01       		.byte	0x1
 2372 091e 98       		.byte	0x98
 2373 091f 00000000 		.4byte	.LFB2
 2374 0923 34000000 		.4byte	.LFE2-.LFB2
 2375 0927 01       		.uleb128 0x1
 2376 0928 9C       		.byte	0x9c
 2377 0929 37090000 		.4byte	0x937
 2378 092d 20       		.uleb128 0x20
 2379 092e 14000000 		.4byte	.LVL29
 2380 0932 F9080000 		.4byte	0x8f9
 2381 0936 00       		.byte	0
 2382 0937 21       		.uleb128 0x21
 2383 0938 C0120000 		.4byte	.LASF220
 2384 093c 01       		.byte	0x1
 2385 093d 9701     		.2byte	0x197
 2386 093f 72030000 		.4byte	0x372
 2387 0943 00000000 		.4byte	.LFB4
 2388 0947 B0000000 		.4byte	.LFE4-.LFB4
 2389 094b 01       		.uleb128 0x1
 2390 094c 9C       		.byte	0x9c
 2391 094d 520A0000 		.4byte	0xa52
 2392 0951 1B       		.uleb128 0x1b
 2393 0952 59020000 		.4byte	.LASF212
 2394 0956 01       		.byte	0x1
 2395 0957 9701     		.2byte	0x197
 2396 0959 42070000 		.4byte	0x742
 2397 095d 69010000 		.4byte	.LLST8
 2398 0961 1D       		.uleb128 0x1d
 2399 0962 50000000 		.4byte	.LASF213
 2400 0966 01       		.byte	0x1
 2401 0967 9901     		.2byte	0x199
 2402 0969 72030000 		.4byte	0x372
 2403 096d 95010000 		.4byte	.LLST9
 2404 0971 22       		.uleb128 0x22
 2405 0972 65080000 		.4byte	.LASF214
 2406 0976 01       		.byte	0x1
 2407 0977 9D01     		.2byte	0x19d
 2408 0979 520A0000 		.4byte	0xa52
 2409 097d 02       		.uleb128 0x2
 2410 097e 91       		.byte	0x91
 2411 097f 64       		.sleb128 -28
 2412 0980 23       		.uleb128 0x23
 2413 0981 2E000000 		.4byte	.LBB2
 2414 0985 24000000 		.4byte	.LBE2-.LBB2
 2415 0989 E0090000 		.4byte	0x9e0
 2416 098d 22       		.uleb128 0x22
 2417 098e D8120000 		.4byte	.LASF215
 2418 0992 01       		.byte	0x1
ARM GAS  C:\Users\Art\AppData\Local\Temp\ccqpb62o.s 			page 71


 2419 0993 BF01     		.2byte	0x1bf
 2420 0995 1F040000 		.4byte	0x41f
 2421 0999 02       		.uleb128 0x2
 2422 099a 91       		.byte	0x91
 2423 099b 50       		.sleb128 -48
 2424 099c 22       		.uleb128 0x22
 2425 099d 02100000 		.4byte	.LASF216
 2426 09a1 01       		.byte	0x1
 2427 09a2 C001     		.2byte	0x1c0
 2428 09a4 42040000 		.4byte	0x442
 2429 09a8 02       		.uleb128 0x2
 2430 09a9 91       		.byte	0x91
 2431 09aa 4C       		.sleb128 -52
 2432 09ab 22       		.uleb128 0x22
 2433 09ac B7030000 		.4byte	.LASF217
 2434 09b0 01       		.byte	0x1
 2435 09b1 C101     		.2byte	0x1c1
 2436 09b3 8B040000 		.4byte	0x48b
 2437 09b7 02       		.uleb128 0x2
 2438 09b8 91       		.byte	0x91
 2439 09b9 58       		.sleb128 -40
 2440 09ba 22       		.uleb128 0x22
 2441 09bb 89080000 		.4byte	.LASF218
 2442 09bf 01       		.byte	0x1
 2443 09c0 C201     		.2byte	0x1c2
 2444 09c2 77000000 		.4byte	0x77
 2445 09c6 02       		.uleb128 0x2
 2446 09c7 91       		.byte	0x91
 2447 09c8 4E       		.sleb128 -50
 2448 09c9 24       		.uleb128 0x24
 2449 09ca 52000000 		.4byte	.LVL35
 2450 09ce FD0F0000 		.4byte	0xffd
 2451 09d2 25       		.uleb128 0x25
 2452 09d3 01       		.uleb128 0x1
 2453 09d4 50       		.byte	0x50
 2454 09d5 02       		.uleb128 0x2
 2455 09d6 91       		.byte	0x91
 2456 09d7 58       		.sleb128 -40
 2457 09d8 25       		.uleb128 0x25
 2458 09d9 01       		.uleb128 0x1
 2459 09da 51       		.byte	0x51
 2460 09db 02       		.uleb128 0x2
 2461 09dc 91       		.byte	0x91
 2462 09dd 4E       		.sleb128 -50
 2463 09de 00       		.byte	0
 2464 09df 00       		.byte	0
 2465 09e0 26       		.uleb128 0x26
 2466 09e1 10000000 		.4byte	.LVL33
 2467 09e5 09100000 		.4byte	0x1009
 2468 09e9 020A0000 		.4byte	0xa02
 2469 09ed 25       		.uleb128 0x25
 2470 09ee 01       		.uleb128 0x1
 2471 09ef 50       		.byte	0x50
 2472 09f0 02       		.uleb128 0x2
 2473 09f1 91       		.byte	0x91
 2474 09f2 64       		.sleb128 -28
 2475 09f3 25       		.uleb128 0x25
ARM GAS  C:\Users\Art\AppData\Local\Temp\ccqpb62o.s 			page 72


 2476 09f4 01       		.uleb128 0x1
 2477 09f5 51       		.byte	0x51
 2478 09f6 05       		.uleb128 0x5
 2479 09f7 03       		.byte	0x3
 2480 09f8 00000000 		.4byte	.LANCHOR2
 2481 09fc 25       		.uleb128 0x25
 2482 09fd 01       		.uleb128 0x1
 2483 09fe 52       		.byte	0x52
 2484 09ff 01       		.uleb128 0x1
 2485 0a00 44       		.byte	0x44
 2486 0a01 00       		.byte	0
 2487 0a02 20       		.uleb128 0x20
 2488 0a03 1E000000 		.4byte	.LVL34
 2489 0a07 18090000 		.4byte	0x918
 2490 0a0b 26       		.uleb128 0x26
 2491 0a0c 70000000 		.4byte	.LVL37
 2492 0a10 12100000 		.4byte	0x1012
 2493 0a14 3D0A0000 		.4byte	0xa3d
 2494 0a18 25       		.uleb128 0x25
 2495 0a19 01       		.uleb128 0x1
 2496 0a1a 51       		.byte	0x51
 2497 0a1b 05       		.uleb128 0x5
 2498 0a1c 03       		.byte	0x3
 2499 0a1d 00000000 		.4byte	.LANCHOR3
 2500 0a21 25       		.uleb128 0x25
 2501 0a22 01       		.uleb128 0x1
 2502 0a23 52       		.byte	0x52
 2503 0a24 03       		.uleb128 0x3
 2504 0a25 0A       		.byte	0xa
 2505 0a26 E00A     		.2byte	0xae0
 2506 0a28 25       		.uleb128 0x25
 2507 0a29 01       		.uleb128 0x1
 2508 0a2a 53       		.byte	0x53
 2509 0a2b 02       		.uleb128 0x2
 2510 0a2c 91       		.byte	0x91
 2511 0a2d 64       		.sleb128 -28
 2512 0a2e 25       		.uleb128 0x25
 2513 0a2f 02       		.uleb128 0x2
 2514 0a30 7D       		.byte	0x7d
 2515 0a31 00       		.sleb128 0
 2516 0a32 01       		.uleb128 0x1
 2517 0a33 35       		.byte	0x35
 2518 0a34 25       		.uleb128 0x25
 2519 0a35 02       		.uleb128 0x2
 2520 0a36 7D       		.byte	0x7d
 2521 0a37 08       		.sleb128 8
 2522 0a38 03       		.uleb128 0x3
 2523 0a39 0A       		.byte	0xa
 2524 0a3a 7902     		.2byte	0x279
 2525 0a3c 00       		.byte	0
 2526 0a3d 24       		.uleb128 0x24
 2527 0a3e 84000000 		.4byte	.LVL39
 2528 0a42 1E100000 		.4byte	0x101e
 2529 0a46 25       		.uleb128 0x25
 2530 0a47 01       		.uleb128 0x1
 2531 0a48 51       		.byte	0x51
 2532 0a49 01       		.uleb128 0x1
ARM GAS  C:\Users\Art\AppData\Local\Temp\ccqpb62o.s 			page 73


 2533 0a4a 43       		.byte	0x43
 2534 0a4b 25       		.uleb128 0x25
 2535 0a4c 01       		.uleb128 0x1
 2536 0a4d 52       		.byte	0x52
 2537 0a4e 01       		.uleb128 0x1
 2538 0a4f 3F       		.byte	0x3f
 2539 0a50 00       		.byte	0
 2540 0a51 00       		.byte	0
 2541 0a52 0F       		.uleb128 0xf
 2542 0a53 E2030000 		.4byte	0x3e2
 2543 0a57 620A0000 		.4byte	0xa62
 2544 0a5b 10       		.uleb128 0x10
 2545 0a5c BC000000 		.4byte	0xbc
 2546 0a60 04       		.byte	0x4
 2547 0a61 00       		.byte	0
 2548 0a62 27       		.uleb128 0x27
 2549 0a63 A30B0000 		.4byte	.LASF219
 2550 0a67 01       		.byte	0x1
 2551 0a68 1C02     		.2byte	0x21c
 2552 0a6a 00000000 		.4byte	.LFB5
 2553 0a6e 14000000 		.4byte	.LFE5-.LFB5
 2554 0a72 01       		.uleb128 0x1
 2555 0a73 9C       		.byte	0x9c
 2556 0a74 820A0000 		.4byte	0xa82
 2557 0a78 20       		.uleb128 0x20
 2558 0a79 06000000 		.4byte	.LVL43
 2559 0a7d 2A100000 		.4byte	0x102a
 2560 0a81 00       		.byte	0
 2561 0a82 21       		.uleb128 0x21
 2562 0a83 D9150000 		.4byte	.LASF221
 2563 0a87 01       		.byte	0x1
 2564 0a88 5302     		.2byte	0x253
 2565 0a8a 72030000 		.4byte	0x372
 2566 0a8e 00000000 		.4byte	.LFB6
 2567 0a92 EC000000 		.4byte	.LFE6-.LFB6
 2568 0a96 01       		.uleb128 0x1
 2569 0a97 9C       		.byte	0x9c
 2570 0a98 740B0000 		.4byte	0xb74
 2571 0a9c 1B       		.uleb128 0x1b
 2572 0a9d 3B110000 		.4byte	.LASF222
 2573 0aa1 01       		.byte	0x1
 2574 0aa2 5302     		.2byte	0x253
 2575 0aa4 6B000000 		.4byte	0x6b
 2576 0aa8 E1010000 		.4byte	.LLST10
 2577 0aac 1D       		.uleb128 0x1d
 2578 0aad 50000000 		.4byte	.LASF213
 2579 0ab1 01       		.byte	0x1
 2580 0ab2 5502     		.2byte	0x255
 2581 0ab4 72030000 		.4byte	0x372
 2582 0ab8 1B020000 		.4byte	.LLST11
 2583 0abc 23       		.uleb128 0x23
 2584 0abd 7C000000 		.4byte	.LBB3
 2585 0ac1 26000000 		.4byte	.LBE3-.LBB3
 2586 0ac5 120B0000 		.4byte	0xb12
 2587 0ac9 22       		.uleb128 0x22
 2588 0aca DE0D0000 		.4byte	.LASF223
 2589 0ace 01       		.byte	0x1
ARM GAS  C:\Users\Art\AppData\Local\Temp\ccqpb62o.s 			page 74


 2590 0acf 7902     		.2byte	0x279
 2591 0ad1 9C070000 		.4byte	0x79c
 2592 0ad5 02       		.uleb128 0x2
 2593 0ad6 91       		.byte	0x91
 2594 0ad7 64       		.sleb128 -28
 2595 0ad8 26       		.uleb128 0x26
 2596 0ad9 86000000 		.4byte	.LVL55
 2597 0add 36100000 		.4byte	0x1036
 2598 0ae1 F60A0000 		.4byte	0xaf6
 2599 0ae5 25       		.uleb128 0x25
 2600 0ae6 01       		.uleb128 0x1
 2601 0ae7 50       		.byte	0x50
 2602 0ae8 02       		.uleb128 0x2
 2603 0ae9 91       		.byte	0x91
 2604 0aea 64       		.sleb128 -28
 2605 0aeb 25       		.uleb128 0x25
 2606 0aec 01       		.uleb128 0x1
 2607 0aed 51       		.byte	0x51
 2608 0aee 01       		.uleb128 0x1
 2609 0aef 30       		.byte	0x30
 2610 0af0 25       		.uleb128 0x25
 2611 0af1 01       		.uleb128 0x1
 2612 0af2 52       		.byte	0x52
 2613 0af3 01       		.uleb128 0x1
 2614 0af4 44       		.byte	0x44
 2615 0af5 00       		.byte	0
 2616 0af6 24       		.uleb128 0x24
 2617 0af7 92000000 		.4byte	.LVL56
 2618 0afb 3F100000 		.4byte	0x103f
 2619 0aff 25       		.uleb128 0x25
 2620 0b00 01       		.uleb128 0x1
 2621 0b01 50       		.byte	0x50
 2622 0b02 02       		.uleb128 0x2
 2623 0b03 91       		.byte	0x91
 2624 0b04 64       		.sleb128 -28
 2625 0b05 25       		.uleb128 0x25
 2626 0b06 01       		.uleb128 0x1
 2627 0b07 52       		.byte	0x52
 2628 0b08 01       		.uleb128 0x1
 2629 0b09 44       		.byte	0x44
 2630 0b0a 25       		.uleb128 0x25
 2631 0b0b 01       		.uleb128 0x1
 2632 0b0c 53       		.byte	0x53
 2633 0b0d 02       		.uleb128 0x2
 2634 0b0e 74       		.byte	0x74
 2635 0b0f 00       		.sleb128 0
 2636 0b10 00       		.byte	0
 2637 0b11 00       		.byte	0
 2638 0b12 23       		.uleb128 0x23
 2639 0b13 A2000000 		.4byte	.LBB4
 2640 0b17 2C000000 		.4byte	.LBE4-.LBB4
 2641 0b1b 4A0B0000 		.4byte	0xb4a
 2642 0b1f 22       		.uleb128 0x22
 2643 0b20 DE0D0000 		.4byte	.LASF223
 2644 0b24 01       		.byte	0x1
 2645 0b25 8602     		.2byte	0x286
 2646 0b27 740B0000 		.4byte	0xb74
ARM GAS  C:\Users\Art\AppData\Local\Temp\ccqpb62o.s 			page 75


 2647 0b2b 02       		.uleb128 0x2
 2648 0b2c 91       		.byte	0x91
 2649 0b2d 64       		.sleb128 -28
 2650 0b2e 24       		.uleb128 0x24
 2651 0b2f C0000000 		.4byte	.LVL58
 2652 0b33 3F100000 		.4byte	0x103f
 2653 0b37 25       		.uleb128 0x25
 2654 0b38 01       		.uleb128 0x1
 2655 0b39 50       		.byte	0x50
 2656 0b3a 02       		.uleb128 0x2
 2657 0b3b 91       		.byte	0x91
 2658 0b3c 64       		.sleb128 -28
 2659 0b3d 25       		.uleb128 0x25
 2660 0b3e 01       		.uleb128 0x1
 2661 0b3f 52       		.byte	0x52
 2662 0b40 01       		.uleb128 0x1
 2663 0b41 34       		.byte	0x34
 2664 0b42 25       		.uleb128 0x25
 2665 0b43 01       		.uleb128 0x1
 2666 0b44 53       		.byte	0x53
 2667 0b45 02       		.uleb128 0x2
 2668 0b46 74       		.byte	0x74
 2669 0b47 00       		.sleb128 0
 2670 0b48 00       		.byte	0
 2671 0b49 00       		.byte	0
 2672 0b4a 26       		.uleb128 0x26
 2673 0b4b 12000000 		.4byte	.LVL46
 2674 0b4f 4A100000 		.4byte	0x104a
 2675 0b53 5E0B0000 		.4byte	0xb5e
 2676 0b57 25       		.uleb128 0x25
 2677 0b58 01       		.uleb128 0x1
 2678 0b59 50       		.byte	0x50
 2679 0b5a 02       		.uleb128 0x2
 2680 0b5b 74       		.byte	0x74
 2681 0b5c 00       		.sleb128 0
 2682 0b5d 00       		.byte	0
 2683 0b5e 24       		.uleb128 0x24
 2684 0b5f 58000000 		.4byte	.LVL52
 2685 0b63 3F100000 		.4byte	0x103f
 2686 0b67 25       		.uleb128 0x25
 2687 0b68 01       		.uleb128 0x1
 2688 0b69 52       		.byte	0x52
 2689 0b6a 01       		.uleb128 0x1
 2690 0b6b 34       		.byte	0x34
 2691 0b6c 25       		.uleb128 0x25
 2692 0b6d 01       		.uleb128 0x1
 2693 0b6e 53       		.byte	0x53
 2694 0b6f 02       		.uleb128 0x2
 2695 0b70 74       		.byte	0x74
 2696 0b71 00       		.sleb128 0
 2697 0b72 00       		.byte	0
 2698 0b73 00       		.byte	0
 2699 0b74 0F       		.uleb128 0xf
 2700 0b75 6B000000 		.4byte	0x6b
 2701 0b79 840B0000 		.4byte	0xb84
 2702 0b7d 10       		.uleb128 0x10
 2703 0b7e BC000000 		.4byte	0xbc
ARM GAS  C:\Users\Art\AppData\Local\Temp\ccqpb62o.s 			page 76


 2704 0b82 03       		.byte	0x3
 2705 0b83 00       		.byte	0
 2706 0b84 21       		.uleb128 0x21
 2707 0b85 EC040000 		.4byte	.LASF224
 2708 0b89 01       		.byte	0x1
 2709 0b8a B502     		.2byte	0x2b5
 2710 0b8c 72030000 		.4byte	0x372
 2711 0b90 00000000 		.4byte	.LFB7
 2712 0b94 6C000000 		.4byte	.LFE7-.LFB7
 2713 0b98 01       		.uleb128 0x1
 2714 0b99 9C       		.byte	0x9c
 2715 0b9a 4E0C0000 		.4byte	0xc4e
 2716 0b9e 1B       		.uleb128 0x1b
 2717 0b9f B0150000 		.4byte	.LASF124
 2718 0ba3 01       		.byte	0x1
 2719 0ba4 B502     		.2byte	0x2b5
 2720 0ba6 4E0C0000 		.4byte	0xc4e
 2721 0baa 72020000 		.4byte	.LLST12
 2722 0bae 1D       		.uleb128 0x1d
 2723 0baf 50000000 		.4byte	.LASF213
 2724 0bb3 01       		.byte	0x1
 2725 0bb4 B702     		.2byte	0x2b7
 2726 0bb6 72030000 		.4byte	0x372
 2727 0bba B4020000 		.4byte	.LLST13
 2728 0bbe 28       		.uleb128 0x28
 2729 0bbf 0E000000 		.4byte	.LBB5
 2730 0bc3 50000000 		.4byte	.LBE5-.LBB5
 2731 0bc7 22       		.uleb128 0x22
 2732 0bc8 E1010000 		.4byte	.LASF225
 2733 0bcc 01       		.byte	0x1
 2734 0bcd BE02     		.2byte	0x2be
 2735 0bcf 6B000000 		.4byte	0x6b
 2736 0bd3 02       		.uleb128 0x2
 2737 0bd4 91       		.byte	0x91
 2738 0bd5 67       		.sleb128 -25
 2739 0bd6 22       		.uleb128 0x22
 2740 0bd7 9B160000 		.4byte	.LASF226
 2741 0bdb 01       		.byte	0x1
 2742 0bdc BF02     		.2byte	0x2bf
 2743 0bde B2030000 		.4byte	0x3b2
 2744 0be2 02       		.uleb128 0x2
 2745 0be3 91       		.byte	0x91
 2746 0be4 68       		.sleb128 -24
 2747 0be5 26       		.uleb128 0x26
 2748 0be6 18000000 		.4byte	.LVL63
 2749 0bea 36100000 		.4byte	0x1036
 2750 0bee 030C0000 		.4byte	0xc03
 2751 0bf2 25       		.uleb128 0x25
 2752 0bf3 01       		.uleb128 0x1
 2753 0bf4 50       		.byte	0x50
 2754 0bf5 02       		.uleb128 0x2
 2755 0bf6 91       		.byte	0x91
 2756 0bf7 68       		.sleb128 -24
 2757 0bf8 25       		.uleb128 0x25
 2758 0bf9 01       		.uleb128 0x1
 2759 0bfa 51       		.byte	0x51
 2760 0bfb 01       		.uleb128 0x1
ARM GAS  C:\Users\Art\AppData\Local\Temp\ccqpb62o.s 			page 77


 2761 0bfc 30       		.byte	0x30
 2762 0bfd 25       		.uleb128 0x25
 2763 0bfe 01       		.uleb128 0x1
 2764 0bff 52       		.byte	0x52
 2765 0c00 01       		.uleb128 0x1
 2766 0c01 37       		.byte	0x37
 2767 0c02 00       		.byte	0
 2768 0c03 26       		.uleb128 0x26
 2769 0c04 22000000 		.4byte	.LVL64
 2770 0c08 55100000 		.4byte	0x1055
 2771 0c0c 220C0000 		.4byte	0xc22
 2772 0c10 25       		.uleb128 0x25
 2773 0c11 01       		.uleb128 0x1
 2774 0c12 50       		.byte	0x50
 2775 0c13 02       		.uleb128 0x2
 2776 0c14 75       		.byte	0x75
 2777 0c15 00       		.sleb128 0
 2778 0c16 25       		.uleb128 0x25
 2779 0c17 01       		.uleb128 0x1
 2780 0c18 51       		.byte	0x51
 2781 0c19 02       		.uleb128 0x2
 2782 0c1a 91       		.byte	0x91
 2783 0c1b 68       		.sleb128 -24
 2784 0c1c 25       		.uleb128 0x25
 2785 0c1d 01       		.uleb128 0x1
 2786 0c1e 52       		.byte	0x52
 2787 0c1f 01       		.uleb128 0x1
 2788 0c20 36       		.byte	0x36
 2789 0c21 00       		.byte	0
 2790 0c22 26       		.uleb128 0x26
 2791 0c23 3A000000 		.4byte	.LVL65
 2792 0c27 60100000 		.4byte	0x1060
 2793 0c2b 3C0C0000 		.4byte	0xc3c
 2794 0c2f 25       		.uleb128 0x25
 2795 0c30 01       		.uleb128 0x1
 2796 0c31 50       		.byte	0x50
 2797 0c32 02       		.uleb128 0x2
 2798 0c33 7D       		.byte	0x7d
 2799 0c34 07       		.sleb128 7
 2800 0c35 25       		.uleb128 0x25
 2801 0c36 01       		.uleb128 0x1
 2802 0c37 51       		.byte	0x51
 2803 0c38 02       		.uleb128 0x2
 2804 0c39 75       		.byte	0x75
 2805 0c3a 00       		.sleb128 0
 2806 0c3b 00       		.byte	0
 2807 0c3c 24       		.uleb128 0x24
 2808 0c3d 5C000000 		.4byte	.LVL68
 2809 0c41 6C100000 		.4byte	0x106c
 2810 0c45 25       		.uleb128 0x25
 2811 0c46 01       		.uleb128 0x1
 2812 0c47 50       		.byte	0x50
 2813 0c48 02       		.uleb128 0x2
 2814 0c49 75       		.byte	0x75
 2815 0c4a 00       		.sleb128 0
 2816 0c4b 00       		.byte	0
 2817 0c4c 00       		.byte	0
ARM GAS  C:\Users\Art\AppData\Local\Temp\ccqpb62o.s 			page 78


 2818 0c4d 00       		.byte	0
 2819 0c4e 07       		.uleb128 0x7
 2820 0c4f 04       		.byte	0x4
 2821 0c50 B2030000 		.4byte	0x3b2
 2822 0c54 21       		.uleb128 0x21
 2823 0c55 F7050000 		.4byte	.LASF227
 2824 0c59 01       		.byte	0x1
 2825 0c5a 1603     		.2byte	0x316
 2826 0c5c 72030000 		.4byte	0x372
 2827 0c60 00000000 		.4byte	.LFB8
 2828 0c64 88000000 		.4byte	.LFE8-.LFB8
 2829 0c68 01       		.uleb128 0x1
 2830 0c69 9C       		.byte	0x9c
 2831 0c6a A20C0000 		.4byte	0xca2
 2832 0c6e 1B       		.uleb128 0x1b
 2833 0c6f 66030000 		.4byte	.LASF228
 2834 0c73 01       		.byte	0x1
 2835 0c74 1603     		.2byte	0x316
 2836 0c76 6B000000 		.4byte	0x6b
 2837 0c7a F5020000 		.4byte	.LLST14
 2838 0c7e 1D       		.uleb128 0x1d
 2839 0c7f 50000000 		.4byte	.LASF213
 2840 0c83 01       		.byte	0x1
 2841 0c84 1803     		.2byte	0x318
 2842 0c86 72030000 		.4byte	0x372
 2843 0c8a 6D030000 		.4byte	.LLST15
 2844 0c8e 24       		.uleb128 0x24
 2845 0c8f 54000000 		.4byte	.LVL74
 2846 0c93 78100000 		.4byte	0x1078
 2847 0c97 25       		.uleb128 0x25
 2848 0c98 01       		.uleb128 0x1
 2849 0c99 50       		.byte	0x50
 2850 0c9a 05       		.uleb128 0x5
 2851 0c9b 03       		.byte	0x3
 2852 0c9c 20000000 		.4byte	.LANCHOR0+32
 2853 0ca0 00       		.byte	0
 2854 0ca1 00       		.byte	0
 2855 0ca2 27       		.uleb128 0x27
 2856 0ca3 00080000 		.4byte	.LASF229
 2857 0ca7 01       		.byte	0x1
 2858 0ca8 5303     		.2byte	0x353
 2859 0caa 00000000 		.4byte	.LFB9
 2860 0cae 18000000 		.4byte	.LFE9-.LFB9
 2861 0cb2 01       		.uleb128 0x1
 2862 0cb3 9C       		.byte	0x9c
 2863 0cb4 C20C0000 		.4byte	0xcc2
 2864 0cb8 20       		.uleb128 0x20
 2865 0cb9 06000000 		.4byte	.LVL82
 2866 0cbd 84100000 		.4byte	0x1084
 2867 0cc1 00       		.byte	0
 2868 0cc2 27       		.uleb128 0x27
 2869 0cc3 4D0B0000 		.4byte	.LASF230
 2870 0cc7 01       		.byte	0x1
 2871 0cc8 6903     		.2byte	0x369
 2872 0cca 00000000 		.4byte	.LFB10
 2873 0cce 02000000 		.4byte	.LFE10-.LFB10
 2874 0cd2 01       		.uleb128 0x1
ARM GAS  C:\Users\Art\AppData\Local\Temp\ccqpb62o.s 			page 79


 2875 0cd3 9C       		.byte	0x9c
 2876 0cd4 0C0D0000 		.4byte	0xd0c
 2877 0cd8 29       		.uleb128 0x29
 2878 0cd9 B0150000 		.4byte	.LASF124
 2879 0cdd 01       		.byte	0x1
 2880 0cde 6903     		.2byte	0x369
 2881 0ce0 0C0D0000 		.4byte	0xd0c
 2882 0ce4 01       		.uleb128 0x1
 2883 0ce5 50       		.byte	0x50
 2884 0ce6 29       		.uleb128 0x29
 2885 0ce7 25120000 		.4byte	.LASF204
 2886 0ceb 01       		.byte	0x1
 2887 0cec 6903     		.2byte	0x369
 2888 0cee 6B000000 		.4byte	0x6b
 2889 0cf2 01       		.uleb128 0x1
 2890 0cf3 51       		.byte	0x51
 2891 0cf4 2A       		.uleb128 0x2a
 2892 0cf5 6900     		.ascii	"i\000"
 2893 0cf7 01       		.byte	0x1
 2894 0cf8 6B03     		.2byte	0x36b
 2895 0cfa 6B000000 		.4byte	0x6b
 2896 0cfe 2B       		.uleb128 0x2b
 2897 0cff B3000000 		.4byte	.LASF208
 2898 0d03 01       		.byte	0x1
 2899 0d04 6C03     		.2byte	0x36c
 2900 0d06 97040000 		.4byte	0x497
 2901 0d0a 00       		.byte	0
 2902 0d0b 00       		.byte	0
 2903 0d0c 07       		.uleb128 0x7
 2904 0d0d 04       		.byte	0x4
 2905 0d0e 120D0000 		.4byte	0xd12
 2906 0d12 1E       		.uleb128 0x1e
 2907 0d13 B2030000 		.4byte	0x3b2
 2908 0d17 21       		.uleb128 0x21
 2909 0d18 02140000 		.4byte	.LASF231
 2910 0d1c 01       		.byte	0x1
 2911 0d1d 0D05     		.2byte	0x50d
 2912 0d1f 72030000 		.4byte	0x372
 2913 0d23 00000000 		.4byte	.LFB12
 2914 0d27 60000000 		.4byte	.LFE12-.LFB12
 2915 0d2b 01       		.uleb128 0x1
 2916 0d2c 9C       		.byte	0x9c
 2917 0d2d AE0D0000 		.4byte	0xdae
 2918 0d31 1B       		.uleb128 0x1b
 2919 0d32 AA130000 		.4byte	.LASF203
 2920 0d36 01       		.byte	0x1
 2921 0d37 0D05     		.2byte	0x50d
 2922 0d39 EE080000 		.4byte	0x8ee
 2923 0d3d 8B030000 		.4byte	.LLST16
 2924 0d41 1D       		.uleb128 0x1d
 2925 0d42 50000000 		.4byte	.LASF213
 2926 0d46 01       		.byte	0x1
 2927 0d47 0F05     		.2byte	0x50f
 2928 0d49 72030000 		.4byte	0x372
 2929 0d4d CD030000 		.4byte	.LLST17
 2930 0d51 1C       		.uleb128 0x1c
 2931 0d52 6900     		.ascii	"i\000"
ARM GAS  C:\Users\Art\AppData\Local\Temp\ccqpb62o.s 			page 80


 2932 0d54 01       		.byte	0x1
 2933 0d55 1005     		.2byte	0x510
 2934 0d57 6B000000 		.4byte	0x6b
 2935 0d5b EC030000 		.4byte	.LLST18
 2936 0d5f 1C       		.uleb128 0x1c
 2937 0d60 70747200 		.ascii	"ptr\000"
 2938 0d64 01       		.byte	0x1
 2939 0d65 1105     		.2byte	0x511
 2940 0d67 AE0D0000 		.4byte	0xdae
 2941 0d6b 16040000 		.4byte	.LLST19
 2942 0d6f 1D       		.uleb128 0x1d
 2943 0d70 800E0000 		.4byte	.LASF232
 2944 0d74 01       		.byte	0x1
 2945 0d75 1205     		.2byte	0x512
 2946 0d77 6B000000 		.4byte	0x6b
 2947 0d7b 29040000 		.4byte	.LLST20
 2948 0d7f 26       		.uleb128 0x26
 2949 0d80 48000000 		.4byte	.LVL95
 2950 0d84 59080000 		.4byte	0x859
 2951 0d88 980D0000 		.4byte	0xd98
 2952 0d8c 25       		.uleb128 0x25
 2953 0d8d 01       		.uleb128 0x1
 2954 0d8e 50       		.byte	0x50
 2955 0d8f 02       		.uleb128 0x2
 2956 0d90 74       		.byte	0x74
 2957 0d91 00       		.sleb128 0
 2958 0d92 25       		.uleb128 0x25
 2959 0d93 01       		.uleb128 0x1
 2960 0d94 51       		.byte	0x51
 2961 0d95 01       		.uleb128 0x1
 2962 0d96 30       		.byte	0x30
 2963 0d97 00       		.byte	0
 2964 0d98 24       		.uleb128 0x24
 2965 0d99 50000000 		.4byte	.LVL96
 2966 0d9d 59080000 		.4byte	0x859
 2967 0da1 25       		.uleb128 0x25
 2968 0da2 01       		.uleb128 0x1
 2969 0da3 50       		.byte	0x50
 2970 0da4 02       		.uleb128 0x2
 2971 0da5 74       		.byte	0x74
 2972 0da6 00       		.sleb128 0
 2973 0da7 25       		.uleb128 0x25
 2974 0da8 01       		.uleb128 0x1
 2975 0da9 51       		.byte	0x51
 2976 0daa 01       		.uleb128 0x1
 2977 0dab 31       		.byte	0x31
 2978 0dac 00       		.byte	0
 2979 0dad 00       		.byte	0
 2980 0dae 07       		.uleb128 0x7
 2981 0daf 04       		.byte	0x4
 2982 0db0 9D000000 		.4byte	0x9d
 2983 0db4 21       		.uleb128 0x21
 2984 0db5 09070000 		.4byte	.LASF233
 2985 0db9 01       		.byte	0x1
 2986 0dba 5505     		.2byte	0x555
 2987 0dbc 72030000 		.4byte	0x372
 2988 0dc0 00000000 		.4byte	.LFB13
ARM GAS  C:\Users\Art\AppData\Local\Temp\ccqpb62o.s 			page 81


 2989 0dc4 48000000 		.4byte	.LFE13-.LFB13
 2990 0dc8 01       		.uleb128 0x1
 2991 0dc9 9C       		.byte	0x9c
 2992 0dca 1D0E0000 		.4byte	0xe1d
 2993 0dce 1B       		.uleb128 0x1b
 2994 0dcf AA130000 		.4byte	.LASF203
 2995 0dd3 01       		.byte	0x1
 2996 0dd4 5505     		.2byte	0x555
 2997 0dd6 AE0D0000 		.4byte	0xdae
 2998 0dda 3C040000 		.4byte	.LLST21
 2999 0dde 1D       		.uleb128 0x1d
 3000 0ddf 50000000 		.4byte	.LASF213
 3001 0de3 01       		.byte	0x1
 3002 0de4 5705     		.2byte	0x557
 3003 0de6 72030000 		.4byte	0x372
 3004 0dea 76040000 		.4byte	.LLST22
 3005 0dee 1D       		.uleb128 0x1d
 3006 0def 800E0000 		.4byte	.LASF232
 3007 0df3 01       		.byte	0x1
 3008 0df4 5805     		.2byte	0x558
 3009 0df6 6B000000 		.4byte	0x6b
 3010 0dfa 95040000 		.4byte	.LLST23
 3011 0dfe 1C       		.uleb128 0x1c
 3012 0dff 6900     		.ascii	"i\000"
 3013 0e01 01       		.byte	0x1
 3014 0e02 5905     		.2byte	0x559
 3015 0e04 6B000000 		.4byte	0x6b
 3016 0e08 A8040000 		.4byte	.LLST24
 3017 0e0c 1C       		.uleb128 0x1c
 3018 0e0d 70747200 		.ascii	"ptr\000"
 3019 0e11 01       		.byte	0x1
 3020 0e12 5A05     		.2byte	0x55a
 3021 0e14 AE0D0000 		.4byte	0xdae
 3022 0e18 D2040000 		.4byte	.LLST25
 3023 0e1c 00       		.byte	0
 3024 0e1d 21       		.uleb128 0x21
 3025 0e1e 7C100000 		.4byte	.LASF234
 3026 0e22 01       		.byte	0x1
 3027 0e23 8705     		.2byte	0x587
 3028 0e25 77000000 		.4byte	0x77
 3029 0e29 00000000 		.4byte	.LFB14
 3030 0e2d 0A000000 		.4byte	.LFE14-.LFB14
 3031 0e31 01       		.uleb128 0x1
 3032 0e32 9C       		.byte	0x9c
 3033 0e33 480E0000 		.4byte	0xe48
 3034 0e37 2C       		.uleb128 0x2c
 3035 0e38 70747200 		.ascii	"ptr\000"
 3036 0e3c 01       		.byte	0x1
 3037 0e3d 8705     		.2byte	0x587
 3038 0e3f 480E0000 		.4byte	0xe48
 3039 0e43 E5040000 		.4byte	.LLST26
 3040 0e47 00       		.byte	0
 3041 0e48 07       		.uleb128 0x7
 3042 0e49 04       		.byte	0x4
 3043 0e4a 4E0E0000 		.4byte	0xe4e
 3044 0e4e 1E       		.uleb128 0x1e
 3045 0e4f 6B000000 		.4byte	0x6b
ARM GAS  C:\Users\Art\AppData\Local\Temp\ccqpb62o.s 			page 82


 3046 0e53 27       		.uleb128 0x27
 3047 0e54 4A0E0000 		.4byte	.LASF235
 3048 0e58 01       		.byte	0x1
 3049 0e59 9A05     		.2byte	0x59a
 3050 0e5b 00000000 		.4byte	.LFB15
 3051 0e5f 08000000 		.4byte	.LFE15-.LFB15
 3052 0e63 01       		.uleb128 0x1
 3053 0e64 9C       		.byte	0x9c
 3054 0e65 880E0000 		.4byte	0xe88
 3055 0e69 2D       		.uleb128 0x2d
 3056 0e6a 70747200 		.ascii	"ptr\000"
 3057 0e6e 01       		.byte	0x1
 3058 0e6f 9A05     		.2byte	0x59a
 3059 0e71 97040000 		.4byte	0x497
 3060 0e75 01       		.uleb128 0x1
 3061 0e76 50       		.byte	0x50
 3062 0e77 1B       		.uleb128 0x1b
 3063 0e78 9D110000 		.4byte	.LASF236
 3064 0e7c 01       		.byte	0x1
 3065 0e7d 9A05     		.2byte	0x59a
 3066 0e7f 77000000 		.4byte	0x77
 3067 0e83 06050000 		.4byte	.LLST27
 3068 0e87 00       		.byte	0
 3069 0e88 2E       		.uleb128 0x2e
 3070 0e89 DE070000 		.4byte	.LASF237
 3071 0e8d 01       		.byte	0x1
 3072 0e8e 84       		.byte	0x84
 3073 0e8f 6B000000 		.4byte	0x6b
 3074 0e93 05       		.uleb128 0x5
 3075 0e94 03       		.byte	0x3
 3076 0e95 21000000 		.4byte	cyBle_pendingFlashClearCccdHandle
 3077 0e99 2F       		.uleb128 0x2f
 3078 0e9a AC110000 		.4byte	.LASF238
 3079 0e9e 01       		.byte	0x1
 3080 0e9f 89       		.byte	0x89
 3081 0ea0 42070000 		.4byte	0x742
 3082 0ea4 05       		.uleb128 0x5
 3083 0ea5 03       		.byte	0x3
 3084 0ea6 00000000 		.4byte	CyBle_ApplCallback
 3085 0eaa 2F       		.uleb128 0x2f
 3086 0eab B5130000 		.4byte	.LASF239
 3087 0eaf 01       		.byte	0x1
 3088 0eb0 2B       		.byte	0x2b
 3089 0eb1 6B000000 		.4byte	0x6b
 3090 0eb5 05       		.uleb128 0x5
 3091 0eb6 03       		.byte	0x3
 3092 0eb7 00000000 		.4byte	cyBle_initVar
 3093 0ebb 0F       		.uleb128 0xf
 3094 0ebc 6B000000 		.4byte	0x6b
 3095 0ec0 CC0E0000 		.4byte	0xecc
 3096 0ec4 19       		.uleb128 0x19
 3097 0ec5 BC000000 		.4byte	0xbc
 3098 0ec9 DF0A     		.2byte	0xadf
 3099 0ecb 00       		.byte	0
 3100 0ecc 2F       		.uleb128 0x2f
 3101 0ecd 5E150000 		.4byte	.LASF240
 3102 0ed1 01       		.byte	0x1
ARM GAS  C:\Users\Art\AppData\Local\Temp\ccqpb62o.s 			page 83


 3103 0ed2 36       		.byte	0x36
 3104 0ed3 BB0E0000 		.4byte	0xebb
 3105 0ed7 05       		.uleb128 0x5
 3106 0ed8 03       		.byte	0x3
 3107 0ed9 00000000 		.4byte	cyBle_stackMemoryRam
 3108 0edd 30       		.uleb128 0x30
 3109 0ede C2150000 		.4byte	.LASF241
 3110 0ee2 07       		.byte	0x7
 3111 0ee3 A302     		.2byte	0x2a3
 3112 0ee5 B0000000 		.4byte	0xb0
 3113 0ee9 2F       		.uleb128 0x2f
 3114 0eea 21040000 		.4byte	.LASF242
 3115 0eee 01       		.byte	0x1
 3116 0eef 8A       		.byte	0x8a
 3117 0ef0 B2030000 		.4byte	0x3b2
 3118 0ef4 05       		.uleb128 0x5
 3119 0ef5 03       		.byte	0x3
 3120 0ef6 00000000 		.4byte	cyBle_deviceAddress
 3121 0efa 2F       		.uleb128 0x2f
 3122 0efb E8080000 		.4byte	.LASF243
 3123 0eff 01       		.byte	0x1
 3124 0f00 8B       		.byte	0x8b
 3125 0f01 4E0C0000 		.4byte	0xc4e
 3126 0f05 05       		.uleb128 0x5
 3127 0f06 03       		.byte	0x3
 3128 0f07 00000000 		.4byte	cyBle_sflashDeviceAddress
 3129 0f0b 2F       		.uleb128 0x2f
 3130 0f0c F9030000 		.4byte	.LASF244
 3131 0f10 01       		.byte	0x1
 3132 0f11 3C       		.byte	0x3c
 3133 0f12 45050000 		.4byte	0x545
 3134 0f16 05       		.uleb128 0x5
 3135 0f17 03       		.byte	0x3
 3136 0f18 00000000 		.4byte	cyBle_discoveryParam
 3137 0f1c 2F       		.uleb128 0x2f
 3138 0f1d 69170000 		.4byte	.LASF245
 3139 0f21 01       		.byte	0x1
 3140 0f22 48       		.byte	0x48
 3141 0f23 85050000 		.4byte	0x585
 3142 0f27 05       		.uleb128 0x5
 3143 0f28 03       		.byte	0x3
 3144 0f29 00000000 		.4byte	cyBle_discoveryData
 3145 0f2d 2F       		.uleb128 0x2f
 3146 0f2e 1D0F0000 		.4byte	.LASF246
 3147 0f32 01       		.byte	0x1
 3148 0f33 51       		.byte	0x51
 3149 0f34 B5050000 		.4byte	0x5b5
 3150 0f38 05       		.uleb128 0x5
 3151 0f39 03       		.byte	0x3
 3152 0f3a 00000000 		.4byte	cyBle_scanRspData
 3153 0f3e 2F       		.uleb128 0x2f
 3154 0f3f 31150000 		.4byte	.LASF247
 3155 0f43 01       		.byte	0x1
 3156 0f44 61       		.byte	0x61
 3157 0f45 1E060000 		.4byte	0x61e
 3158 0f49 05       		.uleb128 0x5
 3159 0f4a 03       		.byte	0x3
ARM GAS  C:\Users\Art\AppData\Local\Temp\ccqpb62o.s 			page 84


 3160 0f4b 00000000 		.4byte	cyBle_discoveryModeInfo
 3161 0f4f 2F       		.uleb128 0x2f
 3162 0f50 46120000 		.4byte	.LASF248
 3163 0f54 01       		.byte	0x1
 3164 0f55 81       		.byte	0x81
 3165 0f56 6B000000 		.4byte	0x6b
 3166 0f5a 05       		.uleb128 0x5
 3167 0f5b 03       		.byte	0x3
 3168 0f5c 00000000 		.4byte	cyBle_pendingFlashWrite
 3169 0f60 2F       		.uleb128 0x2f
 3170 0f61 00000000 		.4byte	.LASF249
 3171 0f65 01       		.byte	0x1
 3172 0f66 80       		.byte	0x80
 3173 0f67 6B000000 		.4byte	0x6b
 3174 0f6b 05       		.uleb128 0x5
 3175 0f6c 03       		.byte	0x3
 3176 0f6d 00000000 		.4byte	cyBle_peerBonding
 3177 0f71 0F       		.uleb128 0xf
 3178 0f72 810F0000 		.4byte	0xf81
 3179 0f76 810F0000 		.4byte	0xf81
 3180 0f7a 10       		.uleb128 0x10
 3181 0f7b BC000000 		.4byte	0xbc
 3182 0f7f 12       		.byte	0x12
 3183 0f80 00       		.byte	0
 3184 0f81 1E       		.uleb128 0x1e
 3185 0f82 36070000 		.4byte	0x736
 3186 0f86 31       		.uleb128 0x31
 3187 0f87 5F0D0000 		.4byte	.LASF250
 3188 0f8b 08       		.byte	0x8
 3189 0f8c E8       		.byte	0xe8
 3190 0f8d 910F0000 		.4byte	0xf91
 3191 0f91 1E       		.uleb128 0x1e
 3192 0f92 710F0000 		.4byte	0xf71
 3193 0f96 31       		.uleb128 0x31
 3194 0f97 4F160000 		.4byte	.LASF251
 3195 0f9b 08       		.byte	0x8
 3196 0f9c EC       		.byte	0xec
 3197 0f9d 740B0000 		.4byte	0xb74
 3198 0fa1 31       		.uleb128 0x31
 3199 0fa2 000C0000 		.4byte	.LASF252
 3200 0fa6 08       		.byte	0x8
 3201 0fa7 F4       		.byte	0xf4
 3202 0fa8 AC0F0000 		.4byte	0xfac
 3203 0fac 1E       		.uleb128 0x1e
 3204 0fad B2070000 		.4byte	0x7b2
 3205 0fb1 30       		.uleb128 0x30
 3206 0fb2 CC120000 		.4byte	.LASF253
 3207 0fb6 09       		.byte	0x9
 3208 0fb7 A90A     		.2byte	0xaa9
 3209 0fb9 E9070000 		.4byte	0x7e9
 3210 0fbd 30       		.uleb128 0x30
 3211 0fbe E7130000 		.4byte	.LASF254
 3212 0fc2 09       		.byte	0x9
 3213 0fc3 AA0A     		.2byte	0xaaa
 3214 0fc5 5A060000 		.4byte	0x65a
 3215 0fc9 30       		.uleb128 0x30
 3216 0fca 3C0B0000 		.4byte	.LASF255
ARM GAS  C:\Users\Art\AppData\Local\Temp\ccqpb62o.s 			page 85


 3217 0fce 09       		.byte	0x9
 3218 0fcf AB0A     		.2byte	0xaab
 3219 0fd1 B0000000 		.4byte	0xb0
 3220 0fd5 30       		.uleb128 0x30
 3221 0fd6 B7150000 		.4byte	.LASF256
 3222 0fda 09       		.byte	0x9
 3223 0fdb AC0A     		.2byte	0xaac
 3224 0fdd E10F0000 		.4byte	0xfe1
 3225 0fe1 1E       		.uleb128 0x1e
 3226 0fe2 4D080000 		.4byte	0x84d
 3227 0fe6 30       		.uleb128 0x30
 3228 0fe7 B40C0000 		.4byte	.LASF257
 3229 0feb 09       		.byte	0x9
 3230 0fec AF0A     		.2byte	0xaaf
 3231 0fee 6B000000 		.4byte	0x6b
 3232 0ff2 32       		.uleb128 0x32
 3233 0ff3 B50E0000 		.4byte	.LASF258
 3234 0ff7 B50E0000 		.4byte	.LASF258
 3235 0ffb 0A       		.byte	0xa
 3236 0ffc AA       		.byte	0xaa
 3237 0ffd 33       		.uleb128 0x33
 3238 0ffe 0D0A0000 		.4byte	.LASF259
 3239 1002 0D0A0000 		.4byte	.LASF259
 3240 1006 03       		.byte	0x3
 3241 1007 2306     		.2byte	0x623
 3242 1009 34       		.uleb128 0x34
 3243 100a 0A160000 		.4byte	.LASF263
 3244 100e 0A160000 		.4byte	.LASF263
 3245 1012 33       		.uleb128 0x33
 3246 1013 99060000 		.4byte	.LASF260
 3247 1017 99060000 		.4byte	.LASF260
 3248 101b 03       		.byte	0x3
 3249 101c EB06     		.2byte	0x6eb
 3250 101e 33       		.uleb128 0x33
 3251 101f 64140000 		.4byte	.LASF261
 3252 1023 64140000 		.4byte	.LASF261
 3253 1027 06       		.byte	0x6
 3254 1028 5401     		.2byte	0x154
 3255 102a 33       		.uleb128 0x33
 3256 102b 1C080000 		.4byte	.LASF262
 3257 102f 1C080000 		.4byte	.LASF262
 3258 1033 03       		.byte	0x3
 3259 1034 0607     		.2byte	0x706
 3260 1036 34       		.uleb128 0x34
 3261 1037 F8110000 		.4byte	.LASF264
 3262 103b F8110000 		.4byte	.LASF264
 3263 103f 32       		.uleb128 0x32
 3264 1040 0E040000 		.4byte	.LASF265
 3265 1044 0E040000 		.4byte	.LASF265
 3266 1048 0B       		.byte	0xb
 3267 1049 82       		.byte	0x82
 3268 104a 32       		.uleb128 0x32
 3269 104b A2030000 		.4byte	.LASF266
 3270 104f A2030000 		.4byte	.LASF266
 3271 1053 0B       		.byte	0xb
 3272 1054 64       		.byte	0x64
 3273 1055 32       		.uleb128 0x32
ARM GAS  C:\Users\Art\AppData\Local\Temp\ccqpb62o.s 			page 86


 3274 1056 E8120000 		.4byte	.LASF267
 3275 105a E8120000 		.4byte	.LASF267
 3276 105e 0C       		.byte	0xc
 3277 105f 16       		.byte	0x16
 3278 1060 33       		.uleb128 0x33
 3279 1061 11010000 		.4byte	.LASF268
 3280 1065 11010000 		.4byte	.LASF268
 3281 1069 04       		.byte	0x4
 3282 106a 9005     		.2byte	0x590
 3283 106c 33       		.uleb128 0x33
 3284 106d 9D120000 		.4byte	.LASF269
 3285 1071 9D120000 		.4byte	.LASF269
 3286 1075 04       		.byte	0x4
 3287 1076 C108     		.2byte	0x8c1
 3288 1078 33       		.uleb128 0x33
 3289 1079 F60A0000 		.4byte	.LASF270
 3290 107d F60A0000 		.4byte	.LASF270
 3291 1081 04       		.byte	0x4
 3292 1082 EA05     		.2byte	0x5ea
 3293 1084 33       		.uleb128 0x33
 3294 1085 ED060000 		.4byte	.LASF271
 3295 1089 ED060000 		.4byte	.LASF271
 3296 108d 04       		.byte	0x4
 3297 108e FB05     		.2byte	0x5fb
 3298 1090 00       		.byte	0
 3299              		.section	.debug_abbrev,"",%progbits
 3300              	.Ldebug_abbrev0:
 3301 0000 01       		.uleb128 0x1
 3302 0001 11       		.uleb128 0x11
 3303 0002 01       		.byte	0x1
 3304 0003 25       		.uleb128 0x25
 3305 0004 0E       		.uleb128 0xe
 3306 0005 13       		.uleb128 0x13
 3307 0006 0B       		.uleb128 0xb
 3308 0007 03       		.uleb128 0x3
 3309 0008 0E       		.uleb128 0xe
 3310 0009 1B       		.uleb128 0x1b
 3311 000a 0E       		.uleb128 0xe
 3312 000b 55       		.uleb128 0x55
 3313 000c 17       		.uleb128 0x17
 3314 000d 11       		.uleb128 0x11
 3315 000e 01       		.uleb128 0x1
 3316 000f 10       		.uleb128 0x10
 3317 0010 17       		.uleb128 0x17
 3318 0011 00       		.byte	0
 3319 0012 00       		.byte	0
 3320 0013 02       		.uleb128 0x2
 3321 0014 24       		.uleb128 0x24
 3322 0015 00       		.byte	0
 3323 0016 0B       		.uleb128 0xb
 3324 0017 0B       		.uleb128 0xb
 3325 0018 3E       		.uleb128 0x3e
 3326 0019 0B       		.uleb128 0xb
 3327 001a 03       		.uleb128 0x3
 3328 001b 0E       		.uleb128 0xe
 3329 001c 00       		.byte	0
 3330 001d 00       		.byte	0
ARM GAS  C:\Users\Art\AppData\Local\Temp\ccqpb62o.s 			page 87


 3331 001e 03       		.uleb128 0x3
 3332 001f 24       		.uleb128 0x24
 3333 0020 00       		.byte	0
 3334 0021 0B       		.uleb128 0xb
 3335 0022 0B       		.uleb128 0xb
 3336 0023 3E       		.uleb128 0x3e
 3337 0024 0B       		.uleb128 0xb
 3338 0025 03       		.uleb128 0x3
 3339 0026 08       		.uleb128 0x8
 3340 0027 00       		.byte	0
 3341 0028 00       		.byte	0
 3342 0029 04       		.uleb128 0x4
 3343 002a 16       		.uleb128 0x16
 3344 002b 00       		.byte	0
 3345 002c 03       		.uleb128 0x3
 3346 002d 0E       		.uleb128 0xe
 3347 002e 3A       		.uleb128 0x3a
 3348 002f 0B       		.uleb128 0xb
 3349 0030 3B       		.uleb128 0x3b
 3350 0031 05       		.uleb128 0x5
 3351 0032 49       		.uleb128 0x49
 3352 0033 13       		.uleb128 0x13
 3353 0034 00       		.byte	0
 3354 0035 00       		.byte	0
 3355 0036 05       		.uleb128 0x5
 3356 0037 35       		.uleb128 0x35
 3357 0038 00       		.byte	0
 3358 0039 49       		.uleb128 0x49
 3359 003a 13       		.uleb128 0x13
 3360 003b 00       		.byte	0
 3361 003c 00       		.byte	0
 3362 003d 06       		.uleb128 0x6
 3363 003e 0F       		.uleb128 0xf
 3364 003f 00       		.byte	0
 3365 0040 0B       		.uleb128 0xb
 3366 0041 0B       		.uleb128 0xb
 3367 0042 00       		.byte	0
 3368 0043 00       		.byte	0
 3369 0044 07       		.uleb128 0x7
 3370 0045 0F       		.uleb128 0xf
 3371 0046 00       		.byte	0
 3372 0047 0B       		.uleb128 0xb
 3373 0048 0B       		.uleb128 0xb
 3374 0049 49       		.uleb128 0x49
 3375 004a 13       		.uleb128 0x13
 3376 004b 00       		.byte	0
 3377 004c 00       		.byte	0
 3378 004d 08       		.uleb128 0x8
 3379 004e 15       		.uleb128 0x15
 3380 004f 01       		.byte	0x1
 3381 0050 27       		.uleb128 0x27
 3382 0051 19       		.uleb128 0x19
 3383 0052 01       		.uleb128 0x1
 3384 0053 13       		.uleb128 0x13
 3385 0054 00       		.byte	0
 3386 0055 00       		.byte	0
 3387 0056 09       		.uleb128 0x9
ARM GAS  C:\Users\Art\AppData\Local\Temp\ccqpb62o.s 			page 88


 3388 0057 05       		.uleb128 0x5
 3389 0058 00       		.byte	0
 3390 0059 49       		.uleb128 0x49
 3391 005a 13       		.uleb128 0x13
 3392 005b 00       		.byte	0
 3393 005c 00       		.byte	0
 3394 005d 0A       		.uleb128 0xa
 3395 005e 04       		.uleb128 0x4
 3396 005f 01       		.byte	0x1
 3397 0060 0B       		.uleb128 0xb
 3398 0061 0B       		.uleb128 0xb
 3399 0062 49       		.uleb128 0x49
 3400 0063 13       		.uleb128 0x13
 3401 0064 3A       		.uleb128 0x3a
 3402 0065 0B       		.uleb128 0xb
 3403 0066 3B       		.uleb128 0x3b
 3404 0067 05       		.uleb128 0x5
 3405 0068 01       		.uleb128 0x1
 3406 0069 13       		.uleb128 0x13
 3407 006a 00       		.byte	0
 3408 006b 00       		.byte	0
 3409 006c 0B       		.uleb128 0xb
 3410 006d 28       		.uleb128 0x28
 3411 006e 00       		.byte	0
 3412 006f 03       		.uleb128 0x3
 3413 0070 0E       		.uleb128 0xe
 3414 0071 1C       		.uleb128 0x1c
 3415 0072 0B       		.uleb128 0xb
 3416 0073 00       		.byte	0
 3417 0074 00       		.byte	0
 3418 0075 0C       		.uleb128 0xc
 3419 0076 28       		.uleb128 0x28
 3420 0077 00       		.byte	0
 3421 0078 03       		.uleb128 0x3
 3422 0079 0E       		.uleb128 0xe
 3423 007a 1C       		.uleb128 0x1c
 3424 007b 05       		.uleb128 0x5
 3425 007c 00       		.byte	0
 3426 007d 00       		.byte	0
 3427 007e 0D       		.uleb128 0xd
 3428 007f 13       		.uleb128 0x13
 3429 0080 01       		.byte	0x1
 3430 0081 0B       		.uleb128 0xb
 3431 0082 0B       		.uleb128 0xb
 3432 0083 3A       		.uleb128 0x3a
 3433 0084 0B       		.uleb128 0xb
 3434 0085 3B       		.uleb128 0x3b
 3435 0086 05       		.uleb128 0x5
 3436 0087 01       		.uleb128 0x1
 3437 0088 13       		.uleb128 0x13
 3438 0089 00       		.byte	0
 3439 008a 00       		.byte	0
 3440 008b 0E       		.uleb128 0xe
 3441 008c 0D       		.uleb128 0xd
 3442 008d 00       		.byte	0
 3443 008e 03       		.uleb128 0x3
 3444 008f 0E       		.uleb128 0xe
ARM GAS  C:\Users\Art\AppData\Local\Temp\ccqpb62o.s 			page 89


 3445 0090 3A       		.uleb128 0x3a
 3446 0091 0B       		.uleb128 0xb
 3447 0092 3B       		.uleb128 0x3b
 3448 0093 05       		.uleb128 0x5
 3449 0094 49       		.uleb128 0x49
 3450 0095 13       		.uleb128 0x13
 3451 0096 38       		.uleb128 0x38
 3452 0097 0B       		.uleb128 0xb
 3453 0098 00       		.byte	0
 3454 0099 00       		.byte	0
 3455 009a 0F       		.uleb128 0xf
 3456 009b 01       		.uleb128 0x1
 3457 009c 01       		.byte	0x1
 3458 009d 49       		.uleb128 0x49
 3459 009e 13       		.uleb128 0x13
 3460 009f 01       		.uleb128 0x1
 3461 00a0 13       		.uleb128 0x13
 3462 00a1 00       		.byte	0
 3463 00a2 00       		.byte	0
 3464 00a3 10       		.uleb128 0x10
 3465 00a4 21       		.uleb128 0x21
 3466 00a5 00       		.byte	0
 3467 00a6 49       		.uleb128 0x49
 3468 00a7 13       		.uleb128 0x13
 3469 00a8 2F       		.uleb128 0x2f
 3470 00a9 0B       		.uleb128 0xb
 3471 00aa 00       		.byte	0
 3472 00ab 00       		.byte	0
 3473 00ac 11       		.uleb128 0x11
 3474 00ad 04       		.uleb128 0x4
 3475 00ae 01       		.byte	0x1
 3476 00af 0B       		.uleb128 0xb
 3477 00b0 0B       		.uleb128 0xb
 3478 00b1 49       		.uleb128 0x49
 3479 00b2 13       		.uleb128 0x13
 3480 00b3 3A       		.uleb128 0x3a
 3481 00b4 0B       		.uleb128 0xb
 3482 00b5 3B       		.uleb128 0x3b
 3483 00b6 0B       		.uleb128 0xb
 3484 00b7 01       		.uleb128 0x1
 3485 00b8 13       		.uleb128 0x13
 3486 00b9 00       		.byte	0
 3487 00ba 00       		.byte	0
 3488 00bb 12       		.uleb128 0x12
 3489 00bc 16       		.uleb128 0x16
 3490 00bd 00       		.byte	0
 3491 00be 03       		.uleb128 0x3
 3492 00bf 0E       		.uleb128 0xe
 3493 00c0 3A       		.uleb128 0x3a
 3494 00c1 0B       		.uleb128 0xb
 3495 00c2 3B       		.uleb128 0x3b
 3496 00c3 0B       		.uleb128 0xb
 3497 00c4 49       		.uleb128 0x49
 3498 00c5 13       		.uleb128 0x13
 3499 00c6 00       		.byte	0
 3500 00c7 00       		.byte	0
 3501 00c8 13       		.uleb128 0x13
ARM GAS  C:\Users\Art\AppData\Local\Temp\ccqpb62o.s 			page 90


 3502 00c9 13       		.uleb128 0x13
 3503 00ca 01       		.byte	0x1
 3504 00cb 0B       		.uleb128 0xb
 3505 00cc 0B       		.uleb128 0xb
 3506 00cd 3A       		.uleb128 0x3a
 3507 00ce 0B       		.uleb128 0xb
 3508 00cf 3B       		.uleb128 0x3b
 3509 00d0 0B       		.uleb128 0xb
 3510 00d1 01       		.uleb128 0x1
 3511 00d2 13       		.uleb128 0x13
 3512 00d3 00       		.byte	0
 3513 00d4 00       		.byte	0
 3514 00d5 14       		.uleb128 0x14
 3515 00d6 0D       		.uleb128 0xd
 3516 00d7 00       		.byte	0
 3517 00d8 03       		.uleb128 0x3
 3518 00d9 0E       		.uleb128 0xe
 3519 00da 3A       		.uleb128 0x3a
 3520 00db 0B       		.uleb128 0xb
 3521 00dc 3B       		.uleb128 0x3b
 3522 00dd 0B       		.uleb128 0xb
 3523 00de 49       		.uleb128 0x49
 3524 00df 13       		.uleb128 0x13
 3525 00e0 38       		.uleb128 0x38
 3526 00e1 0B       		.uleb128 0xb
 3527 00e2 00       		.byte	0
 3528 00e3 00       		.byte	0
 3529 00e4 15       		.uleb128 0x15
 3530 00e5 17       		.uleb128 0x17
 3531 00e6 01       		.byte	0x1
 3532 00e7 0B       		.uleb128 0xb
 3533 00e8 0B       		.uleb128 0xb
 3534 00e9 3A       		.uleb128 0x3a
 3535 00ea 0B       		.uleb128 0xb
 3536 00eb 3B       		.uleb128 0x3b
 3537 00ec 0B       		.uleb128 0xb
 3538 00ed 01       		.uleb128 0x1
 3539 00ee 13       		.uleb128 0x13
 3540 00ef 00       		.byte	0
 3541 00f0 00       		.byte	0
 3542 00f1 16       		.uleb128 0x16
 3543 00f2 0D       		.uleb128 0xd
 3544 00f3 00       		.byte	0
 3545 00f4 03       		.uleb128 0x3
 3546 00f5 0E       		.uleb128 0xe
 3547 00f6 3A       		.uleb128 0x3a
 3548 00f7 0B       		.uleb128 0xb
 3549 00f8 3B       		.uleb128 0x3b
 3550 00f9 0B       		.uleb128 0xb
 3551 00fa 49       		.uleb128 0x49
 3552 00fb 13       		.uleb128 0x13
 3553 00fc 00       		.byte	0
 3554 00fd 00       		.byte	0
 3555 00fe 17       		.uleb128 0x17
 3556 00ff 13       		.uleb128 0x13
 3557 0100 01       		.byte	0x1
 3558 0101 0B       		.uleb128 0xb
ARM GAS  C:\Users\Art\AppData\Local\Temp\ccqpb62o.s 			page 91


 3559 0102 05       		.uleb128 0x5
 3560 0103 3A       		.uleb128 0x3a
 3561 0104 0B       		.uleb128 0xb
 3562 0105 3B       		.uleb128 0x3b
 3563 0106 0B       		.uleb128 0xb
 3564 0107 01       		.uleb128 0x1
 3565 0108 13       		.uleb128 0x13
 3566 0109 00       		.byte	0
 3567 010a 00       		.byte	0
 3568 010b 18       		.uleb128 0x18
 3569 010c 0D       		.uleb128 0xd
 3570 010d 00       		.byte	0
 3571 010e 03       		.uleb128 0x3
 3572 010f 0E       		.uleb128 0xe
 3573 0110 3A       		.uleb128 0x3a
 3574 0111 0B       		.uleb128 0xb
 3575 0112 3B       		.uleb128 0x3b
 3576 0113 0B       		.uleb128 0xb
 3577 0114 49       		.uleb128 0x49
 3578 0115 13       		.uleb128 0x13
 3579 0116 38       		.uleb128 0x38
 3580 0117 05       		.uleb128 0x5
 3581 0118 00       		.byte	0
 3582 0119 00       		.byte	0
 3583 011a 19       		.uleb128 0x19
 3584 011b 21       		.uleb128 0x21
 3585 011c 00       		.byte	0
 3586 011d 49       		.uleb128 0x49
 3587 011e 13       		.uleb128 0x13
 3588 011f 2F       		.uleb128 0x2f
 3589 0120 05       		.uleb128 0x5
 3590 0121 00       		.byte	0
 3591 0122 00       		.byte	0
 3592 0123 1A       		.uleb128 0x1a
 3593 0124 2E       		.uleb128 0x2e
 3594 0125 01       		.byte	0x1
 3595 0126 03       		.uleb128 0x3
 3596 0127 0E       		.uleb128 0xe
 3597 0128 3A       		.uleb128 0x3a
 3598 0129 0B       		.uleb128 0xb
 3599 012a 3B       		.uleb128 0x3b
 3600 012b 05       		.uleb128 0x5
 3601 012c 27       		.uleb128 0x27
 3602 012d 19       		.uleb128 0x19
 3603 012e 11       		.uleb128 0x11
 3604 012f 01       		.uleb128 0x1
 3605 0130 12       		.uleb128 0x12
 3606 0131 06       		.uleb128 0x6
 3607 0132 40       		.uleb128 0x40
 3608 0133 18       		.uleb128 0x18
 3609 0134 9742     		.uleb128 0x2117
 3610 0136 19       		.uleb128 0x19
 3611 0137 01       		.uleb128 0x1
 3612 0138 13       		.uleb128 0x13
 3613 0139 00       		.byte	0
 3614 013a 00       		.byte	0
 3615 013b 1B       		.uleb128 0x1b
ARM GAS  C:\Users\Art\AppData\Local\Temp\ccqpb62o.s 			page 92


 3616 013c 05       		.uleb128 0x5
 3617 013d 00       		.byte	0
 3618 013e 03       		.uleb128 0x3
 3619 013f 0E       		.uleb128 0xe
 3620 0140 3A       		.uleb128 0x3a
 3621 0141 0B       		.uleb128 0xb
 3622 0142 3B       		.uleb128 0x3b
 3623 0143 05       		.uleb128 0x5
 3624 0144 49       		.uleb128 0x49
 3625 0145 13       		.uleb128 0x13
 3626 0146 02       		.uleb128 0x2
 3627 0147 17       		.uleb128 0x17
 3628 0148 00       		.byte	0
 3629 0149 00       		.byte	0
 3630 014a 1C       		.uleb128 0x1c
 3631 014b 34       		.uleb128 0x34
 3632 014c 00       		.byte	0
 3633 014d 03       		.uleb128 0x3
 3634 014e 08       		.uleb128 0x8
 3635 014f 3A       		.uleb128 0x3a
 3636 0150 0B       		.uleb128 0xb
 3637 0151 3B       		.uleb128 0x3b
 3638 0152 05       		.uleb128 0x5
 3639 0153 49       		.uleb128 0x49
 3640 0154 13       		.uleb128 0x13
 3641 0155 02       		.uleb128 0x2
 3642 0156 17       		.uleb128 0x17
 3643 0157 00       		.byte	0
 3644 0158 00       		.byte	0
 3645 0159 1D       		.uleb128 0x1d
 3646 015a 34       		.uleb128 0x34
 3647 015b 00       		.byte	0
 3648 015c 03       		.uleb128 0x3
 3649 015d 0E       		.uleb128 0xe
 3650 015e 3A       		.uleb128 0x3a
 3651 015f 0B       		.uleb128 0xb
 3652 0160 3B       		.uleb128 0x3b
 3653 0161 05       		.uleb128 0x5
 3654 0162 49       		.uleb128 0x49
 3655 0163 13       		.uleb128 0x13
 3656 0164 02       		.uleb128 0x2
 3657 0165 17       		.uleb128 0x17
 3658 0166 00       		.byte	0
 3659 0167 00       		.byte	0
 3660 0168 1E       		.uleb128 0x1e
 3661 0169 26       		.uleb128 0x26
 3662 016a 00       		.byte	0
 3663 016b 49       		.uleb128 0x49
 3664 016c 13       		.uleb128 0x13
 3665 016d 00       		.byte	0
 3666 016e 00       		.byte	0
 3667 016f 1F       		.uleb128 0x1f
 3668 0170 2E       		.uleb128 0x2e
 3669 0171 01       		.byte	0x1
 3670 0172 3F       		.uleb128 0x3f
 3671 0173 19       		.uleb128 0x19
 3672 0174 03       		.uleb128 0x3
ARM GAS  C:\Users\Art\AppData\Local\Temp\ccqpb62o.s 			page 93


 3673 0175 0E       		.uleb128 0xe
 3674 0176 3A       		.uleb128 0x3a
 3675 0177 0B       		.uleb128 0xb
 3676 0178 3B       		.uleb128 0x3b
 3677 0179 0B       		.uleb128 0xb
 3678 017a 27       		.uleb128 0x27
 3679 017b 19       		.uleb128 0x19
 3680 017c 11       		.uleb128 0x11
 3681 017d 01       		.uleb128 0x1
 3682 017e 12       		.uleb128 0x12
 3683 017f 06       		.uleb128 0x6
 3684 0180 40       		.uleb128 0x40
 3685 0181 18       		.uleb128 0x18
 3686 0182 9742     		.uleb128 0x2117
 3687 0184 19       		.uleb128 0x19
 3688 0185 01       		.uleb128 0x1
 3689 0186 13       		.uleb128 0x13
 3690 0187 00       		.byte	0
 3691 0188 00       		.byte	0
 3692 0189 20       		.uleb128 0x20
 3693 018a 898201   		.uleb128 0x4109
 3694 018d 00       		.byte	0
 3695 018e 11       		.uleb128 0x11
 3696 018f 01       		.uleb128 0x1
 3697 0190 31       		.uleb128 0x31
 3698 0191 13       		.uleb128 0x13
 3699 0192 00       		.byte	0
 3700 0193 00       		.byte	0
 3701 0194 21       		.uleb128 0x21
 3702 0195 2E       		.uleb128 0x2e
 3703 0196 01       		.byte	0x1
 3704 0197 3F       		.uleb128 0x3f
 3705 0198 19       		.uleb128 0x19
 3706 0199 03       		.uleb128 0x3
 3707 019a 0E       		.uleb128 0xe
 3708 019b 3A       		.uleb128 0x3a
 3709 019c 0B       		.uleb128 0xb
 3710 019d 3B       		.uleb128 0x3b
 3711 019e 05       		.uleb128 0x5
 3712 019f 27       		.uleb128 0x27
 3713 01a0 19       		.uleb128 0x19
 3714 01a1 49       		.uleb128 0x49
 3715 01a2 13       		.uleb128 0x13
 3716 01a3 11       		.uleb128 0x11
 3717 01a4 01       		.uleb128 0x1
 3718 01a5 12       		.uleb128 0x12
 3719 01a6 06       		.uleb128 0x6
 3720 01a7 40       		.uleb128 0x40
 3721 01a8 18       		.uleb128 0x18
 3722 01a9 9742     		.uleb128 0x2117
 3723 01ab 19       		.uleb128 0x19
 3724 01ac 01       		.uleb128 0x1
 3725 01ad 13       		.uleb128 0x13
 3726 01ae 00       		.byte	0
 3727 01af 00       		.byte	0
 3728 01b0 22       		.uleb128 0x22
 3729 01b1 34       		.uleb128 0x34
ARM GAS  C:\Users\Art\AppData\Local\Temp\ccqpb62o.s 			page 94


 3730 01b2 00       		.byte	0
 3731 01b3 03       		.uleb128 0x3
 3732 01b4 0E       		.uleb128 0xe
 3733 01b5 3A       		.uleb128 0x3a
 3734 01b6 0B       		.uleb128 0xb
 3735 01b7 3B       		.uleb128 0x3b
 3736 01b8 05       		.uleb128 0x5
 3737 01b9 49       		.uleb128 0x49
 3738 01ba 13       		.uleb128 0x13
 3739 01bb 02       		.uleb128 0x2
 3740 01bc 18       		.uleb128 0x18
 3741 01bd 00       		.byte	0
 3742 01be 00       		.byte	0
 3743 01bf 23       		.uleb128 0x23
 3744 01c0 0B       		.uleb128 0xb
 3745 01c1 01       		.byte	0x1
 3746 01c2 11       		.uleb128 0x11
 3747 01c3 01       		.uleb128 0x1
 3748 01c4 12       		.uleb128 0x12
 3749 01c5 06       		.uleb128 0x6
 3750 01c6 01       		.uleb128 0x1
 3751 01c7 13       		.uleb128 0x13
 3752 01c8 00       		.byte	0
 3753 01c9 00       		.byte	0
 3754 01ca 24       		.uleb128 0x24
 3755 01cb 898201   		.uleb128 0x4109
 3756 01ce 01       		.byte	0x1
 3757 01cf 11       		.uleb128 0x11
 3758 01d0 01       		.uleb128 0x1
 3759 01d1 31       		.uleb128 0x31
 3760 01d2 13       		.uleb128 0x13
 3761 01d3 00       		.byte	0
 3762 01d4 00       		.byte	0
 3763 01d5 25       		.uleb128 0x25
 3764 01d6 8A8201   		.uleb128 0x410a
 3765 01d9 00       		.byte	0
 3766 01da 02       		.uleb128 0x2
 3767 01db 18       		.uleb128 0x18
 3768 01dc 9142     		.uleb128 0x2111
 3769 01de 18       		.uleb128 0x18
 3770 01df 00       		.byte	0
 3771 01e0 00       		.byte	0
 3772 01e1 26       		.uleb128 0x26
 3773 01e2 898201   		.uleb128 0x4109
 3774 01e5 01       		.byte	0x1
 3775 01e6 11       		.uleb128 0x11
 3776 01e7 01       		.uleb128 0x1
 3777 01e8 31       		.uleb128 0x31
 3778 01e9 13       		.uleb128 0x13
 3779 01ea 01       		.uleb128 0x1
 3780 01eb 13       		.uleb128 0x13
 3781 01ec 00       		.byte	0
 3782 01ed 00       		.byte	0
 3783 01ee 27       		.uleb128 0x27
 3784 01ef 2E       		.uleb128 0x2e
 3785 01f0 01       		.byte	0x1
 3786 01f1 3F       		.uleb128 0x3f
ARM GAS  C:\Users\Art\AppData\Local\Temp\ccqpb62o.s 			page 95


 3787 01f2 19       		.uleb128 0x19
 3788 01f3 03       		.uleb128 0x3
 3789 01f4 0E       		.uleb128 0xe
 3790 01f5 3A       		.uleb128 0x3a
 3791 01f6 0B       		.uleb128 0xb
 3792 01f7 3B       		.uleb128 0x3b
 3793 01f8 05       		.uleb128 0x5
 3794 01f9 27       		.uleb128 0x27
 3795 01fa 19       		.uleb128 0x19
 3796 01fb 11       		.uleb128 0x11
 3797 01fc 01       		.uleb128 0x1
 3798 01fd 12       		.uleb128 0x12
 3799 01fe 06       		.uleb128 0x6
 3800 01ff 40       		.uleb128 0x40
 3801 0200 18       		.uleb128 0x18
 3802 0201 9742     		.uleb128 0x2117
 3803 0203 19       		.uleb128 0x19
 3804 0204 01       		.uleb128 0x1
 3805 0205 13       		.uleb128 0x13
 3806 0206 00       		.byte	0
 3807 0207 00       		.byte	0
 3808 0208 28       		.uleb128 0x28
 3809 0209 0B       		.uleb128 0xb
 3810 020a 01       		.byte	0x1
 3811 020b 11       		.uleb128 0x11
 3812 020c 01       		.uleb128 0x1
 3813 020d 12       		.uleb128 0x12
 3814 020e 06       		.uleb128 0x6
 3815 020f 00       		.byte	0
 3816 0210 00       		.byte	0
 3817 0211 29       		.uleb128 0x29
 3818 0212 05       		.uleb128 0x5
 3819 0213 00       		.byte	0
 3820 0214 03       		.uleb128 0x3
 3821 0215 0E       		.uleb128 0xe
 3822 0216 3A       		.uleb128 0x3a
 3823 0217 0B       		.uleb128 0xb
 3824 0218 3B       		.uleb128 0x3b
 3825 0219 05       		.uleb128 0x5
 3826 021a 49       		.uleb128 0x49
 3827 021b 13       		.uleb128 0x13
 3828 021c 02       		.uleb128 0x2
 3829 021d 18       		.uleb128 0x18
 3830 021e 00       		.byte	0
 3831 021f 00       		.byte	0
 3832 0220 2A       		.uleb128 0x2a
 3833 0221 34       		.uleb128 0x34
 3834 0222 00       		.byte	0
 3835 0223 03       		.uleb128 0x3
 3836 0224 08       		.uleb128 0x8
 3837 0225 3A       		.uleb128 0x3a
 3838 0226 0B       		.uleb128 0xb
 3839 0227 3B       		.uleb128 0x3b
 3840 0228 05       		.uleb128 0x5
 3841 0229 49       		.uleb128 0x49
 3842 022a 13       		.uleb128 0x13
 3843 022b 00       		.byte	0
ARM GAS  C:\Users\Art\AppData\Local\Temp\ccqpb62o.s 			page 96


 3844 022c 00       		.byte	0
 3845 022d 2B       		.uleb128 0x2b
 3846 022e 34       		.uleb128 0x34
 3847 022f 00       		.byte	0
 3848 0230 03       		.uleb128 0x3
 3849 0231 0E       		.uleb128 0xe
 3850 0232 3A       		.uleb128 0x3a
 3851 0233 0B       		.uleb128 0xb
 3852 0234 3B       		.uleb128 0x3b
 3853 0235 05       		.uleb128 0x5
 3854 0236 49       		.uleb128 0x49
 3855 0237 13       		.uleb128 0x13
 3856 0238 1C       		.uleb128 0x1c
 3857 0239 0B       		.uleb128 0xb
 3858 023a 00       		.byte	0
 3859 023b 00       		.byte	0
 3860 023c 2C       		.uleb128 0x2c
 3861 023d 05       		.uleb128 0x5
 3862 023e 00       		.byte	0
 3863 023f 03       		.uleb128 0x3
 3864 0240 08       		.uleb128 0x8
 3865 0241 3A       		.uleb128 0x3a
 3866 0242 0B       		.uleb128 0xb
 3867 0243 3B       		.uleb128 0x3b
 3868 0244 05       		.uleb128 0x5
 3869 0245 49       		.uleb128 0x49
 3870 0246 13       		.uleb128 0x13
 3871 0247 02       		.uleb128 0x2
 3872 0248 17       		.uleb128 0x17
 3873 0249 00       		.byte	0
 3874 024a 00       		.byte	0
 3875 024b 2D       		.uleb128 0x2d
 3876 024c 05       		.uleb128 0x5
 3877 024d 00       		.byte	0
 3878 024e 03       		.uleb128 0x3
 3879 024f 08       		.uleb128 0x8
 3880 0250 3A       		.uleb128 0x3a
 3881 0251 0B       		.uleb128 0xb
 3882 0252 3B       		.uleb128 0x3b
 3883 0253 05       		.uleb128 0x5
 3884 0254 49       		.uleb128 0x49
 3885 0255 13       		.uleb128 0x13
 3886 0256 02       		.uleb128 0x2
 3887 0257 18       		.uleb128 0x18
 3888 0258 00       		.byte	0
 3889 0259 00       		.byte	0
 3890 025a 2E       		.uleb128 0x2e
 3891 025b 34       		.uleb128 0x34
 3892 025c 00       		.byte	0
 3893 025d 03       		.uleb128 0x3
 3894 025e 0E       		.uleb128 0xe
 3895 025f 3A       		.uleb128 0x3a
 3896 0260 0B       		.uleb128 0xb
 3897 0261 3B       		.uleb128 0x3b
 3898 0262 0B       		.uleb128 0xb
 3899 0263 49       		.uleb128 0x49
 3900 0264 13       		.uleb128 0x13
ARM GAS  C:\Users\Art\AppData\Local\Temp\ccqpb62o.s 			page 97


 3901 0265 02       		.uleb128 0x2
 3902 0266 18       		.uleb128 0x18
 3903 0267 00       		.byte	0
 3904 0268 00       		.byte	0
 3905 0269 2F       		.uleb128 0x2f
 3906 026a 34       		.uleb128 0x34
 3907 026b 00       		.byte	0
 3908 026c 03       		.uleb128 0x3
 3909 026d 0E       		.uleb128 0xe
 3910 026e 3A       		.uleb128 0x3a
 3911 026f 0B       		.uleb128 0xb
 3912 0270 3B       		.uleb128 0x3b
 3913 0271 0B       		.uleb128 0xb
 3914 0272 49       		.uleb128 0x49
 3915 0273 13       		.uleb128 0x13
 3916 0274 3F       		.uleb128 0x3f
 3917 0275 19       		.uleb128 0x19
 3918 0276 02       		.uleb128 0x2
 3919 0277 18       		.uleb128 0x18
 3920 0278 00       		.byte	0
 3921 0279 00       		.byte	0
 3922 027a 30       		.uleb128 0x30
 3923 027b 34       		.uleb128 0x34
 3924 027c 00       		.byte	0
 3925 027d 03       		.uleb128 0x3
 3926 027e 0E       		.uleb128 0xe
 3927 027f 3A       		.uleb128 0x3a
 3928 0280 0B       		.uleb128 0xb
 3929 0281 3B       		.uleb128 0x3b
 3930 0282 05       		.uleb128 0x5
 3931 0283 49       		.uleb128 0x49
 3932 0284 13       		.uleb128 0x13
 3933 0285 3F       		.uleb128 0x3f
 3934 0286 19       		.uleb128 0x19
 3935 0287 3C       		.uleb128 0x3c
 3936 0288 19       		.uleb128 0x19
 3937 0289 00       		.byte	0
 3938 028a 00       		.byte	0
 3939 028b 31       		.uleb128 0x31
 3940 028c 34       		.uleb128 0x34
 3941 028d 00       		.byte	0
 3942 028e 03       		.uleb128 0x3
 3943 028f 0E       		.uleb128 0xe
 3944 0290 3A       		.uleb128 0x3a
 3945 0291 0B       		.uleb128 0xb
 3946 0292 3B       		.uleb128 0x3b
 3947 0293 0B       		.uleb128 0xb
 3948 0294 49       		.uleb128 0x49
 3949 0295 13       		.uleb128 0x13
 3950 0296 3F       		.uleb128 0x3f
 3951 0297 19       		.uleb128 0x19
 3952 0298 3C       		.uleb128 0x3c
 3953 0299 19       		.uleb128 0x19
 3954 029a 00       		.byte	0
 3955 029b 00       		.byte	0
 3956 029c 32       		.uleb128 0x32
 3957 029d 2E       		.uleb128 0x2e
ARM GAS  C:\Users\Art\AppData\Local\Temp\ccqpb62o.s 			page 98


 3958 029e 00       		.byte	0
 3959 029f 3F       		.uleb128 0x3f
 3960 02a0 19       		.uleb128 0x19
 3961 02a1 3C       		.uleb128 0x3c
 3962 02a2 19       		.uleb128 0x19
 3963 02a3 6E       		.uleb128 0x6e
 3964 02a4 0E       		.uleb128 0xe
 3965 02a5 03       		.uleb128 0x3
 3966 02a6 0E       		.uleb128 0xe
 3967 02a7 3A       		.uleb128 0x3a
 3968 02a8 0B       		.uleb128 0xb
 3969 02a9 3B       		.uleb128 0x3b
 3970 02aa 0B       		.uleb128 0xb
 3971 02ab 00       		.byte	0
 3972 02ac 00       		.byte	0
 3973 02ad 33       		.uleb128 0x33
 3974 02ae 2E       		.uleb128 0x2e
 3975 02af 00       		.byte	0
 3976 02b0 3F       		.uleb128 0x3f
 3977 02b1 19       		.uleb128 0x19
 3978 02b2 3C       		.uleb128 0x3c
 3979 02b3 19       		.uleb128 0x19
 3980 02b4 6E       		.uleb128 0x6e
 3981 02b5 0E       		.uleb128 0xe
 3982 02b6 03       		.uleb128 0x3
 3983 02b7 0E       		.uleb128 0xe
 3984 02b8 3A       		.uleb128 0x3a
 3985 02b9 0B       		.uleb128 0xb
 3986 02ba 3B       		.uleb128 0x3b
 3987 02bb 05       		.uleb128 0x5
 3988 02bc 00       		.byte	0
 3989 02bd 00       		.byte	0
 3990 02be 34       		.uleb128 0x34
 3991 02bf 2E       		.uleb128 0x2e
 3992 02c0 00       		.byte	0
 3993 02c1 3F       		.uleb128 0x3f
 3994 02c2 19       		.uleb128 0x19
 3995 02c3 3C       		.uleb128 0x3c
 3996 02c4 19       		.uleb128 0x19
 3997 02c5 6E       		.uleb128 0x6e
 3998 02c6 0E       		.uleb128 0xe
 3999 02c7 03       		.uleb128 0x3
 4000 02c8 0E       		.uleb128 0xe
 4001 02c9 00       		.byte	0
 4002 02ca 00       		.byte	0
 4003 02cb 00       		.byte	0
 4004              		.section	.debug_loc,"",%progbits
 4005              	.Ldebug_loc0:
 4006              	.LLST0:
 4007 0000 00000000 		.4byte	.LVL0
 4008 0004 60000000 		.4byte	.LVL22
 4009 0008 0100     		.2byte	0x1
 4010 000a 50       		.byte	0x50
 4011 000b 60000000 		.4byte	.LVL22
 4012 000f 78000000 		.4byte	.LFE11
 4013 0013 0400     		.2byte	0x4
 4014 0015 F3       		.byte	0xf3
ARM GAS  C:\Users\Art\AppData\Local\Temp\ccqpb62o.s 			page 99


 4015 0016 01       		.uleb128 0x1
 4016 0017 50       		.byte	0x50
 4017 0018 9F       		.byte	0x9f
 4018 0019 00000000 		.4byte	0
 4019 001d 00000000 		.4byte	0
 4020              	.LLST1:
 4021 0021 00000000 		.4byte	.LVL0
 4022 0025 08000000 		.4byte	.LVL3
 4023 0029 0100     		.2byte	0x1
 4024 002b 51       		.byte	0x51
 4025 002c 08000000 		.4byte	.LVL3
 4026 0030 12000000 		.4byte	.LVL5
 4027 0034 0400     		.2byte	0x4
 4028 0036 F3       		.byte	0xf3
 4029 0037 01       		.uleb128 0x1
 4030 0038 51       		.byte	0x51
 4031 0039 9F       		.byte	0x9f
 4032 003a 12000000 		.4byte	.LVL5
 4033 003e 14000000 		.4byte	.LVL6
 4034 0042 0100     		.2byte	0x1
 4035 0044 51       		.byte	0x51
 4036 0045 14000000 		.4byte	.LVL6
 4037 0049 78000000 		.4byte	.LFE11
 4038 004d 0400     		.2byte	0x4
 4039 004f F3       		.byte	0xf3
 4040 0050 01       		.uleb128 0x1
 4041 0051 51       		.byte	0x51
 4042 0052 9F       		.byte	0x9f
 4043 0053 00000000 		.4byte	0
 4044 0057 00000000 		.4byte	0
 4045              	.LLST2:
 4046 005b 48000000 		.4byte	.LVL18
 4047 005f 4C000000 		.4byte	.LVL19
 4048 0063 0100     		.2byte	0x1
 4049 0065 53       		.byte	0x53
 4050 0066 4C000000 		.4byte	.LVL19
 4051 006a 50000000 		.4byte	.LVL20
 4052 006e 0100     		.2byte	0x1
 4053 0070 52       		.byte	0x52
 4054 0071 52000000 		.4byte	.LVL21
 4055 0075 68000000 		.4byte	.LVL23
 4056 0079 0100     		.2byte	0x1
 4057 007b 52       		.byte	0x52
 4058 007c 6A000000 		.4byte	.LVL24
 4059 0080 6E000000 		.4byte	.LVL25
 4060 0084 0100     		.2byte	0x1
 4061 0086 52       		.byte	0x52
 4062 0087 00000000 		.4byte	0
 4063 008b 00000000 		.4byte	0
 4064              	.LLST3:
 4065 008f 02000000 		.4byte	.LVL1
 4066 0093 18000000 		.4byte	.LVL8
 4067 0097 0200     		.2byte	0x2
 4068 0099 30       		.byte	0x30
 4069 009a 9F       		.byte	0x9f
 4070 009b 18000000 		.4byte	.LVL8
 4071 009f 4C000000 		.4byte	.LVL19
ARM GAS  C:\Users\Art\AppData\Local\Temp\ccqpb62o.s 			page 100


 4072 00a3 0100     		.2byte	0x1
 4073 00a5 55       		.byte	0x55
 4074 00a6 00000000 		.4byte	0
 4075 00aa 00000000 		.4byte	0
 4076              	.LLST4:
 4077 00ae 02000000 		.4byte	.LVL1
 4078 00b2 18000000 		.4byte	.LVL8
 4079 00b6 0200     		.2byte	0x2
 4080 00b8 30       		.byte	0x30
 4081 00b9 9F       		.byte	0x9f
 4082 00ba 18000000 		.4byte	.LVL8
 4083 00be 42000000 		.4byte	.LVL15
 4084 00c2 0100     		.2byte	0x1
 4085 00c4 54       		.byte	0x54
 4086 00c5 44000000 		.4byte	.LVL16
 4087 00c9 6E000000 		.4byte	.LVL26
 4088 00cd 0100     		.2byte	0x1
 4089 00cf 54       		.byte	0x54
 4090 00d0 00000000 		.4byte	0
 4091 00d4 00000000 		.4byte	0
 4092              	.LLST5:
 4093 00d8 02000000 		.4byte	.LVL1
 4094 00dc 18000000 		.4byte	.LVL8
 4095 00e0 0200     		.2byte	0x2
 4096 00e2 30       		.byte	0x30
 4097 00e3 9F       		.byte	0x9f
 4098 00e4 18000000 		.4byte	.LVL8
 4099 00e8 20000000 		.4byte	.LVL10
 4100 00ec 0100     		.2byte	0x1
 4101 00ee 53       		.byte	0x53
 4102 00ef 22000000 		.4byte	.LVL11
 4103 00f3 2E000000 		.4byte	.LVL12
 4104 00f7 0100     		.2byte	0x1
 4105 00f9 53       		.byte	0x53
 4106 00fa 30000000 		.4byte	.LVL13
 4107 00fe 46000000 		.4byte	.LVL17
 4108 0102 0100     		.2byte	0x1
 4109 0104 53       		.byte	0x53
 4110 0105 48000000 		.4byte	.LVL18
 4111 0109 60000000 		.4byte	.LVL22
 4112 010d 0100     		.2byte	0x1
 4113 010f 53       		.byte	0x53
 4114 0110 00000000 		.4byte	0
 4115 0114 00000000 		.4byte	0
 4116              	.LLST6:
 4117 0118 06000000 		.4byte	.LVL2
 4118 011c 0A000000 		.4byte	.LVL4
 4119 0120 0600     		.2byte	0x6
 4120 0122 03       		.byte	0x3
 4121 0123 00000000 		.4byte	cyBle_discoveryData
 4122 0127 9F       		.byte	0x9f
 4123 0128 12000000 		.4byte	.LVL5
 4124 012c 18000000 		.4byte	.LVL8
 4125 0130 0600     		.2byte	0x6
 4126 0132 03       		.byte	0x3
 4127 0133 00000000 		.4byte	cyBle_scanRspData
 4128 0137 9F       		.byte	0x9f
ARM GAS  C:\Users\Art\AppData\Local\Temp\ccqpb62o.s 			page 101


 4129 0138 18000000 		.4byte	.LVL8
 4130 013c 78000000 		.4byte	.LFE11
 4131 0140 0100     		.2byte	0x1
 4132 0142 51       		.byte	0x51
 4133 0143 00000000 		.4byte	0
 4134 0147 00000000 		.4byte	0
 4135              	.LLST7:
 4136 014b 0A000000 		.4byte	.LVL4
 4137 014f 12000000 		.4byte	.LVL5
 4138 0153 0100     		.2byte	0x1
 4139 0155 56       		.byte	0x56
 4140 0156 16000000 		.4byte	.LVL7
 4141 015a 6E000000 		.4byte	.LVL27
 4142 015e 0100     		.2byte	0x1
 4143 0160 56       		.byte	0x56
 4144 0161 00000000 		.4byte	0
 4145 0165 00000000 		.4byte	0
 4146              	.LLST8:
 4147 0169 00000000 		.4byte	.LVL30
 4148 016d 0C000000 		.4byte	.LVL32
 4149 0171 0100     		.2byte	0x1
 4150 0173 50       		.byte	0x50
 4151 0174 0C000000 		.4byte	.LVL32
 4152 0178 8A000000 		.4byte	.LVL42
 4153 017c 0100     		.2byte	0x1
 4154 017e 54       		.byte	0x54
 4155 017f 8A000000 		.4byte	.LVL42
 4156 0183 B0000000 		.4byte	.LFE4
 4157 0187 0400     		.2byte	0x4
 4158 0189 F3       		.byte	0xf3
 4159 018a 01       		.uleb128 0x1
 4160 018b 50       		.byte	0x50
 4161 018c 9F       		.byte	0x9f
 4162 018d 00000000 		.4byte	0
 4163 0191 00000000 		.4byte	0
 4164              	.LLST9:
 4165 0195 06000000 		.4byte	.LVL31
 4166 0199 52000000 		.4byte	.LVL35
 4167 019d 0200     		.2byte	0x2
 4168 019f 30       		.byte	0x30
 4169 01a0 9F       		.byte	0x9f
 4170 01a1 52000000 		.4byte	.LVL35
 4171 01a5 6C000000 		.4byte	.LVL36
 4172 01a9 0100     		.2byte	0x1
 4173 01ab 50       		.byte	0x50
 4174 01ac 70000000 		.4byte	.LVL37
 4175 01b0 80000000 		.4byte	.LVL38
 4176 01b4 0100     		.2byte	0x1
 4177 01b6 50       		.byte	0x50
 4178 01b7 84000000 		.4byte	.LVL39
 4179 01bb 86000000 		.4byte	.LVL40
 4180 01bf 0100     		.2byte	0x1
 4181 01c1 50       		.byte	0x50
 4182 01c2 86000000 		.4byte	.LVL40
 4183 01c6 88000000 		.4byte	.LVL41
 4184 01ca 0200     		.2byte	0x2
 4185 01cc 30       		.byte	0x30
ARM GAS  C:\Users\Art\AppData\Local\Temp\ccqpb62o.s 			page 102


 4186 01cd 9F       		.byte	0x9f
 4187 01ce 88000000 		.4byte	.LVL41
 4188 01d2 B0000000 		.4byte	.LFE4
 4189 01d6 0100     		.2byte	0x1
 4190 01d8 50       		.byte	0x50
 4191 01d9 00000000 		.4byte	0
 4192 01dd 00000000 		.4byte	0
 4193              	.LLST10:
 4194 01e1 00000000 		.4byte	.LVL44
 4195 01e5 11000000 		.4byte	.LVL46-1
 4196 01e9 0100     		.2byte	0x1
 4197 01eb 50       		.byte	0x50
 4198 01ec 11000000 		.4byte	.LVL46-1
 4199 01f0 26000000 		.4byte	.LVL47
 4200 01f4 0400     		.2byte	0x4
 4201 01f6 F3       		.byte	0xf3
 4202 01f7 01       		.uleb128 0x1
 4203 01f8 50       		.byte	0x50
 4204 01f9 9F       		.byte	0x9f
 4205 01fa 26000000 		.4byte	.LVL47
 4206 01fe 28000000 		.4byte	.LVL48
 4207 0202 0100     		.2byte	0x1
 4208 0204 50       		.byte	0x50
 4209 0205 28000000 		.4byte	.LVL48
 4210 0209 EC000000 		.4byte	.LFE6
 4211 020d 0400     		.2byte	0x4
 4212 020f F3       		.byte	0xf3
 4213 0210 01       		.uleb128 0x1
 4214 0211 50       		.byte	0x50
 4215 0212 9F       		.byte	0x9f
 4216 0213 00000000 		.4byte	0
 4217 0217 00000000 		.4byte	0
 4218              	.LLST11:
 4219 021b 06000000 		.4byte	.LVL45
 4220 021f 12000000 		.4byte	.LVL46
 4221 0223 0200     		.2byte	0x2
 4222 0225 30       		.byte	0x30
 4223 0226 9F       		.byte	0x9f
 4224 0227 12000000 		.4byte	.LVL46
 4225 022b 26000000 		.4byte	.LVL47
 4226 022f 0100     		.2byte	0x1
 4227 0231 50       		.byte	0x50
 4228 0232 26000000 		.4byte	.LVL47
 4229 0236 2A000000 		.4byte	.LVL49
 4230 023a 0200     		.2byte	0x2
 4231 023c 30       		.byte	0x30
 4232 023d 9F       		.byte	0x9f
 4233 023e 2A000000 		.4byte	.LVL49
 4234 0242 54000000 		.4byte	.LVL51
 4235 0246 0100     		.2byte	0x1
 4236 0248 50       		.byte	0x50
 4237 0249 58000000 		.4byte	.LVL52
 4238 024d 82000000 		.4byte	.LVL54
 4239 0251 0100     		.2byte	0x1
 4240 0253 50       		.byte	0x50
 4241 0254 92000000 		.4byte	.LVL56
 4242 0258 BC000000 		.4byte	.LVL57
ARM GAS  C:\Users\Art\AppData\Local\Temp\ccqpb62o.s 			page 103


 4243 025c 0100     		.2byte	0x1
 4244 025e 50       		.byte	0x50
 4245 025f C0000000 		.4byte	.LVL58
 4246 0263 EC000000 		.4byte	.LFE6
 4247 0267 0100     		.2byte	0x1
 4248 0269 50       		.byte	0x50
 4249 026a 00000000 		.4byte	0
 4250 026e 00000000 		.4byte	0
 4251              	.LLST12:
 4252 0272 00000000 		.4byte	.LVL60
 4253 0276 14000000 		.4byte	.LVL62
 4254 027a 0100     		.2byte	0x1
 4255 027c 50       		.byte	0x50
 4256 027d 14000000 		.4byte	.LVL62
 4257 0281 5E000000 		.4byte	.LVL69
 4258 0285 0100     		.2byte	0x1
 4259 0287 55       		.byte	0x55
 4260 0288 5E000000 		.4byte	.LVL69
 4261 028c 60000000 		.4byte	.LVL70
 4262 0290 0100     		.2byte	0x1
 4263 0292 50       		.byte	0x50
 4264 0293 60000000 		.4byte	.LVL70
 4265 0297 62000000 		.4byte	.LVL71
 4266 029b 0100     		.2byte	0x1
 4267 029d 55       		.byte	0x55
 4268 029e 62000000 		.4byte	.LVL71
 4269 02a2 6C000000 		.4byte	.LFE7
 4270 02a6 0400     		.2byte	0x4
 4271 02a8 F3       		.byte	0xf3
 4272 02a9 01       		.uleb128 0x1
 4273 02aa 50       		.byte	0x50
 4274 02ab 9F       		.byte	0x9f
 4275 02ac 00000000 		.4byte	0
 4276 02b0 00000000 		.4byte	0
 4277              	.LLST13:
 4278 02b4 06000000 		.4byte	.LVL61
 4279 02b8 3A000000 		.4byte	.LVL65
 4280 02bc 0200     		.2byte	0x2
 4281 02be 30       		.byte	0x30
 4282 02bf 9F       		.byte	0x9f
 4283 02c0 3A000000 		.4byte	.LVL65
 4284 02c4 58000000 		.4byte	.LVL67
 4285 02c8 0100     		.2byte	0x1
 4286 02ca 50       		.byte	0x50
 4287 02cb 5C000000 		.4byte	.LVL68
 4288 02cf 5E000000 		.4byte	.LVL69
 4289 02d3 0100     		.2byte	0x1
 4290 02d5 50       		.byte	0x50
 4291 02d6 5E000000 		.4byte	.LVL69
 4292 02da 60000000 		.4byte	.LVL70
 4293 02de 0200     		.2byte	0x2
 4294 02e0 30       		.byte	0x30
 4295 02e1 9F       		.byte	0x9f
 4296 02e2 60000000 		.4byte	.LVL70
 4297 02e6 6C000000 		.4byte	.LFE7
 4298 02ea 0100     		.2byte	0x1
 4299 02ec 50       		.byte	0x50
ARM GAS  C:\Users\Art\AppData\Local\Temp\ccqpb62o.s 			page 104


 4300 02ed 00000000 		.4byte	0
 4301 02f1 00000000 		.4byte	0
 4302              	.LLST14:
 4303 02f5 00000000 		.4byte	.LVL72
 4304 02f9 4E000000 		.4byte	.LVL73
 4305 02fd 0100     		.2byte	0x1
 4306 02ff 50       		.byte	0x50
 4307 0300 4E000000 		.4byte	.LVL73
 4308 0304 53000000 		.4byte	.LVL74-1
 4309 0308 0200     		.2byte	0x2
 4310 030a 73       		.byte	0x73
 4311 030b 00       		.sleb128 0
 4312 030c 53000000 		.4byte	.LVL74-1
 4313 0310 66000000 		.4byte	.LVL75
 4314 0314 0400     		.2byte	0x4
 4315 0316 F3       		.byte	0xf3
 4316 0317 01       		.uleb128 0x1
 4317 0318 50       		.byte	0x50
 4318 0319 9F       		.byte	0x9f
 4319 031a 66000000 		.4byte	.LVL75
 4320 031e 68000000 		.4byte	.LVL76
 4321 0322 0100     		.2byte	0x1
 4322 0324 50       		.byte	0x50
 4323 0325 68000000 		.4byte	.LVL76
 4324 0329 6A000000 		.4byte	.LVL77
 4325 032d 0400     		.2byte	0x4
 4326 032f F3       		.byte	0xf3
 4327 0330 01       		.uleb128 0x1
 4328 0331 50       		.byte	0x50
 4329 0332 9F       		.byte	0x9f
 4330 0333 6A000000 		.4byte	.LVL77
 4331 0337 6C000000 		.4byte	.LVL78
 4332 033b 0100     		.2byte	0x1
 4333 033d 50       		.byte	0x50
 4334 033e 6C000000 		.4byte	.LVL78
 4335 0342 70000000 		.4byte	.LVL79
 4336 0346 0400     		.2byte	0x4
 4337 0348 F3       		.byte	0xf3
 4338 0349 01       		.uleb128 0x1
 4339 034a 50       		.byte	0x50
 4340 034b 9F       		.byte	0x9f
 4341 034c 70000000 		.4byte	.LVL79
 4342 0350 72000000 		.4byte	.LVL80
 4343 0354 0100     		.2byte	0x1
 4344 0356 50       		.byte	0x50
 4345 0357 72000000 		.4byte	.LVL80
 4346 035b 88000000 		.4byte	.LFE8
 4347 035f 0400     		.2byte	0x4
 4348 0361 F3       		.byte	0xf3
 4349 0362 01       		.uleb128 0x1
 4350 0363 50       		.byte	0x50
 4351 0364 9F       		.byte	0x9f
 4352 0365 00000000 		.4byte	0
 4353 0369 00000000 		.4byte	0
 4354              	.LLST15:
 4355 036d 54000000 		.4byte	.LVL74
 4356 0371 66000000 		.4byte	.LVL75
ARM GAS  C:\Users\Art\AppData\Local\Temp\ccqpb62o.s 			page 105


 4357 0375 0100     		.2byte	0x1
 4358 0377 50       		.byte	0x50
 4359 0378 74000000 		.4byte	.LVL81
 4360 037c 88000000 		.4byte	.LFE8
 4361 0380 0100     		.2byte	0x1
 4362 0382 50       		.byte	0x50
 4363 0383 00000000 		.4byte	0
 4364 0387 00000000 		.4byte	0
 4365              	.LLST16:
 4366 038b 00000000 		.4byte	.LVL84
 4367 038f 12000000 		.4byte	.LVL86
 4368 0393 0100     		.2byte	0x1
 4369 0395 50       		.byte	0x50
 4370 0396 12000000 		.4byte	.LVL86
 4371 039a 54000000 		.4byte	.LVL97
 4372 039e 0100     		.2byte	0x1
 4373 03a0 54       		.byte	0x54
 4374 03a1 54000000 		.4byte	.LVL97
 4375 03a5 56000000 		.4byte	.LVL98
 4376 03a9 0100     		.2byte	0x1
 4377 03ab 50       		.byte	0x50
 4378 03ac 56000000 		.4byte	.LVL98
 4379 03b0 56000000 		.4byte	.LVL99
 4380 03b4 0100     		.2byte	0x1
 4381 03b6 54       		.byte	0x54
 4382 03b7 56000000 		.4byte	.LVL99
 4383 03bb 60000000 		.4byte	.LFE12
 4384 03bf 0400     		.2byte	0x4
 4385 03c1 F3       		.byte	0xf3
 4386 03c2 01       		.uleb128 0x1
 4387 03c3 50       		.byte	0x50
 4388 03c4 9F       		.byte	0x9f
 4389 03c5 00000000 		.4byte	0
 4390 03c9 00000000 		.4byte	0
 4391              	.LLST17:
 4392 03cd 04000000 		.4byte	.LVL85
 4393 03d1 56000000 		.4byte	.LVL98
 4394 03d5 0200     		.2byte	0x2
 4395 03d7 30       		.byte	0x30
 4396 03d8 9F       		.byte	0x9f
 4397 03d9 56000000 		.4byte	.LVL98
 4398 03dd 60000000 		.4byte	.LFE12
 4399 03e1 0100     		.2byte	0x1
 4400 03e3 50       		.byte	0x50
 4401 03e4 00000000 		.4byte	0
 4402 03e8 00000000 		.4byte	0
 4403              	.LLST18:
 4404 03ec 22000000 		.4byte	.LVL88
 4405 03f0 26000000 		.4byte	.LVL89
 4406 03f4 0200     		.2byte	0x2
 4407 03f6 30       		.byte	0x30
 4408 03f7 9F       		.byte	0x9f
 4409 03f8 26000000 		.4byte	.LVL89
 4410 03fc 2A000000 		.4byte	.LVL90
 4411 0400 0100     		.2byte	0x1
 4412 0402 53       		.byte	0x53
 4413 0403 2C000000 		.4byte	.LVL91
ARM GAS  C:\Users\Art\AppData\Local\Temp\ccqpb62o.s 			page 106


 4414 0407 3C000000 		.4byte	.LVL92
 4415 040b 0100     		.2byte	0x1
 4416 040d 53       		.byte	0x53
 4417 040e 00000000 		.4byte	0
 4418 0412 00000000 		.4byte	0
 4419              	.LLST19:
 4420 0416 1A000000 		.4byte	.LVL87
 4421 041a 44000000 		.4byte	.LVL94
 4422 041e 0100     		.2byte	0x1
 4423 0420 50       		.byte	0x50
 4424 0421 00000000 		.4byte	0
 4425 0425 00000000 		.4byte	0
 4426              	.LLST20:
 4427 0429 22000000 		.4byte	.LVL88
 4428 042d 42000000 		.4byte	.LVL93
 4429 0431 0100     		.2byte	0x1
 4430 0433 51       		.byte	0x51
 4431 0434 00000000 		.4byte	0
 4432 0438 00000000 		.4byte	0
 4433              	.LLST21:
 4434 043c 00000000 		.4byte	.LVL100
 4435 0440 38000000 		.4byte	.LVL108
 4436 0444 0100     		.2byte	0x1
 4437 0446 50       		.byte	0x50
 4438 0447 38000000 		.4byte	.LVL108
 4439 044b 3A000000 		.4byte	.LVL109
 4440 044f 0400     		.2byte	0x4
 4441 0451 F3       		.byte	0xf3
 4442 0452 01       		.uleb128 0x1
 4443 0453 50       		.byte	0x50
 4444 0454 9F       		.byte	0x9f
 4445 0455 3A000000 		.4byte	.LVL109
 4446 0459 3C000000 		.4byte	.LVL110
 4447 045d 0100     		.2byte	0x1
 4448 045f 50       		.byte	0x50
 4449 0460 3C000000 		.4byte	.LVL110
 4450 0464 48000000 		.4byte	.LFE13
 4451 0468 0400     		.2byte	0x4
 4452 046a F3       		.byte	0xf3
 4453 046b 01       		.uleb128 0x1
 4454 046c 50       		.byte	0x50
 4455 046d 9F       		.byte	0x9f
 4456 046e 00000000 		.4byte	0
 4457 0472 00000000 		.4byte	0
 4458              	.LLST22:
 4459 0476 02000000 		.4byte	.LVL101
 4460 047a 3C000000 		.4byte	.LVL110
 4461 047e 0200     		.2byte	0x2
 4462 0480 30       		.byte	0x30
 4463 0481 9F       		.byte	0x9f
 4464 0482 3C000000 		.4byte	.LVL110
 4465 0486 48000000 		.4byte	.LFE13
 4466 048a 0100     		.2byte	0x1
 4467 048c 50       		.byte	0x50
 4468 048d 00000000 		.4byte	0
 4469 0491 00000000 		.4byte	0
 4470              	.LLST23:
ARM GAS  C:\Users\Art\AppData\Local\Temp\ccqpb62o.s 			page 107


 4471 0495 1C000000 		.4byte	.LVL103
 4472 0499 3A000000 		.4byte	.LVL109
 4473 049d 0100     		.2byte	0x1
 4474 049f 51       		.byte	0x51
 4475 04a0 00000000 		.4byte	0
 4476 04a4 00000000 		.4byte	0
 4477              	.LLST24:
 4478 04a8 1C000000 		.4byte	.LVL103
 4479 04ac 20000000 		.4byte	.LVL104
 4480 04b0 0200     		.2byte	0x2
 4481 04b2 30       		.byte	0x30
 4482 04b3 9F       		.byte	0x9f
 4483 04b4 20000000 		.4byte	.LVL104
 4484 04b8 24000000 		.4byte	.LVL105
 4485 04bc 0100     		.2byte	0x1
 4486 04be 53       		.byte	0x53
 4487 04bf 26000000 		.4byte	.LVL106
 4488 04c3 32000000 		.4byte	.LVL107
 4489 04c7 0100     		.2byte	0x1
 4490 04c9 53       		.byte	0x53
 4491 04ca 00000000 		.4byte	0
 4492 04ce 00000000 		.4byte	0
 4493              	.LLST25:
 4494 04d2 1A000000 		.4byte	.LVL102
 4495 04d6 3A000000 		.4byte	.LVL109
 4496 04da 0100     		.2byte	0x1
 4497 04dc 54       		.byte	0x54
 4498 04dd 00000000 		.4byte	0
 4499 04e1 00000000 		.4byte	0
 4500              	.LLST26:
 4501 04e5 00000000 		.4byte	.LVL111
 4502 04e9 04000000 		.4byte	.LVL112
 4503 04ed 0100     		.2byte	0x1
 4504 04ef 50       		.byte	0x50
 4505 04f0 04000000 		.4byte	.LVL112
 4506 04f4 0A000000 		.4byte	.LFE14
 4507 04f8 0400     		.2byte	0x4
 4508 04fa F3       		.byte	0xf3
 4509 04fb 01       		.uleb128 0x1
 4510 04fc 50       		.byte	0x50
 4511 04fd 9F       		.byte	0x9f
 4512 04fe 00000000 		.4byte	0
 4513 0502 00000000 		.4byte	0
 4514              	.LLST27:
 4515 0506 00000000 		.4byte	.LVL113
 4516 050a 04000000 		.4byte	.LVL114
 4517 050e 0100     		.2byte	0x1
 4518 0510 51       		.byte	0x51
 4519 0511 04000000 		.4byte	.LVL114
 4520 0515 08000000 		.4byte	.LFE15
 4521 0519 0400     		.2byte	0x4
 4522 051b F3       		.byte	0xf3
 4523 051c 01       		.uleb128 0x1
 4524 051d 51       		.byte	0x51
 4525 051e 9F       		.byte	0x9f
 4526 051f 00000000 		.4byte	0
 4527 0523 00000000 		.4byte	0
ARM GAS  C:\Users\Art\AppData\Local\Temp\ccqpb62o.s 			page 108


 4528              		.section	.debug_aranges,"",%progbits
 4529 0000 84000000 		.4byte	0x84
 4530 0004 0200     		.2byte	0x2
 4531 0006 00000000 		.4byte	.Ldebug_info0
 4532 000a 04       		.byte	0x4
 4533 000b 00       		.byte	0
 4534 000c 0000     		.2byte	0
 4535 000e 0000     		.2byte	0
 4536 0010 00000000 		.4byte	.LFB11
 4537 0014 78000000 		.4byte	.LFE11-.LFB11
 4538 0018 00000000 		.4byte	.LFB3
 4539 001c 08000000 		.4byte	.LFE3-.LFB3
 4540 0020 00000000 		.4byte	.LFB2
 4541 0024 34000000 		.4byte	.LFE2-.LFB2
 4542 0028 00000000 		.4byte	.LFB4
 4543 002c B0000000 		.4byte	.LFE4-.LFB4
 4544 0030 00000000 		.4byte	.LFB5
 4545 0034 14000000 		.4byte	.LFE5-.LFB5
 4546 0038 00000000 		.4byte	.LFB6
 4547 003c EC000000 		.4byte	.LFE6-.LFB6
 4548 0040 00000000 		.4byte	.LFB7
 4549 0044 6C000000 		.4byte	.LFE7-.LFB7
 4550 0048 00000000 		.4byte	.LFB8
 4551 004c 88000000 		.4byte	.LFE8-.LFB8
 4552 0050 00000000 		.4byte	.LFB9
 4553 0054 18000000 		.4byte	.LFE9-.LFB9
 4554 0058 00000000 		.4byte	.LFB10
 4555 005c 02000000 		.4byte	.LFE10-.LFB10
 4556 0060 00000000 		.4byte	.LFB12
 4557 0064 60000000 		.4byte	.LFE12-.LFB12
 4558 0068 00000000 		.4byte	.LFB13
 4559 006c 48000000 		.4byte	.LFE13-.LFB13
 4560 0070 00000000 		.4byte	.LFB14
 4561 0074 0A000000 		.4byte	.LFE14-.LFB14
 4562 0078 00000000 		.4byte	.LFB15
 4563 007c 08000000 		.4byte	.LFE15-.LFB15
 4564 0080 00000000 		.4byte	0
 4565 0084 00000000 		.4byte	0
 4566              		.section	.debug_ranges,"",%progbits
 4567              	.Ldebug_ranges0:
 4568 0000 00000000 		.4byte	.LFB11
 4569 0004 78000000 		.4byte	.LFE11
 4570 0008 00000000 		.4byte	.LFB3
 4571 000c 08000000 		.4byte	.LFE3
 4572 0010 00000000 		.4byte	.LFB2
 4573 0014 34000000 		.4byte	.LFE2
 4574 0018 00000000 		.4byte	.LFB4
 4575 001c B0000000 		.4byte	.LFE4
 4576 0020 00000000 		.4byte	.LFB5
 4577 0024 14000000 		.4byte	.LFE5
 4578 0028 00000000 		.4byte	.LFB6
 4579 002c EC000000 		.4byte	.LFE6
 4580 0030 00000000 		.4byte	.LFB7
 4581 0034 6C000000 		.4byte	.LFE7
 4582 0038 00000000 		.4byte	.LFB8
 4583 003c 88000000 		.4byte	.LFE8
 4584 0040 00000000 		.4byte	.LFB9
ARM GAS  C:\Users\Art\AppData\Local\Temp\ccqpb62o.s 			page 109


 4585 0044 18000000 		.4byte	.LFE9
 4586 0048 00000000 		.4byte	.LFB10
 4587 004c 02000000 		.4byte	.LFE10
 4588 0050 00000000 		.4byte	.LFB12
 4589 0054 60000000 		.4byte	.LFE12
 4590 0058 00000000 		.4byte	.LFB13
 4591 005c 48000000 		.4byte	.LFE13
 4592 0060 00000000 		.4byte	.LFB14
 4593 0064 0A000000 		.4byte	.LFE14
 4594 0068 00000000 		.4byte	.LFB15
 4595 006c 08000000 		.4byte	.LFE15
 4596 0070 00000000 		.4byte	0
 4597 0074 00000000 		.4byte	0
 4598              		.section	.debug_line,"",%progbits
 4599              	.Ldebug_line0:
 4600 0000 57030000 		.section	.debug_str,"MS",%progbits,1
 4600      02005101 
 4600      00000201 
 4600      FB0E0D00 
 4600      01010101 
 4601              	.LASF249:
 4602 0000 6379426C 		.ascii	"cyBle_peerBonding\000"
 4602      655F7065 
 4602      6572426F 
 4602      6E64696E 
 4602      6700
 4603              	.LASF158:
 4604 0012 7363616E 		.ascii	"scanRspData\000"
 4604      52737044 
 4604      61746100 
 4605              	.LASF17:
 4606 001e 73697A65 		.ascii	"sizetype\000"
 4606      74797065 
 4606      00
 4607              	.LASF38:
 4608 0027 4359424C 		.ascii	"CYBLE_EVT_GAP_NUMERIC_COMPARISON_REQUEST\000"
 4608      455F4556 
 4608      545F4741 
 4608      505F4E55 
 4608      4D455249 
 4609              	.LASF213:
 4610 0050 61706952 		.ascii	"apiResult\000"
 4610      6573756C 
 4610      7400
 4611              	.LASF32:
 4612 005a 4359424C 		.ascii	"CYBLE_EVT_GAP_DEVICE_CONNECTED\000"
 4612      455F4556 
 4612      545F4741 
 4612      505F4445 
 4612      56494345 
 4613              	.LASF50:
 4614 0079 4359424C 		.ascii	"CYBLE_EVT_GATT_CONNECT_IND\000"
 4614      455F4556 
 4614      545F4741 
 4614      54545F43 
 4614      4F4E4E45 
 4615              	.LASF275:
ARM GAS  C:\Users\Art\AppData\Local\Temp\ccqpb62o.s 			page 110


 4616 0094 4379426C 		.ascii	"CyBle_ChangeAdLocalName\000"
 4616      655F4368 
 4616      616E6765 
 4616      41644C6F 
 4616      63616C4E 
 4617              	.LASF11:
 4618 00ac 75696E74 		.ascii	"uint32\000"
 4618      333200
 4619              	.LASF208:
 4620 00b3 64657374 		.ascii	"destBuffer\000"
 4620      42756666 
 4620      657200
 4621              	.LASF161:
 4622 00be 64697363 		.ascii	"discMode\000"
 4622      4D6F6465 
 4622      00
 4623              	.LASF106:
 4624 00c7 4359424C 		.ascii	"CYBLE_ERROR_L2CAP_CONNECTION_ENTITY_NOT_FOUND\000"
 4624      455F4552 
 4624      524F525F 
 4624      4C324341 
 4624      505F434F 
 4625              	.LASF112:
 4626 00f5 4359424C 		.ascii	"CYBLE_ERROR_MIC_AUTH_FAILED\000"
 4626      455F4552 
 4626      524F525F 
 4626      4D49435F 
 4626      41555448 
 4627              	.LASF268:
 4628 0111 4379426C 		.ascii	"CyBle_GapGetPeerBdHandle\000"
 4628      655F4761 
 4628      70476574 
 4628      50656572 
 4628      42644861 
 4629              	.LASF14:
 4630 012a 63686172 		.ascii	"char8\000"
 4630      3800
 4631              	.LASF82:
 4632 0130 4359424C 		.ascii	"CYBLE_EVT_L2CAP_CBFC_RX_CREDIT_IND\000"
 4632      455F4556 
 4632      545F4C32 
 4632      4341505F 
 4632      43424643 
 4633              	.LASF272:
 4634 0153 474E5520 		.ascii	"GNU C11 5.4.1 20160609 (release) [ARM/embedded-5-br"
 4634      43313120 
 4634      352E342E 
 4634      31203230 
 4634      31363036 
 4635 0186 616E6368 		.ascii	"anch revision 237715] -mcpu=cortex-m0 -mthumb -g -O"
 4635      20726576 
 4635      6973696F 
 4635      6E203233 
 4635      37373135 
 4636 01b9 67202D66 		.ascii	"g -ffunction-sections -ffat-lto-objects\000"
 4636      66756E63 
 4636      74696F6E 
ARM GAS  C:\Users\Art\AppData\Local\Temp\ccqpb62o.s 			page 111


 4636      2D736563 
 4636      74696F6E 
 4637              	.LASF225:
 4638 01e1 62446576 		.ascii	"bDevHandle\000"
 4638      48616E64 
 4638      6C6500
 4639              	.LASF180:
 4640 01ec 7065726D 		.ascii	"permission\000"
 4640      69737369 
 4640      6F6E00
 4641              	.LASF125:
 4642 01f7 74797065 		.ascii	"type\000"
 4642      00
 4643              	.LASF184:
 4644 01fc 4359424C 		.ascii	"CYBLE_CALLBACK_T\000"
 4644      455F4341 
 4644      4C4C4241 
 4644      434B5F54 
 4644      00
 4645              	.LASF67:
 4646 020d 4359424C 		.ascii	"CYBLE_EVT_GATTC_HANDLE_VALUE_NTF\000"
 4646      455F4556 
 4646      545F4741 
 4646      5454435F 
 4646      48414E44 
 4647              	.LASF26:
 4648 022e 4359424C 		.ascii	"CYBLE_EVT_GAP_AUTH_REQ\000"
 4648      455F4556 
 4648      545F4741 
 4648      505F4155 
 4648      54485F52 
 4649              	.LASF168:
 4650 0245 4359424C 		.ascii	"CYBLE_CONN_HANDLE_T\000"
 4650      455F434F 
 4650      4E4E5F48 
 4650      414E444C 
 4650      455F5400 
 4651              	.LASF212:
 4652 0259 63616C6C 		.ascii	"callbackFunc\000"
 4652      6261636B 
 4652      46756E63 
 4652      00
 4653              	.LASF101:
 4654 0266 4359424C 		.ascii	"CYBLE_ERROR_BT_ON_NOT_COMPLETED\000"
 4654      455F4552 
 4654      524F525F 
 4654      42545F4F 
 4654      4E5F4E4F 
 4655              	.LASF47:
 4656 0286 4359424C 		.ascii	"CYBLE_EVT_GAP_AUTH_REQ_REPLY_ERR\000"
 4656      455F4556 
 4656      545F4741 
 4656      505F4155 
 4656      54485F52 
 4657              	.LASF193:
 4658 02a7 4359424C 		.ascii	"CYBLE_STATE_ADVERTISING\000"
 4658      455F5354 
ARM GAS  C:\Users\Art\AppData\Local\Temp\ccqpb62o.s 			page 112


 4658      4154455F 
 4658      41445645 
 4658      52544953 
 4659              	.LASF40:
 4660 02bf 4359424C 		.ascii	"CYBLE_EVT_GAP_OOB_GENERATED_NOTIFICATION\000"
 4660      455F4556 
 4660      545F4741 
 4660      505F4F4F 
 4660      425F4745 
 4661              	.LASF166:
 4662 02e8 62644861 		.ascii	"bdHandle\000"
 4662      6E646C65 
 4662      00
 4663              	.LASF133:
 4664 02f1 4359424C 		.ascii	"CYBLE_DLE_CONFIG_PARAM_T\000"
 4664      455F444C 
 4664      455F434F 
 4664      4E464947 
 4664      5F504152 
 4665              	.LASF63:
 4666 030a 4359424C 		.ascii	"CYBLE_EVT_GATTS_WRITE_CMD_REQ\000"
 4666      455F4556 
 4666      545F4741 
 4666      5454535F 
 4666      57524954 
 4667              	.LASF83:
 4668 0328 4359424C 		.ascii	"CYBLE_EVT_L2CAP_CBFC_TX_CREDIT_IND\000"
 4668      455F4556 
 4668      545F4C32 
 4668      4341505F 
 4668      43424643 
 4669              	.LASF4:
 4670 034b 6C6F6E67 		.ascii	"long int\000"
 4670      20696E74 
 4670      00
 4671              	.LASF210:
 4672 0354 4379426C 		.ascii	"CyBle_ServiceInit\000"
 4672      655F5365 
 4672      72766963 
 4672      65496E69 
 4672      7400
 4673              	.LASF228:
 4674 0366 61647665 		.ascii	"advertisingIntervalType\000"
 4674      72746973 
 4674      696E6749 
 4674      6E746572 
 4674      76616C54 
 4675              	.LASF129:
 4676 037e 4359424C 		.ascii	"CYBLE_STK_APP_DATA_BUFF_T\000"
 4676      455F5354 
 4676      4B5F4150 
 4676      505F4441 
 4676      54415F42 
 4677              	.LASF136:
 4678 0398 646C6543 		.ascii	"dleConfig\000"
 4678      6F6E6669 
 4678      6700
ARM GAS  C:\Users\Art\AppData\Local\Temp\ccqpb62o.s 			page 113


 4679              	.LASF266:
 4680 03a2 4379426C 		.ascii	"CyBle_StoreStackData\000"
 4680      655F5374 
 4680      6F726553 
 4680      7461636B 
 4680      44617461 
 4681              	.LASF217:
 4682 03b7 73746163 		.ascii	"stackConfig\000"
 4682      6B436F6E 
 4682      66696700 
 4683              	.LASF19:
 4684 03c3 4359424C 		.ascii	"CYBLE_EVT_STACK_ON\000"
 4684      455F4556 
 4684      545F5354 
 4684      41434B5F 
 4684      4F4E00
 4685              	.LASF108:
 4686 03d6 4359424C 		.ascii	"CYBLE_ERROR_L2CAP_PSM_NOT_IN_RANGE\000"
 4686      455F4552 
 4686      524F525F 
 4686      4C324341 
 4686      505F5053 
 4687              	.LASF244:
 4688 03f9 6379426C 		.ascii	"cyBle_discoveryParam\000"
 4688      655F6469 
 4688      73636F76 
 4688      65727950 
 4688      6172616D 
 4689              	.LASF265:
 4690 040e 4379426C 		.ascii	"CyBle_StoreAppData\000"
 4690      655F5374 
 4690      6F726541 
 4690      70704461 
 4690      746100
 4691              	.LASF242:
 4692 0421 6379426C 		.ascii	"cyBle_deviceAddress\000"
 4692      655F6465 
 4692      76696365 
 4692      41646472 
 4692      65737300 
 4693              	.LASF120:
 4694 0435 4359424C 		.ascii	"CYBLE_ERROR_CHAR_IS_NOT_DISCOVERED\000"
 4694      455F4552 
 4694      524F525F 
 4694      43484152 
 4694      5F49535F 
 4695              	.LASF179:
 4696 0458 61747454 		.ascii	"attType\000"
 4696      79706500 
 4697              	.LASF143:
 4698 0460 4359424C 		.ascii	"CYBLE_GAPP_NON_CONNECTABLE_UNDIRECTED_ADV\000"
 4698      455F4741 
 4698      50505F4E 
 4698      4F4E5F43 
 4698      4F4E4E45 
 4699              	.LASF76:
 4700 048a 4359424C 		.ascii	"CYBLE_EVT_L2CAP_COMMAND_REJ\000"
ARM GAS  C:\Users\Art\AppData\Local\Temp\ccqpb62o.s 			page 114


 4700      455F4556 
 4700      545F4C32 
 4700      4341505F 
 4700      434F4D4D 
 4701              	.LASF201:
 4702 04a6 7270614F 		.ascii	"rpaOnlyCharHandle\000"
 4702      6E6C7943 
 4702      68617248 
 4702      616E646C 
 4702      6500
 4703              	.LASF109:
 4704 04b8 4359424C 		.ascii	"CYBLE_ERROR_GATT_DB_INVALID_ATTR_HANDLE\000"
 4704      455F4552 
 4704      524F525F 
 4704      47415454 
 4704      5F44425F 
 4705              	.LASF0:
 4706 04e0 7369676E 		.ascii	"signed char\000"
 4706      65642063 
 4706      68617200 
 4707              	.LASF224:
 4708 04ec 4379426C 		.ascii	"CyBle_GapRemoveBondedDevice\000"
 4708      655F4761 
 4708      7052656D 
 4708      6F766542 
 4708      6F6E6465 
 4709              	.LASF128:
 4710 0508 62756666 		.ascii	"bufferUnits\000"
 4710      6572556E 
 4710      69747300 
 4711              	.LASF21:
 4712 0514 4359424C 		.ascii	"CYBLE_EVT_HARDWARE_ERROR\000"
 4712      455F4556 
 4712      545F4841 
 4712      52445741 
 4712      52455F45 
 4713              	.LASF90:
 4714 052d 4359424C 		.ascii	"CYBLE_ERROR_OK\000"
 4714      455F4552 
 4714      524F525F 
 4714      4F4B00
 4715              	.LASF54:
 4716 053c 4359424C 		.ascii	"CYBLE_EVT_GATTC_READ_BY_GROUP_TYPE_RSP\000"
 4716      455F4556 
 4716      545F4741 
 4716      5454435F 
 4716      52454144 
 4717              	.LASF190:
 4718 0563 4359424C 		.ascii	"CYBLE_STATE_STOPPED\000"
 4718      455F5354 
 4718      4154455F 
 4718      53544F50 
 4718      50454400 
 4719              	.LASF1:
 4720 0577 756E7369 		.ascii	"unsigned char\000"
 4720      676E6564 
 4720      20636861 
ARM GAS  C:\Users\Art\AppData\Local\Temp\ccqpb62o.s 			page 115


 4720      7200
 4721              	.LASF53:
 4722 0585 4359424C 		.ascii	"CYBLE_EVT_GATTC_XCHNG_MTU_RSP\000"
 4722      455F4556 
 4722      545F4741 
 4722      5454435F 
 4722      5843484E 
 4723              	.LASF44:
 4724 05a3 4359424C 		.ascii	"CYBLE_EVT_GAP_SMP_NEGOTIATED_AUTH_INFO\000"
 4724      455F4556 
 4724      545F4741 
 4724      505F534D 
 4724      505F4E45 
 4725              	.LASF45:
 4726 05ca 4359424C 		.ascii	"CYBLE_EVT_GAP_CONN_ESTB\000"
 4726      455F4556 
 4726      545F4741 
 4726      505F434F 
 4726      4E4E5F45 
 4727              	.LASF146:
 4728 05e2 61647649 		.ascii	"advIntvMin\000"
 4728      6E74764D 
 4728      696E00
 4729              	.LASF178:
 4730 05ed 61747448 		.ascii	"attHandle\000"
 4730      616E646C 
 4730      6500
 4731              	.LASF227:
 4732 05f7 4379426C 		.ascii	"CyBle_GappStartAdvertisement\000"
 4732      655F4761 
 4732      70705374 
 4732      61727441 
 4732      64766572 
 4733              	.LASF157:
 4734 0614 4359424C 		.ascii	"CYBLE_GAPP_DISC_DATA_T\000"
 4734      455F4741 
 4734      50505F44 
 4734      4953435F 
 4734      44415441 
 4735              	.LASF80:
 4736 062b 4359424C 		.ascii	"CYBLE_EVT_L2CAP_CBFC_DISCONN_CNF\000"
 4736      455F4556 
 4736      545F4C32 
 4736      4341505F 
 4736      43424643 
 4737              	.LASF57:
 4738 064c 4359424C 		.ascii	"CYBLE_EVT_GATTC_FIND_BY_TYPE_VALUE_RSP\000"
 4738      455F4556 
 4738      545F4741 
 4738      5454435F 
 4738      46494E44 
 4739              	.LASF41:
 4740 0673 4359424C 		.ascii	"CYBLE_EVT_GAP_DATA_LENGTH_CHANGE\000"
 4740      455F4556 
 4740      545F4741 
 4740      505F4441 
 4740      54415F4C 
ARM GAS  C:\Users\Art\AppData\Local\Temp\ccqpb62o.s 			page 116


 4741              	.LASF15:
 4742 0694 63686172 		.ascii	"char\000"
 4742      00
 4743              	.LASF260:
 4744 0699 4379426C 		.ascii	"CyBle_StackInit\000"
 4744      655F5374 
 4744      61636B49 
 4744      6E697400 
 4745              	.LASF172:
 4746 06a9 6D617841 		.ascii	"maxAttrLength\000"
 4746      7474724C 
 4746      656E6774 
 4746      6800
 4747              	.LASF60:
 4748 06b7 4359424C 		.ascii	"CYBLE_EVT_GATTC_READ_MULTI_RSP\000"
 4748      455F4556 
 4748      545F4741 
 4748      5454435F 
 4748      52454144 
 4749              	.LASF18:
 4750 06d6 4359424C 		.ascii	"CYBLE_EVT_HOST_INVALID\000"
 4750      455F4556 
 4750      545F484F 
 4750      53545F49 
 4750      4E56414C 
 4751              	.LASF271:
 4752 06ed 4379426C 		.ascii	"CyBle_GappExitDiscoveryMode\000"
 4752      655F4761 
 4752      70704578 
 4752      69744469 
 4752      73636F76 
 4753              	.LASF233:
 4754 0709 4379426C 		.ascii	"CyBle_GapGetLocalName\000"
 4754      655F4761 
 4754      70476574 
 4754      4C6F6361 
 4754      6C4E616D 
 4755              	.LASF43:
 4756 071f 4359424C 		.ascii	"CYBLE_EVT_GAPC_DIRECT_ADV_REPORT\000"
 4756      455F4556 
 4756      545F4741 
 4756      50435F44 
 4756      49524543 
 4757              	.LASF97:
 4758 0740 4359424C 		.ascii	"CYBLE_ERROR_NO_DEVICE_ENTITY\000"
 4758      455F4552 
 4758      524F525F 
 4758      4E4F5F44 
 4758      45564943 
 4759              	.LASF59:
 4760 075d 4359424C 		.ascii	"CYBLE_EVT_GATTC_READ_BLOB_RSP\000"
 4760      455F4556 
 4760      545F4741 
 4760      5454435F 
 4760      52454144 
 4761              	.LASF66:
 4762 077b 4359424C 		.ascii	"CYBLE_EVT_GATTC_EXEC_WRITE_RSP\000"
ARM GAS  C:\Users\Art\AppData\Local\Temp\ccqpb62o.s 			page 117


 4762      455F4556 
 4762      545F4741 
 4762      5454435F 
 4762      45584543 
 4763              	.LASF211:
 4764 079a 4379426C 		.ascii	"CyBle_Init\000"
 4764      655F496E 
 4764      697400
 4765              	.LASF71:
 4766 07a5 4359424C 		.ascii	"CYBLE_EVT_GATTC_STOP_CMD_COMPLETE\000"
 4766      455F4556 
 4766      545F4741 
 4766      5454435F 
 4766      53544F50 
 4767              	.LASF163:
 4768 07c7 61647654 		.ascii	"advTo\000"
 4768      6F00
 4769              	.LASF183:
 4770 07cd 4359424C 		.ascii	"CYBLE_GATTS_DB_T\000"
 4770      455F4741 
 4770      5454535F 
 4770      44425F54 
 4770      00
 4771              	.LASF237:
 4772 07de 6379426C 		.ascii	"cyBle_pendingFlashClearCccdHandle\000"
 4772      655F7065 
 4772      6E64696E 
 4772      67466C61 
 4772      7368436C 
 4773              	.LASF229:
 4774 0800 4379426C 		.ascii	"CyBle_GappStopAdvertisement\000"
 4774      655F4761 
 4774      70705374 
 4774      6F704164 
 4774      76657274 
 4775              	.LASF262:
 4776 081c 4379426C 		.ascii	"CyBle_Shutdown\000"
 4776      655F5368 
 4776      7574646F 
 4776      776E00
 4777              	.LASF116:
 4778 082b 4359424C 		.ascii	"CYBLE_ERROR_CONTROLLER_BUSY\000"
 4778      455F4552 
 4778      524F525F 
 4778      434F4E54 
 4778      524F4C4C 
 4779              	.LASF91:
 4780 0847 4359424C 		.ascii	"CYBLE_ERROR_INVALID_PARAMETER\000"
 4780      455F4552 
 4780      524F525F 
 4780      494E5641 
 4780      4C49445F 
 4781              	.LASF214:
 4782 0865 6379426C 		.ascii	"cyBle_stackDataBuff\000"
 4782      655F7374 
 4782      61636B44 
 4782      61746142 
ARM GAS  C:\Users\Art\AppData\Local\Temp\ccqpb62o.s 			page 118


 4782      75666600 
 4783              	.LASF188:
 4784 0879 626F756E 		.ascii	"boundedDevCount\000"
 4784      64656444 
 4784      6576436F 
 4784      756E7400 
 4785              	.LASF218:
 4786 0889 66656174 		.ascii	"featureHeapReq\000"
 4786      75726548 
 4786      65617052 
 4786      657100
 4787              	.LASF144:
 4788 0898 4359424C 		.ascii	"CYBLE_GAPP_CONNECTABLE_LOW_DC_DIRECTED_ADV\000"
 4788      455F4741 
 4788      50505F43 
 4788      4F4E4E45 
 4788      43544142 
 4789              	.LASF93:
 4790 08c3 4359424C 		.ascii	"CYBLE_ERROR_MEMORY_ALLOCATION_FAILED\000"
 4790      455F4552 
 4790      524F525F 
 4790      4D454D4F 
 4790      52595F41 
 4791              	.LASF243:
 4792 08e8 6379426C 		.ascii	"cyBle_sflashDeviceAddress\000"
 4792      655F7366 
 4792      6C617368 
 4792      44657669 
 4792      63654164 
 4793              	.LASF186:
 4794 0902 61747456 		.ascii	"attValuesCCCDFlashMemory\000"
 4794      616C7565 
 4794      73434343 
 4794      44466C61 
 4794      73684D65 
 4795              	.LASF273:
 4796 091b 47656E65 		.ascii	"Generated_Source\\PSoC4\\ble.c\000"
 4796      72617465 
 4796      645F536F 
 4796      75726365 
 4796      5C50536F 
 4797              	.LASF117:
 4798 0938 4359424C 		.ascii	"CYBLE_ERROR_MAX\000"
 4798      455F4552 
 4798      524F525F 
 4798      4D415800 
 4799              	.LASF75:
 4800 0948 4359424C 		.ascii	"CYBLE_EVT_L2CAP_CONN_PARAM_UPDATE_RSP\000"
 4800      455F4556 
 4800      545F4C32 
 4800      4341505F 
 4800      434F4E4E 
 4801              	.LASF87:
 4802 096e 4359424C 		.ascii	"CYBLE_EVT_HCI_PKT\000"
 4802      455F4556 
 4802      545F4843 
 4802      495F504B 
ARM GAS  C:\Users\Art\AppData\Local\Temp\ccqpb62o.s 			page 119


 4802      5400
 4803              	.LASF185:
 4804 0980 73746163 		.ascii	"stackFlashptr\000"
 4804      6B466C61 
 4804      73687074 
 4804      7200
 4805              	.LASF154:
 4806 098e 4359424C 		.ascii	"CYBLE_GAPP_DISC_PARAM_T\000"
 4806      455F4741 
 4806      50505F44 
 4806      4953435F 
 4806      50415241 
 4807              	.LASF209:
 4808 09a6 6D61784C 		.ascii	"maxLength\000"
 4808      656E6774 
 4808      6800
 4809              	.LASF29:
 4810 09b0 4359424C 		.ascii	"CYBLE_EVT_GAP_AUTH_COMPLETE\000"
 4810      455F4556 
 4810      545F4741 
 4810      505F4155 
 4810      54485F43 
 4811              	.LASF153:
 4812 09cc 61647646 		.ascii	"advFilterPolicy\000"
 4812      696C7465 
 4812      72506F6C 
 4812      69637900 
 4813              	.LASF30:
 4814 09dc 4359424C 		.ascii	"CYBLE_EVT_GAP_AUTH_FAILED\000"
 4814      455F4556 
 4814      545F4741 
 4814      505F4155 
 4814      54485F46 
 4815              	.LASF122:
 4816 09f6 4359424C 		.ascii	"CYBLE_ERROR_STACK_BUSY\000"
 4816      455F4552 
 4816      524F525F 
 4816      53544143 
 4816      4B5F4255 
 4817              	.LASF259:
 4818 0a0d 4379426C 		.ascii	"CyBle_StackSetFeatureConfig\000"
 4818      655F5374 
 4818      61636B53 
 4818      65744665 
 4818      61747572 
 4819              	.LASF148:
 4820 0a29 61647654 		.ascii	"advType\000"
 4820      79706500 
 4821              	.LASF94:
 4822 0a31 4359424C 		.ascii	"CYBLE_ERROR_INSUFFICIENT_RESOURCES\000"
 4822      455F4552 
 4822      524F525F 
 4822      494E5355 
 4822      46464943 
 4823              	.LASF5:
 4824 0a54 6C6F6E67 		.ascii	"long unsigned int\000"
 4824      20756E73 
ARM GAS  C:\Users\Art\AppData\Local\Temp\ccqpb62o.s 			page 120


 4824      69676E65 
 4824      6420696E 
 4824      7400
 4825              	.LASF114:
 4826 0a66 4359424C 		.ascii	"CYBLE_ERROR_UNSUPPORTED_FEATURE_OR_PARAMETER_VALUE\000"
 4826      455F4552 
 4826      524F525F 
 4826      554E5355 
 4826      50504F52 
 4827              	.LASF189:
 4828 0a99 43595F42 		.ascii	"CY_BLE_FLASH_STORAGE\000"
 4828      4C455F46 
 4828      4C415348 
 4828      5F53544F 
 4828      52414745 
 4829              	.LASF134:
 4830 0aae 7265736F 		.ascii	"resolvingListSize\000"
 4830      6C76696E 
 4830      674C6973 
 4830      7453697A 
 4830      6500
 4831              	.LASF104:
 4832 0ac0 4359424C 		.ascii	"CYBLE_ERROR_L2CAP_PSM_ALREADY_REGISTERED\000"
 4832      455F4552 
 4832      524F525F 
 4832      4C324341 
 4832      505F5053 
 4833              	.LASF176:
 4834 0ae9 61747456 		.ascii	"attValueUuid\000"
 4834      616C7565 
 4834      55756964 
 4834      00
 4835              	.LASF270:
 4836 0af6 4379426C 		.ascii	"CyBle_GappEnterDiscoveryMode\000"
 4836      655F4761 
 4836      7070456E 
 4836      74657244 
 4836      6973636F 
 4837              	.LASF35:
 4838 0b13 4359424C 		.ascii	"CYBLE_EVT_GAP_CONNECTION_UPDATE_COMPLETE\000"
 4838      455F4556 
 4838      545F4741 
 4838      505F434F 
 4838      4E4E4543 
 4839              	.LASF255:
 4840 0b3c 6379426C 		.ascii	"cyBle_busyStatus\000"
 4840      655F6275 
 4840      73795374 
 4840      61747573 
 4840      00
 4841              	.LASF230:
 4842 0b4d 4379426C 		.ascii	"CyBle_ChangeAdDeviceAddress\000"
 4842      655F4368 
 4842      616E6765 
 4842      41644465 
 4842      76696365 
 4843              	.LASF191:
ARM GAS  C:\Users\Art\AppData\Local\Temp\ccqpb62o.s 			page 121


 4844 0b69 4359424C 		.ascii	"CYBLE_STATE_INITIALIZING\000"
 4844      455F5354 
 4844      4154455F 
 4844      494E4954 
 4844      49414C49 
 4845              	.LASF79:
 4846 0b82 4359424C 		.ascii	"CYBLE_EVT_L2CAP_CBFC_DISCONN_IND\000"
 4846      455F4556 
 4846      545F4C32 
 4846      4341505F 
 4846      43424643 
 4847              	.LASF219:
 4848 0ba3 4379426C 		.ascii	"CyBle_Stop\000"
 4848      655F5374 
 4848      6F7000
 4849              	.LASF27:
 4850 0bae 4359424C 		.ascii	"CYBLE_EVT_GAP_PASSKEY_ENTRY_REQUEST\000"
 4850      455F4556 
 4850      545F4741 
 4850      505F5041 
 4850      53534B45 
 4851              	.LASF139:
 4852 0bd2 4359424C 		.ascii	"CYBLE_STACK_CONFIG_PARAM_T\000"
 4852      455F5354 
 4852      41434B5F 
 4852      434F4E46 
 4852      49475F50 
 4853              	.LASF130:
 4854 0bed 646C654D 		.ascii	"dleMaxTxCapability\000"
 4854      61785478 
 4854      43617061 
 4854      62696C69 
 4854      747900
 4855              	.LASF252:
 4856 0c00 6379426C 		.ascii	"cyBle_flashStorage\000"
 4856      655F666C 
 4856      61736853 
 4856      746F7261 
 4856      676500
 4857              	.LASF6:
 4858 0c13 6C6F6E67 		.ascii	"long long int\000"
 4858      206C6F6E 
 4858      6720696E 
 4858      7400
 4859              	.LASF162:
 4860 0c21 61647650 		.ascii	"advParam\000"
 4860      6172616D 
 4860      00
 4861              	.LASF105:
 4862 0c2a 4359424C 		.ascii	"CYBLE_ERROR_L2CAP_PSM_NOT_REGISTERED\000"
 4862      455F4552 
 4862      524F525F 
 4862      4C324341 
 4862      505F5053 
 4863              	.LASF95:
 4864 0c4f 4359424C 		.ascii	"CYBLE_ERROR_OOB_NOT_AVAILABLE\000"
 4864      455F4552 
ARM GAS  C:\Users\Art\AppData\Local\Temp\ccqpb62o.s 			page 122


 4864      524F525F 
 4864      4F4F425F 
 4864      4E4F545F 
 4865              	.LASF13:
 4866 0c6d 646F7562 		.ascii	"double\000"
 4866      6C6500
 4867              	.LASF110:
 4868 0c74 4359424C 		.ascii	"CYBLE_ERROR_DEVICE_ALREADY_EXISTS\000"
 4868      455F4552 
 4868      524F525F 
 4868      44455649 
 4868      43455F41 
 4869              	.LASF85:
 4870 0c96 4359424C 		.ascii	"CYBLE_EVT_PENDING_FLASH_WRITE\000"
 4870      455F4556 
 4870      545F5045 
 4870      4E44494E 
 4870      475F464C 
 4871              	.LASF257:
 4872 0cb4 6379426C 		.ascii	"cyBle_advertisingIntervalType\000"
 4872      655F6164 
 4872      76657274 
 4872      6973696E 
 4872      67496E74 
 4873              	.LASF197:
 4874 0cd2 64657669 		.ascii	"deviceNameCharHandle\000"
 4874      63654E61 
 4874      6D654368 
 4874      61724861 
 4874      6E646C65 
 4875              	.LASF150:
 4876 0ce7 64697265 		.ascii	"directAddrType\000"
 4876      63744164 
 4876      64725479 
 4876      706500
 4877              	.LASF42:
 4878 0cf6 4359424C 		.ascii	"CYBLE_EVT_GAP_ENHANCE_CONN_COMPLETE\000"
 4878      455F4556 
 4878      545F4741 
 4878      505F454E 
 4878      48414E43 
 4879              	.LASF107:
 4880 0d1a 4359424C 		.ascii	"CYBLE_ERROR_L2CAP_CHANNEL_NOT_FOUND\000"
 4880      455F4552 
 4880      524F525F 
 4880      4C324341 
 4880      505F4348 
 4881              	.LASF135:
 4882 0d3e 4359424C 		.ascii	"CYBLE_PRIVACY_1_2_CONFIG_PARAM_T\000"
 4882      455F5052 
 4882      49564143 
 4882      595F315F 
 4882      325F434F 
 4883              	.LASF250:
 4884 0d5f 6379426C 		.ascii	"cyBle_gattDB\000"
 4884      655F6761 
 4884      74744442 
ARM GAS  C:\Users\Art\AppData\Local\Temp\ccqpb62o.s 			page 123


 4884      00
 4885              	.LASF98:
 4886 0d6c 4359424C 		.ascii	"CYBLE_ERROR_REPEATED_ATTEMPTS\000"
 4886      455F4552 
 4886      524F525F 
 4886      52455045 
 4886      41544544 
 4887              	.LASF12:
 4888 0d8a 666C6F61 		.ascii	"float\000"
 4888      7400
 4889              	.LASF111:
 4890 0d90 4359424C 		.ascii	"CYBLE_ERROR_FLASH_WRITE_NOT_PERMITED\000"
 4890      455F4552 
 4890      524F525F 
 4890      464C4153 
 4890      485F5752 
 4891              	.LASF72:
 4892 0db5 4359424C 		.ascii	"CYBLE_EVT_GATTS_READ_CHAR_VAL_ACCESS_REQ\000"
 4892      455F4556 
 4892      545F4741 
 4892      5454535F 
 4892      52454144 
 4893              	.LASF223:
 4894 0dde 64656661 		.ascii	"defaultValuesCCCD\000"
 4894      756C7456 
 4894      616C7565 
 4894      73434343 
 4894      4400
 4895              	.LASF132:
 4896 0df0 646C654E 		.ascii	"dleNumTxBuffer\000"
 4896      756D5478 
 4896      42756666 
 4896      657200
 4897              	.LASF8:
 4898 0dff 756E7369 		.ascii	"unsigned int\000"
 4898      676E6564 
 4898      20696E74 
 4898      00
 4899              	.LASF138:
 4900 0e0c 66656174 		.ascii	"feature_mask\000"
 4900      7572655F 
 4900      6D61736B 
 4900      00
 4901              	.LASF64:
 4902 0e19 4359424C 		.ascii	"CYBLE_EVT_GATTS_PREP_WRITE_REQ\000"
 4902      455F4556 
 4902      545F4741 
 4902      5454535F 
 4902      50524550 
 4903              	.LASF181:
 4904 0e38 61747445 		.ascii	"attEndHandle\000"
 4904      6E644861 
 4904      6E646C65 
 4904      00
 4905              	.LASF205:
 4906 0e45 666C6167 		.ascii	"flag\000"
 4906      00
ARM GAS  C:\Users\Art\AppData\Local\Temp\ccqpb62o.s 			page 124


 4907              	.LASF235:
 4908 0e4a 4379426C 		.ascii	"CyBle_Set16ByPtr\000"
 4908      655F5365 
 4908      74313642 
 4908      79507472 
 4908      00
 4909              	.LASF103:
 4910 0e5b 4359424C 		.ascii	"CYBLE_ERROR_L2CAP_PSM_WRONG_ENCODING\000"
 4910      455F4552 
 4910      524F525F 
 4910      4C324341 
 4910      505F5053 
 4911              	.LASF232:
 4912 0e80 63686172 		.ascii	"charLen\000"
 4912      4C656E00 
 4913              	.LASF89:
 4914 0e88 4359424C 		.ascii	"CYBLE_EVT_MAX\000"
 4914      455F4556 
 4914      545F4D41 
 4914      5800
 4915              	.LASF36:
 4916 0e96 4359424C 		.ascii	"CYBLE_EVT_GAPC_SCAN_START_STOP\000"
 4916      455F4556 
 4916      545F4741 
 4916      50435F53 
 4916      43414E5F 
 4917              	.LASF258:
 4918 0eb5 4379426C 		.ascii	"CyBle_CustomInit\000"
 4918      655F4375 
 4918      73746F6D 
 4918      496E6974 
 4918      00
 4919              	.LASF145:
 4920 0ec6 4359424C 		.ascii	"CYBLE_GAPP_ADV_T\000"
 4920      455F4741 
 4920      50505F41 
 4920      44565F54 
 4920      00
 4921              	.LASF61:
 4922 0ed7 4359424C 		.ascii	"CYBLE_EVT_GATTS_WRITE_REQ\000"
 4922      455F4556 
 4922      545F4741 
 4922      5454535F 
 4922      57524954 
 4923              	.LASF155:
 4924 0ef1 61647644 		.ascii	"advData\000"
 4924      61746100 
 4925              	.LASF70:
 4926 0ef9 4359424C 		.ascii	"CYBLE_EVT_GATTS_DATA_SIGNED_CMD_REQ\000"
 4926      455F4556 
 4926      545F4741 
 4926      5454535F 
 4926      44415441 
 4927              	.LASF246:
 4928 0f1d 6379426C 		.ascii	"cyBle_scanRspData\000"
 4928      655F7363 
 4928      616E5273 
ARM GAS  C:\Users\Art\AppData\Local\Temp\ccqpb62o.s 			page 125


 4928      70446174 
 4928      6100
 4929              	.LASF199:
 4930 0f2f 70726566 		.ascii	"prefConnParamCharHandle\000"
 4930      436F6E6E 
 4930      50617261 
 4930      6D436861 
 4930      7248616E 
 4931              	.LASF28:
 4932 0f47 4359424C 		.ascii	"CYBLE_EVT_GAP_PASSKEY_DISPLAY_REQUEST\000"
 4932      455F4556 
 4932      545F4741 
 4932      505F5041 
 4932      53534B45 
 4933              	.LASF119:
 4934 0f6d 4359424C 		.ascii	"CYBLE_ERROR_IND_DISABLED\000"
 4934      455F4552 
 4934      524F525F 
 4934      494E445F 
 4934      44495341 
 4935              	.LASF118:
 4936 0f86 4359424C 		.ascii	"CYBLE_ERROR_NTF_DISABLED\000"
 4936      455F4552 
 4936      524F525F 
 4936      4E54465F 
 4936      44495341 
 4937              	.LASF58:
 4938 0f9f 4359424C 		.ascii	"CYBLE_EVT_GATTC_READ_RSP\000"
 4938      455F4556 
 4938      545F4741 
 4938      5454435F 
 4938      52454144 
 4939              	.LASF141:
 4940 0fb8 4359424C 		.ascii	"CYBLE_GAPP_CONNECTABLE_HIGH_DC_DIRECTED_ADV\000"
 4940      455F4741 
 4940      50505F43 
 4940      4F4E4E45 
 4940      43544142 
 4941              	.LASF78:
 4942 0fe4 4359424C 		.ascii	"CYBLE_EVT_L2CAP_CBFC_CONN_CNF\000"
 4942      455F4556 
 4942      545F4C32 
 4942      4341505F 
 4942      43424643 
 4943              	.LASF216:
 4944 1002 70726976 		.ascii	"privacyConfigParams\000"
 4944      61637943 
 4944      6F6E6669 
 4944      67506172 
 4944      616D7300 
 4945              	.LASF171:
 4946 1016 4359424C 		.ascii	"CYBLE_GATTS_ATT_GEN_VAL_LEN_T\000"
 4946      455F4741 
 4946      5454535F 
 4946      4154545F 
 4946      47454E5F 
 4947              	.LASF88:
ARM GAS  C:\Users\Art\AppData\Local\Temp\ccqpb62o.s 			page 126


 4948 1034 4359424C 		.ascii	"CYBLE_EVT_FLASH_CORRUPT\000"
 4948      455F4556 
 4948      545F464C 
 4948      4153485F 
 4948      434F5252 
 4949              	.LASF16:
 4950 104c 6C6F6E67 		.ascii	"long double\000"
 4950      20646F75 
 4950      626C6500 
 4951              	.LASF127:
 4952 1058 62756666 		.ascii	"bufferSize\000"
 4952      65725369 
 4952      7A6500
 4953              	.LASF24:
 4954 1063 4359424C 		.ascii	"CYBLE_EVT_MEMORY_REQUEST\000"
 4954      455F4556 
 4954      545F4D45 
 4954      4D4F5259 
 4954      5F524551 
 4955              	.LASF234:
 4956 107c 4379426C 		.ascii	"CyBle_Get16ByPtr\000"
 4956      655F4765 
 4956      74313642 
 4956      79507472 
 4956      00
 4957              	.LASF198:
 4958 108d 61707065 		.ascii	"appearanceCharHandle\000"
 4958      6172616E 
 4958      63654368 
 4958      61724861 
 4958      6E646C65 
 4959              	.LASF34:
 4960 10a2 4359424C 		.ascii	"CYBLE_EVT_GAP_ENCRYPT_CHANGE\000"
 4960      455F4556 
 4960      545F4741 
 4960      505F454E 
 4960      43525950 
 4961              	.LASF52:
 4962 10bf 4359424C 		.ascii	"CYBLE_EVT_GATTS_XCNHG_MTU_REQ\000"
 4962      455F4556 
 4962      545F4741 
 4962      5454535F 
 4962      58434E48 
 4963              	.LASF48:
 4964 10dd 4359424C 		.ascii	"CYBLE_EVT_GAP_SMP_LOC_P256_KEYS_GEN_AND_SET_COMPLET"
 4964      455F4556 
 4964      545F4741 
 4964      505F534D 
 4964      505F4C4F 
 4965 1110 4500     		.ascii	"E\000"
 4966              	.LASF7:
 4967 1112 6C6F6E67 		.ascii	"long long unsigned int\000"
 4967      206C6F6E 
 4967      6720756E 
 4967      7369676E 
 4967      65642069 
 4968              	.LASF20:
ARM GAS  C:\Users\Art\AppData\Local\Temp\ccqpb62o.s 			page 127


 4969 1129 4359424C 		.ascii	"CYBLE_EVT_TIMEOUT\000"
 4969      455F4556 
 4969      545F5449 
 4969      4D454F55 
 4969      5400
 4970              	.LASF222:
 4971 113b 6973466F 		.ascii	"isForceWrite\000"
 4971      72636557 
 4971      72697465 
 4971      00
 4972              	.LASF121:
 4973 1148 4359424C 		.ascii	"CYBLE_ERROR_INVALID_STATE\000"
 4973      455F4552 
 4973      524F525F 
 4973      494E5641 
 4973      4C49445F 
 4974              	.LASF165:
 4975 1162 4359424C 		.ascii	"CYBLE_GATT_DB_ATTR_HANDLE_T\000"
 4975      455F4741 
 4975      54545F44 
 4975      425F4154 
 4975      54525F48 
 4976              	.LASF81:
 4977 117e 4359424C 		.ascii	"CYBLE_EVT_L2CAP_CBFC_DATA_READ\000"
 4977      455F4556 
 4977      545F4C32 
 4977      4341505F 
 4977      43424643 
 4978              	.LASF236:
 4979 119d 76616C75 		.ascii	"value\000"
 4979      6500
 4980              	.LASF182:
 4981 11a3 61747456 		.ascii	"attValue\000"
 4981      616C7565 
 4981      00
 4982              	.LASF238:
 4983 11ac 4379426C 		.ascii	"CyBle_ApplCallback\000"
 4983      655F4170 
 4983      706C4361 
 4983      6C6C6261 
 4983      636B00
 4984              	.LASF115:
 4985 11bf 4359424C 		.ascii	"CYBLE_ERROR_FLASH_WRITE\000"
 4985      455F4552 
 4985      524F525F 
 4985      464C4153 
 4985      485F5752 
 4986              	.LASF202:
 4987 11d7 4359424C 		.ascii	"CYBLE_GAPS_T\000"
 4987      455F4741 
 4987      50535F54 
 4987      00
 4988              	.LASF126:
 4989 11e4 4359424C 		.ascii	"CYBLE_GAP_BD_ADDR_T\000"
 4989      455F4741 
 4989      505F4244 
 4989      5F414444 
ARM GAS  C:\Users\Art\AppData\Local\Temp\ccqpb62o.s 			page 128


 4989      525F5400 
 4990              	.LASF264:
 4991 11f8 6D656D73 		.ascii	"memset\000"
 4991      657400
 4992              	.LASF137:
 4993 11ff 70726976 		.ascii	"privacyConfig\000"
 4993      61637943 
 4993      6F6E6669 
 4993      6700
 4994              	.LASF169:
 4995 120d 61637475 		.ascii	"actualLength\000"
 4995      616C4C65 
 4995      6E677468 
 4995      00
 4996              	.LASF156:
 4997 121a 61647644 		.ascii	"advDataLen\000"
 4997      6174614C 
 4997      656E00
 4998              	.LASF204:
 4999 1225 64657374 		.ascii	"dest\000"
 4999      00
 5000              	.LASF164:
 5001 122a 4359424C 		.ascii	"CYBLE_GAPP_DISC_MODE_INFO_T\000"
 5001      455F4741 
 5001      50505F44 
 5001      4953435F 
 5001      4D4F4445 
 5002              	.LASF248:
 5003 1246 6379426C 		.ascii	"cyBle_pendingFlashWrite\000"
 5003      655F7065 
 5003      6E64696E 
 5003      67466C61 
 5003      73685772 
 5004              	.LASF56:
 5005 125e 4359424C 		.ascii	"CYBLE_EVT_GATTC_FIND_INFO_RSP\000"
 5005      455F4556 
 5005      545F4741 
 5005      5454435F 
 5005      46494E44 
 5006              	.LASF55:
 5007 127c 4359424C 		.ascii	"CYBLE_EVT_GATTC_READ_BY_TYPE_RSP\000"
 5007      455F4556 
 5007      545F4741 
 5007      5454435F 
 5007      52454144 
 5008              	.LASF269:
 5009 129d 4379426C 		.ascii	"CyBle_GapRemoveDeviceFromWhiteList\000"
 5009      655F4761 
 5009      7052656D 
 5009      6F766544 
 5009      65766963 
 5010              	.LASF220:
 5011 12c0 4379426C 		.ascii	"CyBle_Start\000"
 5011      655F5374 
 5011      61727400 
 5012              	.LASF253:
 5013 12cc 6379426C 		.ascii	"cyBle_state\000"
ARM GAS  C:\Users\Art\AppData\Local\Temp\ccqpb62o.s 			page 129


 5013      655F7374 
 5013      61746500 
 5014              	.LASF215:
 5015 12d8 646C6543 		.ascii	"dleConfigParams\000"
 5015      6F6E6669 
 5015      67506172 
 5015      616D7300 
 5016              	.LASF267:
 5017 12e8 6D656D63 		.ascii	"memcmp\000"
 5017      6D7000
 5018              	.LASF62:
 5019 12ef 4359424C 		.ascii	"CYBLE_EVT_GATTC_WRITE_RSP\000"
 5019      455F4556 
 5019      545F4741 
 5019      5454435F 
 5019      57524954 
 5020              	.LASF194:
 5021 1309 4359424C 		.ascii	"CYBLE_STATE_DISCONNECTED\000"
 5021      455F5354 
 5021      4154455F 
 5021      44495343 
 5021      4F4E4E45 
 5022              	.LASF177:
 5023 1322 4359424C 		.ascii	"CYBLE_GATTS_ATT_VALUE_T\000"
 5023      455F4741 
 5023      5454535F 
 5023      4154545F 
 5023      56414C55 
 5024              	.LASF174:
 5025 133a 4359424C 		.ascii	"CYBLE_GATTS_ATT_PACK_VAL_LEN_T\000"
 5025      455F4741 
 5025      5454535F 
 5025      4154545F 
 5025      5041434B 
 5026              	.LASF31:
 5027 1359 4359424C 		.ascii	"CYBLE_EVT_GAPP_ADVERTISEMENT_START_STOP\000"
 5027      455F4556 
 5027      545F4741 
 5027      50505F41 
 5027      44564552 
 5028              	.LASF160:
 5029 1381 4359424C 		.ascii	"CYBLE_GAPP_SCAN_RSP_DATA_T\000"
 5029      455F4741 
 5029      50505F53 
 5029      43414E5F 
 5029      5253505F 
 5030              	.LASF170:
 5031 139c 61747447 		.ascii	"attGenericVal\000"
 5031      656E6572 
 5031      69635661 
 5031      6C00
 5032              	.LASF203:
 5033 13aa 6E616D65 		.ascii	"name\000"
 5033      00
 5034              	.LASF9:
 5035 13af 75696E74 		.ascii	"uint8\000"
 5035      3800
ARM GAS  C:\Users\Art\AppData\Local\Temp\ccqpb62o.s 			page 130


 5036              	.LASF239:
 5037 13b5 6379426C 		.ascii	"cyBle_initVar\000"
 5037      655F696E 
 5037      69745661 
 5037      7200
 5038              	.LASF39:
 5039 13c3 4359424C 		.ascii	"CYBLE_EVT_GAP_KEYPRESS_NOTIFICATION\000"
 5039      455F4556 
 5039      545F4741 
 5039      505F4B45 
 5039      59505245 
 5040              	.LASF254:
 5041 13e7 6379426C 		.ascii	"cyBle_connHandle\000"
 5041      655F636F 
 5041      6E6E4861 
 5041      6E646C65 
 5041      00
 5042              	.LASF2:
 5043 13f8 73686F72 		.ascii	"short int\000"
 5043      7420696E 
 5043      7400
 5044              	.LASF231:
 5045 1402 4379426C 		.ascii	"CyBle_GapSetLocalName\000"
 5045      655F4761 
 5045      70536574 
 5045      4C6F6361 
 5045      6C4E616D 
 5046              	.LASF173:
 5047 1418 61747447 		.ascii	"attGenericValLen\000"
 5047      656E6572 
 5047      69635661 
 5047      6C4C656E 
 5047      00
 5048              	.LASF175:
 5049 1429 61747446 		.ascii	"attFormatValue\000"
 5049      6F726D61 
 5049      7456616C 
 5049      756500
 5050              	.LASF159:
 5051 1438 7363616E 		.ascii	"scanRspDataLen\000"
 5051      52737044 
 5051      6174614C 
 5051      656E00
 5052              	.LASF113:
 5053 1447 4359424C 		.ascii	"CYBLE_ERROR_HARDWARE_FAILURE\000"
 5053      455F4552 
 5053      524F525F 
 5053      48415244 
 5053      57415245 
 5054              	.LASF261:
 5055 1464 4379426C 		.ascii	"CyBle_GattsDbRegister\000"
 5055      655F4761 
 5055      74747344 
 5055      62526567 
 5055      69737465 
 5056              	.LASF49:
 5057 147a 4359424C 		.ascii	"CYBLE_EVT_GATTC_ERROR_RSP\000"
ARM GAS  C:\Users\Art\AppData\Local\Temp\ccqpb62o.s 			page 131


 5057      455F4556 
 5057      545F4741 
 5057      5454435F 
 5057      4552524F 
 5058              	.LASF195:
 5059 1494 4359424C 		.ascii	"CYBLE_STATE_T\000"
 5059      455F5354 
 5059      4154455F 
 5059      5400
 5060              	.LASF142:
 5061 14a2 4359424C 		.ascii	"CYBLE_GAPP_SCANNABLE_UNDIRECTED_ADV\000"
 5061      455F4741 
 5061      50505F53 
 5061      43414E4E 
 5061      41424C45 
 5062              	.LASF77:
 5063 14c6 4359424C 		.ascii	"CYBLE_EVT_L2CAP_CBFC_CONN_IND\000"
 5063      455F4556 
 5063      545F4C32 
 5063      4341505F 
 5063      43424643 
 5064              	.LASF65:
 5065 14e4 4359424C 		.ascii	"CYBLE_EVT_GATTS_EXEC_WRITE_REQ\000"
 5065      455F4556 
 5065      545F4741 
 5065      5454535F 
 5065      45584543 
 5066              	.LASF25:
 5067 1503 4359424C 		.ascii	"CYBLE_EVT_GAPC_SCAN_PROGRESS_RESULT\000"
 5067      455F4556 
 5067      545F4741 
 5067      50435F53 
 5067      43414E5F 
 5068              	.LASF187:
 5069 1527 63636364 		.ascii	"cccdCount\000"
 5069      436F756E 
 5069      7400
 5070              	.LASF247:
 5071 1531 6379426C 		.ascii	"cyBle_discoveryModeInfo\000"
 5071      655F6469 
 5071      73636F76 
 5071      6572794D 
 5071      6F646549 
 5072              	.LASF99:
 5073 1549 4359424C 		.ascii	"CYBLE_ERROR_GAP_ROLE\000"
 5073      455F4552 
 5073      524F525F 
 5073      4741505F 
 5073      524F4C45 
 5074              	.LASF240:
 5075 155e 6379426C 		.ascii	"cyBle_stackMemoryRam\000"
 5075      655F7374 
 5075      61636B4D 
 5075      656D6F72 
 5075      7952616D 
 5076              	.LASF46:
 5077 1573 4359424C 		.ascii	"CYBLE_EVT_GAP_SCAN_REQ_RECVD\000"
ARM GAS  C:\Users\Art\AppData\Local\Temp\ccqpb62o.s 			page 132


 5077      455F4556 
 5077      545F4741 
 5077      505F5343 
 5077      414E5F52 
 5078              	.LASF200:
 5079 1590 63656E74 		.ascii	"centralAddrResolutionCharHandle\000"
 5079      72616C41 
 5079      64647252 
 5079      65736F6C 
 5079      7574696F 
 5080              	.LASF124:
 5081 15b0 62644164 		.ascii	"bdAddr\000"
 5081      647200
 5082              	.LASF256:
 5083 15b7 6379426C 		.ascii	"cyBle_gaps\000"
 5083      655F6761 
 5083      707300
 5084              	.LASF241:
 5085 15c2 6379426C 		.ascii	"cyBle_eventHandlerFlag\000"
 5085      655F6576 
 5085      656E7448 
 5085      616E646C 
 5085      6572466C 
 5086              	.LASF221:
 5087 15d9 4379426C 		.ascii	"CyBle_StoreBondingData\000"
 5087      655F5374 
 5087      6F726542 
 5087      6F6E6469 
 5087      6E674461 
 5088              	.LASF96:
 5089 15f0 4359424C 		.ascii	"CYBLE_ERROR_NO_CONNECTION\000"
 5089      455F4552 
 5089      524F525F 
 5089      4E4F5F43 
 5089      4F4E4E45 
 5090              	.LASF263:
 5091 160a 6D656D63 		.ascii	"memcpy\000"
 5091      707900
 5092              	.LASF207:
 5093 1611 62797465 		.ascii	"byteCounter\000"
 5093      436F756E 
 5093      74657200 
 5094              	.LASF86:
 5095 161d 4359424C 		.ascii	"CYBLE_EVT_LE_PING_AUTH_TIMEOUT\000"
 5095      455F4556 
 5095      545F4C45 
 5095      5F50494E 
 5095      475F4155 
 5096              	.LASF123:
 5097 163c 4359424C 		.ascii	"CYBLE_API_RESULT_T\000"
 5097      455F4150 
 5097      495F5245 
 5097      53554C54 
 5097      5F5400
 5098              	.LASF251:
 5099 164f 6379426C 		.ascii	"cyBle_attValuesCCCD\000"
 5099      655F6174 
ARM GAS  C:\Users\Art\AppData\Local\Temp\ccqpb62o.s 			page 133


 5099      7456616C 
 5099      75657343 
 5099      43434400 
 5100              	.LASF68:
 5101 1663 4359424C 		.ascii	"CYBLE_EVT_GATTC_HANDLE_VALUE_IND\000"
 5101      455F4556 
 5101      545F4741 
 5101      5454435F 
 5101      48414E44 
 5102              	.LASF102:
 5103 1684 4359424C 		.ascii	"CYBLE_ERROR_SEC_FAILED\000"
 5103      455F4552 
 5103      524F525F 
 5103      5345435F 
 5103      4641494C 
 5104              	.LASF226:
 5105 169b 696E7661 		.ascii	"invalidBdAddr\000"
 5105      6C696442 
 5105      64416464 
 5105      7200
 5106              	.LASF23:
 5107 16a9 4359424C 		.ascii	"CYBLE_EVT_STACK_BUSY_STATUS\000"
 5107      455F4556 
 5107      545F5354 
 5107      41434B5F 
 5107      42555359 
 5108              	.LASF37:
 5109 16c5 4359424C 		.ascii	"CYBLE_EVT_GAP_KEYINFO_EXCHNGE_CMPLT\000"
 5109      455F4556 
 5109      545F4741 
 5109      505F4B45 
 5109      59494E46 
 5110              	.LASF274:
 5111 16e9 443A5C50 		.ascii	"D:\\ProjektSeminarSoftwareSysteme\\bleapp-master\\P"
 5111      726F6A65 
 5111      6B745365 
 5111      6D696E61 
 5111      72536F66 
 5112 1719 536F435F 		.ascii	"SoC_Creator\\capsenseled\\capsenseled.cydsn\000"
 5112      43726561 
 5112      746F725C 
 5112      63617073 
 5112      656E7365 
 5113              	.LASF74:
 5114 1743 4359424C 		.ascii	"CYBLE_EVT_L2CAP_CONN_PARAM_UPDATE_REQ\000"
 5114      455F4556 
 5114      545F4C32 
 5114      4341505F 
 5114      434F4E4E 
 5115              	.LASF245:
 5116 1769 6379426C 		.ascii	"cyBle_discoveryData\000"
 5116      655F6469 
 5116      73636F76 
 5116      65727944 
 5116      61746100 
 5117              	.LASF196:
 5118 177d 67617053 		.ascii	"gapServiceCharHandle\000"
ARM GAS  C:\Users\Art\AppData\Local\Temp\ccqpb62o.s 			page 134


 5118      65727669 
 5118      63654368 
 5118      61724861 
 5118      6E646C65 
 5119              	.LASF3:
 5120 1792 73686F72 		.ascii	"short unsigned int\000"
 5120      7420756E 
 5120      7369676E 
 5120      65642069 
 5120      6E7400
 5121              	.LASF151:
 5122 17a5 64697265 		.ascii	"directAddr\000"
 5122      63744164 
 5122      647200
 5123              	.LASF192:
 5124 17b0 4359424C 		.ascii	"CYBLE_STATE_CONNECTED\000"
 5124      455F5354 
 5124      4154455F 
 5124      434F4E4E 
 5124      45435445 
 5125              	.LASF131:
 5126 17c6 646C654D 		.ascii	"dleMaxRxCapability\000"
 5126      61785278 
 5126      43617061 
 5126      62696C69 
 5126      747900
 5127              	.LASF152:
 5128 17d9 61647643 		.ascii	"advChannelMap\000"
 5128      68616E6E 
 5128      656C4D61 
 5128      7000
 5129              	.LASF140:
 5130 17e7 4359424C 		.ascii	"CYBLE_GAPP_CONNECTABLE_UNDIRECTED_ADV\000"
 5130      455F4741 
 5130      50505F43 
 5130      4F4E4E45 
 5130      43544142 
 5131              	.LASF167:
 5132 180d 61747449 		.ascii	"attId\000"
 5132      6400
 5133              	.LASF92:
 5134 1813 4359424C 		.ascii	"CYBLE_ERROR_INVALID_OPERATION\000"
 5134      455F4552 
 5134      524F525F 
 5134      494E5641 
 5134      4C49445F 
 5135              	.LASF206:
 5136 1831 61644C65 		.ascii	"adLength\000"
 5136      6E677468 
 5136      00
 5137              	.LASF22:
 5138 183a 4359424C 		.ascii	"CYBLE_EVT_HCI_STATUS\000"
 5138      455F4556 
 5138      545F4843 
 5138      495F5354 
 5138      41545553 
 5139              	.LASF51:
ARM GAS  C:\Users\Art\AppData\Local\Temp\ccqpb62o.s 			page 135


 5140 184f 4359424C 		.ascii	"CYBLE_EVT_GATT_DISCONNECT_IND\000"
 5140      455F4556 
 5140      545F4741 
 5140      54545F44 
 5140      4953434F 
 5141              	.LASF84:
 5142 186d 4359424C 		.ascii	"CYBLE_EVT_L2CAP_CBFC_DATA_WRITE_IND\000"
 5142      455F4556 
 5142      545F4C32 
 5142      4341505F 
 5142      43424643 
 5143              	.LASF73:
 5144 1891 4359424C 		.ascii	"CYBLE_EVT_GATTC_LONG_PROCEDURE_END\000"
 5144      455F4556 
 5144      545F4741 
 5144      5454435F 
 5144      4C4F4E47 
 5145              	.LASF33:
 5146 18b4 4359424C 		.ascii	"CYBLE_EVT_GAP_DEVICE_DISCONNECTED\000"
 5146      455F4556 
 5146      545F4741 
 5146      505F4445 
 5146      56494345 
 5147              	.LASF69:
 5148 18d6 4359424C 		.ascii	"CYBLE_EVT_GATTS_HANDLE_VALUE_CNF\000"
 5148      455F4556 
 5148      545F4741 
 5148      5454535F 
 5148      48414E44 
 5149              	.LASF10:
 5150 18f7 75696E74 		.ascii	"uint16\000"
 5150      313600
 5151              	.LASF149:
 5152 18fe 6F776E41 		.ascii	"ownAddrType\000"
 5152      64647254 
 5152      79706500 
 5153              	.LASF100:
 5154 190a 4359424C 		.ascii	"CYBLE_ERROR_TX_POWER_READ\000"
 5154      455F4552 
 5154      524F525F 
 5154      54585F50 
 5154      4F574552 
 5155              	.LASF147:
 5156 1924 61647649 		.ascii	"advIntvMax\000"
 5156      6E74764D 
 5156      617800
 5157              		.ident	"GCC: (GNU Tools for ARM Embedded Processors) 5.4.1 20160609 (release) [ARM/embedded-5-bran
