ARM GAS  C:\Users\Art\AppData\Local\Temp\ccqpb62o.s 			page 1


   1              		.syntax unified
   2              		.cpu cortex-m0
   3              		.fpu softvfp
   4              		.eabi_attribute 20, 1
   5              		.eabi_attribute 21, 1
   6              		.eabi_attribute 23, 3
   7              		.eabi_attribute 24, 1
   8              		.eabi_attribute 25, 1
   9              		.eabi_attribute 26, 1
  10              		.eabi_attribute 30, 1
  11              		.eabi_attribute 34, 0
  12              		.eabi_attribute 18, 4
  13              		.thumb
  14              		.syntax unified
  15              		.file	"ble.c"
  16              		.text
  17              	.Ltext0:
  18              		.cfi_sections	.debug_frame
  19              		.section	.text.CyBle_ChangeAdLocalName,"ax",%progbits
  20              		.align	2
  21              		.code	16
  22              		.thumb_func
  23              		.type	CyBle_ChangeAdLocalName, %function
  24              	CyBle_ChangeAdLocalName:
  25              	.LFB11:
  26              		.file 1 "Generated_Source\\PSoC4\\ble.c"
   1:Generated_Source\PSoC4/ble.c **** /***************************************************************************//**
   2:Generated_Source\PSoC4/ble.c **** * \file CYBLE.c
   3:Generated_Source\PSoC4/ble.c **** * \version 3.30
   4:Generated_Source\PSoC4/ble.c **** * 
   5:Generated_Source\PSoC4/ble.c **** * \brief
   6:Generated_Source\PSoC4/ble.c **** *  This file contains the source code for the Common APIs of the BLE Component.
   7:Generated_Source\PSoC4/ble.c **** * 
   8:Generated_Source\PSoC4/ble.c **** ********************************************************************************
   9:Generated_Source\PSoC4/ble.c **** * \copyright
  10:Generated_Source\PSoC4/ble.c **** * Copyright 2014-2016, Cypress Semiconductor Corporation.  All rights reserved.
  11:Generated_Source\PSoC4/ble.c **** * You may use this file only in accordance with the license, terms, conditions,
  12:Generated_Source\PSoC4/ble.c **** * disclaimers, and limitations in the end user license agreement accompanying
  13:Generated_Source\PSoC4/ble.c **** * the software package with which this file was provided.
  14:Generated_Source\PSoC4/ble.c **** *******************************************************************************/
  15:Generated_Source\PSoC4/ble.c **** 
  16:Generated_Source\PSoC4/ble.c **** #include "ble_eventHandler.h"
  17:Generated_Source\PSoC4/ble.c **** #include "ble_HAL_PVT.h"
  18:Generated_Source\PSoC4/ble.c **** #include <stdlib.h>
  19:Generated_Source\PSoC4/ble.c **** 
  20:Generated_Source\PSoC4/ble.c **** 
  21:Generated_Source\PSoC4/ble.c **** /***************************************
  22:Generated_Source\PSoC4/ble.c **** * Function Prototypes
  23:Generated_Source\PSoC4/ble.c **** ***************************************/
  24:Generated_Source\PSoC4/ble.c **** 
  25:Generated_Source\PSoC4/ble.c **** #if(CYBLE_GATT_ROLE_SERVER)
  26:Generated_Source\PSoC4/ble.c ****     #if(CYBLE_GAP_ROLE_PERIPHERAL)
  27:Generated_Source\PSoC4/ble.c ****         static void CyBle_ChangeAdLocalName(const char8 name[], uint8 dest);
  28:Generated_Source\PSoC4/ble.c ****     #endif /* (CYBLE_GAP_ROLE_PERIPHERAL) */
  29:Generated_Source\PSoC4/ble.c **** #endif /* (CYBLE_GATT_ROLE_SERVER) */
  30:Generated_Source\PSoC4/ble.c ****     
  31:Generated_Source\PSoC4/ble.c **** 
ARM GAS  C:\Users\Art\AppData\Local\Temp\ccqpb62o.s 			page 2


  32:Generated_Source\PSoC4/ble.c **** /***************************************
  33:Generated_Source\PSoC4/ble.c **** * Global Variables
  34:Generated_Source\PSoC4/ble.c **** ***************************************/
  35:Generated_Source\PSoC4/ble.c **** 
  36:Generated_Source\PSoC4/ble.c **** /* Indicates whether the BLE has been initialized. The variable is initialized to
  37:Generated_Source\PSoC4/ble.c ****    0 and set to 1 the first time CyBle_Start() is called. This allows the component
  38:Generated_Source\PSoC4/ble.c ****    to restart without reinitialization after the first call to the CyBle_Start() 
  39:Generated_Source\PSoC4/ble.c ****    routine. If reinitialization of the component is required, the variable should 
  40:Generated_Source\PSoC4/ble.c ****    be set to 0 before the CyBle_Start() routine is called. Alternatively, the BLE
  41:Generated_Source\PSoC4/ble.c ****    can be reinitialized by calling the CyBle_Init() function.
  42:Generated_Source\PSoC4/ble.c **** */
  43:Generated_Source\PSoC4/ble.c **** uint8  cyBle_initVar = 0u;
  44:Generated_Source\PSoC4/ble.c **** 
  45:Generated_Source\PSoC4/ble.c **** /* Allocate RAM memory for stack. This buffer could be reused by application when 
  46:Generated_Source\PSoC4/ble.c ****    BLE component is stopped. For export mode buffer is allocated in heap.
  47:Generated_Source\PSoC4/ble.c **** */
  48:Generated_Source\PSoC4/ble.c **** #if(CYBLE_SHARING_MODE_EXPORT)
  49:Generated_Source\PSoC4/ble.c ****     
  50:Generated_Source\PSoC4/ble.c **** uint8 *cyBle_stackMemoryRam = NULL;
  51:Generated_Source\PSoC4/ble.c **** 
  52:Generated_Source\PSoC4/ble.c **** #else
  53:Generated_Source\PSoC4/ble.c **** 
  54:Generated_Source\PSoC4/ble.c **** CYBLE_CYALIGNED_BEGIN CY_NOINIT uint8 cyBle_stackMemoryRam[CYBLE_STACK_RAM_SIZE] CYBLE_CYALIGNED_EN
  55:Generated_Source\PSoC4/ble.c **** 
  56:Generated_Source\PSoC4/ble.c **** #endif  /* CYBLE_SHARING_MODE_EXPORT */
  57:Generated_Source\PSoC4/ble.c **** 
  58:Generated_Source\PSoC4/ble.c **** #if(CYBLE_GAP_ROLE_PERIPHERAL || CYBLE_GAP_ROLE_BROADCASTER)
  59:Generated_Source\PSoC4/ble.c **** 
  60:Generated_Source\PSoC4/ble.c **** CYBLE_GAPP_DISC_PARAM_T cyBle_discoveryParam =
  61:Generated_Source\PSoC4/ble.c **** {
  62:Generated_Source\PSoC4/ble.c ****     0x0020u,    /* uint16 advertising_interval_min */
  63:Generated_Source\PSoC4/ble.c ****     0x0030u,    /* uint16 advertising_interval_max */
  64:Generated_Source\PSoC4/ble.c ****     CYBLE_GAPP_CONNECTABLE_UNDIRECTED_ADV, /* uint8 advertising_type */
  65:Generated_Source\PSoC4/ble.c ****     0x00u,      /* uint8 own_addr_type */
  66:Generated_Source\PSoC4/ble.c ****     0x00u,      /* uint8 direct_addr_type */
  67:Generated_Source\PSoC4/ble.c ****     {0x00u, 0x00u, 0x00u, 0x50u, 0xA0u, 0x00u}, /* uint8* direct_addr */
  68:Generated_Source\PSoC4/ble.c ****     0x07u,      /* uint8 advertising_channel_map */
  69:Generated_Source\PSoC4/ble.c ****     0x00u,      /* uint8 advertising_filter_policy */
  70:Generated_Source\PSoC4/ble.c **** };
  71:Generated_Source\PSoC4/ble.c **** 
  72:Generated_Source\PSoC4/ble.c **** CYBLE_GAPP_DISC_DATA_T cyBle_discoveryData =
  73:Generated_Source\PSoC4/ble.c **** {
  74:Generated_Source\PSoC4/ble.c ****     { 0x02u, 0x01u, 0x06u, 0x07u, 0x09u, 0x63u, 0x61u,
  75:Generated_Source\PSoC4/ble.c ****     0x70u, 0x6Cu, 0x65u, 0x64u, 0x11u, 0x07u, 0xF0u, 0x34u,
  76:Generated_Source\PSoC4/ble.c ****     0x9Bu, 0x5Fu, 0x80u, 0x00u, 0x00u, 0x80u, 0x00u, 0x10u,
  77:Generated_Source\PSoC4/ble.c ****     0x00u, 0x00u, 0x00u, 0x00u, 0x00u, 0x00u, 0x00u, 0x00u }, /* uint8 advertising_data[CYBLE_MAX_A
  78:Generated_Source\PSoC4/ble.c ****     0x1Du,      /* uint8 adv_data_length */
  79:Generated_Source\PSoC4/ble.c **** };
  80:Generated_Source\PSoC4/ble.c **** 
  81:Generated_Source\PSoC4/ble.c **** CYBLE_GAPP_SCAN_RSP_DATA_T cyBle_scanRspData =
  82:Generated_Source\PSoC4/ble.c **** {
  83:Generated_Source\PSoC4/ble.c ****     { 0x00u, 0x00u, 0x00u, 0x00u, 0x00u, 0x00u, 0x00u,
  84:Generated_Source\PSoC4/ble.c ****     0x00u, 0x00u, 0x00u, 0x00u, 0x00u, 0x00u, 0x00u, 0x00u,
  85:Generated_Source\PSoC4/ble.c ****     0x00u, 0x00u, 0x00u, 0x00u, 0x00u, 0x00u, 0x00u, 0x00u,
  86:Generated_Source\PSoC4/ble.c ****     0x00u, 0x00u, 0x00u, 0x00u, 0x00u, 0x00u, 0x00u, 0x00u }, /* uint8 scan_rsp_data[CYBLE_MAX_SCAN
  87:Generated_Source\PSoC4/ble.c ****     0x00u,      /* uint8 scan_rsp_data_length */
  88:Generated_Source\PSoC4/ble.c **** };
ARM GAS  C:\Users\Art\AppData\Local\Temp\ccqpb62o.s 			page 3


  89:Generated_Source\PSoC4/ble.c **** 
  90:Generated_Source\PSoC4/ble.c **** /* This variable of type CYBLE_GAPP_DISC_MODE_INFO_T is present only when 
  91:Generated_Source\PSoC4/ble.c ****    the BLE component is configured for Peripheral GAP role or Central and 
  92:Generated_Source\PSoC4/ble.c ****    Peripheral GAP role. It contains the Advertisement settings and also the 
  93:Generated_Source\PSoC4/ble.c ****    Advertisement and Scan response data parameters entered in the customizer.
  94:Generated_Source\PSoC4/ble.c ****    This variable can be used by advanced users to change Advertisement settings,
  95:Generated_Source\PSoC4/ble.c ****    Advertisement or Scan response data in runtime. 
  96:Generated_Source\PSoC4/ble.c **** */
  97:Generated_Source\PSoC4/ble.c **** CYBLE_GAPP_DISC_MODE_INFO_T cyBle_discoveryModeInfo =
  98:Generated_Source\PSoC4/ble.c **** {
  99:Generated_Source\PSoC4/ble.c ****     0x02u,      /* uint8 discMode */
 100:Generated_Source\PSoC4/ble.c ****     &cyBle_discoveryParam,
 101:Generated_Source\PSoC4/ble.c ****     &cyBle_discoveryData,
 102:Generated_Source\PSoC4/ble.c ****     &cyBle_scanRspData,
 103:Generated_Source\PSoC4/ble.c ****     0x0000u,    /* uint16 advTo */
 104:Generated_Source\PSoC4/ble.c **** };
 105:Generated_Source\PSoC4/ble.c **** 
 106:Generated_Source\PSoC4/ble.c **** 
 107:Generated_Source\PSoC4/ble.c **** #endif /* CYBLE_GAP_ROLE_PERIPHERAL || CYBLE_GAP_ROLE_BROADCASTER */
 108:Generated_Source\PSoC4/ble.c **** 
 109:Generated_Source\PSoC4/ble.c **** #if(CYBLE_GAP_ROLE_CENTRAL)
 110:Generated_Source\PSoC4/ble.c ****     
 111:Generated_Source\PSoC4/ble.c **** CYBLE_GAPC_CONN_PARAM_T cyBle_connectionParameters;
 112:Generated_Source\PSoC4/ble.c **** 
 113:Generated_Source\PSoC4/ble.c **** /* Connecting timeout is set to 30 seconds in CyBle_Init function. 
 114:Generated_Source\PSoC4/ble.c ****    Not zero value starts timer in CyBle_GapcConnectDevice API.
 115:Generated_Source\PSoC4/ble.c **** */
 116:Generated_Source\PSoC4/ble.c **** uint16 cyBle_connectingTimeout;
 117:Generated_Source\PSoC4/ble.c ****     
 118:Generated_Source\PSoC4/ble.c **** #endif /* CYBLE_GAP_ROLE_CENTRAL */
 119:Generated_Source\PSoC4/ble.c **** 
 120:Generated_Source\PSoC4/ble.c **** #if(CYBLE_GAP_ROLE_CENTRAL || CYBLE_GAP_ROLE_OBSERVER)
 121:Generated_Source\PSoC4/ble.c ****     
 122:Generated_Source\PSoC4/ble.c **** 
 123:Generated_Source\PSoC4/ble.c ****     
 124:Generated_Source\PSoC4/ble.c **** #endif /* CYBLE_GAP_ROLE_CENTRAL || CYBLE_GAP_ROLE_OBSERVER */
 125:Generated_Source\PSoC4/ble.c **** 
 126:Generated_Source\PSoC4/ble.c **** #if((CYBLE_GAP_ROLE_PERIPHERAL || CYBLE_GAP_ROLE_CENTRAL) && (CYBLE_BONDING_REQUIREMENT == CYBLE_BO
 127:Generated_Source\PSoC4/ble.c **** 
 128:Generated_Source\PSoC4/ble.c **** uint8 cyBle_peerBonding;
 129:Generated_Source\PSoC4/ble.c **** uint8 cyBle_pendingFlashWrite;
 130:Generated_Source\PSoC4/ble.c ****     
 131:Generated_Source\PSoC4/ble.c **** #if(CYBLE_GATT_DB_CCCD_COUNT != 0u)
 132:Generated_Source\PSoC4/ble.c ****     static uint8 cyBle_pendingFlashClearCccdHandle;
 133:Generated_Source\PSoC4/ble.c **** #endif /* CYBLE_GATT_DB_CCCD_COUNT != 0u */
 134:Generated_Source\PSoC4/ble.c ****     
 135:Generated_Source\PSoC4/ble.c **** #endif  /* (CYBLE_BONDING_REQUIREMENT == CYBLE_BONDING_YES) */
 136:Generated_Source\PSoC4/ble.c **** 
 137:Generated_Source\PSoC4/ble.c **** CYBLE_CALLBACK_T CyBle_ApplCallback;
 138:Generated_Source\PSoC4/ble.c **** CYBLE_GAP_BD_ADDR_T cyBle_deviceAddress = {{0x00u, 0x00u, 0x00u, 0x50u, 0xA0u, 0x00u}, 0x00u };
 139:Generated_Source\PSoC4/ble.c **** CYBLE_GAP_BD_ADDR_T * cyBle_sflashDeviceAddress = CYBLE_SFLASH_DEVICE_ADDRESS_PTR;
 140:Generated_Source\PSoC4/ble.c **** 
 141:Generated_Source\PSoC4/ble.c **** 
 142:Generated_Source\PSoC4/ble.c **** /******************************************************************************
 143:Generated_Source\PSoC4/ble.c **** * Function Name: CyBle_Init
 144:Generated_Source\PSoC4/ble.c **** ***************************************************************************//**
 145:Generated_Source\PSoC4/ble.c **** *
ARM GAS  C:\Users\Art\AppData\Local\Temp\ccqpb62o.s 			page 4


 146:Generated_Source\PSoC4/ble.c **** *   Initializes the component with the parameters set in the customizer.
 147:Generated_Source\PSoC4/ble.c **** * 
 148:Generated_Source\PSoC4/ble.c **** *  \return
 149:Generated_Source\PSoC4/ble.c **** *   None
 150:Generated_Source\PSoC4/ble.c **** * 
 151:Generated_Source\PSoC4/ble.c **** ******************************************************************************/
 152:Generated_Source\PSoC4/ble.c **** void CyBle_Init(void)
 153:Generated_Source\PSoC4/ble.c **** {
 154:Generated_Source\PSoC4/ble.c ****     cyBle_eventHandlerFlag = 0u;
 155:Generated_Source\PSoC4/ble.c ****     cyBle_busyStatus = CYBLE_STACK_STATE_FREE;
 156:Generated_Source\PSoC4/ble.c **** 
 157:Generated_Source\PSoC4/ble.c ****     #if(CYBLE_GAP_ROLE_PERIPHERAL || CYBLE_GAP_ROLE_BROADCASTER) 
 158:Generated_Source\PSoC4/ble.c ****         cyBle_advertisingIntervalType = CYBLE_ADVERTISING_FAST; 
 159:Generated_Source\PSoC4/ble.c ****     #endif /* (CYBLE_GAP_ROLE_PERIPHERAL || CYBLE_GAP_ROLE_BROADCASTER)  */
 160:Generated_Source\PSoC4/ble.c ****     #if(CYBLE_GAP_ROLE_CENTRAL || CYBLE_GAP_ROLE_OBSERVER)
 161:Generated_Source\PSoC4/ble.c ****         cyBle_scanningIntervalType = CYBLE_SCANNING_FAST; 
 162:Generated_Source\PSoC4/ble.c ****     #endif /* (CYBLE_GAP_ROLE_CENTRAL || CYBLE_GAP_ROLE_OBSERVER) */
 163:Generated_Source\PSoC4/ble.c ****         
 164:Generated_Source\PSoC4/ble.c ****     /* Init default connection parameters. 
 165:Generated_Source\PSoC4/ble.c ****        Application may change it before initiating a connection */
 166:Generated_Source\PSoC4/ble.c ****     #if(CYBLE_GAP_ROLE_CENTRAL)
 167:Generated_Source\PSoC4/ble.c ****         cyBle_connectionParameters.scanIntv = cyBle_discoveryInfo.scanIntv;
 168:Generated_Source\PSoC4/ble.c ****         cyBle_connectionParameters.scanWindow = cyBle_discoveryInfo.scanWindow;
 169:Generated_Source\PSoC4/ble.c ****         cyBle_connectionParameters.ownAddrType = cyBle_discoveryInfo.ownAddrType;
 170:Generated_Source\PSoC4/ble.c ****         cyBle_connectionParameters.initiatorFilterPolicy = cyBle_discoveryInfo.scanFilterPolicy;
 171:Generated_Source\PSoC4/ble.c ****         cyBle_connectionParameters.connIntvMin = CYBLE_GAPC_CONNECTION_INTERVAL_MIN;
 172:Generated_Source\PSoC4/ble.c ****         cyBle_connectionParameters.connIntvMax = CYBLE_GAPC_CONNECTION_INTERVAL_MAX;
 173:Generated_Source\PSoC4/ble.c ****         cyBle_connectionParameters.connLatency = CYBLE_GAPC_CONNECTION_SLAVE_LATENCY;
 174:Generated_Source\PSoC4/ble.c ****         cyBle_connectionParameters.supervisionTO = CYBLE_GAPC_CONNECTION_TIME_OUT;
 175:Generated_Source\PSoC4/ble.c ****         cyBle_connectionParameters.minCeLength = 0x0000u;
 176:Generated_Source\PSoC4/ble.c ****         cyBle_connectionParameters.maxCeLength = 0xFFFFu;
 177:Generated_Source\PSoC4/ble.c ****         
 178:Generated_Source\PSoC4/ble.c ****         cyBle_connectingTimeout = CYBLE_GAPC_CONNECTING_TIMEOUT;
 179:Generated_Source\PSoC4/ble.c ****     #endif /* CYBLE_GAP_ROLE_CENTRAL */
 180:Generated_Source\PSoC4/ble.c **** 
 181:Generated_Source\PSoC4/ble.c ****     CyBle_ServiceInit();
 182:Generated_Source\PSoC4/ble.c **** 
 183:Generated_Source\PSoC4/ble.c ****     #if((CYBLE_GAP_ROLE_PERIPHERAL || CYBLE_GAP_ROLE_CENTRAL) && (CYBLE_BONDING_REQUIREMENT == CYBL
 184:Generated_Source\PSoC4/ble.c ****         cyBle_pendingFlashWrite = 0u;
 185:Generated_Source\PSoC4/ble.c ****         cyBle_peerBonding = CYBLE_GAP_BONDING_NONE;
 186:Generated_Source\PSoC4/ble.c ****     #endif  /* (CYBLE_BONDING_REQUIREMENT == CYBLE_BONDING_YES) */
 187:Generated_Source\PSoC4/ble.c **** 
 188:Generated_Source\PSoC4/ble.c **** }
 189:Generated_Source\PSoC4/ble.c **** 
 190:Generated_Source\PSoC4/ble.c **** 
 191:Generated_Source\PSoC4/ble.c **** /******************************************************************************
 192:Generated_Source\PSoC4/ble.c **** * Function Name: CyBle_ServiceInit
 193:Generated_Source\PSoC4/ble.c **** ***************************************************************************//**
 194:Generated_Source\PSoC4/ble.c **** * 
 195:Generated_Source\PSoC4/ble.c **** *  Initializes all included services.
 196:Generated_Source\PSoC4/ble.c **** * 
 197:Generated_Source\PSoC4/ble.c **** * \return
 198:Generated_Source\PSoC4/ble.c **** *  None
 199:Generated_Source\PSoC4/ble.c **** * 
 200:Generated_Source\PSoC4/ble.c **** ******************************************************************************/
 201:Generated_Source\PSoC4/ble.c **** void CyBle_ServiceInit(void)
 202:Generated_Source\PSoC4/ble.c **** {
ARM GAS  C:\Users\Art\AppData\Local\Temp\ccqpb62o.s 			page 5


 203:Generated_Source\PSoC4/ble.c ****     #if(CYBLE_GATT_ROLE_CLIENT)
 204:Generated_Source\PSoC4/ble.c ****         /* Check service range before clearing to support partial discovery */
 205:Generated_Source\PSoC4/ble.c ****         if(cyBle_serverInfo[CYBLE_SRVI_GAP].range.startHandle == CYBLE_GATT_INVALID_ATTR_HANDLE_VAL
 206:Generated_Source\PSoC4/ble.c ****         {
 207:Generated_Source\PSoC4/ble.c ****             (void)memset(&cyBle_gapc, 0, sizeof(cyBle_gapc));
 208:Generated_Source\PSoC4/ble.c ****         }
 209:Generated_Source\PSoC4/ble.c ****         if(cyBle_serverInfo[CYBLE_SRVI_GATT].range.startHandle == CYBLE_GATT_INVALID_ATTR_HANDLE_VA
 210:Generated_Source\PSoC4/ble.c ****         {
 211:Generated_Source\PSoC4/ble.c ****             (void)memset(&cyBle_gattc, 0, sizeof(cyBle_gattc));
 212:Generated_Source\PSoC4/ble.c ****         }
 213:Generated_Source\PSoC4/ble.c ****     #endif /* CYBLE_GATT_ROLE_CLIENT */
 214:Generated_Source\PSoC4/ble.c **** 
 215:Generated_Source\PSoC4/ble.c ****    	#ifdef CYBLE_AIOS
 216:Generated_Source\PSoC4/ble.c ****         CyBle_AiosInit();
 217:Generated_Source\PSoC4/ble.c ****     #endif /* CYBLE_AIOS */
 218:Generated_Source\PSoC4/ble.c **** 
 219:Generated_Source\PSoC4/ble.c **** 	#ifdef CYBLE_ANCS
 220:Generated_Source\PSoC4/ble.c ****         CyBle_AncsInit();
 221:Generated_Source\PSoC4/ble.c ****     #endif /* CYBLE_ANCS */
 222:Generated_Source\PSoC4/ble.c **** 	
 223:Generated_Source\PSoC4/ble.c ****     #ifdef CYBLE_ANS
 224:Generated_Source\PSoC4/ble.c ****         CyBle_AnsInit();
 225:Generated_Source\PSoC4/ble.c ****     #endif /* CYBLE_ANS */
 226:Generated_Source\PSoC4/ble.c ****     
 227:Generated_Source\PSoC4/ble.c ****     #ifdef CYBLE_BAS
 228:Generated_Source\PSoC4/ble.c ****         CyBle_BasInit();
 229:Generated_Source\PSoC4/ble.c ****     #endif /* CYBLE_BAS */
 230:Generated_Source\PSoC4/ble.c ****     
 231:Generated_Source\PSoC4/ble.c ****     #ifdef CYBLE_BCS
 232:Generated_Source\PSoC4/ble.c ****         CyBle_BcsInit();
 233:Generated_Source\PSoC4/ble.c ****     #endif /* CYBLE_BCS */
 234:Generated_Source\PSoC4/ble.c **** 
 235:Generated_Source\PSoC4/ble.c ****     #ifdef CYBLE_BLS
 236:Generated_Source\PSoC4/ble.c ****         CyBle_BlsInit();
 237:Generated_Source\PSoC4/ble.c ****     #endif /* CYBLE_BLS */
 238:Generated_Source\PSoC4/ble.c ****     
 239:Generated_Source\PSoC4/ble.c ****     #ifdef CYBLE_BMS
 240:Generated_Source\PSoC4/ble.c ****         CyBle_BmsInit();
 241:Generated_Source\PSoC4/ble.c ****     #endif /* CYBLE_BMS */
 242:Generated_Source\PSoC4/ble.c ****     
 243:Generated_Source\PSoC4/ble.c ****     #ifdef CYBLE_CGMS
 244:Generated_Source\PSoC4/ble.c ****         CyBle_CgmsInit();
 245:Generated_Source\PSoC4/ble.c ****     #endif /* CYBLE_CGMS */
 246:Generated_Source\PSoC4/ble.c **** 
 247:Generated_Source\PSoC4/ble.c ****     #ifdef CYBLE_CPS
 248:Generated_Source\PSoC4/ble.c ****         CyBle_CpsInit();
 249:Generated_Source\PSoC4/ble.c ****     #endif /* CYBLE_CPS */
 250:Generated_Source\PSoC4/ble.c **** 
 251:Generated_Source\PSoC4/ble.c ****     #ifdef CYBLE_CSCS
 252:Generated_Source\PSoC4/ble.c ****         CyBle_CscsInit();
 253:Generated_Source\PSoC4/ble.c ****     #endif /* CYBLE_CSCS */
 254:Generated_Source\PSoC4/ble.c ****     
 255:Generated_Source\PSoC4/ble.c ****     #ifdef CYBLE_CTS
 256:Generated_Source\PSoC4/ble.c ****         CyBle_CtsInit();
 257:Generated_Source\PSoC4/ble.c ****     #endif /* CYBLE_CTS */
 258:Generated_Source\PSoC4/ble.c **** 
 259:Generated_Source\PSoC4/ble.c ****     #ifdef CYBLE_CUSTOM
ARM GAS  C:\Users\Art\AppData\Local\Temp\ccqpb62o.s 			page 6


 260:Generated_Source\PSoC4/ble.c ****         CyBle_CustomInit();
 261:Generated_Source\PSoC4/ble.c ****     #endif /* CYBLE_CUSTOM */
 262:Generated_Source\PSoC4/ble.c **** 
 263:Generated_Source\PSoC4/ble.c ****     #ifdef CYBLE_DIS
 264:Generated_Source\PSoC4/ble.c ****         CyBle_DisInit();
 265:Generated_Source\PSoC4/ble.c ****     #endif /* CYBLE_DIS */
 266:Generated_Source\PSoC4/ble.c **** 
 267:Generated_Source\PSoC4/ble.c ****     #ifdef CYBLE_ESS
 268:Generated_Source\PSoC4/ble.c ****         CyBle_EssInit();
 269:Generated_Source\PSoC4/ble.c ****     #endif /* CYBLE_ESS */
 270:Generated_Source\PSoC4/ble.c ****     
 271:Generated_Source\PSoC4/ble.c ****     #ifdef CYBLE_GLS
 272:Generated_Source\PSoC4/ble.c ****         CyBle_GlsInit();
 273:Generated_Source\PSoC4/ble.c ****     #endif /* CYBLE_GLS */
 274:Generated_Source\PSoC4/ble.c ****     
 275:Generated_Source\PSoC4/ble.c ****     #ifdef CYBLE_HIDS
 276:Generated_Source\PSoC4/ble.c ****         CyBle_HidsInit();
 277:Generated_Source\PSoC4/ble.c ****     #endif /* CYBLE_HIDS */
 278:Generated_Source\PSoC4/ble.c **** 
 279:Generated_Source\PSoC4/ble.c ****     #ifdef CYBLE_HPS
 280:Generated_Source\PSoC4/ble.c ****         CyBle_HpsInit();
 281:Generated_Source\PSoC4/ble.c ****     #endif /* CYBLE_HPS */
 282:Generated_Source\PSoC4/ble.c **** 
 283:Generated_Source\PSoC4/ble.c ****     #ifdef CYBLE_HRS
 284:Generated_Source\PSoC4/ble.c ****         CyBle_HrsInit();
 285:Generated_Source\PSoC4/ble.c ****     #endif /* CYBLE_HRS */
 286:Generated_Source\PSoC4/ble.c ****     
 287:Generated_Source\PSoC4/ble.c ****     #ifdef CYBLE_HTS
 288:Generated_Source\PSoC4/ble.c ****         CyBle_HtsInit();
 289:Generated_Source\PSoC4/ble.c ****     #endif /* CYBLE_RSCS */
 290:Generated_Source\PSoC4/ble.c **** 
 291:Generated_Source\PSoC4/ble.c ****     #ifdef CYBLE_IAS
 292:Generated_Source\PSoC4/ble.c ****         CyBle_IasInit();
 293:Generated_Source\PSoC4/ble.c ****     #endif /* CYBLE_IAS */
 294:Generated_Source\PSoC4/ble.c **** 
 295:Generated_Source\PSoC4/ble.c ****     #ifdef CYBLE_IPS
 296:Generated_Source\PSoC4/ble.c ****         CyBle_IpsInit();
 297:Generated_Source\PSoC4/ble.c ****     #endif /* CYBLE_IPS */
 298:Generated_Source\PSoC4/ble.c ****     
 299:Generated_Source\PSoC4/ble.c ****     #ifdef CYBLE_LLS
 300:Generated_Source\PSoC4/ble.c ****         CyBle_LlsInit();
 301:Generated_Source\PSoC4/ble.c ****     #endif /* CYBLE_LLS */
 302:Generated_Source\PSoC4/ble.c **** 
 303:Generated_Source\PSoC4/ble.c ****     #ifdef CYBLE_LNS
 304:Generated_Source\PSoC4/ble.c ****         CyBle_LnsInit();
 305:Generated_Source\PSoC4/ble.c ****     #endif /* CYBLE_LNS */
 306:Generated_Source\PSoC4/ble.c ****     
 307:Generated_Source\PSoC4/ble.c ****     #ifdef CYBLE_NDCS
 308:Generated_Source\PSoC4/ble.c ****         CyBle_NdcsInit();
 309:Generated_Source\PSoC4/ble.c ****     #endif /* CYBLE_NDCS */
 310:Generated_Source\PSoC4/ble.c ****     
 311:Generated_Source\PSoC4/ble.c ****     #ifdef CYBLE_PASS
 312:Generated_Source\PSoC4/ble.c ****         CyBle_PassInit();
 313:Generated_Source\PSoC4/ble.c ****     #endif /* CYBLE_PASS */
 314:Generated_Source\PSoC4/ble.c ****     
 315:Generated_Source\PSoC4/ble.c ****     #ifdef CYBLE_PLXS
 316:Generated_Source\PSoC4/ble.c ****         CyBle_PlxsInit();
ARM GAS  C:\Users\Art\AppData\Local\Temp\ccqpb62o.s 			page 7


 317:Generated_Source\PSoC4/ble.c ****     #endif /* CYBLE_PLXS */
 318:Generated_Source\PSoC4/ble.c ****     
 319:Generated_Source\PSoC4/ble.c ****     #ifdef CYBLE_RSCS
 320:Generated_Source\PSoC4/ble.c ****         CyBle_RscsInit();
 321:Generated_Source\PSoC4/ble.c ****     #endif /* CYBLE_RSCS */
 322:Generated_Source\PSoC4/ble.c **** 
 323:Generated_Source\PSoC4/ble.c ****     #ifdef CYBLE_RTUS
 324:Generated_Source\PSoC4/ble.c ****         CyBle_RtusInit();
 325:Generated_Source\PSoC4/ble.c ****     #endif /* CYBLE_RTUS */
 326:Generated_Source\PSoC4/ble.c **** 
 327:Generated_Source\PSoC4/ble.c ****     #ifdef CYBLE_SCPS
 328:Generated_Source\PSoC4/ble.c ****         CyBle_ScpsInit();
 329:Generated_Source\PSoC4/ble.c ****     #endif /* CYBLE_SCPS */
 330:Generated_Source\PSoC4/ble.c ****     
 331:Generated_Source\PSoC4/ble.c ****     #ifdef CYBLE_TPS
 332:Generated_Source\PSoC4/ble.c ****         CyBle_TpsInit();
 333:Generated_Source\PSoC4/ble.c ****     #endif /* CYBLE_TPS */
 334:Generated_Source\PSoC4/ble.c ****     
 335:Generated_Source\PSoC4/ble.c ****     #ifdef CYBLE_UDS
 336:Generated_Source\PSoC4/ble.c ****         CyBle_UdsInit();
 337:Generated_Source\PSoC4/ble.c ****     #endif /* CYBLE_UDS */
 338:Generated_Source\PSoC4/ble.c **** 
 339:Generated_Source\PSoC4/ble.c ****     #ifdef CYBLE_WPTS
 340:Generated_Source\PSoC4/ble.c ****         CyBle_WptsInit();
 341:Generated_Source\PSoC4/ble.c ****     #endif /* CYBLE_WPTS */
 342:Generated_Source\PSoC4/ble.c **** 
 343:Generated_Source\PSoC4/ble.c ****     #ifdef CYBLE_WSS
 344:Generated_Source\PSoC4/ble.c ****         CyBle_WssInit();
 345:Generated_Source\PSoC4/ble.c ****     #endif /* CYBLE_WSS */
 346:Generated_Source\PSoC4/ble.c **** }
 347:Generated_Source\PSoC4/ble.c **** 
 348:Generated_Source\PSoC4/ble.c **** 
 349:Generated_Source\PSoC4/ble.c **** /******************************************************************************
 350:Generated_Source\PSoC4/ble.c **** * Function Name: CyBle_Start
 351:Generated_Source\PSoC4/ble.c **** ***************************************************************************//**
 352:Generated_Source\PSoC4/ble.c **** * 
 353:Generated_Source\PSoC4/ble.c **** *  This function initializes the BLE Stack, which consists of the BLE Stack 
 354:Generated_Source\PSoC4/ble.c **** *  Manager, BLE Controller, and BLE Host modules. It takes care of initializing
 355:Generated_Source\PSoC4/ble.c **** *  the Profile layer, schedulers, Timer and other platform related
 356:Generated_Source\PSoC4/ble.c **** *  resources required for the BLE component. It also registers the callback 
 357:Generated_Source\PSoC4/ble.c **** *  function for BLE events that will be registered in the BLE stack.
 358:Generated_Source\PSoC4/ble.c **** * 
 359:Generated_Source\PSoC4/ble.c **** *  Note that this function does not reset the BLE Stack.
 360:Generated_Source\PSoC4/ble.c **** * 
 361:Generated_Source\PSoC4/ble.c **** *  For HCI-Mode of operation, this function will not initialize the BLE Host 
 362:Generated_Source\PSoC4/ble.c **** *  module.
 363:Generated_Source\PSoC4/ble.c **** * 
 364:Generated_Source\PSoC4/ble.c **** *  Calling this function results in the generation of CYBLE_EVT_STACK_ON event
 365:Generated_Source\PSoC4/ble.c **** *  on successful initialization of the BLE Stack.
 366:Generated_Source\PSoC4/ble.c **** * 
 367:Generated_Source\PSoC4/ble.c **** *  \param callbackFunc: Event callback function to receive events from BLE stack.
 368:Generated_Source\PSoC4/ble.c **** *   CYBLE_CALLBACK_T is a function pointer type.
 369:Generated_Source\PSoC4/ble.c **** * 
 370:Generated_Source\PSoC4/ble.c **** * \return
 371:Generated_Source\PSoC4/ble.c **** *  CYBLE_API_RESULT_T : Return value indicates if the function succeeded or 
 372:Generated_Source\PSoC4/ble.c **** *  failed. Following are the possible error codes.
 373:Generated_Source\PSoC4/ble.c **** * 
ARM GAS  C:\Users\Art\AppData\Local\Temp\ccqpb62o.s 			page 8


 374:Generated_Source\PSoC4/ble.c **** *   <table>
 375:Generated_Source\PSoC4/ble.c **** *  	  <tr>
 376:Generated_Source\PSoC4/ble.c **** *       <th>Error codes</th>
 377:Generated_Source\PSoC4/ble.c **** *       <th>Description</th>
 378:Generated_Source\PSoC4/ble.c **** *     </tr>
 379:Generated_Source\PSoC4/ble.c **** *     <tr>
 380:Generated_Source\PSoC4/ble.c **** *       <td>CYBLE_ERROR_OK</td>
 381:Generated_Source\PSoC4/ble.c **** *       <td>On successful operation.</td>
 382:Generated_Source\PSoC4/ble.c **** *     </tr>
 383:Generated_Source\PSoC4/ble.c **** *     <tr>
 384:Generated_Source\PSoC4/ble.c **** *       <td>CYBLE_ERROR_INVALID_PARAMETER</td>
 385:Generated_Source\PSoC4/ble.c **** *       <td>On passing a NULL pointer to the function. 
 386:Generated_Source\PSoC4/ble.c **** *		</td>
 387:Generated_Source\PSoC4/ble.c **** *     </tr>
 388:Generated_Source\PSoC4/ble.c **** *     <tr>
 389:Generated_Source\PSoC4/ble.c **** *       <td>CYBLE_ERROR_REPEATED_ATTEMPTS</td>
 390:Generated_Source\PSoC4/ble.c **** *       <td>On invoking this function more than once without calling CyBle_Shutdown() 
 391:Generated_Source\PSoC4/ble.c **** *           function between calls to this function.</td>
 392:Generated_Source\PSoC4/ble.c **** *     </tr>
 393:Generated_Source\PSoC4/ble.c **** *     <tr>
 394:Generated_Source\PSoC4/ble.c **** *       <td>CYBLE_ERROR_MEMORY_ALLOCATION_FAILED</td>
 395:Generated_Source\PSoC4/ble.c **** *       <td>There is insufficient memory available.</td>
 396:Generated_Source\PSoC4/ble.c **** *     </tr>
 397:Generated_Source\PSoC4/ble.c **** *   </table>
 398:Generated_Source\PSoC4/ble.c **** * 
 399:Generated_Source\PSoC4/ble.c **** *  \globalvars
 400:Generated_Source\PSoC4/ble.c **** *   The CyBle_initVar variable is used to indicate initial
 401:Generated_Source\PSoC4/ble.c **** *   configuration of this component. The variable is initialized to zero (0u)
 402:Generated_Source\PSoC4/ble.c **** *   and set to one (1u) the first time CyBle_Start() is called. This
 403:Generated_Source\PSoC4/ble.c **** *   allows for component initialization without re-initialization in all
 404:Generated_Source\PSoC4/ble.c **** *   subsequent calls to the CyBle_Start() routine.
 405:Generated_Source\PSoC4/ble.c **** * 
 406:Generated_Source\PSoC4/ble.c **** ******************************************************************************/
 407:Generated_Source\PSoC4/ble.c **** CYBLE_API_RESULT_T CyBle_Start(CYBLE_CALLBACK_T callbackFunc)
 408:Generated_Source\PSoC4/ble.c **** {
 409:Generated_Source\PSoC4/ble.c ****     CYBLE_API_RESULT_T apiResult = CYBLE_ERROR_OK;
 410:Generated_Source\PSoC4/ble.c ****     
 411:Generated_Source\PSoC4/ble.c ****     #if(CYBLE_MODE_PROFILE)
 412:Generated_Source\PSoC4/ble.c ****     
 413:Generated_Source\PSoC4/ble.c ****     CYBLE_STK_APP_DATA_BUFF_T cyBle_stackDataBuff[CYBLE_STACK_APP_MIN_POOL] = 
 414:Generated_Source\PSoC4/ble.c ****     {
 415:Generated_Source\PSoC4/ble.c ****         {CYBLE_GATT_MTU_PLUS_L2CAP_MEM_EXT, CYBLE_GATT_MTU_BUFF_COUNT + CYBLE_GATT_MAX_ATTR_BUFF_CO
 416:Generated_Source\PSoC4/ble.c ****         {CYBLE_L2CAP_PSM_PLUS_L2CAP_MEM_EXT, CYBLE_L2CAP_PSM_COUNT},
 417:Generated_Source\PSoC4/ble.c ****         {CYBLE_L2CAP_CBFC_PLUS_L2CAP_MEM_EXT, 2u * CYBLE_L2CAP_LOGICAL_CHANNEL_COUNT},
 418:Generated_Source\PSoC4/ble.c ****         {CYBLE_L2CAP_MTU_PLUS_L2CAP_MEM_EXT, CYBLE_L2CAP_LOGICAL_CHANNEL_COUNT},
 419:Generated_Source\PSoC4/ble.c ****         {CYBLE_L2CAP_MPS_PLUS_L2CAP_MEM_EXT, CYBLE_L2CAP_LOGICAL_CHANNEL_COUNT * (CYBLE_L2CAP_MTU_M
 420:Generated_Source\PSoC4/ble.c ****     }; 
 421:Generated_Source\PSoC4/ble.c **** 
 422:Generated_Source\PSoC4/ble.c ****     #endif /* CYBLE_MODE_PROFILE */
 423:Generated_Source\PSoC4/ble.c ****     
 424:Generated_Source\PSoC4/ble.c ****     /* If not initialized then initialize all the required hardware and software */
 425:Generated_Source\PSoC4/ble.c ****     if(cyBle_initVar == 0u)
 426:Generated_Source\PSoC4/ble.c ****     {
 427:Generated_Source\PSoC4/ble.c ****         CyBle_Init();
 428:Generated_Source\PSoC4/ble.c ****         cyBle_initVar = 1u;
 429:Generated_Source\PSoC4/ble.c ****     }
 430:Generated_Source\PSoC4/ble.c ****     
ARM GAS  C:\Users\Art\AppData\Local\Temp\ccqpb62o.s 			page 9


 431:Generated_Source\PSoC4/ble.c ****     if(callbackFunc != NULL)
 432:Generated_Source\PSoC4/ble.c ****     {
 433:Generated_Source\PSoC4/ble.c ****         CyBle_ApplCallback = callbackFunc;
 434:Generated_Source\PSoC4/ble.c ****         
 435:Generated_Source\PSoC4/ble.c ****     #if(CYBLE_SHARING_MODE_EXPORT)
 436:Generated_Source\PSoC4/ble.c ****         if(cyBle_stackMemoryRam == NULL)
 437:Generated_Source\PSoC4/ble.c ****         {
 438:Generated_Source\PSoC4/ble.c ****             cyBle_stackMemoryRam = (uint8 *)malloc(CYBLE_STACK_RAM_SIZE);
 439:Generated_Source\PSoC4/ble.c ****             if(cyBle_stackMemoryRam == NULL)
 440:Generated_Source\PSoC4/ble.c ****             {
 441:Generated_Source\PSoC4/ble.c ****                 apiResult = CYBLE_ERROR_MEMORY_ALLOCATION_FAILED;
 442:Generated_Source\PSoC4/ble.c ****             }
 443:Generated_Source\PSoC4/ble.c ****         }
 444:Generated_Source\PSoC4/ble.c ****     #endif /* CYBLE_SHARING_MODE_EXPORT */
 445:Generated_Source\PSoC4/ble.c ****         if(apiResult == CYBLE_ERROR_OK)
 446:Generated_Source\PSoC4/ble.c ****         {
 447:Generated_Source\PSoC4/ble.c ****             CYBLE_DLE_CONFIG_PARAM_T dleConfigParams;
 448:Generated_Source\PSoC4/ble.c ****             CYBLE_PRIVACY_1_2_CONFIG_PARAM_T privacyConfigParams;
 449:Generated_Source\PSoC4/ble.c ****             CYBLE_STACK_CONFIG_PARAM_T stackConfig;
 450:Generated_Source\PSoC4/ble.c ****             uint16 featureHeapReq;
 451:Generated_Source\PSoC4/ble.c ****             
 452:Generated_Source\PSoC4/ble.c ****             stackConfig.privacyConfig = &privacyConfigParams;
 453:Generated_Source\PSoC4/ble.c ****             stackConfig.dleConfig = &dleConfigParams;
 454:Generated_Source\PSoC4/ble.c ****             
 455:Generated_Source\PSoC4/ble.c ****             /* Configure default BLE 4.1 features and enabled 4.2 features */
 456:Generated_Source\PSoC4/ble.c ****             stackConfig.feature_mask = CYBLE_DLE_FEATURE | CYBLE_LL_PRIVACY_FEATURE | 
 457:Generated_Source\PSoC4/ble.c ****                                        CYBLE_SECURE_CONN_FEATURE;
 458:Generated_Source\PSoC4/ble.c **** 
 459:Generated_Source\PSoC4/ble.c ****             /* Configure DLE */
 460:Generated_Source\PSoC4/ble.c ****             dleConfigParams.dleMaxTxCapability = CYBLE_LL_MAX_TX_PAYLOAD_SIZE;
 461:Generated_Source\PSoC4/ble.c ****             dleConfigParams.dleMaxRxCapability = CYBLE_LL_MAX_RX_PAYLOAD_SIZE;
 462:Generated_Source\PSoC4/ble.c ****             dleConfigParams.dleNumTxBuffer = CYBLE_LL_DEFAULT_NUM_ACL_TX_PACKETS;
 463:Generated_Source\PSoC4/ble.c ****         #if(CYBLE_DLE_FEATURE_ENABLED)
 464:Generated_Source\PSoC4/ble.c ****             CyBle_EnableDleFeature();              /* Enable DLE code in stack */
 465:Generated_Source\PSoC4/ble.c ****         #endif /* CYBLE_DLE_FEATURE_ENABLED */
 466:Generated_Source\PSoC4/ble.c ****         
 467:Generated_Source\PSoC4/ble.c ****             /* Configure LL Privacy */
 468:Generated_Source\PSoC4/ble.c ****             privacyConfigParams.resolvingListSize = CYBLE_MAX_RESOLVABLE_DEVICES;
 469:Generated_Source\PSoC4/ble.c ****         #if(CYBLE_LL_PRIVACY_FEATURE_ENABLED)
 470:Generated_Source\PSoC4/ble.c ****             CyBle_EnablePrivacyFeature();          /* Enable LL Privacy code in stack */
 471:Generated_Source\PSoC4/ble.c ****         #endif /* CYBLE_LL_PRIVACY_FEATURE_ENABLED */
 472:Generated_Source\PSoC4/ble.c **** 
 473:Generated_Source\PSoC4/ble.c ****             apiResult = CyBle_StackSetFeatureConfig(&stackConfig, &featureHeapReq);
 474:Generated_Source\PSoC4/ble.c ****             }
 475:Generated_Source\PSoC4/ble.c ****     
 476:Generated_Source\PSoC4/ble.c ****         if(apiResult == CYBLE_ERROR_OK)
 477:Generated_Source\PSoC4/ble.c ****         {
 478:Generated_Source\PSoC4/ble.c ****         
 479:Generated_Source\PSoC4/ble.c ****         #if(CYBLE_MODE_PROFILE)
 480:Generated_Source\PSoC4/ble.c ****             #if(CYBLE_BONDING_REQUIREMENT == CYBLE_BONDING_YES)
 481:Generated_Source\PSoC4/ble.c ****                 apiResult = CyBle_StackInit(&CyBle_EventHandler, cyBle_stackMemoryRam, 
 482:Generated_Source\PSoC4/ble.c ****                     CYBLE_STACK_RAM_SIZE - CYBLE_GATT_PREPARE_WRITE_BUFF_LEN, cyBle_stackDataBuff, 
 483:Generated_Source\PSoC4/ble.c ****                     CYBLE_STACK_APP_MIN_POOL, cyBle_flashStorage.stackFlashptr, CYBLE_STACK_FLASH_S
 484:Generated_Source\PSoC4/ble.c ****             #else
 485:Generated_Source\PSoC4/ble.c ****                 apiResult = CyBle_StackInit(&CyBle_EventHandler, cyBle_stackMemoryRam, 
 486:Generated_Source\PSoC4/ble.c ****                     CYBLE_STACK_RAM_SIZE - CYBLE_GATT_PREPARE_WRITE_BUFF_LEN, cyBle_stackDataBuff, 
 487:Generated_Source\PSoC4/ble.c ****                     CYBLE_STACK_APP_MIN_POOL, NULL, 0u);
ARM GAS  C:\Users\Art\AppData\Local\Temp\ccqpb62o.s 			page 10


 488:Generated_Source\PSoC4/ble.c ****             #endif  /* CYBLE_BONDING_REQUIREMENT == CYBLE_BONDING_YES */
 489:Generated_Source\PSoC4/ble.c ****         #else /* HCI mode */
 490:Generated_Source\PSoC4/ble.c ****             /* The following will perform preparation to use HCI over UART or over
 491:Generated_Source\PSoC4/ble.c ****                software. But the following fucntions will not initialize the HCI
 492:Generated_Source\PSoC4/ble.c ****                Transport. This will be done as part of Stack initialization, so
 493:Generated_Source\PSoC4/ble.c ****                the functions should be called prior CyBle_StackInit().
 494:Generated_Source\PSoC4/ble.c ****             */
 495:Generated_Source\PSoC4/ble.c ****             #if (CYBLE_HCI_TYPE == CYBLE_HCI_OVER_UART)
 496:Generated_Source\PSoC4/ble.c ****                 CyBle_HciUartTransportEnable();
 497:Generated_Source\PSoC4/ble.c ****             #else
 498:Generated_Source\PSoC4/ble.c ****                 CyBle_HciSoftTransportEnable();
 499:Generated_Source\PSoC4/ble.c ****             #endif /* (CYBLE_HCI_TYPE == CYBLE_HCI_OVER_UART) */
 500:Generated_Source\PSoC4/ble.c ****             /* This will initialize BLE stack for HCI mode operation */
 501:Generated_Source\PSoC4/ble.c ****             apiResult = CyBle_StackInit(&CyBle_EventHandler, cyBle_stackMemoryRam, CYBLE_STACK_RAM_
 502:Generated_Source\PSoC4/ble.c ****                 NULL, 0u, NULL, 0u);
 503:Generated_Source\PSoC4/ble.c ****         #endif /* CYBLE_MODE_PROFILE */
 504:Generated_Source\PSoC4/ble.c **** 
 505:Generated_Source\PSoC4/ble.c ****             if(apiResult == CYBLE_ERROR_OK)
 506:Generated_Source\PSoC4/ble.c ****             {
 507:Generated_Source\PSoC4/ble.c ****                 CyBle_SetState(CYBLE_STATE_INITIALIZING);
 508:Generated_Source\PSoC4/ble.c ****                 
 509:Generated_Source\PSoC4/ble.c ****             #if (CYBLE_GATT_ROLE_CLIENT)
 510:Generated_Source\PSoC4/ble.c ****                 CyBle_SetClientState(CYBLE_CLIENT_STATE_DISCONNECTED);
 511:Generated_Source\PSoC4/ble.c ****             #endif /* CYBLE_GATT_ROLE_CLIENT */
 512:Generated_Source\PSoC4/ble.c ****                 
 513:Generated_Source\PSoC4/ble.c ****             #if(CYBLE_GATT_ROLE_SERVER)
 514:Generated_Source\PSoC4/ble.c ****                 apiResult = CyBle_GattsDbRegister(cyBle_gattDB, CYBLE_GATT_DB_INDEX_COUNT, CYBLE_GA
 515:Generated_Source\PSoC4/ble.c ****             #endif /* CYBLE_GATT_ROLE_SERVER */
 516:Generated_Source\PSoC4/ble.c ****             }
 517:Generated_Source\PSoC4/ble.c ****         }
 518:Generated_Source\PSoC4/ble.c ****     }
 519:Generated_Source\PSoC4/ble.c ****     else
 520:Generated_Source\PSoC4/ble.c ****     {
 521:Generated_Source\PSoC4/ble.c ****         apiResult = CYBLE_ERROR_INVALID_PARAMETER;
 522:Generated_Source\PSoC4/ble.c ****     }
 523:Generated_Source\PSoC4/ble.c **** 
 524:Generated_Source\PSoC4/ble.c ****     return (apiResult);
 525:Generated_Source\PSoC4/ble.c **** }
 526:Generated_Source\PSoC4/ble.c **** 
 527:Generated_Source\PSoC4/ble.c **** 
 528:Generated_Source\PSoC4/ble.c **** /******************************************************************************
 529:Generated_Source\PSoC4/ble.c **** * Function Name: CyBle_Stop
 530:Generated_Source\PSoC4/ble.c **** ***************************************************************************//**
 531:Generated_Source\PSoC4/ble.c **** * 
 532:Generated_Source\PSoC4/ble.c **** *  This function stops any ongoing operation in the BLE Stack and forces the 
 533:Generated_Source\PSoC4/ble.c **** *  BLE Stack to shut down. The only function that can be called after calling
 534:Generated_Source\PSoC4/ble.c **** *  this function is CyBle_Start(). 
 535:Generated_Source\PSoC4/ble.c **** * 
 536:Generated_Source\PSoC4/ble.c **** * \return
 537:Generated_Source\PSoC4/ble.c **** *  None
 538:Generated_Source\PSoC4/ble.c **** * 
 539:Generated_Source\PSoC4/ble.c **** ******************************************************************************/
 540:Generated_Source\PSoC4/ble.c **** void CyBle_Stop(void)
 541:Generated_Source\PSoC4/ble.c **** {
 542:Generated_Source\PSoC4/ble.c ****     CyBle_Shutdown();                         /* Stop all ongoing activities */
 543:Generated_Source\PSoC4/ble.c ****     CyBle_SetState(CYBLE_STATE_STOPPED);
 544:Generated_Source\PSoC4/ble.c ****     #if(CYBLE_SHARING_MODE_EXPORT)
ARM GAS  C:\Users\Art\AppData\Local\Temp\ccqpb62o.s 			page 11


 545:Generated_Source\PSoC4/ble.c ****         if(cyBle_stackMemoryRam != NULL)
 546:Generated_Source\PSoC4/ble.c ****         {
 547:Generated_Source\PSoC4/ble.c ****             free(cyBle_stackMemoryRam);
 548:Generated_Source\PSoC4/ble.c ****         }
 549:Generated_Source\PSoC4/ble.c ****     #endif /* CYBLE_SHARING_MODE_EXPORT */
 550:Generated_Source\PSoC4/ble.c **** }
 551:Generated_Source\PSoC4/ble.c **** 
 552:Generated_Source\PSoC4/ble.c **** 
 553:Generated_Source\PSoC4/ble.c **** #if((CYBLE_GAP_ROLE_PERIPHERAL || CYBLE_GAP_ROLE_CENTRAL) && (CYBLE_BONDING_REQUIREMENT == CYBLE_BO
 554:Generated_Source\PSoC4/ble.c **** 
 555:Generated_Source\PSoC4/ble.c ****     
 556:Generated_Source\PSoC4/ble.c **** /******************************************************************************
 557:Generated_Source\PSoC4/ble.c **** * Function Name: CyBle_StoreBondingData
 558:Generated_Source\PSoC4/ble.c **** ***************************************************************************//**
 559:Generated_Source\PSoC4/ble.c **** * 
 560:Generated_Source\PSoC4/ble.c **** *  This function writes the new bonding data from RAM to the dedicated Flash 
 561:Generated_Source\PSoC4/ble.c **** *  location as defined by the component. It performs data comparing between RAM
 562:Generated_Source\PSoC4/ble.c **** *  and Flash before writing to Flash. If there is no change between RAM and Flash
 563:Generated_Source\PSoC4/ble.c **** *  data, then no write is performed. It writes only one flash row in one call.
 564:Generated_Source\PSoC4/ble.c **** *  Application should keep calling this function till API return CYBLE_ERROR_OK. 
 565:Generated_Source\PSoC4/ble.c **** *  This function is available only when Bonding requirement is selected in
 566:Generated_Source\PSoC4/ble.c **** *  Security settings.    
 567:Generated_Source\PSoC4/ble.c **** * 
 568:Generated_Source\PSoC4/ble.c **** *  \param isForceWrite:  If value is set to 0, then stack will check if flash write 
 569:Generated_Source\PSoC4/ble.c **** *                 is permissible. 
 570:Generated_Source\PSoC4/ble.c **** *  
 571:Generated_Source\PSoC4/ble.c **** * \return
 572:Generated_Source\PSoC4/ble.c **** *  Return value is of type CYBLE_API_RESULT_T.
 573:Generated_Source\PSoC4/ble.c **** *
 574:Generated_Source\PSoC4/ble.c **** *   Errors codes                         | Description
 575:Generated_Source\PSoC4/ble.c **** *   ----------------------------------   | ------------------------------------
 576:Generated_Source\PSoC4/ble.c **** *   CYBLE_ERROR_OK                       | On successful operation
 577:Generated_Source\PSoC4/ble.c **** *   CYBLE_ERROR_FLASH_WRITE_NOT_PERMITED | Flash Write is not complete
 578:Generated_Source\PSoC4/ble.c **** *   CYBLE_ERROR_INVALID_PARAMETER        | Invalid input parameter  
 579:Generated_Source\PSoC4/ble.c **** *   CYBLE_ERROR_FLASH_WRITE              | Error in flash Write	
 580:Generated_Source\PSoC4/ble.c ****     
 581:Generated_Source\PSoC4/ble.c **** *  \sideeffect
 582:Generated_Source\PSoC4/ble.c **** *   For BLE devices with 128K of Flash memory this API will automatically 
 583:Generated_Source\PSoC4/ble.c **** *   modify the clock settings for the device.
 584:Generated_Source\PSoC4/ble.c **** *   Writing to flash requires changes to be done to the IMO (set to 48 MHz)
 585:Generated_Source\PSoC4/ble.c **** *   and HFCLK (source set to IMO) settings. The configuration is restored before
 586:Generated_Source\PSoC4/ble.c **** *   returning. This will impact the operation of most of the hardware in the
 587:Generated_Source\PSoC4/ble.c **** *   device.
 588:Generated_Source\PSoC4/ble.c **** * 
 589:Generated_Source\PSoC4/ble.c **** *  \globalvars
 590:Generated_Source\PSoC4/ble.c **** *   The cyBle_pendingFlashWrite variable is used to detect status
 591:Generated_Source\PSoC4/ble.c **** *   of pending write to flash operation for stack data and CCCD.
 592:Generated_Source\PSoC4/ble.c **** *   This API automatically clears pending bits after write operation complete.
 593:Generated_Source\PSoC4/ble.c **** *     
 594:Generated_Source\PSoC4/ble.c **** ******************************************************************************/
 595:Generated_Source\PSoC4/ble.c **** CYBLE_API_RESULT_T CyBle_StoreBondingData(uint8 isForceWrite)
 596:Generated_Source\PSoC4/ble.c **** {
 597:Generated_Source\PSoC4/ble.c ****     CYBLE_API_RESULT_T apiResult = CYBLE_ERROR_OK;
 598:Generated_Source\PSoC4/ble.c ****     
 599:Generated_Source\PSoC4/ble.c ****     /* Store Stack data */
 600:Generated_Source\PSoC4/ble.c ****     if((cyBle_pendingFlashWrite & CYBLE_PENDING_STACK_FLASH_WRITE_BIT) != 0u)
 601:Generated_Source\PSoC4/ble.c ****     {
ARM GAS  C:\Users\Art\AppData\Local\Temp\ccqpb62o.s 			page 12


 602:Generated_Source\PSoC4/ble.c ****         apiResult = CyBle_StoreStackData(isForceWrite);
 603:Generated_Source\PSoC4/ble.c ****         if(apiResult == CYBLE_ERROR_OK)
 604:Generated_Source\PSoC4/ble.c ****         {
 605:Generated_Source\PSoC4/ble.c ****             cyBle_pendingFlashWrite &= (uint8)~CYBLE_PENDING_STACK_FLASH_WRITE_BIT;
 606:Generated_Source\PSoC4/ble.c ****             /* Change apiResult if there are more pending data to store */
 607:Generated_Source\PSoC4/ble.c ****             if((cyBle_pendingFlashWrite & CYBLE_PENDING_CCCD_FLASH_WRITE_BIT) != 0u)
 608:Generated_Source\PSoC4/ble.c ****             {
 609:Generated_Source\PSoC4/ble.c ****                 apiResult = CYBLE_ERROR_FLASH_WRITE_NOT_PERMITED;
 610:Generated_Source\PSoC4/ble.c ****             }
 611:Generated_Source\PSoC4/ble.c ****         }
 612:Generated_Source\PSoC4/ble.c ****     }
 613:Generated_Source\PSoC4/ble.c **** #if(CYBLE_GATT_DB_CCCD_COUNT != 0u)
 614:Generated_Source\PSoC4/ble.c ****     /* Store CCCD values */
 615:Generated_Source\PSoC4/ble.c ****     if( ((apiResult == CYBLE_ERROR_OK) || (isForceWrite != 0u)) && 
 616:Generated_Source\PSoC4/ble.c ****         ((cyBle_pendingFlashWrite & CYBLE_PENDING_CCCD_FLASH_WRITE_BIT) != 0u) &&
 617:Generated_Source\PSoC4/ble.c ****         (cyBle_connHandle.bdHandle <= CYBLE_GAP_MAX_BONDED_DEVICE))
 618:Generated_Source\PSoC4/ble.c ****     {
 619:Generated_Source\PSoC4/ble.c ****         apiResult = CyBle_StoreAppData(cyBle_attValuesCCCD, cyBle_flashStorage.attValuesCCCDFlashMe
 620:Generated_Source\PSoC4/ble.c ****                         cyBle_connHandle.bdHandle], CYBLE_GATT_DB_CCCD_COUNT, isForceWrite);
 621:Generated_Source\PSoC4/ble.c ****         if(apiResult == CYBLE_ERROR_OK)
 622:Generated_Source\PSoC4/ble.c ****         {
 623:Generated_Source\PSoC4/ble.c ****             cyBle_pendingFlashWrite &= (uint8)~CYBLE_PENDING_CCCD_FLASH_WRITE_BIT;
 624:Generated_Source\PSoC4/ble.c ****         }
 625:Generated_Source\PSoC4/ble.c ****     }
 626:Generated_Source\PSoC4/ble.c ****     /* Clear requested CCCD values */
 627:Generated_Source\PSoC4/ble.c ****     if( ((apiResult == CYBLE_ERROR_OK) || (isForceWrite != 0u)) && 
 628:Generated_Source\PSoC4/ble.c ****         ((cyBle_pendingFlashWrite & CYBLE_PENDING_CCCD_FLASH_CLEAR_MASK) != 0u) )
 629:Generated_Source\PSoC4/ble.c ****     {
 630:Generated_Source\PSoC4/ble.c ****         if((cyBle_pendingFlashWrite & CYBLE_PENDING_CCCD_FLASH_CLEAR_ALL_BIT) != 0u)
 631:Generated_Source\PSoC4/ble.c ****         {
 632:Generated_Source\PSoC4/ble.c ****             /* Remove cccd values for all bonded devices */
 633:Generated_Source\PSoC4/ble.c ****             uint8 defaultValuesCCCD[CYBLE_GAP_MAX_BONDED_DEVICE + 1u][CYBLE_GATT_DB_CCCD_COUNT];
 634:Generated_Source\PSoC4/ble.c ****             
 635:Generated_Source\PSoC4/ble.c ****             (void)memset(defaultValuesCCCD, 0, sizeof(defaultValuesCCCD));
 636:Generated_Source\PSoC4/ble.c **** 
 637:Generated_Source\PSoC4/ble.c ****             apiResult = CyBle_StoreAppData((uint8 *)defaultValuesCCCD, 
 638:Generated_Source\PSoC4/ble.c ****                 (const uint8 *)cyBle_flashStorage.attValuesCCCDFlashMemory, sizeof(defaultValuesCCC
 639:Generated_Source\PSoC4/ble.c ****             if(apiResult == CYBLE_ERROR_OK)
 640:Generated_Source\PSoC4/ble.c ****             {
 641:Generated_Source\PSoC4/ble.c ****                 cyBle_pendingFlashWrite &= (uint8)~CYBLE_PENDING_CCCD_FLASH_CLEAR_ALL_BIT;
 642:Generated_Source\PSoC4/ble.c ****             }
 643:Generated_Source\PSoC4/ble.c ****         }
 644:Generated_Source\PSoC4/ble.c ****         else /* Remove cccd values for particular device */
 645:Generated_Source\PSoC4/ble.c ****         {
 646:Generated_Source\PSoC4/ble.c ****             uint8 defaultValuesCCCD[CYBLE_GATT_DB_CCCD_COUNT] = {0u};
 647:Generated_Source\PSoC4/ble.c ****             
 648:Generated_Source\PSoC4/ble.c ****             apiResult = CyBle_StoreAppData(defaultValuesCCCD, cyBle_flashStorage.attValuesCCCDFlash
 649:Generated_Source\PSoC4/ble.c ****                                     cyBle_pendingFlashClearCccdHandle], CYBLE_GATT_DB_CCCD_COUNT, i
 650:Generated_Source\PSoC4/ble.c ****             if(apiResult == CYBLE_ERROR_OK)
 651:Generated_Source\PSoC4/ble.c ****             {
 652:Generated_Source\PSoC4/ble.c ****                 cyBle_pendingFlashWrite &= (uint8)~CYBLE_PENDING_CCCD_FLASH_CLEAR_BIT;
 653:Generated_Source\PSoC4/ble.c ****             }
 654:Generated_Source\PSoC4/ble.c ****         }
 655:Generated_Source\PSoC4/ble.c ****     }
 656:Generated_Source\PSoC4/ble.c **** #endif /* CYBLE_GATT_DB_CCCD_COUNT != 0u */
 657:Generated_Source\PSoC4/ble.c ****     return(apiResult);
 658:Generated_Source\PSoC4/ble.c **** }
ARM GAS  C:\Users\Art\AppData\Local\Temp\ccqpb62o.s 			page 13


 659:Generated_Source\PSoC4/ble.c **** 
 660:Generated_Source\PSoC4/ble.c **** 
 661:Generated_Source\PSoC4/ble.c **** /******************************************************************************
 662:Generated_Source\PSoC4/ble.c **** * Function Name: CyBle_GapRemoveBondedDevice
 663:Generated_Source\PSoC4/ble.c **** ***************************************************************************//**
 664:Generated_Source\PSoC4/ble.c **** * 
 665:Generated_Source\PSoC4/ble.c **** *  This function marks the device untrusted. It removes the bonding information
 666:Generated_Source\PSoC4/ble.c **** *  of the device including CCCD values. This function removes device from the
 667:Generated_Source\PSoC4/ble.c **** *  white list also when autopopulate white list with bonded devices option is
 668:Generated_Source\PSoC4/ble.c **** *  enabled.
 669:Generated_Source\PSoC4/ble.c **** * 
 670:Generated_Source\PSoC4/ble.c **** *  This function is available only when Bonding requirement is selected in
 671:Generated_Source\PSoC4/ble.c **** *  Security settings.    
 672:Generated_Source\PSoC4/ble.c **** *
 673:Generated_Source\PSoC4/ble.c **** *  \param bdAddr: Pointer to peer device address, of type CYBLE_GAP_BD_ADDR_T.
 674:Generated_Source\PSoC4/ble.c **** *                 If device address is set to 0, then all devices shall be
 675:Generated_Source\PSoC4/ble.c **** *                 removed from trusted list and white list.
 676:Generated_Source\PSoC4/ble.c **** *
 677:Generated_Source\PSoC4/ble.c **** * \return
 678:Generated_Source\PSoC4/ble.c **** *  CYBLE_API_RESULT_T : Return value indicates if the function succeeded or
 679:Generated_Source\PSoC4/ble.c **** *  failed. Following are the possible error codes.
 680:Generated_Source\PSoC4/ble.c **** *
 681:Generated_Source\PSoC4/ble.c **** *   Errors codes                     | Description
 682:Generated_Source\PSoC4/ble.c **** *   ---------------------------------| ------------------------------------
 683:Generated_Source\PSoC4/ble.c **** *   CYBLE_ERROR_OK                   | On successful operation.
 684:Generated_Source\PSoC4/ble.c **** *   CYBLE_ERROR_INVALID_PARAMETER    | On specifying NULL as input parameter for 'bdAddr'.
 685:Generated_Source\PSoC4/ble.c **** *   CYBLE_ERROR_INVALID_OPERATION    | Whitelist is already in use or there is pending write to fla
 686:Generated_Source\PSoC4/ble.c **** *   CYBLE_ERROR_NO_DEVICE_ENTITY     | Device does not exist in the bond list.
 687:Generated_Source\PSoC4/ble.c **** *
 688:Generated_Source\PSoC4/ble.c **** *  \globalvars
 689:Generated_Source\PSoC4/ble.c **** *   The bdHandle is set in cyBle_pendingFlashWrite variable to indicate that
 690:Generated_Source\PSoC4/ble.c **** *   data should be stored to flash by CyBle_StoreBondingData afterwards. 
 691:Generated_Source\PSoC4/ble.c **** *     
 692:Generated_Source\PSoC4/ble.c **** ******************************************************************************/
 693:Generated_Source\PSoC4/ble.c **** CYBLE_API_RESULT_T CyBle_GapRemoveBondedDevice(CYBLE_GAP_BD_ADDR_T* bdAddr)
 694:Generated_Source\PSoC4/ble.c **** {
 695:Generated_Source\PSoC4/ble.c ****     CYBLE_API_RESULT_T apiResult = CYBLE_ERROR_OK;
 696:Generated_Source\PSoC4/ble.c ****     
 697:Generated_Source\PSoC4/ble.c ****     if(cyBle_pendingFlashWrite == 0u)
 698:Generated_Source\PSoC4/ble.c ****     {
 699:Generated_Source\PSoC4/ble.c ****         
 700:Generated_Source\PSoC4/ble.c ****     #if(CYBLE_GATT_DB_CCCD_COUNT != 0u)
 701:Generated_Source\PSoC4/ble.c ****         /* Request to clear CCCD values which will be done by CyBle_StoreBondingData API */
 702:Generated_Source\PSoC4/ble.c ****         uint8 bDevHandle;
 703:Generated_Source\PSoC4/ble.c ****         CYBLE_GAP_BD_ADDR_T invalidBdAddr = {{0u,0u,0u,0u,0u,0u}, 0u};
 704:Generated_Source\PSoC4/ble.c **** 
 705:Generated_Source\PSoC4/ble.c ****         if(memcmp(((uint8 *) &(bdAddr->bdAddr)), ((uint8 *) &(invalidBdAddr.bdAddr)), CYBLE_GAP_BD_
 706:Generated_Source\PSoC4/ble.c **** 	    {
 707:Generated_Source\PSoC4/ble.c ****             /* Request to remove all bonded devices by cyBle_StoreBondingData API */
 708:Generated_Source\PSoC4/ble.c ****             cyBle_pendingFlashWrite |= CYBLE_PENDING_CCCD_FLASH_CLEAR_ALL_BIT;
 709:Generated_Source\PSoC4/ble.c ****         }
 710:Generated_Source\PSoC4/ble.c ****         else
 711:Generated_Source\PSoC4/ble.c ****         {
 712:Generated_Source\PSoC4/ble.c ****             /* Get the BD handle from Address */
 713:Generated_Source\PSoC4/ble.c ****             apiResult = CyBle_GapGetPeerBdHandle(&bDevHandle, bdAddr);
 714:Generated_Source\PSoC4/ble.c ****             if(apiResult == CYBLE_ERROR_OK)
 715:Generated_Source\PSoC4/ble.c ****             {
ARM GAS  C:\Users\Art\AppData\Local\Temp\ccqpb62o.s 			page 14


 716:Generated_Source\PSoC4/ble.c ****                 /* Store BD handle to clear cccd values by CyBle_StoreBondingData API */
 717:Generated_Source\PSoC4/ble.c ****                 cyBle_pendingFlashWrite |= CYBLE_PENDING_CCCD_FLASH_CLEAR_BIT;
 718:Generated_Source\PSoC4/ble.c ****                 cyBle_pendingFlashClearCccdHandle = bDevHandle;
 719:Generated_Source\PSoC4/ble.c ****             }
 720:Generated_Source\PSoC4/ble.c ****         }
 721:Generated_Source\PSoC4/ble.c ****     #endif /* CYBLE_GATT_DB_CCCD_COUNT != 0u */
 722:Generated_Source\PSoC4/ble.c ****         if(apiResult == CYBLE_ERROR_OK)
 723:Generated_Source\PSoC4/ble.c ****         {
 724:Generated_Source\PSoC4/ble.c ****             apiResult = CyBle_GapRemoveDeviceFromWhiteList(bdAddr);
 725:Generated_Source\PSoC4/ble.c ****         }
 726:Generated_Source\PSoC4/ble.c ****     }
 727:Generated_Source\PSoC4/ble.c ****     else
 728:Generated_Source\PSoC4/ble.c ****     {
 729:Generated_Source\PSoC4/ble.c ****         apiResult = CYBLE_ERROR_INVALID_OPERATION;
 730:Generated_Source\PSoC4/ble.c ****     }
 731:Generated_Source\PSoC4/ble.c ****     
 732:Generated_Source\PSoC4/ble.c ****     return(apiResult);
 733:Generated_Source\PSoC4/ble.c **** }
 734:Generated_Source\PSoC4/ble.c **** 
 735:Generated_Source\PSoC4/ble.c **** 
 736:Generated_Source\PSoC4/ble.c **** #endif /* (CYBLE_GAP_ROLE_PERIPHERAL || CYBLE_GAP_ROLE_CENTRAL) && (CYBLE_BONDING_REQUIREMENT == CY
 737:Generated_Source\PSoC4/ble.c **** 
 738:Generated_Source\PSoC4/ble.c **** 
 739:Generated_Source\PSoC4/ble.c **** #if(CYBLE_GAP_ROLE_PERIPHERAL || CYBLE_GAP_ROLE_BROADCASTER)
 740:Generated_Source\PSoC4/ble.c **** 
 741:Generated_Source\PSoC4/ble.c ****     /******************************************************************************
 742:Generated_Source\PSoC4/ble.c ****     *  Function Name: CyBle_GappStartAdvertisement
 743:Generated_Source\PSoC4/ble.c ****     ***************************************************************************//**
 744:Generated_Source\PSoC4/ble.c ****     *     
 745:Generated_Source\PSoC4/ble.c ****     *  This function is used to start the advertisement using the advertisement data 
 746:Generated_Source\PSoC4/ble.c ****     *  set in the component customizer's GUI. After invoking this API, the device 
 747:Generated_Source\PSoC4/ble.c ****     *  will be available for connection by the devices configured for GAP central 
 748:Generated_Source\PSoC4/ble.c ****     *  role. It is only included if the device is configured for GAP Peripheral or 
 749:Generated_Source\PSoC4/ble.c ****     *  GAP Peripheral + Central role.
 750:Generated_Source\PSoC4/ble.c ****     *  
 751:Generated_Source\PSoC4/ble.c ****     *  On start of advertisement, GAP Peripheral receives the
 752:Generated_Source\PSoC4/ble.c ****     *  CYBLE_EVT_GAPP_ADVERTISEMENT_START_STOP event. The following events are 
 753:Generated_Source\PSoC4/ble.c ****     *  possible on invoking this function:
 754:Generated_Source\PSoC4/ble.c ****     *  
 755:Generated_Source\PSoC4/ble.c ****     *  * CYBLE_EVT_GAP_DEVICE_CONNECTED - If the device connects to a GAP Central and 
 756:Generated_Source\PSoC4/ble.c ****     *    Link Layer Privacy is disabled in component customizer.
 757:Generated_Source\PSoC4/ble.c ****     *  * CYBLE_EVT_GAP_ENHANCE_CONN_COMPLETE - If the device connects to a GAP Central and 
 758:Generated_Source\PSoC4/ble.c ****     *    Link Layer Privacy is enabled in component customizer.
 759:Generated_Source\PSoC4/ble.c ****     *  * CYBLE_EVT_TIMEOUT: If no device in GAP Central mode connects to this 
 760:Generated_Source\PSoC4/ble.c ****     *                       device within the specified timeout limit. Stack 
 761:Generated_Source\PSoC4/ble.c ****     *                       automatically initiate stop advertising when Slow 
 762:Generated_Source\PSoC4/ble.c ****     *                       advertising was initiated, or starts Slow advertising
 763:Generated_Source\PSoC4/ble.c ****     *                       after Fast advertising timeout occur.
 764:Generated_Source\PSoC4/ble.c ****     *  * CYBLE_EVT_GAPP_ADVERTISEMENT_START_STOP: If device started or stopped
 765:Generated_Source\PSoC4/ble.c ****     *                                               advertising. Use CyBle_GetState()
 766:Generated_Source\PSoC4/ble.c ****     *                                               to determine the state. Sequential 
 767:Generated_Source\PSoC4/ble.c ****     *                                               advertising could be started when
 768:Generated_Source\PSoC4/ble.c ****     *                                               CYBLE_STATE_DISCONNECTED state is
 769:Generated_Source\PSoC4/ble.c ****     *                                               returned.
 770:Generated_Source\PSoC4/ble.c ****     * 
 771:Generated_Source\PSoC4/ble.c ****     *  \param advertisingIntervalType: Fast or slow advertising interval with timings
 772:Generated_Source\PSoC4/ble.c ****     *                                 entered in Advertising settings section of the
ARM GAS  C:\Users\Art\AppData\Local\Temp\ccqpb62o.s 			page 15


 773:Generated_Source\PSoC4/ble.c ****     *                                 customizer.
 774:Generated_Source\PSoC4/ble.c ****     *  * CYBLE_ADVERTISING_FAST   0x00u
 775:Generated_Source\PSoC4/ble.c ****     *  * CYBLE_ADVERTISING_SLOW   0x01u
 776:Generated_Source\PSoC4/ble.c ****     *  * CYBLE_ADVERTISING_CUSTOM 0x02u
 777:Generated_Source\PSoC4/ble.c ****     * 
 778:Generated_Source\PSoC4/ble.c ****     * \return
 779:Generated_Source\PSoC4/ble.c ****     *  CYBLE_API_RESULT_T : Return value indicates if the function succeeded or
 780:Generated_Source\PSoC4/ble.c ****     *  failed. Following are the possible error codes.
 781:Generated_Source\PSoC4/ble.c ****     * 
 782:Generated_Source\PSoC4/ble.c ****     *   Errors codes                      |  Description
 783:Generated_Source\PSoC4/ble.c ****     *   --------------------------------- |  --------------------------------
 784:Generated_Source\PSoC4/ble.c ****     *   CYBLE_ERROR_OK                    |  On successful operation.
 785:Generated_Source\PSoC4/ble.c ****     *   CYBLE_ERROR_INVALID_PARAMETER     |  On passing an invalid parameter.
 786:Generated_Source\PSoC4/ble.c ****     *   CYBLE_ERROR_INVALID_STATE         |  On calling this API not in Disconnected state.
 787:Generated_Source\PSoC4/ble.c ****     *
 788:Generated_Source\PSoC4/ble.c ****     * 
 789:Generated_Source\PSoC4/ble.c ****     *******************************************************************************/
 790:Generated_Source\PSoC4/ble.c ****     CYBLE_API_RESULT_T CyBle_GappStartAdvertisement(uint8 advertisingIntervalType)
 791:Generated_Source\PSoC4/ble.c ****     {
 792:Generated_Source\PSoC4/ble.c ****         CYBLE_API_RESULT_T apiResult;
 793:Generated_Source\PSoC4/ble.c ****         
 794:Generated_Source\PSoC4/ble.c ****         if(advertisingIntervalType > CYBLE_ADVERTISING_CUSTOM)
 795:Generated_Source\PSoC4/ble.c ****         {
 796:Generated_Source\PSoC4/ble.c ****             apiResult = CYBLE_ERROR_INVALID_PARAMETER;
 797:Generated_Source\PSoC4/ble.c ****         }
 798:Generated_Source\PSoC4/ble.c ****         else if((CYBLE_STATE_DISCONNECTED == CyBle_GetState()) && ((cyBle_eventHandlerFlag & CYBLE_
 799:Generated_Source\PSoC4/ble.c ****         {   
 800:Generated_Source\PSoC4/ble.c ****             if(advertisingIntervalType == CYBLE_ADVERTISING_FAST)
 801:Generated_Source\PSoC4/ble.c ****             {
 802:Generated_Source\PSoC4/ble.c ****                 cyBle_discoveryModeInfo.advTo = CYBLE_FAST_ADV_TIMEOUT;
 803:Generated_Source\PSoC4/ble.c ****                 cyBle_discoveryModeInfo.advParam->advIntvMin = CYBLE_FAST_ADV_INT_MIN;
 804:Generated_Source\PSoC4/ble.c ****                 cyBle_discoveryModeInfo.advParam->advIntvMax = CYBLE_FAST_ADV_INT_MAX;
 805:Generated_Source\PSoC4/ble.c ****             }
 806:Generated_Source\PSoC4/ble.c ****             else if(advertisingIntervalType == CYBLE_ADVERTISING_SLOW)
 807:Generated_Source\PSoC4/ble.c ****             {
 808:Generated_Source\PSoC4/ble.c ****                 cyBle_discoveryModeInfo.advTo = CYBLE_SLOW_ADV_TIMEOUT;
 809:Generated_Source\PSoC4/ble.c ****                 cyBle_discoveryModeInfo.advParam->advIntvMin = CYBLE_SLOW_ADV_INT_MIN;
 810:Generated_Source\PSoC4/ble.c ****                 cyBle_discoveryModeInfo.advParam->advIntvMax = CYBLE_SLOW_ADV_INT_MAX;
 811:Generated_Source\PSoC4/ble.c ****             }       
 812:Generated_Source\PSoC4/ble.c ****             else /* Do not update advertising intervals */
 813:Generated_Source\PSoC4/ble.c ****             {
 814:Generated_Source\PSoC4/ble.c ****             }
 815:Generated_Source\PSoC4/ble.c ****             cyBle_advertisingIntervalType = advertisingIntervalType;
 816:Generated_Source\PSoC4/ble.c ****             apiResult = CyBle_GappEnterDiscoveryMode(&cyBle_discoveryModeInfo);
 817:Generated_Source\PSoC4/ble.c ****         
 818:Generated_Source\PSoC4/ble.c ****             if(apiResult == CYBLE_ERROR_OK)
 819:Generated_Source\PSoC4/ble.c ****             {
 820:Generated_Source\PSoC4/ble.c ****                 cyBle_eventHandlerFlag |= CYBLE_START_FLAG;
 821:Generated_Source\PSoC4/ble.c ****             }
 822:Generated_Source\PSoC4/ble.c ****         }
 823:Generated_Source\PSoC4/ble.c ****         else
 824:Generated_Source\PSoC4/ble.c ****         {
 825:Generated_Source\PSoC4/ble.c ****             apiResult = CYBLE_ERROR_INVALID_STATE;
 826:Generated_Source\PSoC4/ble.c ****         }
 827:Generated_Source\PSoC4/ble.c **** 
 828:Generated_Source\PSoC4/ble.c ****         return (apiResult);
 829:Generated_Source\PSoC4/ble.c ****     }
ARM GAS  C:\Users\Art\AppData\Local\Temp\ccqpb62o.s 			page 16


 830:Generated_Source\PSoC4/ble.c **** 
 831:Generated_Source\PSoC4/ble.c ****     
 832:Generated_Source\PSoC4/ble.c ****     /******************************************************************************
 833:Generated_Source\PSoC4/ble.c ****     * Function Name: CyBle_GappStopAdvertisement
 834:Generated_Source\PSoC4/ble.c ****     ***************************************************************************//**
 835:Generated_Source\PSoC4/ble.c ****     * 
 836:Generated_Source\PSoC4/ble.c ****     *   This function can be used to exit from discovery mode. After the execution 
 837:Generated_Source\PSoC4/ble.c ****     *   of this function, there will no longer be any advertisements. On stopping 
 838:Generated_Source\PSoC4/ble.c ****     *   advertising, GAP Peripheral receives CYBLE_EVT_GAPP_ADVERTISEMENT_START_STOP
 839:Generated_Source\PSoC4/ble.c ****     *   event. It is expected that the application layer tracks the function call 
 840:Generated_Source\PSoC4/ble.c ****     *   performed before occurrence of this event as this event can occur on making 
 841:Generated_Source\PSoC4/ble.c ****     *   a call to Cy_BleGappStartAdvertisement(), CyBle_GappEnterDiscoveryMode(), 
 842:Generated_Source\PSoC4/ble.c ****     *   or CyBle_GappStartAdvertisement() functions as well.
 843:Generated_Source\PSoC4/ble.c ****     *   
 844:Generated_Source\PSoC4/ble.c ****     *   The following event occurs on invoking this function:
 845:Generated_Source\PSoC4/ble.c ****     *   * CYBLE_EVT_GAPP_ADVERTISEMENT_START_STOP
 846:Generated_Source\PSoC4/ble.c ****     * 
 847:Generated_Source\PSoC4/ble.c ****     *  \return
 848:Generated_Source\PSoC4/ble.c ****     *   None
 849:Generated_Source\PSoC4/ble.c ****     * 
 850:Generated_Source\PSoC4/ble.c ****     *******************************************************************************/
 851:Generated_Source\PSoC4/ble.c ****     void CyBle_GappStopAdvertisement(void)
 852:Generated_Source\PSoC4/ble.c ****     {
 853:Generated_Source\PSoC4/ble.c ****         CyBle_GappExitDiscoveryMode();
 854:Generated_Source\PSoC4/ble.c ****         cyBle_eventHandlerFlag |= CYBLE_STOP_FLAG;
 855:Generated_Source\PSoC4/ble.c ****     }
 856:Generated_Source\PSoC4/ble.c ****     
 857:Generated_Source\PSoC4/ble.c ****     
 858:Generated_Source\PSoC4/ble.c ****     /******************************************************************************
 859:Generated_Source\PSoC4/ble.c ****     * Function Name: CyBle_ChangeAdDeviceAddress
 860:Generated_Source\PSoC4/ble.c ****     ***************************************************************************//**
 861:Generated_Source\PSoC4/ble.c ****     * 
 862:Generated_Source\PSoC4/ble.c ****     *  This API is used to set the Bluetooth device address into the advertisement 
 863:Generated_Source\PSoC4/ble.c ****     *  or scan response data structure.
 864:Generated_Source\PSoC4/ble.c ****     * 
 865:Generated_Source\PSoC4/ble.c ****     *  \param bdAddr: Bluetooth Device address. The variable is of type CYBLE_GAP_BD_ADDR_T
 866:Generated_Source\PSoC4/ble.c ****     *  \param dest: 0 - selects advertisement structure, not zero value selects scan 
 867:Generated_Source\PSoC4/ble.c ****     *               response structure.
 868:Generated_Source\PSoC4/ble.c ****     * 
 869:Generated_Source\PSoC4/ble.c ****     * \return
 870:Generated_Source\PSoC4/ble.c ****     *  None
 871:Generated_Source\PSoC4/ble.c ****     *  
 872:Generated_Source\PSoC4/ble.c ****     *******************************************************************************/
 873:Generated_Source\PSoC4/ble.c ****     void CyBle_ChangeAdDeviceAddress(const CYBLE_GAP_BD_ADDR_T* bdAddr, uint8 dest)
 874:Generated_Source\PSoC4/ble.c ****     {
 875:Generated_Source\PSoC4/ble.c ****         uint8 i;
 876:Generated_Source\PSoC4/ble.c ****         uint8 *destBuffer = NULL;
 877:Generated_Source\PSoC4/ble.c ****         
 878:Generated_Source\PSoC4/ble.c ****         if(dest == 0u)      /* Destination - advertising structure */
 879:Generated_Source\PSoC4/ble.c ****         {
 880:Generated_Source\PSoC4/ble.c ****             #ifdef CYBLE_ADV_PKT_INDEX_BLUETOOTH_DEVICE_ADDRESS
 881:Generated_Source\PSoC4/ble.c ****                 destBuffer = &cyBle_discoveryData.advData[CYBLE_ADV_PKT_INDEX_BLUETOOTH_DEVICE_ADDR
 882:Generated_Source\PSoC4/ble.c ****             #endif /* CYBLE_ADV_PKT_INDEX_BLUETOOTH_DEVICE_ADDRESS */
 883:Generated_Source\PSoC4/ble.c ****         }
 884:Generated_Source\PSoC4/ble.c ****         else                /* Destination - scan response structure */
 885:Generated_Source\PSoC4/ble.c ****         {
 886:Generated_Source\PSoC4/ble.c ****             #ifdef CYBLE_SCN_PKT_INDEX_BLUETOOTH_DEVICE_ADDRESS
ARM GAS  C:\Users\Art\AppData\Local\Temp\ccqpb62o.s 			page 17


 887:Generated_Source\PSoC4/ble.c ****                 destBuffer = &cyBle_scanRspData.scanRspData[CYBLE_SCN_PKT_INDEX_BLUETOOTH_DEVICE_AD
 888:Generated_Source\PSoC4/ble.c ****             #endif /* CYBLE_SCN_PKT_INDEX_BLUETOOTH_DEVICE_ADDRESS */    
 889:Generated_Source\PSoC4/ble.c ****         }
 890:Generated_Source\PSoC4/ble.c ****         
 891:Generated_Source\PSoC4/ble.c ****         if(destBuffer != NULL)
 892:Generated_Source\PSoC4/ble.c ****         {
 893:Generated_Source\PSoC4/ble.c ****             /* Update Device Address type */
 894:Generated_Source\PSoC4/ble.c ****             destBuffer[0u] = bdAddr->type;
 895:Generated_Source\PSoC4/ble.c ****             
 896:Generated_Source\PSoC4/ble.c ****             for(i = 0u; i < CYBLE_GAP_BD_ADDR_SIZE; i++)
 897:Generated_Source\PSoC4/ble.c ****             {
 898:Generated_Source\PSoC4/ble.c ****                 destBuffer[i + 1u] = bdAddr->bdAddr[i];
 899:Generated_Source\PSoC4/ble.c ****             }
 900:Generated_Source\PSoC4/ble.c ****         }
 901:Generated_Source\PSoC4/ble.c ****     }
 902:Generated_Source\PSoC4/ble.c ****   
 903:Generated_Source\PSoC4/ble.c **** #endif /* CYBLE_GAP_ROLE_PERIPHERAL || CYBLE_GAP_ROLE_BROADCASTER */
 904:Generated_Source\PSoC4/ble.c **** 
 905:Generated_Source\PSoC4/ble.c **** 
 906:Generated_Source\PSoC4/ble.c **** #if(CYBLE_GAP_ROLE_CENTRAL || CYBLE_GAP_ROLE_OBSERVER)
 907:Generated_Source\PSoC4/ble.c **** 
 908:Generated_Source\PSoC4/ble.c ****     /******************************************************************************
 909:Generated_Source\PSoC4/ble.c ****     * Function Name: CyBle_GapcStartScan
 910:Generated_Source\PSoC4/ble.c ****     ***************************************************************************//**
 911:Generated_Source\PSoC4/ble.c ****     * 
 912:Generated_Source\PSoC4/ble.c ****     *   This function is used for discovering GAP peripheral devices that are 
 913:Generated_Source\PSoC4/ble.c ****     *   available for connection. It performs the scanning routine using the 
 914:Generated_Source\PSoC4/ble.c ****     *   parameters entered in the component's customizer.
 915:Generated_Source\PSoC4/ble.c ****     *   
 916:Generated_Source\PSoC4/ble.c ****     *   As soon as the discovery operation starts, CYBLE_EVT_GAPC_SCAN_START_STOP 
 917:Generated_Source\PSoC4/ble.c ****     *   event is generated. The CYBLE_EVT_GAPC_SCAN_PROGRESS_RESULT event is 
 918:Generated_Source\PSoC4/ble.c ****     *   generated when a GAP peripheral device is located. There are three discovery
 919:Generated_Source\PSoC4/ble.c ****     *   procedures can be selected in the customizer's GUI:
 920:Generated_Source\PSoC4/ble.c ****     *   
 921:Generated_Source\PSoC4/ble.c ****     *   * Observation procedure: A device performing the observer role receives only
 922:Generated_Source\PSoC4/ble.c ****     *                            advertisement data from devices irrespective of 
 923:Generated_Source\PSoC4/ble.c ****     *                            their discoverable mode settings. Advertisement 
 924:Generated_Source\PSoC4/ble.c ****     *                            data received is provided by the event,      
 925:Generated_Source\PSoC4/ble.c ****     *                            CYBLE_EVT_GAPC_SCAN_PROGRESS_RESULT. This procedure
 926:Generated_Source\PSoC4/ble.c ****     *                            requires the scanType sub parameter to be passive
 927:Generated_Source\PSoC4/ble.c ****     *                            scanning. 
 928:Generated_Source\PSoC4/ble.c ****     *   
 929:Generated_Source\PSoC4/ble.c ****     *   * Limited Discovery procedure: A device performing the limited discovery
 930:Generated_Source\PSoC4/ble.c ****     *                                  procedure receives advertisement data and 
 931:Generated_Source\PSoC4/ble.c ****     *                                  scan# response data from devices in the 
 932:Generated_Source\PSoC4/ble.c ****     *                                  limited discoverable mode only. Received data
 933:Generated_Source\PSoC4/ble.c ****     *                                  is provided by the event, 
 934:Generated_Source\PSoC4/ble.c ****     *                                  CYBLE_EVT_GAPC_SCAN_PROGRESS_RESULT. This 
 935:Generated_Source\PSoC4/ble.c ****     *                                  procedure requires the scanType sub-parameter 
 936:Generated_Source\PSoC4/ble.c ****     *                                  to be active scanning.
 937:Generated_Source\PSoC4/ble.c ****     *   
 938:Generated_Source\PSoC4/ble.c ****     *   * General Discovery procedure: A device performing the general discovery 
 939:Generated_Source\PSoC4/ble.c ****     *                                  procedure receives the advertisement data and
 940:Generated_Source\PSoC4/ble.c ****     *                                  scan response data from devices in both 
 941:Generated_Source\PSoC4/ble.c ****     *                                  limited discoverable mode and the general 
 942:Generated_Source\PSoC4/ble.c ****     *                                  discoverable mode. Received data is provided
 943:Generated_Source\PSoC4/ble.c ****     *                                  by the event,
ARM GAS  C:\Users\Art\AppData\Local\Temp\ccqpb62o.s 			page 18


 944:Generated_Source\PSoC4/ble.c ****     *                                  CYBLE_EVT_GAPC_SCAN_PROGRESS_RESULT. This 
 945:Generated_Source\PSoC4/ble.c ****     *                                  procedure requires the scanType sub-parameter
 946:Generated_Source\PSoC4/ble.c ****     *                                  to be active scanning.
 947:Generated_Source\PSoC4/ble.c ****     *   
 948:Generated_Source\PSoC4/ble.c ****     *   Every Advertisement / Scan response packet received results in a new event, 
 949:Generated_Source\PSoC4/ble.c ****     *   CYBLE_EVT_GAPC_SCAN_PROGRESS_RESULT.
 950:Generated_Source\PSoC4/ble.c ****     *   If 'scanTo' sub-parameter is a non-zero value, then upon commencement of 
 951:Generated_Source\PSoC4/ble.c ****     *   discovery procedure and elapsed time = 'scanTo', CYBLE_EVT_TIMEOUT event
 952:Generated_Source\PSoC4/ble.c ****     *   is generated with the event parameter indicating CYBLE_GAP_SCAN_TO.
 953:Generated_Source\PSoC4/ble.c ****     *   Possible generated events are:
 954:Generated_Source\PSoC4/ble.c ****     *   * CYBLE_EVT_GAPC_SCAN_START_STOP: If a device started or stopped scanning. 
 955:Generated_Source\PSoC4/ble.c ****     *                                     Use CyBle_GetState() to determine the 
 956:Generated_Source\PSoC4/ble.c ****     *                                     state. Sequential scanning could be 
 957:Generated_Source\PSoC4/ble.c ****     *                                     started when CYBLE_STATE_DISCONNECTED 
 958:Generated_Source\PSoC4/ble.c ****     *                                     state is returned. 
 959:Generated_Source\PSoC4/ble.c ****     *   * CYBLE_EVT_GAPC_SCAN_PROGRESS_RESULT 
 960:Generated_Source\PSoC4/ble.c ****     *   * CYBLE_EVT_TIMEOUT (CYBLE_GAP_SCAN_TO)
 961:Generated_Source\PSoC4/ble.c ****     * 
 962:Generated_Source\PSoC4/ble.c ****     *   \param scanningIntervalType:  Fast or slow scanning interval with
 963:Generated_Source\PSoC4/ble.c ****     *       timings entered in Scan settings section of the customizer.
 964:Generated_Source\PSoC4/ble.c ****     * 	  * CYBLE_SCANNING_FAST   0x00u
 965:Generated_Source\PSoC4/ble.c ****     * 	  * CYBLE_SCANNING_SLOW   0x01u
 966:Generated_Source\PSoC4/ble.c ****     * 	  * CYBLE_SCANNING_CUSTOM 0x02u
 967:Generated_Source\PSoC4/ble.c ****     * 
 968:Generated_Source\PSoC4/ble.c ****     * \return
 969:Generated_Source\PSoC4/ble.c ****     *  CYBLE_API_RESULT_T : Return value indicates if the function succeeded or
 970:Generated_Source\PSoC4/ble.c ****     *  failed. Following are the possible error codes.
 971:Generated_Source\PSoC4/ble.c ****     *
 972:Generated_Source\PSoC4/ble.c ****     *   Errors codes                       | Description
 973:Generated_Source\PSoC4/ble.c ****     *   ---------------------------------- | -----------------------------------
 974:Generated_Source\PSoC4/ble.c ****     *   CYBLE_ERROR_OK                     | On successful operation.
 975:Generated_Source\PSoC4/ble.c ****     *   CYBLE_ERROR_STACK_INTERNAL         | An error occurred in the BLE stack.
 976:Generated_Source\PSoC4/ble.c ****     *   CYBLE_ERROR_INVALID_PARAMETER      | On passing an invalid parameter.
 977:Generated_Source\PSoC4/ble.c ****     *  
 978:Generated_Source\PSoC4/ble.c ****     *******************************************************************************/
 979:Generated_Source\PSoC4/ble.c ****     CYBLE_API_RESULT_T CyBle_GapcStartScan(uint8 scanningIntervalType)
 980:Generated_Source\PSoC4/ble.c ****     {
 981:Generated_Source\PSoC4/ble.c ****         CYBLE_API_RESULT_T apiResult;
 982:Generated_Source\PSoC4/ble.c **** 
 983:Generated_Source\PSoC4/ble.c ****         if(scanningIntervalType > CYBLE_SCANNING_CUSTOM)
 984:Generated_Source\PSoC4/ble.c ****         {
 985:Generated_Source\PSoC4/ble.c ****             apiResult = CYBLE_ERROR_INVALID_PARAMETER;
 986:Generated_Source\PSoC4/ble.c ****         }
 987:Generated_Source\PSoC4/ble.c ****         else
 988:Generated_Source\PSoC4/ble.c ****         {
 989:Generated_Source\PSoC4/ble.c ****             if(scanningIntervalType == CYBLE_SCANNING_FAST)
 990:Generated_Source\PSoC4/ble.c ****             {
 991:Generated_Source\PSoC4/ble.c ****                 cyBle_discoveryInfo.scanTo = CYBLE_FAST_SCAN_TIMEOUT;
 992:Generated_Source\PSoC4/ble.c ****                 cyBle_discoveryInfo.scanIntv = CYBLE_FAST_SCAN_INTERVAL;
 993:Generated_Source\PSoC4/ble.c ****                 cyBle_discoveryInfo.scanWindow = CYBLE_FAST_SCAN_WINDOW;
 994:Generated_Source\PSoC4/ble.c ****             }
 995:Generated_Source\PSoC4/ble.c ****             else if(scanningIntervalType == CYBLE_SCANNING_SLOW)
 996:Generated_Source\PSoC4/ble.c ****             {
 997:Generated_Source\PSoC4/ble.c ****                 cyBle_discoveryInfo.scanTo = CYBLE_SLOW_SCAN_TIMEOUT;
 998:Generated_Source\PSoC4/ble.c ****                 cyBle_discoveryInfo.scanIntv = CYBLE_SLOW_SCAN_INTERVAL;
 999:Generated_Source\PSoC4/ble.c ****                 cyBle_discoveryInfo.scanWindow = CYBLE_SLOW_SCAN_WINDOW;
1000:Generated_Source\PSoC4/ble.c ****             }       
ARM GAS  C:\Users\Art\AppData\Local\Temp\ccqpb62o.s 			page 19


1001:Generated_Source\PSoC4/ble.c ****             else /* Do not update scanning intervals */
1002:Generated_Source\PSoC4/ble.c ****             {
1003:Generated_Source\PSoC4/ble.c ****             }
1004:Generated_Source\PSoC4/ble.c ****             
1005:Generated_Source\PSoC4/ble.c ****             cyBle_scanningIntervalType = scanningIntervalType;
1006:Generated_Source\PSoC4/ble.c ****             apiResult = CyBle_GapcStartDiscovery(&cyBle_discoveryInfo);
1007:Generated_Source\PSoC4/ble.c ****         
1008:Generated_Source\PSoC4/ble.c ****             if(apiResult == CYBLE_ERROR_OK)
1009:Generated_Source\PSoC4/ble.c ****             {
1010:Generated_Source\PSoC4/ble.c ****                 cyBle_eventHandlerFlag |= CYBLE_START_FLAG;
1011:Generated_Source\PSoC4/ble.c ****             }
1012:Generated_Source\PSoC4/ble.c ****         }
1013:Generated_Source\PSoC4/ble.c ****        
1014:Generated_Source\PSoC4/ble.c ****         return (apiResult);
1015:Generated_Source\PSoC4/ble.c ****     }
1016:Generated_Source\PSoC4/ble.c ****     
1017:Generated_Source\PSoC4/ble.c ****     
1018:Generated_Source\PSoC4/ble.c ****     /******************************************************************************
1019:Generated_Source\PSoC4/ble.c ****     * Function Name: CyBle_GapcStopScan
1020:Generated_Source\PSoC4/ble.c ****     ***************************************************************************//**
1021:Generated_Source\PSoC4/ble.c ****     * 
1022:Generated_Source\PSoC4/ble.c ****     *   This function used to stop the discovery of devices. On stopping discovery
1023:Generated_Source\PSoC4/ble.c ****     *   operation, CYBLE_EVT_GAPC_SCAN_START_STOP event is generated. Application
1024:Generated_Source\PSoC4/ble.c ****     *   layer needs to keep track of the function call made before receiving this
1025:Generated_Source\PSoC4/ble.c ****     *   event to associate this event with either the start or stop discovery
1026:Generated_Source\PSoC4/ble.c ****     *   function.
1027:Generated_Source\PSoC4/ble.c ****     * 
1028:Generated_Source\PSoC4/ble.c ****     *   Possible events generated are:
1029:Generated_Source\PSoC4/ble.c ****     *    * CYBLE_EVT_GAPC_SCAN_START_STOP
1030:Generated_Source\PSoC4/ble.c ****     * 
1031:Generated_Source\PSoC4/ble.c ****     *  \return
1032:Generated_Source\PSoC4/ble.c ****     *   None
1033:Generated_Source\PSoC4/ble.c ****     * 
1034:Generated_Source\PSoC4/ble.c ****     *******************************************************************************/
1035:Generated_Source\PSoC4/ble.c ****     void CyBle_GapcStopScan(void)
1036:Generated_Source\PSoC4/ble.c ****     {
1037:Generated_Source\PSoC4/ble.c ****         CyBle_GapcStopDiscovery();
1038:Generated_Source\PSoC4/ble.c ****         
1039:Generated_Source\PSoC4/ble.c ****         cyBle_eventHandlerFlag |= CYBLE_STOP_FLAG;
1040:Generated_Source\PSoC4/ble.c ****     }
1041:Generated_Source\PSoC4/ble.c **** 
1042:Generated_Source\PSoC4/ble.c ****     
1043:Generated_Source\PSoC4/ble.c **** #endif /* CYBLE_GAP_ROLE_CENTRAL || CYBLE_GAP_ROLE_OBSERVER */
1044:Generated_Source\PSoC4/ble.c **** 
1045:Generated_Source\PSoC4/ble.c **** 
1046:Generated_Source\PSoC4/ble.c **** #if(CYBLE_GAP_ROLE_CENTRAL)
1047:Generated_Source\PSoC4/ble.c **** 
1048:Generated_Source\PSoC4/ble.c ****     /******************************************************************************
1049:Generated_Source\PSoC4/ble.c ****     * Function Name: CyBle_GapcConnectDevice
1050:Generated_Source\PSoC4/ble.c ****     ***************************************************************************//**
1051:Generated_Source\PSoC4/ble.c ****     * 
1052:Generated_Source\PSoC4/ble.c ****     *  This function is used to send a connection request to the remote device with
1053:Generated_Source\PSoC4/ble.c ****     *  the connection parameters set in the component customizer. This function needs
1054:Generated_Source\PSoC4/ble.c ****     *  to be called only once after the target device is discovered by 
1055:Generated_Source\PSoC4/ble.c ****     *  CyBle_GapcStartScan() and further scanning has stopped. Scanning is 
1056:Generated_Source\PSoC4/ble.c ****     *  successfully stopped on invoking CyBle_GapcStopScan() and then receiving the
1057:Generated_Source\PSoC4/ble.c ****     *  event CYBLE_EVT_GAPC_SCAN_START_STOP with sub-parameter 'success' = 0x01u.
ARM GAS  C:\Users\Art\AppData\Local\Temp\ccqpb62o.s 			page 20


1058:Generated_Source\PSoC4/ble.c ****     *  
1059:Generated_Source\PSoC4/ble.c ****     *  On successful connection, the following events are generated at the GAP 
1060:Generated_Source\PSoC4/ble.c ****     *  Central device (as well as the GAP Peripheral device), in the following order.
1061:Generated_Source\PSoC4/ble.c ****     *  * CYBLE_EVT_GATT_CONNECT_IND
1062:Generated_Source\PSoC4/ble.c ****     *  * CYBLE_EVT_GAP_DEVICE_CONNECTED - If the device connects to a GAP Central and 
1063:Generated_Source\PSoC4/ble.c ****     *    Link Layer Privacy is disabled in component customizer.
1064:Generated_Source\PSoC4/ble.c ****     *  * CYBLE_EVT_GAP_ENHANCE_CONN_COMPLETE - If the device connects to a GAP Central and 
1065:Generated_Source\PSoC4/ble.c ****     *    Link Layer Privacy is enabled in component customizer.
1066:Generated_Source\PSoC4/ble.c ****     *  * CYBLE_EVT_GAP_DEVICE_CONNECTED
1067:Generated_Source\PSoC4/ble.c ****     *  
1068:Generated_Source\PSoC4/ble.c ****     *  A procedure is considered to have timed out if a connection response packet is 
1069:Generated_Source\PSoC4/ble.c ****     *  not received within time set by cyBle_connectingTimeout global variable
1070:Generated_Source\PSoC4/ble.c ****     *  (30 seconds by default). CYBLE_EVT_TIMEOUT event with CYBLE_GENERIC_TO parameter
1071:Generated_Source\PSoC4/ble.c ****     *  will indicate about connection procedure timeout. Connection will automatically
1072:Generated_Source\PSoC4/ble.c ****     *  be canceled and state will be changed to CYBLE_STATE_DISCONNECTED.
1073:Generated_Source\PSoC4/ble.c ****     * 
1074:Generated_Source\PSoC4/ble.c ****     *  \param address: The device address of the remote device to connect to. 
1075:Generated_Source\PSoC4/ble.c ****     *  
1076:Generated_Source\PSoC4/ble.c ****     * \return
1077:Generated_Source\PSoC4/ble.c ****     *  CYBLE_API_RESULT_T : Return value indicates if the function succeeded or 
1078:Generated_Source\PSoC4/ble.c ****     *  failed. Following are the possible error codes.
1079:Generated_Source\PSoC4/ble.c ****     *
1080:Generated_Source\PSoC4/ble.c ****     *   Errors codes                       | Description
1081:Generated_Source\PSoC4/ble.c ****     *   ------------                       | -----------
1082:Generated_Source\PSoC4/ble.c ****     *   CYBLE_ERROR_OK                     | On successful operation.
1083:Generated_Source\PSoC4/ble.c ****     *   CYBLE_ERROR_STACK_INTERNAL         | On error occurred in the BLE stack.
1084:Generated_Source\PSoC4/ble.c ****     *   CYBLE_ERROR_INVALID_PARAMETER      | On passing an invalid parameter.
1085:Generated_Source\PSoC4/ble.c ****     *   CYBLE_ERROR_INVALID_STATE          | On calling this API not in Disconnected state.
1086:Generated_Source\PSoC4/ble.c ****     *  
1087:Generated_Source\PSoC4/ble.c ****     ******************************************************************************/
1088:Generated_Source\PSoC4/ble.c ****     CYBLE_API_RESULT_T CyBle_GapcConnectDevice(const CYBLE_GAP_BD_ADDR_T * address)
1089:Generated_Source\PSoC4/ble.c ****     {
1090:Generated_Source\PSoC4/ble.c ****         CYBLE_API_RESULT_T apiResult;
1091:Generated_Source\PSoC4/ble.c ****         uint8 i;
1092:Generated_Source\PSoC4/ble.c **** 
1093:Generated_Source\PSoC4/ble.c ****         if(CyBle_GetState() != CYBLE_STATE_DISCONNECTED)
1094:Generated_Source\PSoC4/ble.c ****         {
1095:Generated_Source\PSoC4/ble.c ****             apiResult = CYBLE_ERROR_INVALID_STATE;
1096:Generated_Source\PSoC4/ble.c ****         }
1097:Generated_Source\PSoC4/ble.c ****         else if(address == NULL)
1098:Generated_Source\PSoC4/ble.c ****         {
1099:Generated_Source\PSoC4/ble.c ****             apiResult = CYBLE_ERROR_INVALID_PARAMETER;
1100:Generated_Source\PSoC4/ble.c ****         }
1101:Generated_Source\PSoC4/ble.c ****         else
1102:Generated_Source\PSoC4/ble.c ****         {
1103:Generated_Source\PSoC4/ble.c ****             for(i = 0u; i < CYBLE_GAP_BD_ADDR_SIZE; i++)
1104:Generated_Source\PSoC4/ble.c ****             {
1105:Generated_Source\PSoC4/ble.c ****                 cyBle_connectionParameters.peerBdAddr[i] = address->bdAddr[i];
1106:Generated_Source\PSoC4/ble.c ****             }
1107:Generated_Source\PSoC4/ble.c ****             cyBle_connectionParameters.peerAddrType = address -> type;
1108:Generated_Source\PSoC4/ble.c ****             apiResult = CyBle_GapcInitConnection(&cyBle_connectionParameters);
1109:Generated_Source\PSoC4/ble.c ****             
1110:Generated_Source\PSoC4/ble.c ****             if(apiResult == CYBLE_ERROR_OK)
1111:Generated_Source\PSoC4/ble.c ****             {
1112:Generated_Source\PSoC4/ble.c ****                 CyBle_SetState(CYBLE_STATE_CONNECTING);
1113:Generated_Source\PSoC4/ble.c ****                 if(cyBle_connectingTimeout != 0u)
1114:Generated_Source\PSoC4/ble.c ****                 {
ARM GAS  C:\Users\Art\AppData\Local\Temp\ccqpb62o.s 			page 21


1115:Generated_Source\PSoC4/ble.c ****                     (void)CyBle_StartTimer(cyBle_connectingTimeout);
1116:Generated_Source\PSoC4/ble.c ****                 }
1117:Generated_Source\PSoC4/ble.c ****             }
1118:Generated_Source\PSoC4/ble.c ****         }
1119:Generated_Source\PSoC4/ble.c ****         return (apiResult);
1120:Generated_Source\PSoC4/ble.c ****     }
1121:Generated_Source\PSoC4/ble.c ****     
1122:Generated_Source\PSoC4/ble.c **** 
1123:Generated_Source\PSoC4/ble.c ****     /******************************************************************************
1124:Generated_Source\PSoC4/ble.c ****     * Function Name: CyBle_GapcCancelDeviceConnection
1125:Generated_Source\PSoC4/ble.c ****     ***************************************************************************//**
1126:Generated_Source\PSoC4/ble.c ****     * 
1127:Generated_Source\PSoC4/ble.c ****     *  This function cancels a previously initiated connection with the remote 
1128:Generated_Source\PSoC4/ble.c ****     *  device. It is a blocking function. No event is generated on calling this 
1129:Generated_Source\PSoC4/ble.c ****     *  function. If the devices are already connected then this function should not
1130:Generated_Source\PSoC4/ble.c ****     *  be used. If you intend to disconnect from an existing connection, the function
1131:Generated_Source\PSoC4/ble.c ****     *  CyBle_GapDisconnect() should be used.
1132:Generated_Source\PSoC4/ble.c ****     * 
1133:Generated_Source\PSoC4/ble.c ****     * \return
1134:Generated_Source\PSoC4/ble.c ****     *  CYBLE_API_RESULT_T : Return value indicates if the function succeeded or 
1135:Generated_Source\PSoC4/ble.c ****     *  failed. Following are the possible error codes.
1136:Generated_Source\PSoC4/ble.c ****     *
1137:Generated_Source\PSoC4/ble.c ****     *   Errors codes                       | Description
1138:Generated_Source\PSoC4/ble.c ****     *   ---------------------------------- | --------------------------------------
1139:Generated_Source\PSoC4/ble.c ****     *   CYBLE_ERROR_OK                     | On successful operation.
1140:Generated_Source\PSoC4/ble.c ****     *   CYBLE_ERROR_STACK_INTERNAL         | An error occurred in the BLE stack.
1141:Generated_Source\PSoC4/ble.c ****     *   CYBLE_ERROR_INVALID_STATE          | On calling this API not in Connecting state.
1142:Generated_Source\PSoC4/ble.c ****     *  
1143:Generated_Source\PSoC4/ble.c ****     *******************************************************************************/
1144:Generated_Source\PSoC4/ble.c ****     CYBLE_API_RESULT_T CyBle_GapcCancelDeviceConnection(void)
1145:Generated_Source\PSoC4/ble.c ****     {
1146:Generated_Source\PSoC4/ble.c ****         CYBLE_API_RESULT_T apiResult;
1147:Generated_Source\PSoC4/ble.c ****         
1148:Generated_Source\PSoC4/ble.c ****         if(CyBle_GetState() != CYBLE_STATE_CONNECTING)
1149:Generated_Source\PSoC4/ble.c ****         {
1150:Generated_Source\PSoC4/ble.c ****             apiResult = CYBLE_ERROR_INVALID_STATE;
1151:Generated_Source\PSoC4/ble.c ****         }
1152:Generated_Source\PSoC4/ble.c ****         else 
1153:Generated_Source\PSoC4/ble.c ****         {
1154:Generated_Source\PSoC4/ble.c ****             apiResult = CyBle_GapcCancelConnection();
1155:Generated_Source\PSoC4/ble.c ****             
1156:Generated_Source\PSoC4/ble.c ****             if(cyBle_connectingTimeout != 0u)
1157:Generated_Source\PSoC4/ble.c ****             {
1158:Generated_Source\PSoC4/ble.c ****                 (void)CyBle_StopTimer();
1159:Generated_Source\PSoC4/ble.c ****             }
1160:Generated_Source\PSoC4/ble.c **** 
1161:Generated_Source\PSoC4/ble.c ****             if(apiResult == CYBLE_ERROR_OK)
1162:Generated_Source\PSoC4/ble.c ****             {
1163:Generated_Source\PSoC4/ble.c ****                 CyBle_SetState(CYBLE_STATE_DISCONNECTED);
1164:Generated_Source\PSoC4/ble.c ****             }
1165:Generated_Source\PSoC4/ble.c ****         }
1166:Generated_Source\PSoC4/ble.c ****         return (apiResult);
1167:Generated_Source\PSoC4/ble.c ****     }    
1168:Generated_Source\PSoC4/ble.c **** 
1169:Generated_Source\PSoC4/ble.c ****     
1170:Generated_Source\PSoC4/ble.c **** #endif /* CYBLE_GAP_ROLE_CENTRAL */
1171:Generated_Source\PSoC4/ble.c **** 
ARM GAS  C:\Users\Art\AppData\Local\Temp\ccqpb62o.s 			page 22


1172:Generated_Source\PSoC4/ble.c **** 
1173:Generated_Source\PSoC4/ble.c **** #if(CYBLE_GATT_ROLE_SERVER)
1174:Generated_Source\PSoC4/ble.c **** 
1175:Generated_Source\PSoC4/ble.c **** #if(CYBLE_GAP_ROLE_PERIPHERAL)
1176:Generated_Source\PSoC4/ble.c **** 
1177:Generated_Source\PSoC4/ble.c ****         /******************************************************************************
1178:Generated_Source\PSoC4/ble.c ****         * Function Name: CyBle_ChangeAdLocalName
1179:Generated_Source\PSoC4/ble.c ****         ***************************************************************************//**
1180:Generated_Source\PSoC4/ble.c ****         *  This API is used to set the local device name in the advertisement or scan 
1181:Generated_Source\PSoC4/ble.c ****         *  response data structure.
1182:Generated_Source\PSoC4/ble.c ****         * 
1183:Generated_Source\PSoC4/ble.c ****         *  \param name: The local device name string to be set in advertisement data 
1184:Generated_Source\PSoC4/ble.c ****         *            structure.
1185:Generated_Source\PSoC4/ble.c ****         *  \param dest: 0 - advertisement structure, not zero value selects scan response
1186:Generated_Source\PSoC4/ble.c ****         *              structure.
1187:Generated_Source\PSoC4/ble.c ****         * 
1188:Generated_Source\PSoC4/ble.c ****         * \return
1189:Generated_Source\PSoC4/ble.c ****         *  None
1190:Generated_Source\PSoC4/ble.c ****         *  
1191:Generated_Source\PSoC4/ble.c ****         *******************************************************************************/
1192:Generated_Source\PSoC4/ble.c ****         static void CyBle_ChangeAdLocalName(const char8 name[], uint8 dest)
1193:Generated_Source\PSoC4/ble.c ****         {
  27              		.loc 1 1193 0
  28              		.cfi_startproc
  29              		@ args = 0, pretend = 0, frame = 0
  30              		@ frame_needed = 0, uses_anonymous_args = 0
  31              	.LVL0:
  32 0000 70B5     		push	{r4, r5, r6, lr}
  33              		.cfi_def_cfa_offset 16
  34              		.cfi_offset 4, -16
  35              		.cfi_offset 5, -12
  36              		.cfi_offset 6, -8
  37              		.cfi_offset 14, -4
  38              	.LVL1:
1194:Generated_Source\PSoC4/ble.c ****             uint8 i;
1195:Generated_Source\PSoC4/ble.c ****             uint8 flag = 0u;
1196:Generated_Source\PSoC4/ble.c ****             uint8 adLength = 0u;
1197:Generated_Source\PSoC4/ble.c ****             uint8 byteCounter = 0u;
1198:Generated_Source\PSoC4/ble.c ****             uint8 *destBuffer;
1199:Generated_Source\PSoC4/ble.c ****             uint8 maxLength;
1200:Generated_Source\PSoC4/ble.c ****             
1201:Generated_Source\PSoC4/ble.c ****             if(dest == 0u)      /* Destination - advertising structure */
  39              		.loc 1 1201 0
  40 0002 0029     		cmp	r1, #0
  41 0004 05D1     		bne	.L2
  42              	.LVL2:
1202:Generated_Source\PSoC4/ble.c ****             {
1203:Generated_Source\PSoC4/ble.c ****                 destBuffer = cyBle_discoveryData.advData;
1204:Generated_Source\PSoC4/ble.c ****                 maxLength = cyBle_discoveryData.advDataLen;
  43              		.loc 1 1204 0
  44 0006 1A49     		ldr	r1, .L14
  45              	.LVL3:
  46 0008 CE7F     		ldrb	r6, [r1, #31]
  47              	.LVL4:
  48              	.L4:
1205:Generated_Source\PSoC4/ble.c ****             }
1206:Generated_Source\PSoC4/ble.c ****             else                /* Destination - scan response structure */
ARM GAS  C:\Users\Art\AppData\Local\Temp\ccqpb62o.s 			page 23


1207:Generated_Source\PSoC4/ble.c ****             {
1208:Generated_Source\PSoC4/ble.c ****                 destBuffer = cyBle_scanRspData.scanRspData;
1209:Generated_Source\PSoC4/ble.c ****                 maxLength = cyBle_scanRspData.scanRspDataLen;
1210:Generated_Source\PSoC4/ble.c ****             }
1211:Generated_Source\PSoC4/ble.c ****             
1212:Generated_Source\PSoC4/ble.c ****             while((byteCounter < maxLength) && (flag == 0u))
1213:Generated_Source\PSoC4/ble.c ****             {
1214:Generated_Source\PSoC4/ble.c ****                 adLength = destBuffer[byteCounter];
1215:Generated_Source\PSoC4/ble.c ****                 
1216:Generated_Source\PSoC4/ble.c ****                 if(0u != adLength)
1217:Generated_Source\PSoC4/ble.c ****                 {
1218:Generated_Source\PSoC4/ble.c ****                     /* Increment byte counter so it can point to AD type */
1219:Generated_Source\PSoC4/ble.c ****                     byteCounter++;
1220:Generated_Source\PSoC4/ble.c ****                     
1221:Generated_Source\PSoC4/ble.c ****                     if((destBuffer[byteCounter] == CYBLE_SHORT_LOCAL_NAME) || 
1222:Generated_Source\PSoC4/ble.c ****                        (destBuffer[byteCounter] == CYBLE_COMPLETE_LOCAL_NAME))
1223:Generated_Source\PSoC4/ble.c ****                     {
1224:Generated_Source\PSoC4/ble.c ****                         /* Start of the Local Name AD type was fount. Set flag and exit the loop. *
1225:Generated_Source\PSoC4/ble.c ****                         flag = 1u;
  49              		.loc 1 1225 0
  50 000a 0023     		movs	r3, #0
  51 000c 0024     		movs	r4, #0
  52 000e 0025     		movs	r5, #0
  53 0010 10E0     		b	.L3
  54              	.LVL5:
  55              	.L2:
1209:Generated_Source\PSoC4/ble.c ****             }
  56              		.loc 1 1209 0
  57 0012 1849     		ldr	r1, .L14+4
  58              	.LVL6:
  59 0014 CE7F     		ldrb	r6, [r1, #31]
  60              	.LVL7:
  61 0016 F8E7     		b	.L4
  62              	.LVL8:
  63              	.L7:
1214:Generated_Source\PSoC4/ble.c ****                 
  64              		.loc 1 1214 0
  65 0018 CC5C     		ldrb	r4, [r1, r3]
  66              	.LVL9:
1216:Generated_Source\PSoC4/ble.c ****                 {
  67              		.loc 1 1216 0
  68 001a 002C     		cmp	r4, #0
  69 001c 0ED0     		beq	.L5
1219:Generated_Source\PSoC4/ble.c ****                     
  70              		.loc 1 1219 0
  71 001e 0133     		adds	r3, r3, #1
  72              	.LVL10:
  73 0020 DBB2     		uxtb	r3, r3
  74              	.LVL11:
1221:Generated_Source\PSoC4/ble.c ****                        (destBuffer[byteCounter] == CYBLE_COMPLETE_LOCAL_NAME))
  75              		.loc 1 1221 0
  76 0022 CA5C     		ldrb	r2, [r1, r3]
  77 0024 083A     		subs	r2, r2, #8
  78 0026 D2B2     		uxtb	r2, r2
  79 0028 012A     		cmp	r2, #1
  80 002a 02D9     		bls	.L13
1226:Generated_Source\PSoC4/ble.c ****                     }
ARM GAS  C:\Users\Art\AppData\Local\Temp\ccqpb62o.s 			page 24


1227:Generated_Source\PSoC4/ble.c ****                     else
1228:Generated_Source\PSoC4/ble.c ****                     {
1229:Generated_Source\PSoC4/ble.c ****                         byteCounter += adLength;
  81              		.loc 1 1229 0
  82 002c E318     		adds	r3, r4, r3
  83              	.LVL12:
  84 002e DBB2     		uxtb	r3, r3
  85              	.LVL13:
  86 0030 00E0     		b	.L3
  87              	.L13:
1225:Generated_Source\PSoC4/ble.c ****                     }
  88              		.loc 1 1225 0
  89 0032 0125     		movs	r5, #1
  90              	.LVL14:
  91              	.L3:
1212:Generated_Source\PSoC4/ble.c ****             {
  92              		.loc 1 1212 0
  93 0034 B342     		cmp	r3, r6
  94 0036 01D2     		bcs	.L5
1212:Generated_Source\PSoC4/ble.c ****             {
  95              		.loc 1 1212 0 is_stmt 0 discriminator 1
  96 0038 002D     		cmp	r5, #0
  97 003a EDD0     		beq	.L7
  98              	.L5:
1230:Generated_Source\PSoC4/ble.c ****                     }
1231:Generated_Source\PSoC4/ble.c ****                 }
1232:Generated_Source\PSoC4/ble.c ****                 else
1233:Generated_Source\PSoC4/ble.c ****                 {
1234:Generated_Source\PSoC4/ble.c ****                     /* The end of advertisement data structure was encountered though exit the loop
1235:Generated_Source\PSoC4/ble.c ****                     break;
1236:Generated_Source\PSoC4/ble.c ****                 }
1237:Generated_Source\PSoC4/ble.c ****             }
1238:Generated_Source\PSoC4/ble.c ****             
1239:Generated_Source\PSoC4/ble.c ****             if(0u != flag)
  99              		.loc 1 1239 0 is_stmt 1
 100 003c 002D     		cmp	r5, #0
 101 003e 16D0     		beq	.L1
1240:Generated_Source\PSoC4/ble.c ****             {
1241:Generated_Source\PSoC4/ble.c ****                 /* Reuse "adLength" to hold location of the last character of local name in 
1242:Generated_Source\PSoC4/ble.c ****                    AD structure. */
1243:Generated_Source\PSoC4/ble.c ****                 adLength += byteCounter;
 102              		.loc 1 1243 0
 103 0040 E418     		adds	r4, r4, r3
 104              	.LVL15:
 105 0042 E4B2     		uxtb	r4, r4
 106              	.LVL16:
1244:Generated_Source\PSoC4/ble.c ****                 
1245:Generated_Source\PSoC4/ble.c ****                 /* Increment byte counter to point to start of the local Name string */
1246:Generated_Source\PSoC4/ble.c ****                 byteCounter++;
 107              		.loc 1 1246 0
 108 0044 0133     		adds	r3, r3, #1
 109              	.LVL17:
 110 0046 DBB2     		uxtb	r3, r3
 111              	.LVL18:
1247:Generated_Source\PSoC4/ble.c ****                 
1248:Generated_Source\PSoC4/ble.c ****                 for(i = byteCounter; ((i < (adLength)) && (CYBLE_NULL_CHARCTER != name[i - byteCoun
 112              		.loc 1 1248 0
ARM GAS  C:\Users\Art\AppData\Local\Temp\ccqpb62o.s 			page 25


 113 0048 1A00     		movs	r2, r3
 114 004a 02E0     		b	.L9
 115              	.LVL19:
 116              	.L11:
1249:Generated_Source\PSoC4/ble.c ****                 {
1250:Generated_Source\PSoC4/ble.c ****                     destBuffer[i] = (uint8)name[i - byteCounter];
 117              		.loc 1 1250 0 discriminator 4
 118 004c 8D54     		strb	r5, [r1, r2]
1248:Generated_Source\PSoC4/ble.c ****                 {
 119              		.loc 1 1248 0 discriminator 4
 120 004e 0132     		adds	r2, r2, #1
 121              	.LVL20:
 122 0050 D2B2     		uxtb	r2, r2
 123              	.LVL21:
 124              	.L9:
1248:Generated_Source\PSoC4/ble.c ****                 {
 125              		.loc 1 1248 0 is_stmt 0 discriminator 1
 126 0052 A242     		cmp	r2, r4
 127 0054 09D2     		bcs	.L10
1248:Generated_Source\PSoC4/ble.c ****                 {
 128              		.loc 1 1248 0 discriminator 3
 129 0056 D51A     		subs	r5, r2, r3
 130 0058 455D     		ldrb	r5, [r0, r5]
 131 005a 002D     		cmp	r5, #0
 132 005c F6D1     		bne	.L11
 133 005e 04E0     		b	.L10
 134              	.LVL22:
 135              	.L12:
1251:Generated_Source\PSoC4/ble.c ****                 }
1252:Generated_Source\PSoC4/ble.c ****                 
1253:Generated_Source\PSoC4/ble.c ****                 /* This loop handles the case when new local name is shorted than old one.
1254:Generated_Source\PSoC4/ble.c ****                    In this case all remaining characters should be null characters. */
1255:Generated_Source\PSoC4/ble.c ****                 while(adLength > i)
1256:Generated_Source\PSoC4/ble.c ****                 {
1257:Generated_Source\PSoC4/ble.c ****                     /* Terminate string */
1258:Generated_Source\PSoC4/ble.c ****                     destBuffer[i] = (uint8)CYBLE_NULL_CHARCTER;
 136              		.loc 1 1258 0 is_stmt 1
 137 0060 8B18     		adds	r3, r1, r2
 138 0062 0020     		movs	r0, #0
 139 0064 1870     		strb	r0, [r3]
1259:Generated_Source\PSoC4/ble.c ****                     i++;
 140              		.loc 1 1259 0
 141 0066 0132     		adds	r2, r2, #1
 142              	.LVL23:
 143 0068 D2B2     		uxtb	r2, r2
 144              	.LVL24:
 145              	.L10:
1255:Generated_Source\PSoC4/ble.c ****                 {
 146              		.loc 1 1255 0
 147 006a A242     		cmp	r2, r4
 148 006c F8D3     		bcc	.L12
 149              	.LVL25:
 150              	.L1:
1260:Generated_Source\PSoC4/ble.c ****                 }
1261:Generated_Source\PSoC4/ble.c ****             }
1262:Generated_Source\PSoC4/ble.c ****         }
 151              		.loc 1 1262 0
ARM GAS  C:\Users\Art\AppData\Local\Temp\ccqpb62o.s 			page 26


 152              		@ sp needed
 153              	.LVL26:
 154              	.LVL27:
 155 006e 70BD     		pop	{r4, r5, r6, pc}
 156              	.L15:
 157              		.align	2
 158              	.L14:
 159 0070 00000000 		.word	.LANCHOR0
 160 0074 00000000 		.word	.LANCHOR1
 161              		.cfi_endproc
 162              	.LFE11:
 163              		.size	CyBle_ChangeAdLocalName, .-CyBle_ChangeAdLocalName
 164              		.section	.text.CyBle_ServiceInit,"ax",%progbits
 165              		.align	2
 166              		.global	CyBle_ServiceInit
 167              		.code	16
 168              		.thumb_func
 169              		.type	CyBle_ServiceInit, %function
 170              	CyBle_ServiceInit:
 171              	.LFB3:
 202:Generated_Source\PSoC4/ble.c ****     #if(CYBLE_GATT_ROLE_CLIENT)
 172              		.loc 1 202 0
 173              		.cfi_startproc
 174              		@ args = 0, pretend = 0, frame = 0
 175              		@ frame_needed = 0, uses_anonymous_args = 0
 176 0000 10B5     		push	{r4, lr}
 177              		.cfi_def_cfa_offset 8
 178              		.cfi_offset 4, -8
 179              		.cfi_offset 14, -4
 260:Generated_Source\PSoC4/ble.c ****     #endif /* CYBLE_CUSTOM */
 180              		.loc 1 260 0
 181 0002 FFF7FEFF 		bl	CyBle_CustomInit
 182              	.LVL28:
 346:Generated_Source\PSoC4/ble.c **** 
 183              		.loc 1 346 0
 184              		@ sp needed
 185 0006 10BD     		pop	{r4, pc}
 186              		.cfi_endproc
 187              	.LFE3:
 188              		.size	CyBle_ServiceInit, .-CyBle_ServiceInit
 189              		.section	.text.CyBle_Init,"ax",%progbits
 190              		.align	2
 191              		.global	CyBle_Init
 192              		.code	16
 193              		.thumb_func
 194              		.type	CyBle_Init, %function
 195              	CyBle_Init:
 196              	.LFB2:
 153:Generated_Source\PSoC4/ble.c ****     cyBle_eventHandlerFlag = 0u;
 197              		.loc 1 153 0
 198              		.cfi_startproc
 199              		@ args = 0, pretend = 0, frame = 0
 200              		@ frame_needed = 0, uses_anonymous_args = 0
 201 0000 10B5     		push	{r4, lr}
 202              		.cfi_def_cfa_offset 8
 203              		.cfi_offset 4, -8
 204              		.cfi_offset 14, -4
ARM GAS  C:\Users\Art\AppData\Local\Temp\ccqpb62o.s 			page 27


 154:Generated_Source\PSoC4/ble.c ****     cyBle_busyStatus = CYBLE_STACK_STATE_FREE;
 205              		.loc 1 154 0
 206 0002 0024     		movs	r4, #0
 207 0004 064B     		ldr	r3, .L18
 208 0006 1C70     		strb	r4, [r3]
 155:Generated_Source\PSoC4/ble.c **** 
 209              		.loc 1 155 0
 210 0008 064B     		ldr	r3, .L18+4
 211 000a 1C70     		strb	r4, [r3]
 158:Generated_Source\PSoC4/ble.c ****     #endif /* (CYBLE_GAP_ROLE_PERIPHERAL || CYBLE_GAP_ROLE_BROADCASTER)  */
 212              		.loc 1 158 0
 213 000c 064B     		ldr	r3, .L18+8
 214 000e 1C70     		strb	r4, [r3]
 181:Generated_Source\PSoC4/ble.c **** 
 215              		.loc 1 181 0
 216 0010 FFF7FEFF 		bl	CyBle_ServiceInit
 217              	.LVL29:
 184:Generated_Source\PSoC4/ble.c ****         cyBle_peerBonding = CYBLE_GAP_BONDING_NONE;
 218              		.loc 1 184 0
 219 0014 054B     		ldr	r3, .L18+12
 220 0016 1C70     		strb	r4, [r3]
 185:Generated_Source\PSoC4/ble.c ****     #endif  /* (CYBLE_BONDING_REQUIREMENT == CYBLE_BONDING_YES) */
 221              		.loc 1 185 0
 222 0018 054B     		ldr	r3, .L18+16
 223 001a 1C70     		strb	r4, [r3]
 188:Generated_Source\PSoC4/ble.c **** 
 224              		.loc 1 188 0
 225              		@ sp needed
 226 001c 10BD     		pop	{r4, pc}
 227              	.L19:
 228 001e C046     		.align	2
 229              	.L18:
 230 0020 00000000 		.word	cyBle_eventHandlerFlag
 231 0024 00000000 		.word	cyBle_busyStatus
 232 0028 00000000 		.word	cyBle_advertisingIntervalType
 233 002c 00000000 		.word	cyBle_pendingFlashWrite
 234 0030 00000000 		.word	cyBle_peerBonding
 235              		.cfi_endproc
 236              	.LFE2:
 237              		.size	CyBle_Init, .-CyBle_Init
 238              		.section	.text.CyBle_Start,"ax",%progbits
 239              		.align	2
 240              		.global	CyBle_Start
 241              		.code	16
 242              		.thumb_func
 243              		.type	CyBle_Start, %function
 244              	CyBle_Start:
 245              	.LFB4:
 408:Generated_Source\PSoC4/ble.c ****     CYBLE_API_RESULT_T apiResult = CYBLE_ERROR_OK;
 246              		.loc 1 408 0
 247              		.cfi_startproc
 248              		@ args = 0, pretend = 0, frame = 48
 249              		@ frame_needed = 0, uses_anonymous_args = 0
 250              	.LVL30:
 251 0000 10B5     		push	{r4, lr}
 252              		.cfi_def_cfa_offset 8
 253              		.cfi_offset 4, -8
ARM GAS  C:\Users\Art\AppData\Local\Temp\ccqpb62o.s 			page 28


 254              		.cfi_offset 14, -4
 255 0002 90B0     		sub	sp, sp, #64
 256              		.cfi_def_cfa_offset 72
 257 0004 0400     		movs	r4, r0
 258              	.LVL31:
 413:Generated_Source\PSoC4/ble.c ****     {
 259              		.loc 1 413 0
 260 0006 1422     		movs	r2, #20
 261 0008 2049     		ldr	r1, .L24
 262 000a 0BA8     		add	r0, sp, #44
 263              	.LVL32:
 264 000c FFF7FEFF 		bl	memcpy
 265              	.LVL33:
 425:Generated_Source\PSoC4/ble.c ****     {
 266              		.loc 1 425 0
 267 0010 2023     		movs	r3, #32
 268 0012 1F4A     		ldr	r2, .L24+4
 269 0014 D35C     		ldrb	r3, [r2, r3]
 270 0016 002B     		cmp	r3, #0
 271 0018 05D1     		bne	.L21
 427:Generated_Source\PSoC4/ble.c ****         cyBle_initVar = 1u;
 272              		.loc 1 427 0
 273 001a FFF7FEFF 		bl	CyBle_Init
 274              	.LVL34:
 428:Generated_Source\PSoC4/ble.c ****     }
 275              		.loc 1 428 0
 276 001e 0121     		movs	r1, #1
 277 0020 2023     		movs	r3, #32
 278 0022 1B4A     		ldr	r2, .L24+4
 279 0024 D154     		strb	r1, [r2, r3]
 280              	.L21:
 431:Generated_Source\PSoC4/ble.c ****     {
 281              		.loc 1 431 0
 282 0026 002C     		cmp	r4, #0
 283 0028 2DD0     		beq	.L23
 433:Generated_Source\PSoC4/ble.c ****         
 284              		.loc 1 433 0
 285 002a 1A4B     		ldr	r3, .L24+8
 286 002c 1C60     		str	r4, [r3]
 287              	.LBB2:
 452:Generated_Source\PSoC4/ble.c ****             stackConfig.dleConfig = &dleConfigParams;
 288              		.loc 1 452 0
 289 002e 08A8     		add	r0, sp, #32
 290 0030 05AA     		add	r2, sp, #20
 291 0032 4260     		str	r2, [r0, #4]
 453:Generated_Source\PSoC4/ble.c ****             
 292              		.loc 1 453 0
 293 0034 06AB     		add	r3, sp, #24
 294 0036 0893     		str	r3, [sp, #32]
 456:Generated_Source\PSoC4/ble.c ****                                        CYBLE_SECURE_CONN_FEATURE;
 295              		.loc 1 456 0
 296 0038 0021     		movs	r1, #0
 297 003a 0181     		strh	r1, [r0, #8]
 460:Generated_Source\PSoC4/ble.c ****             dleConfigParams.dleMaxRxCapability = CYBLE_LL_MAX_RX_PAYLOAD_SIZE;
 298              		.loc 1 460 0
 299 003c 1B31     		adds	r1, r1, #27
 300 003e 1980     		strh	r1, [r3]
ARM GAS  C:\Users\Art\AppData\Local\Temp\ccqpb62o.s 			page 29


 461:Generated_Source\PSoC4/ble.c ****             dleConfigParams.dleNumTxBuffer = CYBLE_LL_DEFAULT_NUM_ACL_TX_PACKETS;
 301              		.loc 1 461 0
 302 0040 5980     		strh	r1, [r3, #2]
 462:Generated_Source\PSoC4/ble.c ****         #if(CYBLE_DLE_FEATURE_ENABLED)
 303              		.loc 1 462 0
 304 0042 1739     		subs	r1, r1, #23
 305 0044 1971     		strb	r1, [r3, #4]
 468:Generated_Source\PSoC4/ble.c ****         #if(CYBLE_LL_PRIVACY_FEATURE_ENABLED)
 306              		.loc 1 468 0
 307 0046 0023     		movs	r3, #0
 308 0048 1370     		strb	r3, [r2]
 473:Generated_Source\PSoC4/ble.c ****             }
 309              		.loc 1 473 0
 310 004a 1231     		adds	r1, r1, #18
 311 004c 6944     		add	r1, r1, sp
 312 004e FFF7FEFF 		bl	CyBle_StackSetFeatureConfig
 313              	.LVL35:
 314              	.LBE2:
 476:Generated_Source\PSoC4/ble.c ****         {
 315              		.loc 1 476 0
 316 0052 0028     		cmp	r0, #0
 317 0054 18D1     		bne	.L22
 481:Generated_Source\PSoC4/ble.c ****                     CYBLE_STACK_RAM_SIZE - CYBLE_GATT_PREPARE_WRITE_BUFF_LEN, cyBle_stackDataBuff, 
 318              		.loc 1 481 0
 319 0056 104B     		ldr	r3, .L24+12
 320 0058 0293     		str	r3, [sp, #8]
 321 005a 104B     		ldr	r3, .L24+16
 322 005c 0193     		str	r3, [sp, #4]
 323 005e 0523     		movs	r3, #5
 324 0060 0093     		str	r3, [sp]
 325 0062 0BAB     		add	r3, sp, #44
 326 0064 AE22     		movs	r2, #174
 327 0066 1201     		lsls	r2, r2, #4
 328 0068 0D49     		ldr	r1, .L24+20
 329 006a 0E48     		ldr	r0, .L24+24
 330              	.LVL36:
 331 006c FFF7FEFF 		bl	CyBle_StackInit
 332              	.LVL37:
 505:Generated_Source\PSoC4/ble.c ****             {
 333              		.loc 1 505 0
 334 0070 0028     		cmp	r0, #0
 335 0072 09D1     		bne	.L22
 507:Generated_Source\PSoC4/ble.c ****                 
 336              		.loc 1 507 0
 337 0074 0122     		movs	r2, #1
 338 0076 0C4B     		ldr	r3, .L24+28
 339 0078 1A70     		strb	r2, [r3]
 514:Generated_Source\PSoC4/ble.c ****             #endif /* CYBLE_GATT_ROLE_SERVER */
 340              		.loc 1 514 0
 341 007a 0E32     		adds	r2, r2, #14
 342 007c 1321     		movs	r1, #19
 343 007e 0B48     		ldr	r0, .L24+32
 344              	.LVL38:
 345 0080 FFF7FEFF 		bl	CyBle_GattsDbRegister
 346              	.LVL39:
 347 0084 00E0     		b	.L22
 348              	.LVL40:
ARM GAS  C:\Users\Art\AppData\Local\Temp\ccqpb62o.s 			page 30


 349              	.L23:
 521:Generated_Source\PSoC4/ble.c ****     }
 350              		.loc 1 521 0
 351 0086 0120     		movs	r0, #1
 352              	.LVL41:
 353              	.L22:
 525:Generated_Source\PSoC4/ble.c **** 
 354              		.loc 1 525 0
 355 0088 10B0     		add	sp, sp, #64
 356              		@ sp needed
 357              	.LVL42:
 358 008a 10BD     		pop	{r4, pc}
 359              	.L25:
 360              		.align	2
 361              	.L24:
 362 008c 00000000 		.word	.LANCHOR2
 363 0090 00000000 		.word	.LANCHOR1
 364 0094 00000000 		.word	CyBle_ApplCallback
 365 0098 79020000 		.word	633
 366 009c 00000000 		.word	cyBle_flashStorage
 367 00a0 00000000 		.word	.LANCHOR3
 368 00a4 00000000 		.word	CyBle_EventHandler
 369 00a8 00000000 		.word	cyBle_state
 370 00ac 00000000 		.word	cyBle_gattDB
 371              		.cfi_endproc
 372              	.LFE4:
 373              		.size	CyBle_Start, .-CyBle_Start
 374              		.section	.text.CyBle_Stop,"ax",%progbits
 375              		.align	2
 376              		.global	CyBle_Stop
 377              		.code	16
 378              		.thumb_func
 379              		.type	CyBle_Stop, %function
 380              	CyBle_Stop:
 381              	.LFB5:
 541:Generated_Source\PSoC4/ble.c ****     CyBle_Shutdown();                         /* Stop all ongoing activities */
 382              		.loc 1 541 0
 383              		.cfi_startproc
 384              		@ args = 0, pretend = 0, frame = 0
 385              		@ frame_needed = 0, uses_anonymous_args = 0
 386 0000 10B5     		push	{r4, lr}
 387              		.cfi_def_cfa_offset 8
 388              		.cfi_offset 4, -8
 389              		.cfi_offset 14, -4
 542:Generated_Source\PSoC4/ble.c ****     CyBle_SetState(CYBLE_STATE_STOPPED);
 390              		.loc 1 542 0
 391 0002 FFF7FEFF 		bl	CyBle_Shutdown
 392              	.LVL43:
 543:Generated_Source\PSoC4/ble.c ****     #if(CYBLE_SHARING_MODE_EXPORT)
 393              		.loc 1 543 0
 394 0006 0022     		movs	r2, #0
 395 0008 014B     		ldr	r3, .L27
 396 000a 1A70     		strb	r2, [r3]
 550:Generated_Source\PSoC4/ble.c **** 
 397              		.loc 1 550 0
 398              		@ sp needed
 399 000c 10BD     		pop	{r4, pc}
ARM GAS  C:\Users\Art\AppData\Local\Temp\ccqpb62o.s 			page 31


 400              	.L28:
 401 000e C046     		.align	2
 402              	.L27:
 403 0010 00000000 		.word	cyBle_state
 404              		.cfi_endproc
 405              	.LFE5:
 406              		.size	CyBle_Stop, .-CyBle_Stop
 407              		.section	.text.CyBle_StoreBondingData,"ax",%progbits
 408              		.align	2
 409              		.global	CyBle_StoreBondingData
 410              		.code	16
 411              		.thumb_func
 412              		.type	CyBle_StoreBondingData, %function
 413              	CyBle_StoreBondingData:
 414              	.LFB6:
 596:Generated_Source\PSoC4/ble.c ****     CYBLE_API_RESULT_T apiResult = CYBLE_ERROR_OK;
 415              		.loc 1 596 0
 416              		.cfi_startproc
 417              		@ args = 0, pretend = 0, frame = 24
 418              		@ frame_needed = 0, uses_anonymous_args = 0
 419              	.LVL44:
 420 0000 10B5     		push	{r4, lr}
 421              		.cfi_def_cfa_offset 8
 422              		.cfi_offset 4, -8
 423              		.cfi_offset 14, -4
 424 0002 86B0     		sub	sp, sp, #24
 425              		.cfi_def_cfa_offset 32
 426 0004 0400     		movs	r4, r0
 427              	.LVL45:
 600:Generated_Source\PSoC4/ble.c ****     {
 428              		.loc 1 600 0
 429 0006 334B     		ldr	r3, .L40
 430 0008 1B78     		ldrb	r3, [r3]
 431 000a DB07     		lsls	r3, r3, #31
 432 000c 0BD5     		bpl	.L38
 602:Generated_Source\PSoC4/ble.c ****         if(apiResult == CYBLE_ERROR_OK)
 433              		.loc 1 602 0
 434 000e FFF7FEFF 		bl	CyBle_StoreStackData
 435              	.LVL46:
 603:Generated_Source\PSoC4/ble.c ****         {
 436              		.loc 1 603 0
 437 0012 0028     		cmp	r0, #0
 438 0014 0AD1     		bne	.L30
 605:Generated_Source\PSoC4/ble.c ****             /* Change apiResult if there are more pending data to store */
 439              		.loc 1 605 0
 440 0016 2F4A     		ldr	r2, .L40
 441 0018 1378     		ldrb	r3, [r2]
 442 001a 0121     		movs	r1, #1
 443 001c 8B43     		bics	r3, r1
 444 001e 1370     		strb	r3, [r2]
 607:Generated_Source\PSoC4/ble.c ****             {
 445              		.loc 1 607 0
 446 0020 9B07     		lsls	r3, r3, #30
 447 0022 02D4     		bmi	.L39
 448 0024 02E0     		b	.L30
 449              	.LVL47:
 450              	.L38:
ARM GAS  C:\Users\Art\AppData\Local\Temp\ccqpb62o.s 			page 32


 597:Generated_Source\PSoC4/ble.c ****     
 451              		.loc 1 597 0
 452 0026 0020     		movs	r0, #0
 453              	.LVL48:
 454 0028 00E0     		b	.L30
 455              	.LVL49:
 456              	.L39:
 609:Generated_Source\PSoC4/ble.c ****             }
 457              		.loc 1 609 0
 458 002a 2820     		movs	r0, #40
 459              	.LVL50:
 460              	.L30:
 615:Generated_Source\PSoC4/ble.c ****         ((cyBle_pendingFlashWrite & CYBLE_PENDING_CCCD_FLASH_WRITE_BIT) != 0u) &&
 461              		.loc 1 615 0
 462 002c 0028     		cmp	r0, #0
 463 002e 01D0     		beq	.L31
 615:Generated_Source\PSoC4/ble.c ****         ((cyBle_pendingFlashWrite & CYBLE_PENDING_CCCD_FLASH_WRITE_BIT) != 0u) &&
 464              		.loc 1 615 0 is_stmt 0 discriminator 2
 465 0030 002C     		cmp	r4, #0
 466 0032 18D0     		beq	.L32
 467              	.L31:
 616:Generated_Source\PSoC4/ble.c ****         (cyBle_connHandle.bdHandle <= CYBLE_GAP_MAX_BONDED_DEVICE))
 468              		.loc 1 616 0 is_stmt 1 discriminator 3
 469 0034 274B     		ldr	r3, .L40
 470 0036 1B78     		ldrb	r3, [r3]
 615:Generated_Source\PSoC4/ble.c ****         ((cyBle_pendingFlashWrite & CYBLE_PENDING_CCCD_FLASH_WRITE_BIT) != 0u) &&
 471              		.loc 1 615 0 discriminator 3
 472 0038 9B07     		lsls	r3, r3, #30
 473 003a 14D5     		bpl	.L32
 617:Generated_Source\PSoC4/ble.c ****     {
 474              		.loc 1 617 0
 475 003c 264B     		ldr	r3, .L40+4
 476 003e 1978     		ldrb	r1, [r3]
 616:Generated_Source\PSoC4/ble.c ****         (cyBle_connHandle.bdHandle <= CYBLE_GAP_MAX_BONDED_DEVICE))
 477              		.loc 1 616 0
 478 0040 0429     		cmp	r1, #4
 479 0042 10D8     		bhi	.L32
 619:Generated_Source\PSoC4/ble.c ****                         cyBle_connHandle.bdHandle], CYBLE_GATT_DB_CCCD_COUNT, isForceWrite);
 480              		.loc 1 619 0
 481 0044 9E31     		adds	r1, r1, #158
 482 0046 8900     		lsls	r1, r1, #2
 483 0048 244B     		ldr	r3, .L40+8
 484 004a C918     		adds	r1, r1, r3
 485 004c 0131     		adds	r1, r1, #1
 486 004e 2300     		movs	r3, r4
 487 0050 0422     		movs	r2, #4
 488 0052 2348     		ldr	r0, .L40+12
 489              	.LVL51:
 490 0054 FFF7FEFF 		bl	CyBle_StoreAppData
 491              	.LVL52:
 621:Generated_Source\PSoC4/ble.c ****         {
 492              		.loc 1 621 0
 493 0058 0028     		cmp	r0, #0
 494 005a 04D1     		bne	.L32
 623:Generated_Source\PSoC4/ble.c ****         }
 495              		.loc 1 623 0
 496 005c 1D4A     		ldr	r2, .L40
ARM GAS  C:\Users\Art\AppData\Local\Temp\ccqpb62o.s 			page 33


 497 005e 1378     		ldrb	r3, [r2]
 498 0060 0221     		movs	r1, #2
 499 0062 8B43     		bics	r3, r1
 500 0064 1370     		strb	r3, [r2]
 501              	.LVL53:
 502              	.L32:
 627:Generated_Source\PSoC4/ble.c ****         ((cyBle_pendingFlashWrite & CYBLE_PENDING_CCCD_FLASH_CLEAR_MASK) != 0u) )
 503              		.loc 1 627 0
 504 0066 0028     		cmp	r0, #0
 505 0068 01D0     		beq	.L33
 627:Generated_Source\PSoC4/ble.c ****         ((cyBle_pendingFlashWrite & CYBLE_PENDING_CCCD_FLASH_CLEAR_MASK) != 0u) )
 506              		.loc 1 627 0 is_stmt 0 discriminator 2
 507 006a 002C     		cmp	r4, #0
 508 006c 2FD0     		beq	.L34
 509              	.L33:
 628:Generated_Source\PSoC4/ble.c ****     {
 510              		.loc 1 628 0 is_stmt 1 discriminator 3
 511 006e 194B     		ldr	r3, .L40
 512 0070 1B78     		ldrb	r3, [r3]
 627:Generated_Source\PSoC4/ble.c ****         ((cyBle_pendingFlashWrite & CYBLE_PENDING_CCCD_FLASH_CLEAR_MASK) != 0u) )
 513              		.loc 1 627 0 discriminator 3
 514 0072 0C22     		movs	r2, #12
 515 0074 1A42     		tst	r2, r3
 516 0076 2AD0     		beq	.L34
 630:Generated_Source\PSoC4/ble.c ****         {
 517              		.loc 1 630 0
 518 0078 1B07     		lsls	r3, r3, #28
 519 007a 12D5     		bpl	.L35
 520              	.LBB3:
 635:Generated_Source\PSoC4/ble.c **** 
 521              		.loc 1 635 0
 522 007c 0832     		adds	r2, r2, #8
 523 007e 0021     		movs	r1, #0
 524 0080 01A8     		add	r0, sp, #4
 525              	.LVL54:
 526 0082 FFF7FEFF 		bl	memset
 527              	.LVL55:
 637:Generated_Source\PSoC4/ble.c ****                 (const uint8 *)cyBle_flashStorage.attValuesCCCDFlashMemory, sizeof(defaultValuesCCC
 528              		.loc 1 637 0
 529 0086 2300     		movs	r3, r4
 530 0088 1422     		movs	r2, #20
 531 008a 1649     		ldr	r1, .L40+16
 532 008c 01A8     		add	r0, sp, #4
 533 008e FFF7FEFF 		bl	CyBle_StoreAppData
 534              	.LVL56:
 639:Generated_Source\PSoC4/ble.c ****             {
 535              		.loc 1 639 0
 536 0092 0028     		cmp	r0, #0
 537 0094 1BD1     		bne	.L34
 641:Generated_Source\PSoC4/ble.c ****             }
 538              		.loc 1 641 0
 539 0096 0F4A     		ldr	r2, .L40
 540 0098 1378     		ldrb	r3, [r2]
 541 009a 0821     		movs	r1, #8
 542 009c 8B43     		bics	r3, r1
 543 009e 1370     		strb	r3, [r2]
 544 00a0 15E0     		b	.L34
ARM GAS  C:\Users\Art\AppData\Local\Temp\ccqpb62o.s 			page 34


 545              	.L35:
 546              	.LBE3:
 547              	.LBB4:
 646:Generated_Source\PSoC4/ble.c ****             
 548              		.loc 1 646 0
 549 00a2 0023     		movs	r3, #0
 550 00a4 0193     		str	r3, [sp, #4]
 648:Generated_Source\PSoC4/ble.c ****                                     cyBle_pendingFlashClearCccdHandle], CYBLE_GATT_DB_CCCD_COUNT, i
 551              		.loc 1 648 0
 552 00a6 2133     		adds	r3, r3, #33
 553 00a8 0F4A     		ldr	r2, .L40+20
 554 00aa D15C     		ldrb	r1, [r2, r3]
 555 00ac 9E31     		adds	r1, r1, #158
 556 00ae 8900     		lsls	r1, r1, #2
 557 00b0 0A4B     		ldr	r3, .L40+8
 558 00b2 C918     		adds	r1, r1, r3
 559 00b4 0131     		adds	r1, r1, #1
 560 00b6 2300     		movs	r3, r4
 561 00b8 0422     		movs	r2, #4
 562 00ba 01A8     		add	r0, sp, #4
 563              	.LVL57:
 564 00bc FFF7FEFF 		bl	CyBle_StoreAppData
 565              	.LVL58:
 650:Generated_Source\PSoC4/ble.c ****             {
 566              		.loc 1 650 0
 567 00c0 0028     		cmp	r0, #0
 568 00c2 04D1     		bne	.L34
 652:Generated_Source\PSoC4/ble.c ****             }
 569              		.loc 1 652 0
 570 00c4 034A     		ldr	r2, .L40
 571 00c6 1378     		ldrb	r3, [r2]
 572 00c8 0421     		movs	r1, #4
 573 00ca 8B43     		bics	r3, r1
 574 00cc 1370     		strb	r3, [r2]
 575              	.LVL59:
 576              	.L34:
 577              	.LBE4:
 658:Generated_Source\PSoC4/ble.c **** 
 578              		.loc 1 658 0
 579 00ce 06B0     		add	sp, sp, #24
 580              		@ sp needed
 581 00d0 10BD     		pop	{r4, pc}
 582              	.L41:
 583 00d2 C046     		.align	2
 584              	.L40:
 585 00d4 00000000 		.word	cyBle_pendingFlashWrite
 586 00d8 00000000 		.word	cyBle_connHandle
 587 00dc 00000000 		.word	cyBle_flashStorage
 588 00e0 00000000 		.word	cyBle_attValuesCCCD
 589 00e4 79020000 		.word	cyBle_flashStorage+633
 590 00e8 00000000 		.word	.LANCHOR1
 591              		.cfi_endproc
 592              	.LFE6:
 593              		.size	CyBle_StoreBondingData, .-CyBle_StoreBondingData
 594              		.section	.text.CyBle_GapRemoveBondedDevice,"ax",%progbits
 595              		.align	2
 596              		.global	CyBle_GapRemoveBondedDevice
ARM GAS  C:\Users\Art\AppData\Local\Temp\ccqpb62o.s 			page 35


 597              		.code	16
 598              		.thumb_func
 599              		.type	CyBle_GapRemoveBondedDevice, %function
 600              	CyBle_GapRemoveBondedDevice:
 601              	.LFB7:
 694:Generated_Source\PSoC4/ble.c ****     CYBLE_API_RESULT_T apiResult = CYBLE_ERROR_OK;
 602              		.loc 1 694 0
 603              		.cfi_startproc
 604              		@ args = 0, pretend = 0, frame = 16
 605              		@ frame_needed = 0, uses_anonymous_args = 0
 606              	.LVL60:
 607 0000 30B5     		push	{r4, r5, lr}
 608              		.cfi_def_cfa_offset 12
 609              		.cfi_offset 4, -12
 610              		.cfi_offset 5, -8
 611              		.cfi_offset 14, -4
 612 0002 85B0     		sub	sp, sp, #20
 613              		.cfi_def_cfa_offset 32
 614 0004 0500     		movs	r5, r0
 615              	.LVL61:
 697:Generated_Source\PSoC4/ble.c ****     {
 616              		.loc 1 697 0
 617 0006 174B     		ldr	r3, .L48
 618 0008 1C78     		ldrb	r4, [r3]
 619 000a 002C     		cmp	r4, #0
 620 000c 27D1     		bne	.L47
 621              	.LBB5:
 703:Generated_Source\PSoC4/ble.c **** 
 622              		.loc 1 703 0
 623 000e 0722     		movs	r2, #7
 624 0010 0021     		movs	r1, #0
 625 0012 02A8     		add	r0, sp, #8
 626              	.LVL62:
 627 0014 FFF7FEFF 		bl	memset
 628              	.LVL63:
 705:Generated_Source\PSoC4/ble.c **** 	    {
 629              		.loc 1 705 0
 630 0018 0622     		movs	r2, #6
 631 001a 02A9     		add	r1, sp, #8
 632 001c 2800     		movs	r0, r5
 633 001e FFF7FEFF 		bl	memcmp
 634              	.LVL64:
 635 0022 0028     		cmp	r0, #0
 636 0024 04D1     		bne	.L44
 708:Generated_Source\PSoC4/ble.c ****         }
 637              		.loc 1 708 0
 638 0026 0823     		movs	r3, #8
 639 0028 1C43     		orrs	r4, r3
 640 002a 0E4B     		ldr	r3, .L48
 641 002c 1C70     		strb	r4, [r3]
 642 002e 10E0     		b	.L45
 643              	.L44:
 713:Generated_Source\PSoC4/ble.c ****             if(apiResult == CYBLE_ERROR_OK)
 644              		.loc 1 713 0
 645 0030 2900     		movs	r1, r5
 646 0032 6B46     		mov	r3, sp
 647 0034 D81D     		adds	r0, r3, #7
ARM GAS  C:\Users\Art\AppData\Local\Temp\ccqpb62o.s 			page 36


 648 0036 FFF7FEFF 		bl	CyBle_GapGetPeerBdHandle
 649              	.LVL65:
 714:Generated_Source\PSoC4/ble.c ****             {
 650              		.loc 1 714 0
 651 003a 0028     		cmp	r0, #0
 652 003c 09D1     		bne	.L45
 717:Generated_Source\PSoC4/ble.c ****                 cyBle_pendingFlashClearCccdHandle = bDevHandle;
 653              		.loc 1 717 0
 654 003e 094A     		ldr	r2, .L48
 655 0040 1178     		ldrb	r1, [r2]
 656 0042 0423     		movs	r3, #4
 657 0044 0B43     		orrs	r3, r1
 658 0046 1370     		strb	r3, [r2]
 718:Generated_Source\PSoC4/ble.c ****             }
 659              		.loc 1 718 0
 660 0048 6B46     		mov	r3, sp
 661 004a D979     		ldrb	r1, [r3, #7]
 662 004c 2123     		movs	r3, #33
 663 004e 064A     		ldr	r2, .L48+4
 664 0050 D154     		strb	r1, [r2, r3]
 665              	.LVL66:
 666              	.L45:
 722:Generated_Source\PSoC4/ble.c ****         {
 667              		.loc 1 722 0
 668 0052 0028     		cmp	r0, #0
 669 0054 04D1     		bne	.L43
 724:Generated_Source\PSoC4/ble.c ****         }
 670              		.loc 1 724 0
 671 0056 2800     		movs	r0, r5
 672              	.LVL67:
 673 0058 FFF7FEFF 		bl	CyBle_GapRemoveDeviceFromWhiteList
 674              	.LVL68:
 675 005c 00E0     		b	.L43
 676              	.LVL69:
 677              	.L47:
 678              	.LBE5:
 729:Generated_Source\PSoC4/ble.c ****     }
 679              		.loc 1 729 0
 680 005e 0220     		movs	r0, #2
 681              	.LVL70:
 682              	.L43:
 733:Generated_Source\PSoC4/ble.c **** 
 683              		.loc 1 733 0
 684 0060 05B0     		add	sp, sp, #20
 685              		@ sp needed
 686              	.LVL71:
 687 0062 30BD     		pop	{r4, r5, pc}
 688              	.L49:
 689              		.align	2
 690              	.L48:
 691 0064 00000000 		.word	cyBle_pendingFlashWrite
 692 0068 00000000 		.word	.LANCHOR1
 693              		.cfi_endproc
 694              	.LFE7:
 695              		.size	CyBle_GapRemoveBondedDevice, .-CyBle_GapRemoveBondedDevice
 696              		.section	.text.CyBle_GappStartAdvertisement,"ax",%progbits
 697              		.align	2
ARM GAS  C:\Users\Art\AppData\Local\Temp\ccqpb62o.s 			page 37


 698              		.global	CyBle_GappStartAdvertisement
 699              		.code	16
 700              		.thumb_func
 701              		.type	CyBle_GappStartAdvertisement, %function
 702              	CyBle_GappStartAdvertisement:
 703              	.LFB8:
 791:Generated_Source\PSoC4/ble.c ****         CYBLE_API_RESULT_T apiResult;
 704              		.loc 1 791 0
 705              		.cfi_startproc
 706              		@ args = 0, pretend = 0, frame = 0
 707              		@ frame_needed = 0, uses_anonymous_args = 0
 708              	.LVL72:
 709 0000 10B5     		push	{r4, lr}
 710              		.cfi_def_cfa_offset 8
 711              		.cfi_offset 4, -8
 712              		.cfi_offset 14, -4
 794:Generated_Source\PSoC4/ble.c ****         {
 713              		.loc 1 794 0
 714 0002 0228     		cmp	r0, #2
 715 0004 2FD8     		bhi	.L54
 798:Generated_Source\PSoC4/ble.c ****         {   
 716              		.loc 1 798 0
 717 0006 1C4B     		ldr	r3, .L57
 718 0008 1B78     		ldrb	r3, [r3]
 719 000a 042B     		cmp	r3, #4
 720 000c 2DD1     		bne	.L55
 798:Generated_Source\PSoC4/ble.c ****         {   
 721              		.loc 1 798 0 is_stmt 0 discriminator 1
 722 000e 1B4B     		ldr	r3, .L57+4
 723 0010 1B78     		ldrb	r3, [r3]
 724 0012 5B07     		lsls	r3, r3, #29
 725 0014 2CD4     		bmi	.L56
 800:Generated_Source\PSoC4/ble.c ****             {
 726              		.loc 1 800 0 is_stmt 1
 727 0016 0028     		cmp	r0, #0
 728 0018 09D1     		bne	.L52
 802:Generated_Source\PSoC4/ble.c ****                 cyBle_discoveryModeInfo.advParam->advIntvMin = CYBLE_FAST_ADV_INT_MIN;
 729              		.loc 1 802 0
 730 001a 194B     		ldr	r3, .L57+8
 731 001c 0022     		movs	r2, #0
 732 001e 1A86     		strh	r2, [r3, #48]
 803:Generated_Source\PSoC4/ble.c ****                 cyBle_discoveryModeInfo.advParam->advIntvMax = CYBLE_FAST_ADV_INT_MAX;
 733              		.loc 1 803 0
 734 0020 2032     		adds	r2, r2, #32
 735 0022 596A     		ldr	r1, [r3, #36]
 736 0024 0A80     		strh	r2, [r1]
 804:Generated_Source\PSoC4/ble.c ****             }
 737              		.loc 1 804 0
 738 0026 5B6A     		ldr	r3, [r3, #36]
 739 0028 1032     		adds	r2, r2, #16
 740 002a 5A80     		strh	r2, [r3, #2]
 741 002c 0CE0     		b	.L53
 742              	.L52:
 806:Generated_Source\PSoC4/ble.c ****             {
 743              		.loc 1 806 0
 744 002e 0128     		cmp	r0, #1
 745 0030 0AD1     		bne	.L53
ARM GAS  C:\Users\Art\AppData\Local\Temp\ccqpb62o.s 			page 38


 808:Generated_Source\PSoC4/ble.c ****                 cyBle_discoveryModeInfo.advParam->advIntvMin = CYBLE_SLOW_ADV_INT_MIN;
 746              		.loc 1 808 0
 747 0032 134B     		ldr	r3, .L57+8
 748 0034 9622     		movs	r2, #150
 749 0036 1A86     		strh	r2, [r3, #48]
 809:Generated_Source\PSoC4/ble.c ****                 cyBle_discoveryModeInfo.advParam->advIntvMax = CYBLE_SLOW_ADV_INT_MAX;
 750              		.loc 1 809 0
 751 0038 C822     		movs	r2, #200
 752 003a D200     		lsls	r2, r2, #3
 753 003c 596A     		ldr	r1, [r3, #36]
 754 003e 0A80     		strh	r2, [r1]
 810:Generated_Source\PSoC4/ble.c ****             }       
 755              		.loc 1 810 0
 756 0040 5B6A     		ldr	r3, [r3, #36]
 757 0042 8022     		movs	r2, #128
 758 0044 D201     		lsls	r2, r2, #7
 759 0046 5A80     		strh	r2, [r3, #2]
 760              	.L53:
 815:Generated_Source\PSoC4/ble.c ****             apiResult = CyBle_GappEnterDiscoveryMode(&cyBle_discoveryModeInfo);
 761              		.loc 1 815 0
 762 0048 0E4B     		ldr	r3, .L57+12
 763 004a 1870     		strb	r0, [r3]
 816:Generated_Source\PSoC4/ble.c ****         
 764              		.loc 1 816 0
 765 004c 0C48     		ldr	r0, .L57+8
 766              	.LVL73:
 767 004e 2030     		adds	r0, r0, #32
 768 0050 FFF7FEFF 		bl	CyBle_GappEnterDiscoveryMode
 769              	.LVL74:
 818:Generated_Source\PSoC4/ble.c ****             {
 770              		.loc 1 818 0
 771 0054 0028     		cmp	r0, #0
 772 0056 0DD1     		bne	.L51
 820:Generated_Source\PSoC4/ble.c ****             }
 773              		.loc 1 820 0
 774 0058 084A     		ldr	r2, .L57+4
 775 005a 1178     		ldrb	r1, [r2]
 776 005c 0423     		movs	r3, #4
 777 005e 0B43     		orrs	r3, r1
 778 0060 DBB2     		uxtb	r3, r3
 779 0062 1370     		strb	r3, [r2]
 780 0064 06E0     		b	.L51
 781              	.LVL75:
 782              	.L54:
 796:Generated_Source\PSoC4/ble.c ****         }
 783              		.loc 1 796 0
 784 0066 0120     		movs	r0, #1
 785              	.LVL76:
 786 0068 04E0     		b	.L51
 787              	.LVL77:
 788              	.L55:
 825:Generated_Source\PSoC4/ble.c ****         }
 789              		.loc 1 825 0
 790 006a 0420     		movs	r0, #4
 791              	.LVL78:
 792 006c FF30     		adds	r0, r0, #255
 793 006e 01E0     		b	.L51
ARM GAS  C:\Users\Art\AppData\Local\Temp\ccqpb62o.s 			page 39


 794              	.LVL79:
 795              	.L56:
 796 0070 0420     		movs	r0, #4
 797              	.LVL80:
 798 0072 FF30     		adds	r0, r0, #255
 799              	.L51:
 800              	.LVL81:
 829:Generated_Source\PSoC4/ble.c **** 
 801              		.loc 1 829 0
 802              		@ sp needed
 803 0074 10BD     		pop	{r4, pc}
 804              	.L58:
 805 0076 C046     		.align	2
 806              	.L57:
 807 0078 00000000 		.word	cyBle_state
 808 007c 00000000 		.word	cyBle_eventHandlerFlag
 809 0080 00000000 		.word	.LANCHOR0
 810 0084 00000000 		.word	cyBle_advertisingIntervalType
 811              		.cfi_endproc
 812              	.LFE8:
 813              		.size	CyBle_GappStartAdvertisement, .-CyBle_GappStartAdvertisement
 814              		.section	.text.CyBle_GappStopAdvertisement,"ax",%progbits
 815              		.align	2
 816              		.global	CyBle_GappStopAdvertisement
 817              		.code	16
 818              		.thumb_func
 819              		.type	CyBle_GappStopAdvertisement, %function
 820              	CyBle_GappStopAdvertisement:
 821              	.LFB9:
 852:Generated_Source\PSoC4/ble.c ****         CyBle_GappExitDiscoveryMode();
 822              		.loc 1 852 0
 823              		.cfi_startproc
 824              		@ args = 0, pretend = 0, frame = 0
 825              		@ frame_needed = 0, uses_anonymous_args = 0
 826 0000 10B5     		push	{r4, lr}
 827              		.cfi_def_cfa_offset 8
 828              		.cfi_offset 4, -8
 829              		.cfi_offset 14, -4
 853:Generated_Source\PSoC4/ble.c ****         cyBle_eventHandlerFlag |= CYBLE_STOP_FLAG;
 830              		.loc 1 853 0
 831 0002 FFF7FEFF 		bl	CyBle_GappExitDiscoveryMode
 832              	.LVL82:
 854:Generated_Source\PSoC4/ble.c ****     }
 833              		.loc 1 854 0
 834 0006 034A     		ldr	r2, .L60
 835 0008 1178     		ldrb	r1, [r2]
 836 000a 0823     		movs	r3, #8
 837 000c 0B43     		orrs	r3, r1
 838 000e DBB2     		uxtb	r3, r3
 839 0010 1370     		strb	r3, [r2]
 855:Generated_Source\PSoC4/ble.c ****     
 840              		.loc 1 855 0
 841              		@ sp needed
 842 0012 10BD     		pop	{r4, pc}
 843              	.L61:
 844              		.align	2
 845              	.L60:
ARM GAS  C:\Users\Art\AppData\Local\Temp\ccqpb62o.s 			page 40


 846 0014 00000000 		.word	cyBle_eventHandlerFlag
 847              		.cfi_endproc
 848              	.LFE9:
 849              		.size	CyBle_GappStopAdvertisement, .-CyBle_GappStopAdvertisement
 850              		.section	.text.CyBle_ChangeAdDeviceAddress,"ax",%progbits
 851              		.align	2
 852              		.global	CyBle_ChangeAdDeviceAddress
 853              		.code	16
 854              		.thumb_func
 855              		.type	CyBle_ChangeAdDeviceAddress, %function
 856              	CyBle_ChangeAdDeviceAddress:
 857              	.LFB10:
 874:Generated_Source\PSoC4/ble.c ****         uint8 i;
 858              		.loc 1 874 0
 859              		.cfi_startproc
 860              		@ args = 0, pretend = 0, frame = 0
 861              		@ frame_needed = 0, uses_anonymous_args = 0
 862              		@ link register save eliminated.
 863              	.LVL83:
 901:Generated_Source\PSoC4/ble.c ****   
 864              		.loc 1 901 0
 865              		@ sp needed
 866 0000 7047     		bx	lr
 867              		.cfi_endproc
 868              	.LFE10:
 869              		.size	CyBle_ChangeAdDeviceAddress, .-CyBle_ChangeAdDeviceAddress
 870 0002 C046     		.section	.text.CyBle_GapSetLocalName,"ax",%progbits
 871              		.align	2
 872              		.global	CyBle_GapSetLocalName
 873              		.code	16
 874              		.thumb_func
 875              		.type	CyBle_GapSetLocalName, %function
 876              	CyBle_GapSetLocalName:
 877              	.LFB12:
1263:Generated_Source\PSoC4/ble.c ****         
1264:Generated_Source\PSoC4/ble.c **** #endif /* (CYBLE_GAP_ROLE_PERIPHERAL) */  
1265:Generated_Source\PSoC4/ble.c ****     
1266:Generated_Source\PSoC4/ble.c ****     
1267:Generated_Source\PSoC4/ble.c ****     /******************************************************************************
1268:Generated_Source\PSoC4/ble.c ****     * Function Name: CyBle_GapSetLocalName
1269:Generated_Source\PSoC4/ble.c ****     ***************************************************************************//**
1270:Generated_Source\PSoC4/ble.c ****     *  This API is used to set the local device name - a Characteristic of the 
1271:Generated_Source\PSoC4/ble.c ****     *  GAP Service. If the characteristic length entered in the component customizer
1272:Generated_Source\PSoC4/ble.c ****     *  is shorter than the string specified by the "name" parameter, the local device
1273:Generated_Source\PSoC4/ble.c ****     *  name will be cut to the length specified in the customizer.
1274:Generated_Source\PSoC4/ble.c ****     * 
1275:Generated_Source\PSoC4/ble.c ****     *  \param name: The local device name string. The name string to be written as
1276:Generated_Source\PSoC4/ble.c ****     *              the local device name. It represents a UTF-8 encoded User
1277:Generated_Source\PSoC4/ble.c ****     *              Friendly Descriptive Name for the device. The length of the local
1278:Generated_Source\PSoC4/ble.c ****     *              device string is entered into the component customizer and it can
1279:Generated_Source\PSoC4/ble.c ****     *              be set to a value from 0 to 248 bytes. If the name contained in
1280:Generated_Source\PSoC4/ble.c ****     *              the parameter is shorter than the length from the customizer, the
1281:Generated_Source\PSoC4/ble.c ****     *              end of the name is indicated by a NULL octet (0x00).
1282:Generated_Source\PSoC4/ble.c ****     * 
1283:Generated_Source\PSoC4/ble.c ****     * \return
1284:Generated_Source\PSoC4/ble.c ****     *  CYBLE_API_RESULT_T : Return value indicates if the function succeeded or 
1285:Generated_Source\PSoC4/ble.c ****     *  failed. Following are the possible error codes.
ARM GAS  C:\Users\Art\AppData\Local\Temp\ccqpb62o.s 			page 41


1286:Generated_Source\PSoC4/ble.c ****     *
1287:Generated_Source\PSoC4/ble.c ****     *   Errors codes                       | Description
1288:Generated_Source\PSoC4/ble.c ****     *   ------------                       | -----------
1289:Generated_Source\PSoC4/ble.c ****     *   CYBLE_ERROR_OK                     | Function completed successfully.
1290:Generated_Source\PSoC4/ble.c ****     *   CYBLE_ERROR_INVALID_PARAMETER      | On specifying NULL as input parameter
1291:Generated_Source\PSoC4/ble.c ****     *  
1292:Generated_Source\PSoC4/ble.c ****     *******************************************************************************/
1293:Generated_Source\PSoC4/ble.c ****     CYBLE_API_RESULT_T CyBle_GapSetLocalName(const char8 name[])
1294:Generated_Source\PSoC4/ble.c ****     {
 878              		.loc 1 1294 0
 879              		.cfi_startproc
 880              		@ args = 0, pretend = 0, frame = 0
 881              		@ frame_needed = 0, uses_anonymous_args = 0
 882              	.LVL84:
 883 0000 70B5     		push	{r4, r5, r6, lr}
 884              		.cfi_def_cfa_offset 16
 885              		.cfi_offset 4, -16
 886              		.cfi_offset 5, -12
 887              		.cfi_offset 6, -8
 888              		.cfi_offset 14, -4
 889 0002 041E     		subs	r4, r0, #0
 890              	.LVL85:
1295:Generated_Source\PSoC4/ble.c ****         CYBLE_API_RESULT_T apiResult = CYBLE_ERROR_OK;
1296:Generated_Source\PSoC4/ble.c ****         uint8 i;
1297:Generated_Source\PSoC4/ble.c ****         char8 *ptr;
1298:Generated_Source\PSoC4/ble.c ****         uint8 charLen;
1299:Generated_Source\PSoC4/ble.c **** 
1300:Generated_Source\PSoC4/ble.c ****         if(NULL != name)
 891              		.loc 1 1300 0
 892 0004 26D0     		beq	.L69
1301:Generated_Source\PSoC4/ble.c ****         {
1302:Generated_Source\PSoC4/ble.c ****             /* Get the pointer to the Device Name characteristic  */
1303:Generated_Source\PSoC4/ble.c ****             ptr = (char8 *) CYBLE_GATT_DB_ATTR_GET_ATTR_GEN_PTR(cyBle_gaps.deviceNameCharHandle);
 893              		.loc 1 1303 0
 894 0006 144B     		ldr	r3, .L70
 895 0008 5B88     		ldrh	r3, [r3, #2]
 896 000a 013B     		subs	r3, r3, #1
 897 000c 134D     		ldr	r5, .L70+4
 898 000e 9A00     		lsls	r2, r3, #2
 899 0010 D018     		adds	r0, r2, r3
 900              	.LVL86:
 901 0012 8100     		lsls	r1, r0, #2
 902 0014 6918     		adds	r1, r5, r1
 903 0016 0969     		ldr	r1, [r1, #16]
 904 0018 4868     		ldr	r0, [r1, #4]
 905              	.LVL87:
1304:Generated_Source\PSoC4/ble.c **** 
1305:Generated_Source\PSoC4/ble.c ****             /* First need to get the maximum length of the characteristic data in the GATT
1306:Generated_Source\PSoC4/ble.c ****                 database to make sure there is enough place for the data. The length
1307:Generated_Source\PSoC4/ble.c ****                 can't be longer than 248, so only the LSB of 16 bit of length is to
1308:Generated_Source\PSoC4/ble.c ****                 be used. */
1309:Generated_Source\PSoC4/ble.c ****             charLen = (uint8)CYBLE_GATT_DB_ATTR_GET_ATTR_GEN_MAX_LEN(cyBle_gaps.deviceNameCharHandl
 906              		.loc 1 1309 0
 907 001a D318     		adds	r3, r2, r3
 908 001c 9A00     		lsls	r2, r3, #2
 909 001e AA18     		adds	r2, r5, r2
 910 0020 117B     		ldrb	r1, [r2, #12]
ARM GAS  C:\Users\Art\AppData\Local\Temp\ccqpb62o.s 			page 42


 911              	.LVL88:
1310:Generated_Source\PSoC4/ble.c **** 
1311:Generated_Source\PSoC4/ble.c ****             /* Copy name into characteristic */
1312:Generated_Source\PSoC4/ble.c ****             for(i = 0u; ((i < charLen) && (CYBLE_NULL_CHARCTER != name[i])); i++)
 912              		.loc 1 1312 0
 913 0022 0023     		movs	r3, #0
 914 0024 02E0     		b	.L65
 915              	.LVL89:
 916              	.L67:
1313:Generated_Source\PSoC4/ble.c ****             {
1314:Generated_Source\PSoC4/ble.c ****                 ptr[i] = name[i];
 917              		.loc 1 1314 0 discriminator 4
 918 0026 C254     		strb	r2, [r0, r3]
1312:Generated_Source\PSoC4/ble.c ****             {
 919              		.loc 1 1312 0 discriminator 4
 920 0028 0133     		adds	r3, r3, #1
 921              	.LVL90:
 922 002a DBB2     		uxtb	r3, r3
 923              	.LVL91:
 924              	.L65:
1312:Generated_Source\PSoC4/ble.c ****             {
 925              		.loc 1 1312 0 is_stmt 0 discriminator 1
 926 002c 8B42     		cmp	r3, r1
 927 002e 02D2     		bcs	.L66
1312:Generated_Source\PSoC4/ble.c ****             {
 928              		.loc 1 1312 0 discriminator 3
 929 0030 E25C     		ldrb	r2, [r4, r3]
 930 0032 002A     		cmp	r2, #0
 931 0034 F7D1     		bne	.L67
 932              	.L66:
1315:Generated_Source\PSoC4/ble.c ****             }
1316:Generated_Source\PSoC4/ble.c **** 
1317:Generated_Source\PSoC4/ble.c ****             if(i < charLen)
 933              		.loc 1 1317 0 is_stmt 1
 934 0036 8B42     		cmp	r3, r1
 935 0038 02D2     		bcs	.L68
1318:Generated_Source\PSoC4/ble.c ****             {
1319:Generated_Source\PSoC4/ble.c ****                 /* Terminate string */
1320:Generated_Source\PSoC4/ble.c ****                 ptr[i] = CYBLE_NULL_CHARCTER;
 936              		.loc 1 1320 0
 937 003a C318     		adds	r3, r0, r3
 938              	.LVL92:
 939 003c 0022     		movs	r2, #0
 940 003e 1A70     		strb	r2, [r3]
 941              	.L68:
1321:Generated_Source\PSoC4/ble.c ****             }
1322:Generated_Source\PSoC4/ble.c ****             
1323:Generated_Source\PSoC4/ble.c ****             /* Set new actual length */
1324:Generated_Source\PSoC4/ble.c ****             
1325:Generated_Source\PSoC4/ble.c ****             /* Update device name in advertising and scan response structure */
1326:Generated_Source\PSoC4/ble.c ****             #if(CYBLE_GAP_ROLE_PERIPHERAL)
1327:Generated_Source\PSoC4/ble.c ****                 CyBle_ChangeAdLocalName(name, 0u);
 942              		.loc 1 1327 0
 943 0040 0021     		movs	r1, #0
 944              	.LVL93:
 945 0042 2000     		movs	r0, r4
 946              	.LVL94:
ARM GAS  C:\Users\Art\AppData\Local\Temp\ccqpb62o.s 			page 43


 947 0044 FFF7FEFF 		bl	CyBle_ChangeAdLocalName
 948              	.LVL95:
1328:Generated_Source\PSoC4/ble.c ****                 CyBle_ChangeAdLocalName(name, 1u);
 949              		.loc 1 1328 0
 950 0048 0121     		movs	r1, #1
 951 004a 2000     		movs	r0, r4
 952 004c FFF7FEFF 		bl	CyBle_ChangeAdLocalName
 953              	.LVL96:
1295:Generated_Source\PSoC4/ble.c ****         uint8 i;
 954              		.loc 1 1295 0
 955 0050 0020     		movs	r0, #0
 956 0052 00E0     		b	.L64
 957              	.LVL97:
 958              	.L69:
1329:Generated_Source\PSoC4/ble.c ****             #endif /* (CYBLE_GAP_ROLE_PERIPHERAL) */
1330:Generated_Source\PSoC4/ble.c ****         }
1331:Generated_Source\PSoC4/ble.c ****         else
1332:Generated_Source\PSoC4/ble.c ****         {
1333:Generated_Source\PSoC4/ble.c ****             apiResult = CYBLE_ERROR_INVALID_PARAMETER;
 959              		.loc 1 1333 0
 960 0054 0120     		movs	r0, #1
 961              	.LVL98:
 962              	.L64:
1334:Generated_Source\PSoC4/ble.c ****         }
1335:Generated_Source\PSoC4/ble.c ****         
1336:Generated_Source\PSoC4/ble.c ****         return(apiResult);
1337:Generated_Source\PSoC4/ble.c ****     }
 963              		.loc 1 1337 0
 964              		@ sp needed
 965              	.LVL99:
 966 0056 70BD     		pop	{r4, r5, r6, pc}
 967              	.L71:
 968              		.align	2
 969              	.L70:
 970 0058 00000000 		.word	cyBle_gaps
 971 005c 00000000 		.word	cyBle_gattDB
 972              		.cfi_endproc
 973              	.LFE12:
 974              		.size	CyBle_GapSetLocalName, .-CyBle_GapSetLocalName
 975              		.section	.text.CyBle_GapGetLocalName,"ax",%progbits
 976              		.align	2
 977              		.global	CyBle_GapGetLocalName
 978              		.code	16
 979              		.thumb_func
 980              		.type	CyBle_GapGetLocalName, %function
 981              	CyBle_GapGetLocalName:
 982              	.LFB13:
1338:Generated_Source\PSoC4/ble.c **** 
1339:Generated_Source\PSoC4/ble.c **** 
1340:Generated_Source\PSoC4/ble.c ****     /******************************************************************************
1341:Generated_Source\PSoC4/ble.c ****     * Function Name: CyBle_GapGetLocalName
1342:Generated_Source\PSoC4/ble.c ****     ***************************************************************************//**
1343:Generated_Source\PSoC4/ble.c ****     *  
1344:Generated_Source\PSoC4/ble.c ****     *  This API is used to read the local device name - a Characteristic of the 
1345:Generated_Source\PSoC4/ble.c ****     *  GAP Service.
1346:Generated_Source\PSoC4/ble.c ****     * 
1347:Generated_Source\PSoC4/ble.c ****     * \param name: The local device name string. Used to read the local name to the
ARM GAS  C:\Users\Art\AppData\Local\Temp\ccqpb62o.s 			page 44


1348:Generated_Source\PSoC4/ble.c ****     *             given string array. It represents a UTF-8 encoded User Friendly 
1349:Generated_Source\PSoC4/ble.c ****     *             Descriptive Name for the device. The length of the local device
1350:Generated_Source\PSoC4/ble.c ****     *             string is entered into the component customizer and it can be set
1351:Generated_Source\PSoC4/ble.c ****     *             to a value from 0 to 248 bytes. If the name contained in the
1352:Generated_Source\PSoC4/ble.c ****     *             parameter is shorter than the length from the customizer, the end
1353:Generated_Source\PSoC4/ble.c ****     *             of the name is indicated by a NULL octet (0x00).
1354:Generated_Source\PSoC4/ble.c ****     * 
1355:Generated_Source\PSoC4/ble.c ****     * \return
1356:Generated_Source\PSoC4/ble.c ****     *  CYBLE_API_RESULT_T : Return value indicates if the function succeeded or 
1357:Generated_Source\PSoC4/ble.c ****     *  failed. Following are the possible error codes.
1358:Generated_Source\PSoC4/ble.c ****     *
1359:Generated_Source\PSoC4/ble.c ****     *   Errors codes                       | Description
1360:Generated_Source\PSoC4/ble.c ****     *   ------------                       | -----------
1361:Generated_Source\PSoC4/ble.c ****     *   CYBLE_ERROR_OK                     | Function completed successfully.
1362:Generated_Source\PSoC4/ble.c ****     *   CYBLE_ERROR_INVALID_PARAMETER      | On specifying NULL as input parameter
1363:Generated_Source\PSoC4/ble.c ****     *
1364:Generated_Source\PSoC4/ble.c ****     *******************************************************************************/
1365:Generated_Source\PSoC4/ble.c ****     CYBLE_API_RESULT_T CyBle_GapGetLocalName(char8 name[])
1366:Generated_Source\PSoC4/ble.c ****     {
 983              		.loc 1 1366 0
 984              		.cfi_startproc
 985              		@ args = 0, pretend = 0, frame = 0
 986              		@ frame_needed = 0, uses_anonymous_args = 0
 987              	.LVL100:
 988 0000 10B5     		push	{r4, lr}
 989              		.cfi_def_cfa_offset 8
 990              		.cfi_offset 4, -8
 991              		.cfi_offset 14, -4
 992              	.LVL101:
1367:Generated_Source\PSoC4/ble.c ****         CYBLE_API_RESULT_T apiResult = CYBLE_ERROR_OK;
1368:Generated_Source\PSoC4/ble.c ****         uint8 charLen;
1369:Generated_Source\PSoC4/ble.c ****         uint8 i;
1370:Generated_Source\PSoC4/ble.c ****         char8 *ptr;
1371:Generated_Source\PSoC4/ble.c **** 
1372:Generated_Source\PSoC4/ble.c ****         if(NULL != name)
 993              		.loc 1 1372 0
 994 0002 0028     		cmp	r0, #0
 995 0004 19D0     		beq	.L77
1373:Generated_Source\PSoC4/ble.c ****         {
1374:Generated_Source\PSoC4/ble.c ****             /* Get the pointer to the Device Name characteristic  */
1375:Generated_Source\PSoC4/ble.c ****             ptr = (char8 *) CYBLE_GATT_DB_ATTR_GET_ATTR_GEN_PTR(cyBle_gaps.deviceNameCharHandle);
 996              		.loc 1 1375 0
 997 0006 0E4B     		ldr	r3, .L78
 998 0008 5B88     		ldrh	r3, [r3, #2]
 999 000a 013B     		subs	r3, r3, #1
 1000 000c 9A00     		lsls	r2, r3, #2
 1001 000e D318     		adds	r3, r2, r3
 1002 0010 9A00     		lsls	r2, r3, #2
 1003 0012 0C4B     		ldr	r3, .L78+4
 1004 0014 9A18     		adds	r2, r3, r2
 1005 0016 1369     		ldr	r3, [r2, #16]
 1006 0018 5C68     		ldr	r4, [r3, #4]
 1007              	.LVL102:
1376:Generated_Source\PSoC4/ble.c **** 
1377:Generated_Source\PSoC4/ble.c ****             /* First need to get the length of the characteristic data in the GATT
1378:Generated_Source\PSoC4/ble.c ****                 database to make sure there is enough place for the data. The length
1379:Generated_Source\PSoC4/ble.c ****                 can't be longer than 248, so only the LSB of 16 bit of length is to
ARM GAS  C:\Users\Art\AppData\Local\Temp\ccqpb62o.s 			page 45


1380:Generated_Source\PSoC4/ble.c ****                 be used. */
1381:Generated_Source\PSoC4/ble.c ****             charLen = (uint8)CYBLE_GATT_DB_ATTR_GET_ATTR_GEN_LEN(cyBle_gaps.deviceNameCharHandle);
 1008              		.loc 1 1381 0
 1009 001a 1978     		ldrb	r1, [r3]
 1010              	.LVL103:
1382:Generated_Source\PSoC4/ble.c **** 
1383:Generated_Source\PSoC4/ble.c ****             /* Copy name from characteristic */
1384:Generated_Source\PSoC4/ble.c ****             for(i = 0u; ((i < charLen) && (CYBLE_NULL_CHARCTER != ptr[i])); i++)
 1011              		.loc 1 1384 0
 1012 001c 0023     		movs	r3, #0
 1013 001e 02E0     		b	.L74
 1014              	.LVL104:
 1015              	.L76:
1385:Generated_Source\PSoC4/ble.c ****             {
1386:Generated_Source\PSoC4/ble.c ****                 name[i] = ptr[i];
 1016              		.loc 1 1386 0 discriminator 4
 1017 0020 C254     		strb	r2, [r0, r3]
1384:Generated_Source\PSoC4/ble.c ****             {
 1018              		.loc 1 1384 0 discriminator 4
 1019 0022 0133     		adds	r3, r3, #1
 1020              	.LVL105:
 1021 0024 DBB2     		uxtb	r3, r3
 1022              	.LVL106:
 1023              	.L74:
1384:Generated_Source\PSoC4/ble.c ****             {
 1024              		.loc 1 1384 0 is_stmt 0 discriminator 1
 1025 0026 8B42     		cmp	r3, r1
 1026 0028 02D2     		bcs	.L75
1384:Generated_Source\PSoC4/ble.c ****             {
 1027              		.loc 1 1384 0 discriminator 3
 1028 002a E25C     		ldrb	r2, [r4, r3]
 1029 002c 002A     		cmp	r2, #0
 1030 002e F7D1     		bne	.L76
 1031              	.L75:
1387:Generated_Source\PSoC4/ble.c ****             }
1388:Generated_Source\PSoC4/ble.c **** 
1389:Generated_Source\PSoC4/ble.c ****             /* Terminate string */
1390:Generated_Source\PSoC4/ble.c ****             name[i] = CYBLE_NULL_CHARCTER;
 1032              		.loc 1 1390 0 is_stmt 1
 1033 0030 C318     		adds	r3, r0, r3
 1034              	.LVL107:
 1035 0032 0022     		movs	r2, #0
 1036 0034 1A70     		strb	r2, [r3]
1367:Generated_Source\PSoC4/ble.c ****         uint8 charLen;
 1037              		.loc 1 1367 0
 1038 0036 0020     		movs	r0, #0
 1039              	.LVL108:
 1040 0038 00E0     		b	.L73
 1041              	.LVL109:
 1042              	.L77:
1391:Generated_Source\PSoC4/ble.c ****         }
1392:Generated_Source\PSoC4/ble.c ****         else
1393:Generated_Source\PSoC4/ble.c ****         {
1394:Generated_Source\PSoC4/ble.c ****             apiResult = CYBLE_ERROR_INVALID_PARAMETER;
 1043              		.loc 1 1394 0
 1044 003a 0120     		movs	r0, #1
 1045              	.LVL110:
ARM GAS  C:\Users\Art\AppData\Local\Temp\ccqpb62o.s 			page 46


 1046              	.L73:
1395:Generated_Source\PSoC4/ble.c ****         }
1396:Generated_Source\PSoC4/ble.c ****         
1397:Generated_Source\PSoC4/ble.c ****         return(apiResult);
1398:Generated_Source\PSoC4/ble.c ****     }
 1047              		.loc 1 1398 0
 1048              		@ sp needed
 1049 003c 10BD     		pop	{r4, pc}
 1050              	.L79:
 1051 003e C046     		.align	2
 1052              	.L78:
 1053 0040 00000000 		.word	cyBle_gaps
 1054 0044 00000000 		.word	cyBle_gattDB
 1055              		.cfi_endproc
 1056              	.LFE13:
 1057              		.size	CyBle_GapGetLocalName, .-CyBle_GapGetLocalName
 1058              		.section	.text.CyBle_Get16ByPtr,"ax",%progbits
 1059              		.align	2
 1060              		.global	CyBle_Get16ByPtr
 1061              		.code	16
 1062              		.thumb_func
 1063              		.type	CyBle_Get16ByPtr, %function
 1064              	CyBle_Get16ByPtr:
 1065              	.LFB14:
1399:Generated_Source\PSoC4/ble.c **** 
1400:Generated_Source\PSoC4/ble.c **** #endif /* (CYBLE_GATT_ROLE_SERVER) */
1401:Generated_Source\PSoC4/ble.c **** 
1402:Generated_Source\PSoC4/ble.c **** 
1403:Generated_Source\PSoC4/ble.c **** /******************************************************************************
1404:Generated_Source\PSoC4/ble.c **** * Function Name: CyBle_Get16ByPtr
1405:Generated_Source\PSoC4/ble.c **** ***************************************************************************//**
1406:Generated_Source\PSoC4/ble.c **** * 
1407:Generated_Source\PSoC4/ble.c **** *  Returns the two-bytes value by using a pointer to the LSB.
1408:Generated_Source\PSoC4/ble.c **** * 
1409:Generated_Source\PSoC4/ble.c **** *  \param ptr: Pointer to the LSB of two-bytes data (little endian).
1410:Generated_Source\PSoC4/ble.c **** * 
1411:Generated_Source\PSoC4/ble.c **** *  \return
1412:Generated_Source\PSoC4/ble.c **** *  uint16: Two-bytes data.
1413:Generated_Source\PSoC4/ble.c **** * 
1414:Generated_Source\PSoC4/ble.c **** ******************************************************************************/
1415:Generated_Source\PSoC4/ble.c **** uint16 CyBle_Get16ByPtr(const uint8 ptr[])
1416:Generated_Source\PSoC4/ble.c **** {
 1066              		.loc 1 1416 0
 1067              		.cfi_startproc
 1068              		@ args = 0, pretend = 0, frame = 0
 1069              		@ frame_needed = 0, uses_anonymous_args = 0
 1070              		@ link register save eliminated.
 1071              	.LVL111:
1417:Generated_Source\PSoC4/ble.c ****     return ((uint16) ptr[0u] | ((uint16) (((uint16) ptr[1u]) << 8u)));
 1072              		.loc 1 1417 0
 1073 0000 0378     		ldrb	r3, [r0]
 1074 0002 4078     		ldrb	r0, [r0, #1]
 1075              	.LVL112:
 1076 0004 0002     		lsls	r0, r0, #8
 1077 0006 1843     		orrs	r0, r3
1418:Generated_Source\PSoC4/ble.c **** }
 1078              		.loc 1 1418 0
ARM GAS  C:\Users\Art\AppData\Local\Temp\ccqpb62o.s 			page 47


 1079              		@ sp needed
 1080 0008 7047     		bx	lr
 1081              		.cfi_endproc
 1082              	.LFE14:
 1083              		.size	CyBle_Get16ByPtr, .-CyBle_Get16ByPtr
 1084 000a C046     		.section	.text.CyBle_Set16ByPtr,"ax",%progbits
 1085              		.align	2
 1086              		.global	CyBle_Set16ByPtr
 1087              		.code	16
 1088              		.thumb_func
 1089              		.type	CyBle_Set16ByPtr, %function
 1090              	CyBle_Set16ByPtr:
 1091              	.LFB15:
1419:Generated_Source\PSoC4/ble.c **** 
1420:Generated_Source\PSoC4/ble.c **** 
1421:Generated_Source\PSoC4/ble.c **** /******************************************************************************
1422:Generated_Source\PSoC4/ble.c **** * Function Name: CyBle_Set16ByPtr
1423:Generated_Source\PSoC4/ble.c **** ***************************************************************************//**
1424:Generated_Source\PSoC4/ble.c **** * 
1425:Generated_Source\PSoC4/ble.c **** *  Sets the two-bytes value by using a pointer to the LSB.
1426:Generated_Source\PSoC4/ble.c **** * 
1427:Generated_Source\PSoC4/ble.c **** *  \param ptr:    Pointer to the LSB of two-bytes data (little endian).
1428:Generated_Source\PSoC4/ble.c **** *  \param value:  Two-bytes data to be written.
1429:Generated_Source\PSoC4/ble.c **** * 
1430:Generated_Source\PSoC4/ble.c **** *  \return
1431:Generated_Source\PSoC4/ble.c **** *  None
1432:Generated_Source\PSoC4/ble.c **** * 
1433:Generated_Source\PSoC4/ble.c **** ******************************************************************************/
1434:Generated_Source\PSoC4/ble.c **** void CyBle_Set16ByPtr(uint8 ptr[], uint16 value)
1435:Generated_Source\PSoC4/ble.c **** {
 1092              		.loc 1 1435 0
 1093              		.cfi_startproc
 1094              		@ args = 0, pretend = 0, frame = 0
 1095              		@ frame_needed = 0, uses_anonymous_args = 0
 1096              		@ link register save eliminated.
 1097              	.LVL113:
1436:Generated_Source\PSoC4/ble.c ****     ptr[0u] = (uint8) value;
 1098              		.loc 1 1436 0
 1099 0000 0170     		strb	r1, [r0]
1437:Generated_Source\PSoC4/ble.c ****     ptr[1u] = (uint8) (value >> 8u);
 1100              		.loc 1 1437 0
 1101 0002 090A     		lsrs	r1, r1, #8
 1102              	.LVL114:
 1103 0004 4170     		strb	r1, [r0, #1]
1438:Generated_Source\PSoC4/ble.c **** }
 1104              		.loc 1 1438 0
 1105              		@ sp needed
 1106 0006 7047     		bx	lr
 1107              		.cfi_endproc
 1108              	.LFE15:
 1109              		.size	CyBle_Set16ByPtr, .-CyBle_Set16ByPtr
 1110              		.global	cyBle_sflashDeviceAddress
 1111              		.global	cyBle_deviceAddress
 1112              		.comm	CyBle_ApplCallback,4,4
 1113              		.comm	cyBle_pendingFlashWrite,1,1
 1114              		.comm	cyBle_peerBonding,1,1
 1115              		.global	cyBle_discoveryModeInfo
ARM GAS  C:\Users\Art\AppData\Local\Temp\ccqpb62o.s 			page 48


 1116              		.global	cyBle_scanRspData
 1117              		.global	cyBle_discoveryData
 1118              		.global	cyBle_discoveryParam
 1119              		.global	cyBle_stackMemoryRam
 1120              		.global	cyBle_initVar
 1121              		.section	.rodata
 1122              		.align	2
 1123              		.set	.LANCHOR2,. + 0
 1124              	.LC0:
 1125 0000 2400     		.short	36
 1126 0002 03       		.byte	3
 1127 0003 00       		.space	1
 1128 0004 3000     		.short	48
 1129 0006 01       		.byte	1
 1130 0007 00       		.space	1
 1131 0008 2800     		.short	40
 1132 000a 02       		.byte	2
 1133 000b 00       		.space	1
 1134 000c 2400     		.short	36
 1135 000e 01       		.byte	1
 1136 000f 00       		.space	1
 1137 0010 2400     		.short	36
 1138 0012 01       		.byte	1
 1139 0013 00       		.space	1
 1140              		.data
 1141              		.align	2
 1142              		.set	.LANCHOR0,. + 0
 1143              		.type	cyBle_discoveryData, %object
 1144              		.size	cyBle_discoveryData, 32
 1145              	cyBle_discoveryData:
 1146 0000 02       		.byte	2
 1147 0001 01       		.byte	1
 1148 0002 06       		.byte	6
 1149 0003 07       		.byte	7
 1150 0004 09       		.byte	9
 1151 0005 63       		.byte	99
 1152 0006 61       		.byte	97
 1153 0007 70       		.byte	112
 1154 0008 6C       		.byte	108
 1155 0009 65       		.byte	101
 1156 000a 64       		.byte	100
 1157 000b 11       		.byte	17
 1158 000c 07       		.byte	7
 1159 000d F0       		.byte	-16
 1160 000e 34       		.byte	52
 1161 000f 9B       		.byte	-101
 1162 0010 5F       		.byte	95
 1163 0011 80       		.byte	-128
 1164 0012 00       		.byte	0
 1165 0013 00       		.byte	0
 1166 0014 80       		.byte	-128
 1167 0015 00       		.byte	0
 1168 0016 10       		.byte	16
 1169 0017 00       		.byte	0
 1170 0018 00       		.byte	0
 1171 0019 00       		.byte	0
 1172 001a 00       		.byte	0
ARM GAS  C:\Users\Art\AppData\Local\Temp\ccqpb62o.s 			page 49


 1173 001b 00       		.byte	0
 1174 001c 00       		.byte	0
 1175 001d 00       		.byte	0
 1176 001e 00       		.byte	0
 1177 001f 1D       		.byte	29
 1178              		.type	cyBle_discoveryModeInfo, %object
 1179              		.size	cyBle_discoveryModeInfo, 20
 1180              	cyBle_discoveryModeInfo:
 1181 0020 02       		.byte	2
 1182 0021 000000   		.space	3
 1183 0024 00000000 		.word	cyBle_discoveryParam
 1184 0028 00000000 		.word	cyBle_discoveryData
 1185 002c 00000000 		.word	cyBle_scanRspData
 1186 0030 0000     		.short	0
 1187 0032 0000     		.space	2
 1188              		.type	cyBle_sflashDeviceAddress, %object
 1189              		.size	cyBle_sflashDeviceAddress, 4
 1190              	cyBle_sflashDeviceAddress:
 1191 0034 00F2FF0F 		.word	268431872
 1192              		.type	cyBle_deviceAddress, %object
 1193              		.size	cyBle_deviceAddress, 7
 1194              	cyBle_deviceAddress:
 1195 0038 00       		.byte	0
 1196 0039 00       		.byte	0
 1197 003a 00       		.byte	0
 1198 003b 50       		.byte	80
 1199 003c A0       		.byte	-96
 1200 003d 00       		.byte	0
 1201 003e 00       		.byte	0
 1202 003f 00       		.space	1
 1203              		.type	cyBle_discoveryParam, %object
 1204              		.size	cyBle_discoveryParam, 16
 1205              	cyBle_discoveryParam:
 1206 0040 2000     		.short	32
 1207 0042 3000     		.short	48
 1208 0044 00       		.byte	0
 1209 0045 00       		.byte	0
 1210 0046 00       		.byte	0
 1211 0047 00       		.byte	0
 1212 0048 00       		.byte	0
 1213 0049 00       		.byte	0
 1214 004a 50       		.byte	80
 1215 004b A0       		.byte	-96
 1216 004c 00       		.byte	0
 1217 004d 07       		.byte	7
 1218 004e 00       		.byte	0
 1219 004f 00       		.space	1
 1220              		.section	.noinit,"aw",%progbits
 1221              		.align	3
 1222              		.set	.LANCHOR3,. + 0
 1223              		.type	cyBle_stackMemoryRam, %object
 1224              		.size	cyBle_stackMemoryRam, 2784
 1225              	cyBle_stackMemoryRam:
 1226 0000 00000000 		.space	2784
 1226      00000000 
 1226      00000000 
 1226      00000000 
ARM GAS  C:\Users\Art\AppData\Local\Temp\ccqpb62o.s 			page 50


 1226      00000000 
 1227              		.bss
 1228              		.align	2
 1229              		.set	.LANCHOR1,. + 0
 1230              		.type	cyBle_scanRspData, %object
 1231              		.size	cyBle_scanRspData, 32
 1232              	cyBle_scanRspData:
 1233 0000 00000000 		.space	32
 1233      00000000 
 1233      00000000 
 1233      00000000 
 1233      00000000 
 1234              		.type	cyBle_initVar, %object
 1235              		.size	cyBle_initVar, 1
 1236              	cyBle_initVar:
 1237 0020 00       		.space	1
 1238              		.type	cyBle_pendingFlashClearCccdHandle, %object
 1239              		.size	cyBle_pendingFlashClearCccdHandle, 1
 1240              	cyBle_pendingFlashClearCccdHandle:
 1241 0021 00       		.space	1
 1242              		.text
 1243              	.Letext0:
 1244              		.file 2 "Generated_Source\\PSoC4\\cytypes.h"
 1245              		.file 3 "Generated_Source\\PSoC4\\ble_Stack.h"
 1246              		.file 4 "Generated_Source\\PSoC4\\ble_StackGap.h"
 1247              		.file 5 "Generated_Source\\PSoC4\\ble_StackGatt.h"
 1248              		.file 6 "Generated_Source\\PSoC4\\ble_StackGattDb.h"
 1249              		.file 7 "Generated_Source\\PSoC4\\ble.h"
 1250              		.file 8 "Generated_Source\\PSoC4\\ble_gatt.h"
 1251              		.file 9 "Generated_Source\\PSoC4\\ble_eventHandler.h"
 1252              		.file 10 "Generated_Source\\PSoC4\\ble_custom.h"
 1253              		.file 11 "Generated_Source\\PSoC4\\ble_StackHostMain.h"
 1254              		.file 12 "c:\\program files (x86)\\cypress\\psoc creator\\4.1\\psoc creator\\import\\gnu\\arm\\5.4