ARM GAS  C:\Users\Art\AppData\Local\Temp\ccVNqiua.s 			page 1


   1              		.syntax unified
   2              		.cpu cortex-m0
   3              		.fpu softvfp
   4              		.eabi_attribute 20, 1
   5              		.eabi_attribute 21, 1
   6              		.eabi_attribute 23, 3
   7              		.eabi_attribute 24, 1
   8              		.eabi_attribute 25, 1
   9              		.eabi_attribute 26, 1
  10              		.eabi_attribute 30, 1
  11              		.eabi_attribute 34, 0
  12              		.eabi_attribute 18, 4
  13              		.thumb
  14              		.syntax unified
  15              		.file	"cyfitter_cfg.c"
  16              		.text
  17              	.Ltext0:
  18              		.cfi_sections	.debug_frame
  19              		.section	.text.cfg_write_bytes32,"ax",%progbits
  20              		.align	2
  21              		.code	16
  22              		.thumb_func
  23              		.type	cfg_write_bytes32, %function
  24              	cfg_write_bytes32:
  25              	.LFB5:
  26              		.file 1 "Generated_Source\\PSoC4\\cyfitter_cfg.c"
   1:Generated_Source\PSoC4/cyfitter_cfg.c **** 
   2:Generated_Source\PSoC4/cyfitter_cfg.c **** /*******************************************************************************
   3:Generated_Source\PSoC4/cyfitter_cfg.c **** * File Name: cyfitter_cfg.c
   4:Generated_Source\PSoC4/cyfitter_cfg.c **** * 
   5:Generated_Source\PSoC4/cyfitter_cfg.c **** * PSoC Creator  4.1 Update 1
   6:Generated_Source\PSoC4/cyfitter_cfg.c **** *
   7:Generated_Source\PSoC4/cyfitter_cfg.c **** * Description:
   8:Generated_Source\PSoC4/cyfitter_cfg.c **** * This file contains device initialization code.
   9:Generated_Source\PSoC4/cyfitter_cfg.c **** * Except for the user defined sections in CyClockStartupError(), this file should not be modified.
  10:Generated_Source\PSoC4/cyfitter_cfg.c **** * This file is automatically generated by PSoC Creator.
  11:Generated_Source\PSoC4/cyfitter_cfg.c **** *
  12:Generated_Source\PSoC4/cyfitter_cfg.c **** ********************************************************************************
  13:Generated_Source\PSoC4/cyfitter_cfg.c **** * Copyright (c) 2007-2017 Cypress Semiconductor.  All rights reserved.
  14:Generated_Source\PSoC4/cyfitter_cfg.c **** * You may use this file only in accordance with the license, terms, conditions, 
  15:Generated_Source\PSoC4/cyfitter_cfg.c **** * disclaimers, and limitations in the end user license agreement accompanying 
  16:Generated_Source\PSoC4/cyfitter_cfg.c **** * the software package with which this file was provided.
  17:Generated_Source\PSoC4/cyfitter_cfg.c **** ********************************************************************************/
  18:Generated_Source\PSoC4/cyfitter_cfg.c **** 
  19:Generated_Source\PSoC4/cyfitter_cfg.c **** #include <string.h>
  20:Generated_Source\PSoC4/cyfitter_cfg.c **** #include "cytypes.h"
  21:Generated_Source\PSoC4/cyfitter_cfg.c **** #include "cydevice_trm.h"
  22:Generated_Source\PSoC4/cyfitter_cfg.c **** #include "cyfitter.h"
  23:Generated_Source\PSoC4/cyfitter_cfg.c **** #include "CyLib.h"
  24:Generated_Source\PSoC4/cyfitter_cfg.c **** #include "CyLFClk.h"
  25:Generated_Source\PSoC4/cyfitter_cfg.c **** #include "cyfitter_cfg.h"
  26:Generated_Source\PSoC4/cyfitter_cfg.c **** 
  27:Generated_Source\PSoC4/cyfitter_cfg.c **** 
  28:Generated_Source\PSoC4/cyfitter_cfg.c **** #if defined(__GNUC__) || defined(__ARMCC_VERSION)
  29:Generated_Source\PSoC4/cyfitter_cfg.c ****     #define CYPACKED 
  30:Generated_Source\PSoC4/cyfitter_cfg.c ****     #define CYPACKED_ATTR __attribute__ ((packed))
  31:Generated_Source\PSoC4/cyfitter_cfg.c ****     #define CYALIGNED __attribute__ ((aligned))
ARM GAS  C:\Users\Art\AppData\Local\Temp\ccVNqiua.s 			page 2


  32:Generated_Source\PSoC4/cyfitter_cfg.c ****     #define CY_CFG_UNUSED __attribute__ ((unused))
  33:Generated_Source\PSoC4/cyfitter_cfg.c ****     #ifndef CY_CFG_SECTION
  34:Generated_Source\PSoC4/cyfitter_cfg.c ****         #define CY_CFG_SECTION __attribute__ ((section(".psocinit")))
  35:Generated_Source\PSoC4/cyfitter_cfg.c ****     #endif
  36:Generated_Source\PSoC4/cyfitter_cfg.c ****     
  37:Generated_Source\PSoC4/cyfitter_cfg.c ****     #if defined(__ARMCC_VERSION)
  38:Generated_Source\PSoC4/cyfitter_cfg.c ****         #define CY_CFG_MEMORY_BARRIER() __memory_changed()
  39:Generated_Source\PSoC4/cyfitter_cfg.c ****     #else
  40:Generated_Source\PSoC4/cyfitter_cfg.c ****         #define CY_CFG_MEMORY_BARRIER() __sync_synchronize()
  41:Generated_Source\PSoC4/cyfitter_cfg.c ****     #endif
  42:Generated_Source\PSoC4/cyfitter_cfg.c ****     
  43:Generated_Source\PSoC4/cyfitter_cfg.c **** #elif defined(__ICCARM__)
  44:Generated_Source\PSoC4/cyfitter_cfg.c ****     #include <intrinsics.h>
  45:Generated_Source\PSoC4/cyfitter_cfg.c **** 
  46:Generated_Source\PSoC4/cyfitter_cfg.c ****     #define CYPACKED __packed
  47:Generated_Source\PSoC4/cyfitter_cfg.c ****     #define CYPACKED_ATTR 
  48:Generated_Source\PSoC4/cyfitter_cfg.c ****     #define CYALIGNED _Pragma("data_alignment=4")
  49:Generated_Source\PSoC4/cyfitter_cfg.c ****     #define CY_CFG_UNUSED _Pragma("diag_suppress=Pe177")
  50:Generated_Source\PSoC4/cyfitter_cfg.c ****     #define CY_CFG_SECTION _Pragma("location=\".psocinit\"")
  51:Generated_Source\PSoC4/cyfitter_cfg.c ****     
  52:Generated_Source\PSoC4/cyfitter_cfg.c ****     #define CY_CFG_MEMORY_BARRIER() __DMB()
  53:Generated_Source\PSoC4/cyfitter_cfg.c ****     
  54:Generated_Source\PSoC4/cyfitter_cfg.c **** #else
  55:Generated_Source\PSoC4/cyfitter_cfg.c ****     #error Unsupported toolchain
  56:Generated_Source\PSoC4/cyfitter_cfg.c **** #endif
  57:Generated_Source\PSoC4/cyfitter_cfg.c **** 
  58:Generated_Source\PSoC4/cyfitter_cfg.c **** #ifndef CYCODE
  59:Generated_Source\PSoC4/cyfitter_cfg.c ****     #define CYCODE
  60:Generated_Source\PSoC4/cyfitter_cfg.c **** #endif
  61:Generated_Source\PSoC4/cyfitter_cfg.c **** #ifndef CYDATA
  62:Generated_Source\PSoC4/cyfitter_cfg.c ****     #define CYDATA
  63:Generated_Source\PSoC4/cyfitter_cfg.c **** #endif
  64:Generated_Source\PSoC4/cyfitter_cfg.c **** #ifndef CYFAR
  65:Generated_Source\PSoC4/cyfitter_cfg.c ****     #define CYFAR
  66:Generated_Source\PSoC4/cyfitter_cfg.c **** #endif
  67:Generated_Source\PSoC4/cyfitter_cfg.c **** #ifndef CYXDATA
  68:Generated_Source\PSoC4/cyfitter_cfg.c ****     #define CYXDATA
  69:Generated_Source\PSoC4/cyfitter_cfg.c **** #endif
  70:Generated_Source\PSoC4/cyfitter_cfg.c **** 
  71:Generated_Source\PSoC4/cyfitter_cfg.c **** 
  72:Generated_Source\PSoC4/cyfitter_cfg.c **** CY_CFG_UNUSED
  73:Generated_Source\PSoC4/cyfitter_cfg.c **** static void CYMEMZERO(void *s, size_t n);
  74:Generated_Source\PSoC4/cyfitter_cfg.c **** CY_CFG_UNUSED
  75:Generated_Source\PSoC4/cyfitter_cfg.c **** static void CYMEMZERO(void *s, size_t n)
  76:Generated_Source\PSoC4/cyfitter_cfg.c **** {
  77:Generated_Source\PSoC4/cyfitter_cfg.c **** 	(void)memset(s, 0, n);
  78:Generated_Source\PSoC4/cyfitter_cfg.c **** }
  79:Generated_Source\PSoC4/cyfitter_cfg.c **** CY_CFG_UNUSED
  80:Generated_Source\PSoC4/cyfitter_cfg.c **** static void CYCONFIGCPY(void *dest, const void *src, size_t n);
  81:Generated_Source\PSoC4/cyfitter_cfg.c **** CY_CFG_UNUSED
  82:Generated_Source\PSoC4/cyfitter_cfg.c **** static void CYCONFIGCPY(void *dest, const void *src, size_t n)
  83:Generated_Source\PSoC4/cyfitter_cfg.c **** {
  84:Generated_Source\PSoC4/cyfitter_cfg.c **** 	(void)memcpy(dest, src, n);
  85:Generated_Source\PSoC4/cyfitter_cfg.c **** }
  86:Generated_Source\PSoC4/cyfitter_cfg.c **** CY_CFG_UNUSED
  87:Generated_Source\PSoC4/cyfitter_cfg.c **** static void CYCONFIGCPYCODE(void *dest, const void *src, size_t n);
  88:Generated_Source\PSoC4/cyfitter_cfg.c **** CY_CFG_UNUSED
ARM GAS  C:\Users\Art\AppData\Local\Temp\ccVNqiua.s 			page 3


  89:Generated_Source\PSoC4/cyfitter_cfg.c **** static void CYCONFIGCPYCODE(void *dest, const void *src, size_t n)
  90:Generated_Source\PSoC4/cyfitter_cfg.c **** {
  91:Generated_Source\PSoC4/cyfitter_cfg.c **** 	(void)memcpy(dest, src, n);
  92:Generated_Source\PSoC4/cyfitter_cfg.c **** }
  93:Generated_Source\PSoC4/cyfitter_cfg.c **** 
  94:Generated_Source\PSoC4/cyfitter_cfg.c **** 
  95:Generated_Source\PSoC4/cyfitter_cfg.c **** 
  96:Generated_Source\PSoC4/cyfitter_cfg.c **** 
  97:Generated_Source\PSoC4/cyfitter_cfg.c **** /* Clock startup error codes                                                   */
  98:Generated_Source\PSoC4/cyfitter_cfg.c **** #define CYCLOCKSTART_NO_ERROR    0u
  99:Generated_Source\PSoC4/cyfitter_cfg.c **** #define CYCLOCKSTART_XTAL_ERROR  1u
 100:Generated_Source\PSoC4/cyfitter_cfg.c **** #define CYCLOCKSTART_32KHZ_ERROR 2u
 101:Generated_Source\PSoC4/cyfitter_cfg.c **** #define CYCLOCKSTART_PLL_ERROR   3u
 102:Generated_Source\PSoC4/cyfitter_cfg.c **** #define CYCLOCKSTART_FLL_ERROR   4u
 103:Generated_Source\PSoC4/cyfitter_cfg.c **** 
 104:Generated_Source\PSoC4/cyfitter_cfg.c **** 
 105:Generated_Source\PSoC4/cyfitter_cfg.c **** #ifdef CY_NEED_CYCLOCKSTARTUPERROR
 106:Generated_Source\PSoC4/cyfitter_cfg.c **** /*******************************************************************************
 107:Generated_Source\PSoC4/cyfitter_cfg.c **** * Function Name: CyClockStartupError
 108:Generated_Source\PSoC4/cyfitter_cfg.c **** ********************************************************************************
 109:Generated_Source\PSoC4/cyfitter_cfg.c **** * Summary:
 110:Generated_Source\PSoC4/cyfitter_cfg.c **** *  If an error is encountered during clock configuration (crystal startup error,
 111:Generated_Source\PSoC4/cyfitter_cfg.c **** *  PLL lock error, etc.), the system will end up here.  Unless reimplemented by
 112:Generated_Source\PSoC4/cyfitter_cfg.c **** *  the customer, this function will stop in an infinite loop.
 113:Generated_Source\PSoC4/cyfitter_cfg.c **** *
 114:Generated_Source\PSoC4/cyfitter_cfg.c **** * Parameters:
 115:Generated_Source\PSoC4/cyfitter_cfg.c **** *   void
 116:Generated_Source\PSoC4/cyfitter_cfg.c **** *
 117:Generated_Source\PSoC4/cyfitter_cfg.c **** * Return:
 118:Generated_Source\PSoC4/cyfitter_cfg.c **** *   void
 119:Generated_Source\PSoC4/cyfitter_cfg.c **** *
 120:Generated_Source\PSoC4/cyfitter_cfg.c **** *******************************************************************************/
 121:Generated_Source\PSoC4/cyfitter_cfg.c **** CY_CFG_UNUSED
 122:Generated_Source\PSoC4/cyfitter_cfg.c **** static void CyClockStartupError(uint8 errorCode);
 123:Generated_Source\PSoC4/cyfitter_cfg.c **** CY_CFG_UNUSED
 124:Generated_Source\PSoC4/cyfitter_cfg.c **** static void CyClockStartupError(uint8 errorCode)
 125:Generated_Source\PSoC4/cyfitter_cfg.c **** {
 126:Generated_Source\PSoC4/cyfitter_cfg.c ****     /* To remove the compiler warning if errorCode not used. */
 127:Generated_Source\PSoC4/cyfitter_cfg.c **** #if defined(CY_PSOC3) && (CY_PSOC3)
 128:Generated_Source\PSoC4/cyfitter_cfg.c ****     errorCode = errorCode;
 129:Generated_Source\PSoC4/cyfitter_cfg.c **** #else
 130:Generated_Source\PSoC4/cyfitter_cfg.c ****     (void)errorCode;
 131:Generated_Source\PSoC4/cyfitter_cfg.c **** #endif /* CY_PSOC3 */
 132:Generated_Source\PSoC4/cyfitter_cfg.c **** 
 133:Generated_Source\PSoC4/cyfitter_cfg.c ****     /* If we have a clock startup error (bad MHz crystal, PLL lock, etc.),  */
 134:Generated_Source\PSoC4/cyfitter_cfg.c ****     /* we will end up here to allow the customer to implement something to  */
 135:Generated_Source\PSoC4/cyfitter_cfg.c ****     /* deal with the clock condition.                                       */
 136:Generated_Source\PSoC4/cyfitter_cfg.c **** 
 137:Generated_Source\PSoC4/cyfitter_cfg.c **** #ifdef CY_CFG_CLOCK_STARTUP_ERROR_CALLBACK
 138:Generated_Source\PSoC4/cyfitter_cfg.c ****     CY_CFG_Clock_Startup_ErrorCallback();
 139:Generated_Source\PSoC4/cyfitter_cfg.c **** #else
 140:Generated_Source\PSoC4/cyfitter_cfg.c ****     /*  If not using CY_CFG_CLOCK_STARTUP_ERROR_CALLBACK, place your clock startup code here. */
 141:Generated_Source\PSoC4/cyfitter_cfg.c ****     /* `#START CyClockStartupError` */
 142:Generated_Source\PSoC4/cyfitter_cfg.c **** 
 143:Generated_Source\PSoC4/cyfitter_cfg.c ****     /* If we have a clock startup error (bad MHz crystal, PLL lock, etc.),  */
 144:Generated_Source\PSoC4/cyfitter_cfg.c ****     /* we will end up here to allow the customer to implement something to  */
 145:Generated_Source\PSoC4/cyfitter_cfg.c ****     /* deal with the clock condition.                                       */
ARM GAS  C:\Users\Art\AppData\Local\Temp\ccVNqiua.s 			page 4


 146:Generated_Source\PSoC4/cyfitter_cfg.c **** 
 147:Generated_Source\PSoC4/cyfitter_cfg.c ****     /* `#END` */
 148:Generated_Source\PSoC4/cyfitter_cfg.c **** 
 149:Generated_Source\PSoC4/cyfitter_cfg.c ****     while(1) {}
 150:Generated_Source\PSoC4/cyfitter_cfg.c **** #endif /* CY_CFG_CLOCK_STARTUP_ERROR_CALLBACK */
 151:Generated_Source\PSoC4/cyfitter_cfg.c **** }
 152:Generated_Source\PSoC4/cyfitter_cfg.c **** #endif
 153:Generated_Source\PSoC4/cyfitter_cfg.c **** 
 154:Generated_Source\PSoC4/cyfitter_cfg.c **** #define CY_CFG_BASE_ADDR_COUNT 6u
 155:Generated_Source\PSoC4/cyfitter_cfg.c **** CYPACKED typedef struct
 156:Generated_Source\PSoC4/cyfitter_cfg.c **** {
 157:Generated_Source\PSoC4/cyfitter_cfg.c **** 	uint8 offset;
 158:Generated_Source\PSoC4/cyfitter_cfg.c **** 	uint8 value;
 159:Generated_Source\PSoC4/cyfitter_cfg.c **** } CYPACKED_ATTR cy_cfg_addrvalue_t;
 160:Generated_Source\PSoC4/cyfitter_cfg.c **** 
 161:Generated_Source\PSoC4/cyfitter_cfg.c **** 
 162:Generated_Source\PSoC4/cyfitter_cfg.c **** 
 163:Generated_Source\PSoC4/cyfitter_cfg.c **** /*******************************************************************************
 164:Generated_Source\PSoC4/cyfitter_cfg.c **** * Function Name: cfg_write_bytes32
 165:Generated_Source\PSoC4/cyfitter_cfg.c **** ********************************************************************************
 166:Generated_Source\PSoC4/cyfitter_cfg.c **** * Summary:
 167:Generated_Source\PSoC4/cyfitter_cfg.c **** *  This function is used for setting up the chip configuration areas that
 168:Generated_Source\PSoC4/cyfitter_cfg.c **** *  contain relatively sparse data.
 169:Generated_Source\PSoC4/cyfitter_cfg.c **** *
 170:Generated_Source\PSoC4/cyfitter_cfg.c **** * Parameters:
 171:Generated_Source\PSoC4/cyfitter_cfg.c **** *   void
 172:Generated_Source\PSoC4/cyfitter_cfg.c **** *
 173:Generated_Source\PSoC4/cyfitter_cfg.c **** * Return:
 174:Generated_Source\PSoC4/cyfitter_cfg.c **** *   void
 175:Generated_Source\PSoC4/cyfitter_cfg.c **** *
 176:Generated_Source\PSoC4/cyfitter_cfg.c **** *******************************************************************************/
 177:Generated_Source\PSoC4/cyfitter_cfg.c **** static void cfg_write_bytes32(const uint32 addr_table[], const cy_cfg_addrvalue_t data_table[]);
 178:Generated_Source\PSoC4/cyfitter_cfg.c **** static void cfg_write_bytes32(const uint32 addr_table[], const cy_cfg_addrvalue_t data_table[])
 179:Generated_Source\PSoC4/cyfitter_cfg.c **** {
  27              		.loc 1 179 0
  28              		.cfi_startproc
  29              		@ args = 0, pretend = 0, frame = 0
  30              		@ frame_needed = 0, uses_anonymous_args = 0
  31              	.LVL0:
  32 0000 F0B5     		push	{r4, r5, r6, r7, lr}
  33              		.cfi_def_cfa_offset 20
  34              		.cfi_offset 4, -20
  35              		.cfi_offset 5, -16
  36              		.cfi_offset 6, -12
  37              		.cfi_offset 7, -8
  38              		.cfi_offset 14, -4
  39              	.LVL1:
 180:Generated_Source\PSoC4/cyfitter_cfg.c **** 	/* For 32-bit little-endian architectures */
 181:Generated_Source\PSoC4/cyfitter_cfg.c **** 	uint32 i, j = 0u;
  40              		.loc 1 181 0
  41 0002 0025     		movs	r5, #0
 182:Generated_Source\PSoC4/cyfitter_cfg.c **** 	for (i = 0u; i < CY_CFG_BASE_ADDR_COUNT; i++)
  42              		.loc 1 182 0
  43 0004 0027     		movs	r7, #0
  44 0006 11E0     		b	.L2
  45              	.LVL2:
  46              	.L5:
ARM GAS  C:\Users\Art\AppData\Local\Temp\ccVNqiua.s 			page 5


  47              	.LBB2:
 183:Generated_Source\PSoC4/cyfitter_cfg.c **** 	{
 184:Generated_Source\PSoC4/cyfitter_cfg.c **** 		uint32 baseAddr = addr_table[i];
  48              		.loc 1 184 0
  49 0008 BB00     		lsls	r3, r7, #2
  50 000a C658     		ldr	r6, [r0, r3]
  51              	.LVL3:
 185:Generated_Source\PSoC4/cyfitter_cfg.c **** 		uint8 count = (uint8)baseAddr;
  52              		.loc 1 185 0
  53 000c F3B2     		uxtb	r3, r6
  54              	.LVL4:
 186:Generated_Source\PSoC4/cyfitter_cfg.c **** 		baseAddr &= 0xFFFFFF00u;
  55              		.loc 1 186 0
  56 000e FF22     		movs	r2, #255
  57 0010 9643     		bics	r6, r2
  58              	.LVL5:
 187:Generated_Source\PSoC4/cyfitter_cfg.c **** 		while (count != 0u)
  59              		.loc 1 187 0
  60 0012 08E0     		b	.L3
  61              	.L4:
 188:Generated_Source\PSoC4/cyfitter_cfg.c **** 		{
 189:Generated_Source\PSoC4/cyfitter_cfg.c **** 			CY_SET_REG8((void *)(baseAddr + data_table[j].offset), data_table[j].value);
  62              		.loc 1 189 0
  63 0014 6A00     		lsls	r2, r5, #1
  64 0016 8A18     		adds	r2, r1, r2
  65 0018 1478     		ldrb	r4, [r2]
  66 001a A419     		adds	r4, r4, r6
  67 001c 5278     		ldrb	r2, [r2, #1]
  68 001e 2270     		strb	r2, [r4]
 190:Generated_Source\PSoC4/cyfitter_cfg.c **** 			j++;
  69              		.loc 1 190 0
  70 0020 0135     		adds	r5, r5, #1
  71              	.LVL6:
 191:Generated_Source\PSoC4/cyfitter_cfg.c **** 			count--;
  72              		.loc 1 191 0
  73 0022 013B     		subs	r3, r3, #1
  74              	.LVL7:
  75 0024 DBB2     		uxtb	r3, r3
  76              	.LVL8:
  77              	.L3:
 187:Generated_Source\PSoC4/cyfitter_cfg.c **** 		{
  78              		.loc 1 187 0
  79 0026 002B     		cmp	r3, #0
  80 0028 F4D1     		bne	.L4
  81              	.LBE2:
 182:Generated_Source\PSoC4/cyfitter_cfg.c **** 	{
  82              		.loc 1 182 0 discriminator 2
  83 002a 0137     		adds	r7, r7, #1
  84              	.LVL9:
  85              	.L2:
 182:Generated_Source\PSoC4/cyfitter_cfg.c **** 	{
  86              		.loc 1 182 0 is_stmt 0 discriminator 1
  87 002c 052F     		cmp	r7, #5
  88 002e EBD9     		bls	.L5
 192:Generated_Source\PSoC4/cyfitter_cfg.c **** 		}
 193:Generated_Source\PSoC4/cyfitter_cfg.c **** 	}
 194:Generated_Source\PSoC4/cyfitter_cfg.c **** }
ARM GAS  C:\Users\Art\AppData\Local\Temp\ccVNqiua.s 			page 6


  89              		.loc 1 194 0 is_stmt 1
  90              		@ sp needed
  91              	.LVL10:
  92              	.LVL11:
  93 0030 F0BD     		pop	{r4, r5, r6, r7, pc}
  94              		.cfi_endproc
  95              	.LFE5:
  96              		.size	cfg_write_bytes32, .-cfg_write_bytes32
  97 0032 C046     		.section	.text.CYMEMZERO,"ax",%progbits
  98              		.align	2
  99              		.code	16
 100              		.thumb_func
 101              		.type	CYMEMZERO, %function
 102              	CYMEMZERO:
 103              	.LFB2:
  76:Generated_Source\PSoC4/cyfitter_cfg.c **** 	(void)memset(s, 0, n);
 104              		.loc 1 76 0
 105              		.cfi_startproc
 106              		@ args = 0, pretend = 0, frame = 0
 107              		@ frame_needed = 0, uses_anonymous_args = 0
 108              	.LVL12:
 109 0000 10B5     		push	{r4, lr}
 110              		.cfi_def_cfa_offset 8
 111              		.cfi_offset 4, -8
 112              		.cfi_offset 14, -4
 113 0002 0A00     		movs	r2, r1
  77:Generated_Source\PSoC4/cyfitter_cfg.c **** }
 114              		.loc 1 77 0
 115 0004 0021     		movs	r1, #0
 116              	.LVL13:
 117 0006 FFF7FEFF 		bl	memset
 118              	.LVL14:
  78:Generated_Source\PSoC4/cyfitter_cfg.c **** CY_CFG_UNUSED
 119              		.loc 1 78 0
 120              		@ sp needed
 121 000a 10BD     		pop	{r4, pc}
 122              		.cfi_endproc
 123              	.LFE2:
 124              		.size	CYMEMZERO, .-CYMEMZERO
 125              		.section	.psocinit,"ax",%progbits
 126              		.align	2
 127              		.code	16
 128              		.thumb_func
 129              		.type	ClockSetup, %function
 130              	ClockSetup:
 131              	.LFB6:
 195:Generated_Source\PSoC4/cyfitter_cfg.c **** 
 196:Generated_Source\PSoC4/cyfitter_cfg.c **** 
 197:Generated_Source\PSoC4/cyfitter_cfg.c **** /*******************************************************************************
 198:Generated_Source\PSoC4/cyfitter_cfg.c **** * Function Name: ClockSetup
 199:Generated_Source\PSoC4/cyfitter_cfg.c **** ********************************************************************************
 200:Generated_Source\PSoC4/cyfitter_cfg.c **** *
 201:Generated_Source\PSoC4/cyfitter_cfg.c **** * Summary:
 202:Generated_Source\PSoC4/cyfitter_cfg.c **** *   Performs the initialization of all of the clocks in the device based on the
 203:Generated_Source\PSoC4/cyfitter_cfg.c **** *   settings in the Clock tab of the DWR.  This includes enabling the requested
 204:Generated_Source\PSoC4/cyfitter_cfg.c **** *   clocks and setting the necessary dividers to produce the desired frequency. 
 205:Generated_Source\PSoC4/cyfitter_cfg.c **** *
ARM GAS  C:\Users\Art\AppData\Local\Temp\ccVNqiua.s 			page 7


 206:Generated_Source\PSoC4/cyfitter_cfg.c **** * Parameters:
 207:Generated_Source\PSoC4/cyfitter_cfg.c **** *   void
 208:Generated_Source\PSoC4/cyfitter_cfg.c **** *
 209:Generated_Source\PSoC4/cyfitter_cfg.c **** * Return:
 210:Generated_Source\PSoC4/cyfitter_cfg.c **** *   void
 211:Generated_Source\PSoC4/cyfitter_cfg.c **** *
 212:Generated_Source\PSoC4/cyfitter_cfg.c **** *******************************************************************************/
 213:Generated_Source\PSoC4/cyfitter_cfg.c **** static void ClockSetup(void);
 214:Generated_Source\PSoC4/cyfitter_cfg.c **** CY_CFG_SECTION
 215:Generated_Source\PSoC4/cyfitter_cfg.c **** static void ClockSetup(void)
 216:Generated_Source\PSoC4/cyfitter_cfg.c **** {
 132              		.loc 1 216 0
 133              		.cfi_startproc
 134              		@ args = 0, pretend = 0, frame = 0
 135              		@ frame_needed = 0, uses_anonymous_args = 0
 136 0000 70B5     		push	{r4, r5, r6, lr}
 137              		.cfi_def_cfa_offset 16
 138              		.cfi_offset 4, -16
 139              		.cfi_offset 5, -12
 140              		.cfi_offset 6, -8
 141              		.cfi_offset 14, -4
 217:Generated_Source\PSoC4/cyfitter_cfg.c **** 
 218:Generated_Source\PSoC4/cyfitter_cfg.c **** 	/* Set Flash Cycles based on max possible frequency in case a glitch occurs during ClockSetup(). *
 219:Generated_Source\PSoC4/cyfitter_cfg.c **** 	CY_SET_REG32((void CYXDATA *)(CYREG_CPUSS_FLASH_CTL), (0x0012u));
 142              		.loc 1 219 0
 143 0002 1222     		movs	r2, #18
 144 0004 2A4B     		ldr	r3, .L8
 145 0006 1A60     		str	r2, [r3]
 220:Generated_Source\PSoC4/cyfitter_cfg.c **** 
 221:Generated_Source\PSoC4/cyfitter_cfg.c **** 	/* Start the WCO */
 222:Generated_Source\PSoC4/cyfitter_cfg.c **** 	CySysClkWcoStart();
 146              		.loc 1 222 0
 147 0008 FFF7FEFF 		bl	CySysClkWcoStart
 148              	.LVL15:
 223:Generated_Source\PSoC4/cyfitter_cfg.c **** 	CyDelayCycles(12000000u); /* WCO may take up to 500ms to start */
 149              		.loc 1 223 0
 150 000c 2948     		ldr	r0, .L8+4
 151 000e FFF7FEFF 		bl	CyDelayCycles
 152              	.LVL16:
 224:Generated_Source\PSoC4/cyfitter_cfg.c **** 	(void)CySysClkWcoSetPowerMode(CY_SYS_CLK_WCO_LPM);    /* Switch to the low power mode */
 153              		.loc 1 224 0
 154 0012 0120     		movs	r0, #1
 155 0014 FFF7FEFF 		bl	CySysClkWcoSetPowerMode
 156              	.LVL17:
 225:Generated_Source\PSoC4/cyfitter_cfg.c **** 
 226:Generated_Source\PSoC4/cyfitter_cfg.c **** 	/* Setup and trim IMO based on desired frequency. */
 227:Generated_Source\PSoC4/cyfitter_cfg.c **** 	CySysClkWriteImoFreq(48u);
 157              		.loc 1 227 0
 158 0018 3020     		movs	r0, #48
 159 001a FFF7FEFF 		bl	CySysClkWriteImoFreq
 160              	.LVL18:
 228:Generated_Source\PSoC4/cyfitter_cfg.c **** 	/* CYDEV_CLK_ILO_CONFIG Starting address: CYDEV_CLK_ILO_CONFIG */
 229:Generated_Source\PSoC4/cyfitter_cfg.c **** 	CY_SET_REG32((void *)(CYREG_CLK_ILO_CONFIG), 0x80000006u);
 161              		.loc 1 229 0
 162 001e 264A     		ldr	r2, .L8+8
 163 0020 264B     		ldr	r3, .L8+12
 164 0022 1A60     		str	r2, [r3]
ARM GAS  C:\Users\Art\AppData\Local\Temp\ccVNqiua.s 			page 8


 230:Generated_Source\PSoC4/cyfitter_cfg.c **** 
 231:Generated_Source\PSoC4/cyfitter_cfg.c **** 	/* CYDEV_WDT_CONFIG Starting address: CYDEV_WDT_CONFIG */
 232:Generated_Source\PSoC4/cyfitter_cfg.c **** 	CY_SET_REG32((void *)(CYREG_WDT_CONFIG), 0x40000000u);
 165              		.loc 1 232 0
 166 0024 264C     		ldr	r4, .L8+16
 167 0026 8025     		movs	r5, #128
 168 0028 ED05     		lsls	r5, r5, #23
 169 002a 2560     		str	r5, [r4]
 233:Generated_Source\PSoC4/cyfitter_cfg.c **** 
 234:Generated_Source\PSoC4/cyfitter_cfg.c **** 
 235:Generated_Source\PSoC4/cyfitter_cfg.c **** 	/* Enable fast start mode for XO */
 236:Generated_Source\PSoC4/cyfitter_cfg.c **** 	CY_SET_REG32((void*)CYREG_BLE_BLERD_BB_XO, CY_GET_REG32((void*)CYREG_BLE_BLERD_BB_XO) | (uint32)0x
 170              		.loc 1 236 0
 171 002c 254A     		ldr	r2, .L8+20
 172 002e 1168     		ldr	r1, [r2]
 173 0030 0223     		movs	r3, #2
 174 0032 0B43     		orrs	r3, r1
 175 0034 1360     		str	r3, [r2]
 237:Generated_Source\PSoC4/cyfitter_cfg.c **** 	CY_SET_REG32((void *)(CYREG_BLE_BLERD_BB_XO_CAPTRIM), 0x00003E2Du);
 176              		.loc 1 237 0
 177 0036 244A     		ldr	r2, .L8+24
 178 0038 244B     		ldr	r3, .L8+28
 179 003a 1A60     		str	r2, [r3]
 238:Generated_Source\PSoC4/cyfitter_cfg.c **** 	/*Set XTAL(ECO) divider*/
 239:Generated_Source\PSoC4/cyfitter_cfg.c **** 	CY_SET_REG32((void *)(CYREG_BLE_BLESS_XTAL_CLK_DIV_CONFIG), 0x00000000u);
 180              		.loc 1 239 0
 181 003c 0022     		movs	r2, #0
 182 003e 244B     		ldr	r3, .L8+32
 183 0040 1A60     		str	r2, [r3]
 240:Generated_Source\PSoC4/cyfitter_cfg.c **** 	/* Disable Crystal Stable Interrupt before enabling ECO */
 241:Generated_Source\PSoC4/cyfitter_cfg.c **** 	CY_SET_REG32((void*)CYREG_BLE_BLESS_LL_DSM_CTRL, CY_GET_REG32((void*)CYREG_BLE_BLESS_LL_DSM_CTRL) 
 184              		.loc 1 241 0
 185 0042 244A     		ldr	r2, .L8+36
 186 0044 1368     		ldr	r3, [r2]
 187 0046 0821     		movs	r1, #8
 188 0048 8B43     		bics	r3, r1
 189 004a 1360     		str	r3, [r2]
 242:Generated_Source\PSoC4/cyfitter_cfg.c **** 	/* Start the ECO and do not check status since it is not needed for HFCLK */
 243:Generated_Source\PSoC4/cyfitter_cfg.c **** 	(void)CySysClkEcoStart(2000u);
 190              		.loc 1 243 0
 191 004c FA20     		movs	r0, #250
 192 004e C000     		lsls	r0, r0, #3
 193 0050 FFF7FEFF 		bl	CySysClkEcoStart
 194              	.LVL19:
 244:Generated_Source\PSoC4/cyfitter_cfg.c **** 	CyDelayUs(1500u); /* Wait to stabilize */
 195              		.loc 1 244 0
 196 0054 2048     		ldr	r0, .L8+40
 197 0056 FFF7FEFF 		bl	CyDelayUs
 198              	.LVL20:
 245:Generated_Source\PSoC4/cyfitter_cfg.c **** 
 246:Generated_Source\PSoC4/cyfitter_cfg.c **** 	/* Setup phase aligned clocks */
 247:Generated_Source\PSoC4/cyfitter_cfg.c **** 	CY_SET_REG32((void *)CYREG_PERI_DIV_16_CTL2, 0x00BB7F00u);
 199              		.loc 1 247 0
 200 005a 204A     		ldr	r2, .L8+44
 201 005c 204B     		ldr	r3, .L8+48
 202 005e 1A60     		str	r2, [r3]
 248:Generated_Source\PSoC4/cyfitter_cfg.c **** 	CY_SET_REG32((void *)CYREG_PERI_DIV_CMD, 0x8000FF42u);
ARM GAS  C:\Users\Art\AppData\Local\Temp\ccVNqiua.s 			page 9


 203              		.loc 1 248 0
 204 0060 204B     		ldr	r3, .L8+52
 205 0062 214A     		ldr	r2, .L8+56
 206 0064 1A60     		str	r2, [r3]
 249:Generated_Source\PSoC4/cyfitter_cfg.c **** 	CY_SET_REG32((void *)CYREG_PERI_DIV_16_CTL0, 0x0000FE00u);
 207              		.loc 1 249 0
 208 0066 FE22     		movs	r2, #254
 209 0068 1202     		lsls	r2, r2, #8
 210 006a 2049     		ldr	r1, .L8+60
 211 006c 0A60     		str	r2, [r1]
 250:Generated_Source\PSoC4/cyfitter_cfg.c **** 	CY_SET_REG32((void *)CYREG_PERI_DIV_CMD, 0x8000FF40u);
 212              		.loc 1 250 0
 213 006e 2049     		ldr	r1, .L8+64
 214 0070 1960     		str	r1, [r3]
 251:Generated_Source\PSoC4/cyfitter_cfg.c **** 	CY_SET_REG32((void *)CYREG_PERI_DIV_16_CTL1, 0x0000FE00u);
 215              		.loc 1 251 0
 216 0072 2049     		ldr	r1, .L8+68
 217 0074 0A60     		str	r2, [r1]
 252:Generated_Source\PSoC4/cyfitter_cfg.c **** 	CY_SET_REG32((void *)CYREG_PERI_DIV_CMD, 0x8000FF41u);
 218              		.loc 1 252 0
 219 0076 204A     		ldr	r2, .L8+72
 220 0078 1A60     		str	r2, [r3]
 253:Generated_Source\PSoC4/cyfitter_cfg.c **** 
 254:Generated_Source\PSoC4/cyfitter_cfg.c **** 	/* CYDEV_CLK_IMO_CONFIG Starting address: CYDEV_CLK_IMO_CONFIG */
 255:Generated_Source\PSoC4/cyfitter_cfg.c **** 	CY_SET_REG32((void *)(CYREG_CLK_IMO_CONFIG), 0x80000000u);
 221              		.loc 1 255 0
 222 007a 8022     		movs	r2, #128
 223 007c 1206     		lsls	r2, r2, #24
 224 007e 1F4B     		ldr	r3, .L8+76
 225 0080 1A60     		str	r2, [r3]
 256:Generated_Source\PSoC4/cyfitter_cfg.c **** 
 257:Generated_Source\PSoC4/cyfitter_cfg.c **** 	/* CYDEV_CLK_SELECT Starting address: CYDEV_CLK_SELECT */
 258:Generated_Source\PSoC4/cyfitter_cfg.c **** 	CY_SET_REG32((void *)(CYREG_CLK_SELECT), 0x00040000u);
 226              		.loc 1 258 0
 227 0082 8022     		movs	r2, #128
 228 0084 D202     		lsls	r2, r2, #11
 229 0086 1E4B     		ldr	r3, .L8+80
 230 0088 1A60     		str	r2, [r3]
 259:Generated_Source\PSoC4/cyfitter_cfg.c **** 
 260:Generated_Source\PSoC4/cyfitter_cfg.c **** 	/* CYDEV_PERI_PCLK_CTL11 Starting address: CYDEV_PERI_PCLK_CTL11 */
 261:Generated_Source\PSoC4/cyfitter_cfg.c **** 	CY_SET_REG32((void *)(CYREG_PERI_PCLK_CTL11), 0x00000042u);
 231              		.loc 1 261 0
 232 008a 4222     		movs	r2, #66
 233 008c 1D4B     		ldr	r3, .L8+84
 234 008e 1A60     		str	r2, [r3]
 262:Generated_Source\PSoC4/cyfitter_cfg.c **** 
 263:Generated_Source\PSoC4/cyfitter_cfg.c **** 	/* CYDEV_PERI_PCLK_CTL5 Starting address: CYDEV_PERI_PCLK_CTL5 */
 264:Generated_Source\PSoC4/cyfitter_cfg.c **** 	CY_SET_REG32((void *)(CYREG_PERI_PCLK_CTL5), 0x00000040u);
 235              		.loc 1 264 0
 236 0090 023A     		subs	r2, r2, #2
 237 0092 1D4B     		ldr	r3, .L8+88
 238 0094 1A60     		str	r2, [r3]
 265:Generated_Source\PSoC4/cyfitter_cfg.c **** 
 266:Generated_Source\PSoC4/cyfitter_cfg.c **** 	/* CYDEV_PERI_PCLK_CTL4 Starting address: CYDEV_PERI_PCLK_CTL4 */
 267:Generated_Source\PSoC4/cyfitter_cfg.c **** 	CY_SET_REG32((void *)(CYREG_PERI_PCLK_CTL4), 0x00000041u);
 239              		.loc 1 267 0
 240 0096 0132     		adds	r2, r2, #1
ARM GAS  C:\Users\Art\AppData\Local\Temp\ccVNqiua.s 			page 10


 241 0098 1C4B     		ldr	r3, .L8+92
 242 009a 1A60     		str	r2, [r3]
 268:Generated_Source\PSoC4/cyfitter_cfg.c **** 
 269:Generated_Source\PSoC4/cyfitter_cfg.c **** 	(void)CyIntSetVector(8u, &CySysWdtIsr);
 243              		.loc 1 269 0
 244 009c 1C49     		ldr	r1, .L8+96
 245 009e 0820     		movs	r0, #8
 246 00a0 FFF7FEFF 		bl	CyIntSetVector
 247              	.LVL21:
 270:Generated_Source\PSoC4/cyfitter_cfg.c **** 	CyIntEnable(8u);
 248              		.loc 1 270 0
 249 00a4 0820     		movs	r0, #8
 250 00a6 FFF7FEFF 		bl	CyIntEnable
 251              	.LVL22:
 271:Generated_Source\PSoC4/cyfitter_cfg.c **** 	CY_SET_REG32((void *)(CYREG_WDT_CONFIG), 0x40000000u);
 252              		.loc 1 271 0
 253 00aa 2560     		str	r5, [r4]
 272:Generated_Source\PSoC4/cyfitter_cfg.c **** }
 254              		.loc 1 272 0
 255              		@ sp needed
 256 00ac 70BD     		pop	{r4, r5, r6, pc}
 257              	.L9:
 258 00ae C046     		.align	2
 259              	.L8:
 260 00b0 30001040 		.word	1074790448
 261 00b4 001BB700 		.word	12000000
 262 00b8 06000080 		.word	-2147483642
 263 00bc 04010B40 		.word	1074462980
 264 00c0 0C020B40 		.word	1074463244
 265 00c4 78002E40 		.word	1076756600
 266 00c8 2D3E0000 		.word	15917
 267 00cc 7C002E40 		.word	1076756604
 268 00d0 64F02E40 		.word	1076818020
 269 00d4 6CF02E40 		.word	1076818028
 270 00d8 DC050000 		.word	1500
 271 00dc 007FBB00 		.word	12287744
 272 00e0 08030140 		.word	1073808136
 273 00e4 00000140 		.word	1073807360
 274 00e8 42FF0080 		.word	-2147418302
 275 00ec 00030140 		.word	1073808128
 276 00f0 40FF0080 		.word	-2147418304
 277 00f4 04030140 		.word	1073808132
 278 00f8 41FF0080 		.word	-2147418303
 279 00fc 08010B40 		.word	1074462984
 280 0100 00010B40 		.word	1074462976
 281 0104 2C010140 		.word	1073807660
 282 0108 14010140 		.word	1073807636
 283 010c 10010140 		.word	1073807632
 284 0110 00000000 		.word	CySysWdtIsr
 285              		.cfi_endproc
 286              	.LFE6:
 287              		.size	ClockSetup, .-ClockSetup
 288              		.section	.text.SetAnalogRoutingPumps,"ax",%progbits
 289              		.align	2
 290              		.global	SetAnalogRoutingPumps
 291              		.code	16
 292              		.thumb_func
ARM GAS  C:\Users\Art\AppData\Local\Temp\ccVNqiua.s 			page 11


 293              		.type	SetAnalogRoutingPumps, %function
 294              	SetAnalogRoutingPumps:
 295              	.LFB8:
 273:Generated_Source\PSoC4/cyfitter_cfg.c **** 
 274:Generated_Source\PSoC4/cyfitter_cfg.c **** 
 275:Generated_Source\PSoC4/cyfitter_cfg.c **** /* Analog API Functions */
 276:Generated_Source\PSoC4/cyfitter_cfg.c **** 
 277:Generated_Source\PSoC4/cyfitter_cfg.c **** 
 278:Generated_Source\PSoC4/cyfitter_cfg.c **** /*******************************************************************************
 279:Generated_Source\PSoC4/cyfitter_cfg.c **** * Function Name: AnalogSetDefault
 280:Generated_Source\PSoC4/cyfitter_cfg.c **** ********************************************************************************
 281:Generated_Source\PSoC4/cyfitter_cfg.c **** *
 282:Generated_Source\PSoC4/cyfitter_cfg.c **** * Summary:
 283:Generated_Source\PSoC4/cyfitter_cfg.c **** *  Sets up the analog portions of the chip to default values based on chip
 284:Generated_Source\PSoC4/cyfitter_cfg.c **** *  configuration options from the project.
 285:Generated_Source\PSoC4/cyfitter_cfg.c **** *
 286:Generated_Source\PSoC4/cyfitter_cfg.c **** * Parameters:
 287:Generated_Source\PSoC4/cyfitter_cfg.c **** *  void
 288:Generated_Source\PSoC4/cyfitter_cfg.c **** *
 289:Generated_Source\PSoC4/cyfitter_cfg.c **** * Return:
 290:Generated_Source\PSoC4/cyfitter_cfg.c **** *  void
 291:Generated_Source\PSoC4/cyfitter_cfg.c **** *
 292:Generated_Source\PSoC4/cyfitter_cfg.c **** *******************************************************************************/
 293:Generated_Source\PSoC4/cyfitter_cfg.c **** static void AnalogSetDefault(void);
 294:Generated_Source\PSoC4/cyfitter_cfg.c **** static void AnalogSetDefault(void)
 295:Generated_Source\PSoC4/cyfitter_cfg.c **** {
 296:Generated_Source\PSoC4/cyfitter_cfg.c **** 	CY_SET_XTND_REG32((void CYFAR *)CYREG_CTBM0_DFT_CTRL, 0x00000003u);
 297:Generated_Source\PSoC4/cyfitter_cfg.c **** 	CY_SET_XTND_REG32((void CYFAR *)CYREG_CTBM1_DFT_CTRL, 0x00000003u);
 298:Generated_Source\PSoC4/cyfitter_cfg.c **** 	CY_SET_XTND_REG32((void CYFAR *)CYREG_PASS_DSAB_DSAB_CTRL, 0x00000000u);
 299:Generated_Source\PSoC4/cyfitter_cfg.c **** 	SetAnalogRoutingPumps(1);
 300:Generated_Source\PSoC4/cyfitter_cfg.c **** }
 301:Generated_Source\PSoC4/cyfitter_cfg.c **** 
 302:Generated_Source\PSoC4/cyfitter_cfg.c **** 
 303:Generated_Source\PSoC4/cyfitter_cfg.c **** /*******************************************************************************
 304:Generated_Source\PSoC4/cyfitter_cfg.c **** * Function Name: SetAnalogRoutingPumps
 305:Generated_Source\PSoC4/cyfitter_cfg.c **** ********************************************************************************
 306:Generated_Source\PSoC4/cyfitter_cfg.c **** *
 307:Generated_Source\PSoC4/cyfitter_cfg.c **** * Summary:
 308:Generated_Source\PSoC4/cyfitter_cfg.c **** * Enables or disables the analog pumps feeding analog routing switches.
 309:Generated_Source\PSoC4/cyfitter_cfg.c **** * Intended to be called at startup, based on the Vdda system configuration;
 310:Generated_Source\PSoC4/cyfitter_cfg.c **** * may be called during operation when the user informs us that the Vdda voltage crossed the pump th
 311:Generated_Source\PSoC4/cyfitter_cfg.c **** *
 312:Generated_Source\PSoC4/cyfitter_cfg.c **** * Parameters:
 313:Generated_Source\PSoC4/cyfitter_cfg.c **** *  enabled - 1 to enable the pumps, 0 to disable the pumps
 314:Generated_Source\PSoC4/cyfitter_cfg.c **** *
 315:Generated_Source\PSoC4/cyfitter_cfg.c **** * Return:
 316:Generated_Source\PSoC4/cyfitter_cfg.c **** *  void
 317:Generated_Source\PSoC4/cyfitter_cfg.c **** *
 318:Generated_Source\PSoC4/cyfitter_cfg.c **** *******************************************************************************/
 319:Generated_Source\PSoC4/cyfitter_cfg.c **** void SetAnalogRoutingPumps(uint8 enabled)
 320:Generated_Source\PSoC4/cyfitter_cfg.c **** {
 296              		.loc 1 320 0
 297              		.cfi_startproc
 298              		@ args = 0, pretend = 0, frame = 0
 299              		@ frame_needed = 0, uses_anonymous_args = 0
 300              		@ link register save eliminated.
 301              	.LVL23:
ARM GAS  C:\Users\Art\AppData\Local\Temp\ccVNqiua.s 			page 12


 321:Generated_Source\PSoC4/cyfitter_cfg.c **** 	uint32 regValue = CY_GET_XTND_REG32((void *)(CYREG_SAR_PUMP_CTRL));
 302              		.loc 1 321 0
 303 0000 0C4B     		ldr	r3, .L15
 304 0002 1B68     		ldr	r3, [r3]
 305              	.LVL24:
 322:Generated_Source\PSoC4/cyfitter_cfg.c **** 	if (enabled != 0u)
 306              		.loc 1 322 0
 307 0004 0028     		cmp	r0, #0
 308 0006 03D0     		beq	.L11
 323:Generated_Source\PSoC4/cyfitter_cfg.c **** 	{
 324:Generated_Source\PSoC4/cyfitter_cfg.c **** 		regValue |= 0x80000000u;
 309              		.loc 1 324 0
 310 0008 8022     		movs	r2, #128
 311 000a 1206     		lsls	r2, r2, #24
 312 000c 1343     		orrs	r3, r2
 313              	.LVL25:
 314 000e 01E0     		b	.L12
 315              	.L11:
 325:Generated_Source\PSoC4/cyfitter_cfg.c **** 	}
 326:Generated_Source\PSoC4/cyfitter_cfg.c **** 	else
 327:Generated_Source\PSoC4/cyfitter_cfg.c **** 	{
 328:Generated_Source\PSoC4/cyfitter_cfg.c **** 		regValue &= ~0x80000000u;
 316              		.loc 1 328 0
 317 0010 5B00     		lsls	r3, r3, #1
 318              	.LVL26:
 319 0012 5B08     		lsrs	r3, r3, #1
 320              	.LVL27:
 321              	.L12:
 329:Generated_Source\PSoC4/cyfitter_cfg.c **** 	}
 330:Generated_Source\PSoC4/cyfitter_cfg.c **** 	CY_SET_XTND_REG32((void *)(CYREG_SAR_PUMP_CTRL), regValue);
 322              		.loc 1 330 0
 323 0014 074A     		ldr	r2, .L15
 324 0016 1360     		str	r3, [r2]
 331:Generated_Source\PSoC4/cyfitter_cfg.c **** 	regValue = CY_GET_XTND_REG32((void *)(CYREG_CLK_IMO_CONFIG));
 325              		.loc 1 331 0
 326 0018 074B     		ldr	r3, .L15+4
 327              	.LVL28:
 328 001a 1B68     		ldr	r3, [r3]
 329              	.LVL29:
 332:Generated_Source\PSoC4/cyfitter_cfg.c **** 	if (enabled != 0u)
 330              		.loc 1 332 0
 331 001c 0028     		cmp	r0, #0
 332 001e 03D0     		beq	.L13
 333:Generated_Source\PSoC4/cyfitter_cfg.c **** 	{
 334:Generated_Source\PSoC4/cyfitter_cfg.c **** 		regValue |= 0x02000000u;
 333              		.loc 1 334 0
 334 0020 8022     		movs	r2, #128
 335 0022 9204     		lsls	r2, r2, #18
 336 0024 1343     		orrs	r3, r2
 337              	.LVL30:
 338 0026 01E0     		b	.L14
 339              	.L13:
 335:Generated_Source\PSoC4/cyfitter_cfg.c **** 	}
 336:Generated_Source\PSoC4/cyfitter_cfg.c **** 	else
 337:Generated_Source\PSoC4/cyfitter_cfg.c **** 	{
 338:Generated_Source\PSoC4/cyfitter_cfg.c **** 		regValue &= ~0x02000000u;
 340              		.loc 1 338 0
ARM GAS  C:\Users\Art\AppData\Local\Temp\ccVNqiua.s 			page 13


 341 0028 044A     		ldr	r2, .L15+8
 342 002a 1340     		ands	r3, r2
 343              	.LVL31:
 344              	.L14:
 339:Generated_Source\PSoC4/cyfitter_cfg.c **** 	}
 340:Generated_Source\PSoC4/cyfitter_cfg.c **** 	CY_SET_XTND_REG32((void *)(CYREG_CLK_IMO_CONFIG), regValue);
 345              		.loc 1 340 0
 346 002c 024A     		ldr	r2, .L15+4
 347 002e 1360     		str	r3, [r2]
 341:Generated_Source\PSoC4/cyfitter_cfg.c **** }
 348              		.loc 1 341 0
 349              		@ sp needed
 350 0030 7047     		bx	lr
 351              	.L16:
 352 0032 C046     		.align	2
 353              	.L15:
 354 0034 80033A40 		.word	1077543808
 355 0038 08010B40 		.word	1074462984
 356 003c FFFFFFFD 		.word	-33554433
 357              		.cfi_endproc
 358              	.LFE8:
 359              		.size	SetAnalogRoutingPumps, .-SetAnalogRoutingPumps
 360              		.section	.text.AnalogSetDefault,"ax",%progbits
 361              		.align	2
 362              		.code	16
 363              		.thumb_func
 364              		.type	AnalogSetDefault, %function
 365              	AnalogSetDefault:
 366              	.LFB7:
 295:Generated_Source\PSoC4/cyfitter_cfg.c **** 	CY_SET_XTND_REG32((void CYFAR *)CYREG_CTBM0_DFT_CTRL, 0x00000003u);
 367              		.loc 1 295 0
 368              		.cfi_startproc
 369              		@ args = 0, pretend = 0, frame = 0
 370              		@ frame_needed = 0, uses_anonymous_args = 0
 371 0000 10B5     		push	{r4, lr}
 372              		.cfi_def_cfa_offset 8
 373              		.cfi_offset 4, -8
 374              		.cfi_offset 14, -4
 296:Generated_Source\PSoC4/cyfitter_cfg.c **** 	CY_SET_XTND_REG32((void CYFAR *)CYREG_CTBM1_DFT_CTRL, 0x00000003u);
 375              		.loc 1 296 0
 376 0002 0323     		movs	r3, #3
 377 0004 054A     		ldr	r2, .L18
 378 0006 1360     		str	r3, [r2]
 297:Generated_Source\PSoC4/cyfitter_cfg.c **** 	CY_SET_XTND_REG32((void CYFAR *)CYREG_PASS_DSAB_DSAB_CTRL, 0x00000000u);
 379              		.loc 1 297 0
 380 0008 054A     		ldr	r2, .L18+4
 381 000a 1360     		str	r3, [r2]
 298:Generated_Source\PSoC4/cyfitter_cfg.c **** 	SetAnalogRoutingPumps(1);
 382              		.loc 1 298 0
 383 000c 0022     		movs	r2, #0
 384 000e 054B     		ldr	r3, .L18+8
 385 0010 1A60     		str	r2, [r3]
 299:Generated_Source\PSoC4/cyfitter_cfg.c **** }
 386              		.loc 1 299 0
 387 0012 0120     		movs	r0, #1
 388 0014 FFF7FEFF 		bl	SetAnalogRoutingPumps
 389              	.LVL32:
ARM GAS  C:\Users\Art\AppData\Local\Temp\ccVNqiua.s 			page 14


 300:Generated_Source\PSoC4/cyfitter_cfg.c **** 
 390              		.loc 1 300 0
 391              		@ sp needed
 392 0018 10BD     		pop	{r4, pc}
 393              	.L19:
 394 001a C046     		.align	2
 395              	.L18:
 396 001c 30003040 		.word	1076887600
 397 0020 30003140 		.word	1076953136
 398 0024 000E3F40 		.word	1077874176
 399              		.cfi_endproc
 400              	.LFE7:
 401              		.size	AnalogSetDefault, .-AnalogSetDefault
 402              		.section	.psocinit
 403              		.align	2
 404              		.global	cyfitter_cfg
 405              		.code	16
 406              		.thumb_func
 407              		.type	cyfitter_cfg, %function
 408              	cyfitter_cfg:
 409              	.LFB9:
 342:Generated_Source\PSoC4/cyfitter_cfg.c **** 
 343:Generated_Source\PSoC4/cyfitter_cfg.c **** 
 344:Generated_Source\PSoC4/cyfitter_cfg.c **** 
 345:Generated_Source\PSoC4/cyfitter_cfg.c **** 
 346:Generated_Source\PSoC4/cyfitter_cfg.c **** /*******************************************************************************
 347:Generated_Source\PSoC4/cyfitter_cfg.c **** * Function Name: cyfitter_cfg
 348:Generated_Source\PSoC4/cyfitter_cfg.c **** ********************************************************************************
 349:Generated_Source\PSoC4/cyfitter_cfg.c **** * Summary:
 350:Generated_Source\PSoC4/cyfitter_cfg.c **** *  This function is called by the start-up code for the selected device. It
 351:Generated_Source\PSoC4/cyfitter_cfg.c **** *  performs all of the necessary device configuration based on the design
 352:Generated_Source\PSoC4/cyfitter_cfg.c **** *  settings.  This includes settings from the Design Wide Resources (DWR) such
 353:Generated_Source\PSoC4/cyfitter_cfg.c **** *  as Clocks and Pins as well as any component configuration that is necessary.
 354:Generated_Source\PSoC4/cyfitter_cfg.c **** *
 355:Generated_Source\PSoC4/cyfitter_cfg.c **** * Parameters:
 356:Generated_Source\PSoC4/cyfitter_cfg.c **** *   void
 357:Generated_Source\PSoC4/cyfitter_cfg.c **** *
 358:Generated_Source\PSoC4/cyfitter_cfg.c **** * Return:
 359:Generated_Source\PSoC4/cyfitter_cfg.c **** *   void
 360:Generated_Source\PSoC4/cyfitter_cfg.c **** *
 361:Generated_Source\PSoC4/cyfitter_cfg.c **** *******************************************************************************/
 362:Generated_Source\PSoC4/cyfitter_cfg.c **** CY_CFG_SECTION
 363:Generated_Source\PSoC4/cyfitter_cfg.c **** void cyfitter_cfg(void)
 364:Generated_Source\PSoC4/cyfitter_cfg.c **** {
 410              		.loc 1 364 0
 411              		.cfi_startproc
 412              		@ args = 0, pretend = 0, frame = 0
 413              		@ frame_needed = 0, uses_anonymous_args = 0
 414 0114 10B5     		push	{r4, lr}
 415              		.cfi_def_cfa_offset 8
 416              		.cfi_offset 4, -8
 417              		.cfi_offset 14, -4
 365:Generated_Source\PSoC4/cyfitter_cfg.c **** 	/* Disable interrupts by default. Let user enable if/when they want. */
 366:Generated_Source\PSoC4/cyfitter_cfg.c **** 	CyGlobalIntDisable;
 418              		.loc 1 366 0
 419              		.syntax divided
 420              	@ 366 "Generated_Source\PSoC4\cyfitter_cfg.c" 1
ARM GAS  C:\Users\Art\AppData\Local\Temp\ccVNqiua.s 			page 15


 421 0116 72B6     		CPSID   i
 422              	@ 0 "" 2
 367:Generated_Source\PSoC4/cyfitter_cfg.c **** 
 368:Generated_Source\PSoC4/cyfitter_cfg.c **** 	CY_SET_REG32((void *)(CYREG_BLE_BLESS_LL_DSM_CTRL), 0x00000000u);
 423              		.loc 1 368 0
 424              		.thumb
 425              		.syntax unified
 426 0118 0022     		movs	r2, #0
 427 011a 304B     		ldr	r3, .L23
 428 011c 1A60     		str	r2, [r3]
 429              	.LVL33:
 430              	.LBB3:
 369:Generated_Source\PSoC4/cyfitter_cfg.c **** 
 370:Generated_Source\PSoC4/cyfitter_cfg.c **** 	{
 371:Generated_Source\PSoC4/cyfitter_cfg.c **** 		static const uint32 CYCODE cy_cfg_addr_table[] = {
 372:Generated_Source\PSoC4/cyfitter_cfg.c **** 			0x400F0001u, /* Base address: 0x400F0000 Count: 1 */
 373:Generated_Source\PSoC4/cyfitter_cfg.c **** 			0x400F322Eu, /* Base address: 0x400F3200 Count: 46 */
 374:Generated_Source\PSoC4/cyfitter_cfg.c **** 			0x400F331Du, /* Base address: 0x400F3300 Count: 29 */
 375:Generated_Source\PSoC4/cyfitter_cfg.c **** 			0x400F4105u, /* Base address: 0x400F4100 Count: 5 */
 376:Generated_Source\PSoC4/cyfitter_cfg.c **** 			0x400F4304u, /* Base address: 0x400F4300 Count: 4 */
 377:Generated_Source\PSoC4/cyfitter_cfg.c **** 			0x400F6002u, /* Base address: 0x400F6000 Count: 2 */
 378:Generated_Source\PSoC4/cyfitter_cfg.c **** 		};
 379:Generated_Source\PSoC4/cyfitter_cfg.c **** 
 380:Generated_Source\PSoC4/cyfitter_cfg.c **** 		static const cy_cfg_addrvalue_t CYCODE cy_cfg_data_table[] = {
 381:Generated_Source\PSoC4/cyfitter_cfg.c **** 			{0x82u, 0x0Du},
 382:Generated_Source\PSoC4/cyfitter_cfg.c **** 			{0x00u, 0x08u},
 383:Generated_Source\PSoC4/cyfitter_cfg.c **** 			{0x03u, 0x01u},
 384:Generated_Source\PSoC4/cyfitter_cfg.c **** 			{0x14u, 0x01u},
 385:Generated_Source\PSoC4/cyfitter_cfg.c **** 			{0x1Au, 0x07u},
 386:Generated_Source\PSoC4/cyfitter_cfg.c **** 			{0x1Fu, 0x02u},
 387:Generated_Source\PSoC4/cyfitter_cfg.c **** 			{0x23u, 0x02u},
 388:Generated_Source\PSoC4/cyfitter_cfg.c **** 			{0x2Eu, 0x04u},
 389:Generated_Source\PSoC4/cyfitter_cfg.c **** 			{0x30u, 0x04u},
 390:Generated_Source\PSoC4/cyfitter_cfg.c **** 			{0x31u, 0x01u},
 391:Generated_Source\PSoC4/cyfitter_cfg.c **** 			{0x32u, 0x02u},
 392:Generated_Source\PSoC4/cyfitter_cfg.c **** 			{0x34u, 0x08u},
 393:Generated_Source\PSoC4/cyfitter_cfg.c **** 			{0x35u, 0x02u},
 394:Generated_Source\PSoC4/cyfitter_cfg.c **** 			{0x36u, 0x01u},
 395:Generated_Source\PSoC4/cyfitter_cfg.c **** 			{0x3Eu, 0x10u},
 396:Generated_Source\PSoC4/cyfitter_cfg.c **** 			{0x3Fu, 0x10u},
 397:Generated_Source\PSoC4/cyfitter_cfg.c **** 			{0x40u, 0x10u},
 398:Generated_Source\PSoC4/cyfitter_cfg.c **** 			{0x41u, 0x05u},
 399:Generated_Source\PSoC4/cyfitter_cfg.c **** 			{0x45u, 0xD1u},
 400:Generated_Source\PSoC4/cyfitter_cfg.c **** 			{0x46u, 0x02u},
 401:Generated_Source\PSoC4/cyfitter_cfg.c **** 			{0x48u, 0x07u},
 402:Generated_Source\PSoC4/cyfitter_cfg.c **** 			{0x49u, 0xFFu},
 403:Generated_Source\PSoC4/cyfitter_cfg.c **** 			{0x4Au, 0xFFu},
 404:Generated_Source\PSoC4/cyfitter_cfg.c **** 			{0x4Bu, 0xFFu},
 405:Generated_Source\PSoC4/cyfitter_cfg.c **** 			{0x4Du, 0xA0u},
 406:Generated_Source\PSoC4/cyfitter_cfg.c **** 			{0x4Fu, 0x04u},
 407:Generated_Source\PSoC4/cyfitter_cfg.c **** 			{0x50u, 0x18u},
 408:Generated_Source\PSoC4/cyfitter_cfg.c **** 			{0x52u, 0x80u},
 409:Generated_Source\PSoC4/cyfitter_cfg.c **** 			{0x54u, 0x05u},
 410:Generated_Source\PSoC4/cyfitter_cfg.c **** 			{0x58u, 0x04u},
 411:Generated_Source\PSoC4/cyfitter_cfg.c **** 			{0x59u, 0x04u},
 412:Generated_Source\PSoC4/cyfitter_cfg.c **** 			{0x5Au, 0x04u},
 413:Generated_Source\PSoC4/cyfitter_cfg.c **** 			{0x5Bu, 0x04u},
ARM GAS  C:\Users\Art\AppData\Local\Temp\ccVNqiua.s 			page 16


 414:Generated_Source\PSoC4/cyfitter_cfg.c **** 			{0x5Fu, 0x01u},
 415:Generated_Source\PSoC4/cyfitter_cfg.c **** 			{0x60u, 0x40u},
 416:Generated_Source\PSoC4/cyfitter_cfg.c **** 			{0x62u, 0xC0u},
 417:Generated_Source\PSoC4/cyfitter_cfg.c **** 			{0x64u, 0x40u},
 418:Generated_Source\PSoC4/cyfitter_cfg.c **** 			{0x65u, 0x40u},
 419:Generated_Source\PSoC4/cyfitter_cfg.c **** 			{0x66u, 0xC0u},
 420:Generated_Source\PSoC4/cyfitter_cfg.c **** 			{0x68u, 0xC0u},
 421:Generated_Source\PSoC4/cyfitter_cfg.c **** 			{0x6Au, 0xC0u},
 422:Generated_Source\PSoC4/cyfitter_cfg.c **** 			{0x6Cu, 0xC0u},
 423:Generated_Source\PSoC4/cyfitter_cfg.c **** 			{0x6Eu, 0xC0u},
 424:Generated_Source\PSoC4/cyfitter_cfg.c **** 			{0xB8u, 0x20u},
 425:Generated_Source\PSoC4/cyfitter_cfg.c **** 			{0xBEu, 0x10u},
 426:Generated_Source\PSoC4/cyfitter_cfg.c **** 			{0xD8u, 0x04u},
 427:Generated_Source\PSoC4/cyfitter_cfg.c **** 			{0xDFu, 0x01u},
 428:Generated_Source\PSoC4/cyfitter_cfg.c **** 			{0x05u, 0x01u},
 429:Generated_Source\PSoC4/cyfitter_cfg.c **** 			{0x0Eu, 0x20u},
 430:Generated_Source\PSoC4/cyfitter_cfg.c **** 			{0x0Fu, 0x08u},
 431:Generated_Source\PSoC4/cyfitter_cfg.c **** 			{0x17u, 0x80u},
 432:Generated_Source\PSoC4/cyfitter_cfg.c **** 			{0x1Au, 0x04u},
 433:Generated_Source\PSoC4/cyfitter_cfg.c **** 			{0x1Du, 0x11u},
 434:Generated_Source\PSoC4/cyfitter_cfg.c **** 			{0x1Eu, 0x20u},
 435:Generated_Source\PSoC4/cyfitter_cfg.c **** 			{0x1Fu, 0x40u},
 436:Generated_Source\PSoC4/cyfitter_cfg.c **** 			{0x27u, 0x88u},
 437:Generated_Source\PSoC4/cyfitter_cfg.c **** 			{0x2Fu, 0x80u},
 438:Generated_Source\PSoC4/cyfitter_cfg.c **** 			{0x37u, 0x80u},
 439:Generated_Source\PSoC4/cyfitter_cfg.c **** 			{0x3Cu, 0x02u},
 440:Generated_Source\PSoC4/cyfitter_cfg.c **** 			{0x47u, 0x80u},
 441:Generated_Source\PSoC4/cyfitter_cfg.c **** 			{0x4Bu, 0xC0u},
 442:Generated_Source\PSoC4/cyfitter_cfg.c **** 			{0x4Fu, 0x89u},
 443:Generated_Source\PSoC4/cyfitter_cfg.c **** 			{0x57u, 0xC0u},
 444:Generated_Source\PSoC4/cyfitter_cfg.c **** 			{0x5Fu, 0x49u},
 445:Generated_Source\PSoC4/cyfitter_cfg.c **** 			{0x74u, 0x01u},
 446:Generated_Source\PSoC4/cyfitter_cfg.c **** 			{0x86u, 0x04u},
 447:Generated_Source\PSoC4/cyfitter_cfg.c **** 			{0x8Du, 0x10u},
 448:Generated_Source\PSoC4/cyfitter_cfg.c **** 			{0xC0u, 0x10u},
 449:Generated_Source\PSoC4/cyfitter_cfg.c **** 			{0xC2u, 0x60u},
 450:Generated_Source\PSoC4/cyfitter_cfg.c **** 			{0xC4u, 0x80u},
 451:Generated_Source\PSoC4/cyfitter_cfg.c **** 			{0xCAu, 0x80u},
 452:Generated_Source\PSoC4/cyfitter_cfg.c **** 			{0xCCu, 0x10u},
 453:Generated_Source\PSoC4/cyfitter_cfg.c **** 			{0xCEu, 0x80u},
 454:Generated_Source\PSoC4/cyfitter_cfg.c **** 			{0xD0u, 0x10u},
 455:Generated_Source\PSoC4/cyfitter_cfg.c **** 			{0xD2u, 0x10u},
 456:Generated_Source\PSoC4/cyfitter_cfg.c **** 			{0xD6u, 0xD0u},
 457:Generated_Source\PSoC4/cyfitter_cfg.c **** 			{0x3Bu, 0x04u},
 458:Generated_Source\PSoC4/cyfitter_cfg.c **** 			{0x3Fu, 0x04u},
 459:Generated_Source\PSoC4/cyfitter_cfg.c **** 			{0x87u, 0x04u},
 460:Generated_Source\PSoC4/cyfitter_cfg.c **** 			{0xCEu, 0xC0u},
 461:Generated_Source\PSoC4/cyfitter_cfg.c **** 			{0xE2u, 0x40u},
 462:Generated_Source\PSoC4/cyfitter_cfg.c **** 			{0x60u, 0x20u},
 463:Generated_Source\PSoC4/cyfitter_cfg.c **** 			{0x8Cu, 0x20u},
 464:Generated_Source\PSoC4/cyfitter_cfg.c **** 			{0xD8u, 0x02u},
 465:Generated_Source\PSoC4/cyfitter_cfg.c **** 			{0xE0u, 0x02u},
 466:Generated_Source\PSoC4/cyfitter_cfg.c **** 			{0x01u, 0x01u},
 467:Generated_Source\PSoC4/cyfitter_cfg.c **** 			{0x10u, 0x01u},
 468:Generated_Source\PSoC4/cyfitter_cfg.c **** 		};
 469:Generated_Source\PSoC4/cyfitter_cfg.c **** 
 470:Generated_Source\PSoC4/cyfitter_cfg.c **** 
ARM GAS  C:\Users\Art\AppData\Local\Temp\ccVNqiua.s 			page 17


 471:Generated_Source\PSoC4/cyfitter_cfg.c **** 
 472:Generated_Source\PSoC4/cyfitter_cfg.c **** 		CYPACKED typedef struct {
 473:Generated_Source\PSoC4/cyfitter_cfg.c **** 			void CYFAR *address;
 474:Generated_Source\PSoC4/cyfitter_cfg.c **** 			uint16 size;
 475:Generated_Source\PSoC4/cyfitter_cfg.c **** 		} CYPACKED_ATTR cfg_memset_t;
 476:Generated_Source\PSoC4/cyfitter_cfg.c **** 
 477:Generated_Source\PSoC4/cyfitter_cfg.c **** 		static const cfg_memset_t CYCODE cfg_memset_list[] = {
 478:Generated_Source\PSoC4/cyfitter_cfg.c **** 			/* address, size */
 479:Generated_Source\PSoC4/cyfitter_cfg.c **** 			{(void CYFAR *)(CYDEV_UDB_P0_U0_BASE), 1024u},
 480:Generated_Source\PSoC4/cyfitter_cfg.c **** 			{(void CYFAR *)(CYDEV_UDB_DSI0_BASE), 1024u},
 481:Generated_Source\PSoC4/cyfitter_cfg.c **** 		};
 482:Generated_Source\PSoC4/cyfitter_cfg.c **** 
 483:Generated_Source\PSoC4/cyfitter_cfg.c **** 		uint8 CYDATA i;
 484:Generated_Source\PSoC4/cyfitter_cfg.c **** 
 485:Generated_Source\PSoC4/cyfitter_cfg.c **** 		/* Zero out critical memory blocks before beginning configuration */
 486:Generated_Source\PSoC4/cyfitter_cfg.c **** 		for (i = 0u; i < (sizeof(cfg_memset_list)/sizeof(cfg_memset_list[0])); i++)
 431              		.loc 1 486 0
 432 011e 0024     		movs	r4, #0
 433 0120 0FE0     		b	.L21
 434              	.LVL34:
 435              	.L22:
 436              	.LBB4:
 487:Generated_Source\PSoC4/cyfitter_cfg.c **** 		{
 488:Generated_Source\PSoC4/cyfitter_cfg.c **** 			const cfg_memset_t CYCODE * CYDATA ms = &cfg_memset_list[i];
 489:Generated_Source\PSoC4/cyfitter_cfg.c **** 			CYMEMZERO(ms->address, (size_t)(uint32)(ms->size));
 437              		.loc 1 489 0 discriminator 3
 438 0122 2F48     		ldr	r0, .L23+4
 439 0124 6200     		lsls	r2, r4, #1
 440 0126 1319     		adds	r3, r2, r4
 441 0128 5900     		lsls	r1, r3, #1
 442 012a 0B00     		movs	r3, r1
 443 012c 4118     		adds	r1, r0, r1
 444 012e 8988     		ldrh	r1, [r1, #4]
 445 0130 1A5A     		ldrh	r2, [r3, r0]
 446 0132 C318     		adds	r3, r0, r3
 447 0134 5888     		ldrh	r0, [r3, #2]
 448 0136 0004     		lsls	r0, r0, #16
 449 0138 1043     		orrs	r0, r2
 450 013a FFF7FEFF 		bl	CYMEMZERO
 451              	.LVL35:
 452              	.LBE4:
 486:Generated_Source\PSoC4/cyfitter_cfg.c **** 		{
 453              		.loc 1 486 0 discriminator 3
 454 013e 0134     		adds	r4, r4, #1
 455              	.LVL36:
 456 0140 E4B2     		uxtb	r4, r4
 457              	.LVL37:
 458              	.L21:
 486:Generated_Source\PSoC4/cyfitter_cfg.c **** 		{
 459              		.loc 1 486 0 is_stmt 0 discriminator 1
 460 0142 012C     		cmp	r4, #1
 461 0144 EDD9     		bls	.L22
 490:Generated_Source\PSoC4/cyfitter_cfg.c **** 		}
 491:Generated_Source\PSoC4/cyfitter_cfg.c **** 
 492:Generated_Source\PSoC4/cyfitter_cfg.c **** 		cfg_write_bytes32(cy_cfg_addr_table, cy_cfg_data_table);
 462              		.loc 1 492 0 is_stmt 1
 463 0146 2649     		ldr	r1, .L23+4
ARM GAS  C:\Users\Art\AppData\Local\Temp\ccVNqiua.s 			page 18


 464 0148 0C31     		adds	r1, r1, #12
 465 014a 2648     		ldr	r0, .L23+8
 466 014c 3C30     		adds	r0, r0, #60
 467 014e FFF7FEFF 		bl	cfg_write_bytes32
 468              	.LVL38:
 493:Generated_Source\PSoC4/cyfitter_cfg.c **** 
 494:Generated_Source\PSoC4/cyfitter_cfg.c **** 		/* PWR_BG_CONFIG Starting address: CYDEV_PWR_BG_CONFIG */
 495:Generated_Source\PSoC4/cyfitter_cfg.c **** 		CY_SET_REG32((void *)(CYREG_PWR_BG_CONFIG), 0x00040000u);
 469              		.loc 1 495 0
 470 0152 8022     		movs	r2, #128
 471 0154 D202     		lsls	r2, r2, #11
 472 0156 244B     		ldr	r3, .L23+12
 473 0158 1A60     		str	r2, [r3]
 496:Generated_Source\PSoC4/cyfitter_cfg.c **** 
 497:Generated_Source\PSoC4/cyfitter_cfg.c **** 		/* HSIOM Starting address: CYDEV_HSIOM_BASE */
 498:Generated_Source\PSoC4/cyfitter_cfg.c **** 		CY_SET_REG32((void *)(CYDEV_HSIOM_BASE), 0xEE000000u);
 474              		.loc 1 498 0
 475 015a EE22     		movs	r2, #238
 476 015c 1206     		lsls	r2, r2, #24
 477 015e 234B     		ldr	r3, .L23+16
 478 0160 1A60     		str	r2, [r3]
 499:Generated_Source\PSoC4/cyfitter_cfg.c **** 		CY_SET_REG32((void *)(CYREG_HSIOM_PORT_SEL3), 0x30000000u);
 479              		.loc 1 499 0
 480 0162 C022     		movs	r2, #192
 481 0164 9205     		lsls	r2, r2, #22
 482 0166 224B     		ldr	r3, .L23+20
 483 0168 1A60     		str	r2, [r3]
 500:Generated_Source\PSoC4/cyfitter_cfg.c **** 
 501:Generated_Source\PSoC4/cyfitter_cfg.c **** 		/* UDB_PA_0 Starting address: CYDEV_UDB_PA0_BASE */
 502:Generated_Source\PSoC4/cyfitter_cfg.c **** 		CY_SET_REG32((void *)(CYDEV_UDB_PA0_BASE), 0x00990000u);
 484              		.loc 1 502 0
 485 016a 9923     		movs	r3, #153
 486 016c 1B04     		lsls	r3, r3, #16
 487 016e 214A     		ldr	r2, .L23+24
 488 0170 1360     		str	r3, [r2]
 503:Generated_Source\PSoC4/cyfitter_cfg.c **** 
 504:Generated_Source\PSoC4/cyfitter_cfg.c **** 		/* UDB_PA_2 Starting address: CYDEV_UDB_PA2_BASE */
 505:Generated_Source\PSoC4/cyfitter_cfg.c **** 		CY_SET_REG32((void *)(CYDEV_UDB_PA2_BASE), 0x00990000u);
 489              		.loc 1 505 0
 490 0172 214A     		ldr	r2, .L23+28
 491 0174 1360     		str	r3, [r2]
 506:Generated_Source\PSoC4/cyfitter_cfg.c **** 
 507:Generated_Source\PSoC4/cyfitter_cfg.c **** 		/* UDB_PA_3 Starting address: CYDEV_UDB_PA3_BASE */
 508:Generated_Source\PSoC4/cyfitter_cfg.c **** 		CY_SET_REG32((void *)(CYDEV_UDB_PA3_BASE), 0x00990000u);
 492              		.loc 1 508 0
 493 0176 214A     		ldr	r2, .L23+32
 494 0178 1360     		str	r3, [r2]
 509:Generated_Source\PSoC4/cyfitter_cfg.c **** 		CY_SET_REG32((void *)(CYREG_UDB_PA3_CFG8), 0x80000000u);
 495              		.loc 1 509 0
 496 017a 8022     		movs	r2, #128
 497 017c 1206     		lsls	r2, r2, #24
 498 017e 204B     		ldr	r3, .L23+36
 499 0180 1A60     		str	r2, [r3]
 510:Generated_Source\PSoC4/cyfitter_cfg.c **** 
 511:Generated_Source\PSoC4/cyfitter_cfg.c **** 		/* Enable UDB array and digital routing */
 512:Generated_Source\PSoC4/cyfitter_cfg.c **** 		CY_SET_XTND_REG8((void *)CYREG_UDB_UDBIF_WAIT_CFG, (uint8)((CY_GET_XTND_REG8((void *)CYREG_UDB_UD
 500              		.loc 1 512 0
ARM GAS  C:\Users\Art\AppData\Local\Temp\ccVNqiua.s 			page 19


 501 0182 2049     		ldr	r1, .L23+40
 502 0184 0B78     		ldrb	r3, [r1]
 503 0186 3C22     		movs	r2, #60
 504 0188 9343     		bics	r3, r2
 505 018a 1422     		movs	r2, #20
 506 018c 1343     		orrs	r3, r2
 507 018e DBB2     		uxtb	r3, r3
 508 0190 0B70     		strb	r3, [r1]
 513:Generated_Source\PSoC4/cyfitter_cfg.c **** 		CY_SET_XTND_REG8((void *)CYREG_UDB_UDBIF_BANK_CTL, (uint8)(CY_GET_XTND_REG8((void *)CYREG_UDB_UDB
 509              		.loc 1 513 0
 510 0192 1D4A     		ldr	r2, .L23+44
 511 0194 1178     		ldrb	r1, [r2]
 512 0196 1623     		movs	r3, #22
 513 0198 0B43     		orrs	r3, r1
 514 019a DBB2     		uxtb	r3, r3
 515 019c 1370     		strb	r3, [r2]
 516              	.LBE3:
 514:Generated_Source\PSoC4/cyfitter_cfg.c **** 	}
 515:Generated_Source\PSoC4/cyfitter_cfg.c **** 
 516:Generated_Source\PSoC4/cyfitter_cfg.c **** 	/* Perform second pass device configuration. These items must be configured in specific order afte
 517:Generated_Source\PSoC4/cyfitter_cfg.c **** 	/* IOPINS0_0 Starting address: CYDEV_GPIO_PRT0_BASE */
 518:Generated_Source\PSoC4/cyfitter_cfg.c **** 	CY_SET_REG32((void *)(CYREG_GPIO_PRT0_PC), 0x00D80000u);
 517              		.loc 1 518 0
 518 019e D822     		movs	r2, #216
 519 01a0 1204     		lsls	r2, r2, #16
 520 01a2 1A4B     		ldr	r3, .L23+48
 521 01a4 1A60     		str	r2, [r3]
 519:Generated_Source\PSoC4/cyfitter_cfg.c **** 
 520:Generated_Source\PSoC4/cyfitter_cfg.c **** 	/* IOPINS0_2 Starting address: CYDEV_GPIO_PRT2_BASE */
 521:Generated_Source\PSoC4/cyfitter_cfg.c **** 	CY_SET_REG32((void *)(CYDEV_GPIO_PRT2_BASE), 0x0000007Eu);
 522              		.loc 1 521 0
 523 01a6 7E22     		movs	r2, #126
 524 01a8 194B     		ldr	r3, .L23+52
 525 01aa 1A60     		str	r2, [r3]
 522:Generated_Source\PSoC4/cyfitter_cfg.c **** 	CY_SET_REG32((void *)(CYREG_GPIO_PRT2_PC), 0x00180000u);
 526              		.loc 1 522 0
 527 01ac C022     		movs	r2, #192
 528 01ae 5203     		lsls	r2, r2, #13
 529 01b0 184B     		ldr	r3, .L23+56
 530 01b2 1A60     		str	r2, [r3]
 523:Generated_Source\PSoC4/cyfitter_cfg.c **** 	CY_SET_REG32((void *)(CYREG_GPIO_PRT2_PC2), 0x0000003Eu);
 531              		.loc 1 523 0
 532 01b4 3E22     		movs	r2, #62
 533 01b6 184B     		ldr	r3, .L23+60
 534 01b8 1A60     		str	r2, [r3]
 524:Generated_Source\PSoC4/cyfitter_cfg.c **** 
 525:Generated_Source\PSoC4/cyfitter_cfg.c **** 	/* IOPINS0_3 Starting address: CYDEV_GPIO_PRT3_BASE */
 526:Generated_Source\PSoC4/cyfitter_cfg.c **** 	CY_SET_REG32((void *)(CYDEV_GPIO_PRT3_BASE), 0x00000080u);
 535              		.loc 1 526 0
 536 01ba 4232     		adds	r2, r2, #66
 537 01bc 174B     		ldr	r3, .L23+64
 538 01be 1A60     		str	r2, [r3]
 527:Generated_Source\PSoC4/cyfitter_cfg.c **** 	CY_SET_REG32((void *)(CYREG_GPIO_PRT3_PC), 0x00C00000u);
 539              		.loc 1 527 0
 540 01c0 C022     		movs	r2, #192
 541 01c2 1204     		lsls	r2, r2, #16
 542 01c4 164B     		ldr	r3, .L23+68
ARM GAS  C:\Users\Art\AppData\Local\Temp\ccVNqiua.s 			page 20


 543 01c6 1A60     		str	r2, [r3]
 528:Generated_Source\PSoC4/cyfitter_cfg.c **** 
 529:Generated_Source\PSoC4/cyfitter_cfg.c **** 	/* IOPINS0_4 Starting address: CYDEV_GPIO_PRT4_BASE */
 530:Generated_Source\PSoC4/cyfitter_cfg.c **** 	CY_SET_REG32((void *)(CYDEV_GPIO_PRT4_BASE), 0x00000001u);
 544              		.loc 1 530 0
 545 01c8 0123     		movs	r3, #1
 546 01ca 164A     		ldr	r2, .L23+72
 547 01cc 1360     		str	r3, [r2]
 531:Generated_Source\PSoC4/cyfitter_cfg.c **** 	CY_SET_REG32((void *)(CYREG_GPIO_PRT4_PC2), 0x00000001u);
 548              		.loc 1 531 0
 549 01ce 164A     		ldr	r2, .L23+76
 550 01d0 1360     		str	r3, [r2]
 532:Generated_Source\PSoC4/cyfitter_cfg.c **** 
 533:Generated_Source\PSoC4/cyfitter_cfg.c **** 
 534:Generated_Source\PSoC4/cyfitter_cfg.c **** 	/* Setup clocks based on selections from Clock DWR */
 535:Generated_Source\PSoC4/cyfitter_cfg.c **** 	ClockSetup();
 551              		.loc 1 535 0
 552 01d2 FFF715FF 		bl	ClockSetup
 553              	.LVL39:
 536:Generated_Source\PSoC4/cyfitter_cfg.c **** 
 537:Generated_Source\PSoC4/cyfitter_cfg.c **** 	/* Perform basic analog initialization to defaults */
 538:Generated_Source\PSoC4/cyfitter_cfg.c **** 	AnalogSetDefault();
 554              		.loc 1 538 0
 555 01d6 FFF7FEFF 		bl	AnalogSetDefault
 556              	.LVL40:
 539:Generated_Source\PSoC4/cyfitter_cfg.c **** 
 540:Generated_Source\PSoC4/cyfitter_cfg.c **** }
 557              		.loc 1 540 0
 558              		@ sp needed
 559              	.LVL41:
 560 01da 10BD     		pop	{r4, pc}
 561              	.L24:
 562              		.align	2
 563              	.L23:
 564 01dc 6CF02E40 		.word	1076818028
 565 01e0 00000000 		.word	.LANCHOR0
 566 01e4 80000000 		.word	.LANCHOR1
 567 01e8 14000B40 		.word	1074462740
 568 01ec 00000240 		.word	1073872896
 569 01f0 00030240 		.word	1073873664
 570 01f4 00500F40 		.word	1074745344
 571 01f8 20500F40 		.word	1074745376
 572 01fc 30500F40 		.word	1074745392
 573 0200 38500F40 		.word	1074745400
 574 0204 01700F40 		.word	1074753537
 575 0208 00700F40 		.word	1074753536
 576 020c 08000440 		.word	1074003976
 577 0210 00020440 		.word	1074004480
 578 0214 08020440 		.word	1074004488
 579 0218 18020440 		.word	1074004504
 580 021c 00030440 		.word	1074004736
 581 0220 08030440 		.word	1074004744
 582 0224 00040440 		.word	1074004992
 583 0228 18040440 		.word	1074005016
 584              		.cfi_endproc
 585              	.LFE9:
 586              		.size	cyfitter_cfg, .-cyfitter_cfg
ARM GAS  C:\Users\Art\AppData\Local\Temp\ccVNqiua.s 			page 21


 587              		.section	.rodata
 588              		.align	2
 589              		.set	.LANCHOR0,. + 0
 590              		.set	.LANCHOR1,. + 128
 591              		.type	cfg_memset_list.4913, %object
 592              		.size	cfg_memset_list.4913, 12
 593              	cfg_memset_list.4913:
 594 0000 00300F40 		.word	1074737152
 595 0004 0004     		.short	1024
 596 0006 00400F40 		.4byte	1074741248
 597 000a 0004     		.short	1024
 598              		.type	cy_cfg_data_table.4908, %object
 599              		.size	cy_cfg_data_table.4908, 174
 600              	cy_cfg_data_table.4908:
 601 000c 82       		.byte	-126
 602 000d 0D       		.byte	13
 603 000e 00       		.byte	0
 604 000f 08       		.byte	8
 605 0010 03       		.byte	3
 606 0011 01       		.byte	1
 607 0012 14       		.byte	20
 608 0013 01       		.byte	1
 609 0014 1A       		.byte	26
 610 0015 07       		.byte	7
 611 0016 1F       		.byte	31
 612 0017 02       		.byte	2
 613 0018 23       		.byte	35
 614 0019 02       		.byte	2
 615 001a 2E       		.byte	46
 616 001b 04       		.byte	4
 617 001c 30       		.byte	48
 618 001d 04       		.byte	4
 619 001e 31       		.byte	49
 620 001f 01       		.byte	1
 621 0020 32       		.byte	50
 622 0021 02       		.byte	2
 623 0022 34       		.byte	52
 624 0023 08       		.byte	8
 625 0024 35       		.byte	53
 626 0025 02       		.byte	2
 627 0026 36       		.byte	54
 628 0027 01       		.byte	1
 629 0028 3E       		.byte	62
 630 0029 10       		.byte	16
 631 002a 3F       		.byte	63
 632 002b 10       		.byte	16
 633 002c 40       		.byte	64
 634 002d 10       		.byte	16
 635 002e 41       		.byte	65
 636 002f 05       		.byte	5
 637 0030 45       		.byte	69
 638 0031 D1       		.byte	-47
 639 0032 46       		.byte	70
 640 0033 02       		.byte	2
 641 0034 48       		.byte	72
 642 0035 07       		.byte	7
 643 0036 49       		.byte	73
ARM GAS  C:\Users\Art\AppData\Local\Temp\ccVNqiua.s 			page 22


 644 0037 FF       		.byte	-1
 645 0038 4A       		.byte	74
 646 0039 FF       		.byte	-1
 647 003a 4B       		.byte	75
 648 003b FF       		.byte	-1
 649 003c 4D       		.byte	77
 650 003d A0       		.byte	-96
 651 003e 4F       		.byte	79
 652 003f 04       		.byte	4
 653 0040 50       		.byte	80
 654 0041 18       		.byte	24
 655 0042 52       		.byte	82
 656 0043 80       		.byte	-128
 657 0044 54       		.byte	84
 658 0045 05       		.byte	5
 659 0046 58       		.byte	88
 660 0047 04       		.byte	4
 661 0048 59       		.byte	89
 662 0049 04       		.byte	4
 663 004a 5A       		.byte	90
 664 004b 04       		.byte	4
 665 004c 5B       		.byte	91
 666 004d 04       		.byte	4
 667 004e 5F       		.byte	95
 668 004f 01       		.byte	1
 669 0050 60       		.byte	96
 670 0051 40       		.byte	64
 671 0052 62       		.byte	98
 672 0053 C0       		.byte	-64
 673 0054 64       		.byte	100
 674 0055 40       		.byte	64
 675 0056 65       		.byte	101
 676 0057 40       		.byte	64
 677 0058 66       		.byte	102
 678 0059 C0       		.byte	-64
 679 005a 68       		.byte	104
 680 005b C0       		.byte	-64
 681 005c 6A       		.byte	106
 682 005d C0       		.byte	-64
 683 005e 6C       		.byte	108
 684 005f C0       		.byte	-64
 685 0060 6E       		.byte	110
 686 0061 C0       		.byte	-64
 687 0062 B8       		.byte	-72
 688 0063 20       		.byte	32
 689 0064 BE       		.byte	-66
 690 0065 10       		.byte	16
 691 0066 D8       		.byte	-40
 692 0067 04       		.byte	4
 693 0068 DF       		.byte	-33
 694 0069 01       		.byte	1
 695 006a 05       		.byte	5
 696 006b 01       		.byte	1
 697 006c 0E       		.byte	14
 698 006d 20       		.byte	32
 699 006e 0F       		.byte	15
 700 006f 08       		.byte	8
ARM GAS  C:\Users\Art\AppData\Local\Temp\ccVNqiua.s 			page 23


 701 0070 17       		.byte	23
 702 0071 80       		.byte	-128
 703 0072 1A       		.byte	26
 704 0073 04       		.byte	4
 705 0074 1D       		.byte	29
 706 0075 11       		.byte	17
 707 0076 1E       		.byte	30
 708 0077 20       		.byte	32
 709 0078 1F       		.byte	31
 710 0079 40       		.byte	64
 711 007a 27       		.byte	39
 712 007b 88       		.byte	-120
 713 007c 2F       		.byte	47
 714 007d 80       		.byte	-128
 715 007e 37       		.byte	55
 716 007f 80       		.byte	-128
 717 0080 3C       		.byte	60
 718 0081 02       		.byte	2
 719 0082 47       		.byte	71
 720 0083 80       		.byte	-128
 721 0084 4B       		.byte	75
 722 0085 C0       		.byte	-64
 723 0086 4F       		.byte	79
 724 0087 89       		.byte	-119
 725 0088 57       		.byte	87
 726 0089 C0       		.byte	-64
 727 008a 5F       		.byte	95
 728 008b 49       		.byte	73
 729 008c 74       		.byte	116
 730 008d 01       		.byte	1
 731 008e 86       		.byte	-122
 732 008f 04       		.byte	4
 733 0090 8D       		.byte	-115
 734 0091 10       		.byte	16
 735 0092 C0       		.byte	-64
 736 0093 10       		.byte	16
 737 0094 C2       		.byte	-62
 738 0095 60       		.byte	96
 739 0096 C4       		.byte	-60
 740 0097 80       		.byte	-128
 741 0098 CA       		.byte	-54
 742 0099 80       		.byte	-128
 743 009a CC       		.byte	-52
 744 009b 10       		.byte	16
 745 009c CE       		.byte	-50
 746 009d 80       		.byte	-128
 747 009e D0       		.byte	-48
 748 009f 10       		.byte	16
 749 00a0 D2       		.byte	-46
 750 00a1 10       		.byte	16
 751 00a2 D6       		.byte	-42
 752 00a3 D0       		.byte	-48
 753 00a4 3B       		.byte	59
 754 00a5 04       		.byte	4
 755 00a6 3F       		.byte	63
 756 00a7 04       		.byte	4
 757 00a8 87       		.byte	-121
ARM GAS  C:\Users\Art\AppData\Local\Temp\ccVNqiua.s 			page 24


 758 00a9 04       		.byte	4
 759 00aa CE       		.byte	-50
 760 00ab C0       		.byte	-64
 761 00ac E2       		.byte	-30
 762 00ad 40       		.byte	64
 763 00ae 60       		.byte	96
 764 00af 20       		.byte	32
 765 00b0 8C       		.byte	-116
 766 00b1 20       		.byte	32
 767 00b2 D8       		.byte	-40
 768 00b3 02       		.byte	2
 769 00b4 E0       		.byte	-32
 770 00b5 02       		.byte	2
 771 00b6 01       		.byte	1
 772 00b7 01       		.byte	1
 773 00b8 10       		.byte	16
 774 00b9 01       		.byte	1
 775 00ba 0000     		.space	2
 776              		.type	cy_cfg_addr_table.4907, %object
 777              		.size	cy_cfg_addr_table.4907, 24
 778              	cy_cfg_addr_table.4907:
 779 00bc 01000F40 		.word	1074724865
 780 00c0 2E320F40 		.word	1074737710
 781 00c4 1D330F40 		.word	1074737949
 782 00c8 05410F40 		.word	1074741509
 783 00cc 04430F40 		.word	1074742020
 784 00d0 02600F40 		.word	1074749442
 785              		.text
 786              	.Letext0:
 787              		.file 2 "c:\\program files (x86)\\cypress\\psoc creator\\4.1\\psoc creator\\import\\gnu\\arm\\5.4.
 788              		.file 3 "Generated_Source\\PSoC4\\cytypes.h"
 789              		.file 4 "Generated_Source\\PSoC4\\CyLFClk.h"
 790              		.file 5 "Generated_Source\\PSoC4\\CyLib.h"