ARM GAS  C:\Users\puria\AppData\Local\Temp\ccUBKLke.s 			page 1


   1              		.syntax unified
   2              		.cpu cortex-m0
   3              		.fpu softvfp
   4              		.eabi_attribute 20, 1
   5              		.eabi_attribute 21, 1
   6              		.eabi_attribute 23, 3
   7              		.eabi_attribute 24, 1
   8              		.eabi_attribute 25, 1
   9              		.eabi_attribute 26, 1
  10              		.eabi_attribute 30, 1
  11              		.eabi_attribute 34, 0
  12              		.eabi_attribute 18, 4
  13              		.thumb
  14              		.syntax unified
  15              		.file	"main.c"
  16              		.text
  17              	.Ltext0:
  18              		.cfi_sections	.debug_frame
  19              		.section	.text.updateLed,"ax",%progbits
  20              		.align	2
  21              		.global	updateLed
  22              		.code	16
  23              		.thumb_func
  24              		.type	updateLed, %function
  25              	updateLed:
  26              	.LFB35:
  27              		.file 1 "main.c"
   1:main.c        **** #include <project.h>
   2:main.c        **** 
   3:main.c        **** uint16 fingerPos    = 0xFFFF;
   4:main.c        **** uint16 fingerPosOld = 0xFFFF;
   5:main.c        **** 
   6:main.c        **** int capsenseNotify;//on if notifications are on, off otherwise
   7:main.c        **** 
   8:main.c        **** /***************************************************************
   9:main.c        ****  * Function to update the LED state in the GATT database
  10:main.c        ****  **************************************************************/
  11:main.c        **** void updateLed()
  12:main.c        **** {
  28              		.loc 1 12 0
  29              		.cfi_startproc
  30              		@ args = 0, pretend = 0, frame = 16
  31              		@ frame_needed = 0, uses_anonymous_args = 0
  32 0000 00B5     		push	{lr}
  33              		.cfi_def_cfa_offset 4
  34              		.cfi_offset 14, -4
  35 0002 85B0     		sub	sp, sp, #20
  36              		.cfi_def_cfa_offset 24
  13:main.c        ****     CYBLE_GATTS_HANDLE_VALUE_NTF_T 	tempHandle;
  14:main.c        ****    
  15:main.c        ****     uint8 red_State = !red_Read();//led is active low, 0 means on, to not confuse its inverted so 1
  37              		.loc 1 15 0
  38 0004 FFF7FEFF 		bl	red_Read
  39              	.LVL0:
  40 0008 4342     		rsbs	r3, r0, #0
  41 000a 4341     		adcs	r3, r3, r0
  42 000c 6A46     		mov	r2, sp
ARM GAS  C:\Users\puria\AppData\Local\Temp\ccUBKLke.s 			page 2


  43 000e D370     		strb	r3, [r2, #3]
  44 0010 0332     		adds	r2, r2, #3
  16:main.c        ****     //CyBLE_getState() checks if the ble is conntected, if connected it is reasonable to update the
  17:main.c        ****     if(CyBle_GetState() != CYBLE_STATE_CONNECTED)
  45              		.loc 1 17 0
  46 0012 084B     		ldr	r3, .L4
  47 0014 1B78     		ldrb	r3, [r3]
  48 0016 022B     		cmp	r3, #2
  49 0018 0AD1     		bne	.L1
  18:main.c        ****         return;
  19:main.c        ****     
  20:main.c        ****     tempHandle.attrHandle = CYBLE_LEDCAPSENSE_LED_CHAR_HANDLE;
  50              		.loc 1 20 0
  51 001a 01A8     		add	r0, sp, #4
  52 001c 0C33     		adds	r3, r3, #12
  53 001e 0381     		strh	r3, [r0, #8]
  21:main.c        ****   	tempHandle.value.val = (uint8 *) &red_State;
  54              		.loc 1 21 0
  55 0020 0192     		str	r2, [sp, #4]
  22:main.c        ****     tempHandle.value.len = 1;
  56              		.loc 1 22 0
  57 0022 0123     		movs	r3, #1
  58 0024 8380     		strh	r3, [r0, #4]
  23:main.c        ****     CyBle_GattsWriteAttributeValue(&tempHandle,0,&cyBle_connHandle,CYBLE_GATT_DB_LOCALLY_INITIATED)
  59              		.loc 1 23 0
  60 0026 0023     		movs	r3, #0
  61 0028 034A     		ldr	r2, .L4+4
  62 002a 0021     		movs	r1, #0
  63 002c FFF7FEFF 		bl	CyBle_GattsWriteAttributeValue
  64              	.LVL1:
  65              	.L1:
  24:main.c        **** }
  66              		.loc 1 24 0
  67 0030 05B0     		add	sp, sp, #20
  68              		@ sp needed
  69 0032 00BD     		pop	{pc}
  70              	.L5:
  71              		.align	2
  72              	.L4:
  73 0034 00000000 		.word	cyBle_state
  74 0038 00000000 		.word	cyBle_connHandle
  75              		.cfi_endproc
  76              	.LFE35:
  77              		.size	updateLed, .-updateLed
  78              		.section	.text.updateCapsense,"ax",%progbits
  79              		.align	2
  80              		.global	updateCapsense
  81              		.code	16
  82              		.thumb_func
  83              		.type	updateCapsense, %function
  84              	updateCapsense:
  85              	.LFB36:
  25:main.c        **** 
  26:main.c        **** /***************************************************************
  27:main.c        ****  * Function to update the CapSesnse state in the GATT database
  28:main.c        ****  **************************************************************/
  29:main.c        **** void updateCapsense()//similiar to upper method but for capsense sensor
ARM GAS  C:\Users\puria\AppData\Local\Temp\ccUBKLke.s 			page 3


  30:main.c        **** {
  86              		.loc 1 30 0
  87              		.cfi_startproc
  88              		@ args = 0, pretend = 0, frame = 16
  89              		@ frame_needed = 0, uses_anonymous_args = 0
  90 0000 00B5     		push	{lr}
  91              		.cfi_def_cfa_offset 4
  92              		.cfi_offset 14, -4
  93 0002 85B0     		sub	sp, sp, #20
  94              		.cfi_def_cfa_offset 24
  31:main.c        ****     if(CyBle_GetState() != CYBLE_STATE_CONNECTED)
  95              		.loc 1 31 0
  96 0004 124B     		ldr	r3, .L10
  97 0006 1B78     		ldrb	r3, [r3]
  98 0008 022B     		cmp	r3, #2
  99 000a 1FD1     		bne	.L6
  32:main.c        ****         return;
  33:main.c        ****     
  34:main.c        **** 	CYBLE_GATTS_HANDLE_VALUE_NTF_T 	tempHandle;
  35:main.c        ****     
  36:main.c        ****     tempHandle.attrHandle = CYBLE_LEDCAPSENSE_CAPSENSE_CHAR_HANDLE;
 100              		.loc 1 36 0
 101 000c 01A8     		add	r0, sp, #4
 102 000e 0F33     		adds	r3, r3, #15
 103 0010 0381     		strh	r3, [r0, #8]
  37:main.c        ****   	tempHandle.value.val = (uint8 *)&fingerPos;//cast to uint8 integerpointer
 104              		.loc 1 37 0
 105 0012 104B     		ldr	r3, .L10+4
 106 0014 0193     		str	r3, [sp, #4]
  38:main.c        ****     tempHandle.value.len = 2; 
 107              		.loc 1 38 0
 108 0016 0223     		movs	r3, #2
 109 0018 8380     		strh	r3, [r0, #4]
  39:main.c        ****     CyBle_GattsWriteAttributeValue(&tempHandle,0,&cyBle_connHandle,CYBLE_GATT_DB_LOCALLY_INITIATED 
 110              		.loc 1 39 0
 111 001a 0023     		movs	r3, #0
 112 001c 0E4A     		ldr	r2, .L10+8
 113 001e 0021     		movs	r1, #0
 114 0020 FFF7FEFF 		bl	CyBle_GattsWriteAttributeValue
 115              	.LVL2:
  40:main.c        ****     //ble accepts clients which connect and register for notifications and therefore sends those ch
  41:main.c        ****     //capsenseNotify gets set if client characteristiy configuration descriptor gets set , option w
  42:main.c        ****     /* send notification to client if notifications are enabled and finger location has changed */
  43:main.c        ****     if (capsenseNotify && (fingerPos != fingerPosOld) )
 116              		.loc 1 43 0
 117 0024 0D4B     		ldr	r3, .L10+12
 118 0026 1B68     		ldr	r3, [r3]
 119 0028 002B     		cmp	r3, #0
 120 002a 0CD0     		beq	.L8
 121              		.loc 1 43 0 is_stmt 0 discriminator 1
 122 002c 094B     		ldr	r3, .L10+4
 123 002e 1A88     		ldrh	r2, [r3]
 124 0030 5B88     		ldrh	r3, [r3, #2]
 125 0032 9A42     		cmp	r2, r3
 126 0034 07D0     		beq	.L8
  44:main.c        ****         CyBle_GattsNotification(cyBle_connHandle,&tempHandle);//this method sends an notification v
 127              		.loc 1 44 0 is_stmt 1
ARM GAS  C:\Users\puria\AppData\Local\Temp\ccUBKLke.s 			page 4


 128 0036 084A     		ldr	r2, .L10+8
 129 0038 1378     		ldrb	r3, [r2]
 130 003a 5078     		ldrb	r0, [r2, #1]
 131 003c 0002     		lsls	r0, r0, #8
 132 003e 1843     		orrs	r0, r3
 133 0040 01A9     		add	r1, sp, #4
 134 0042 FFF7FEFF 		bl	CyBle_GattsNotification
 135              	.LVL3:
 136              	.L8:
  45:main.c        ****         fingerPosOld = fingerPos;
 137              		.loc 1 45 0
 138 0046 034B     		ldr	r3, .L10+4
 139 0048 1A88     		ldrh	r2, [r3]
 140 004a 5A80     		strh	r2, [r3, #2]
 141              	.L6:
  46:main.c        **** }
 142              		.loc 1 46 0
 143 004c 05B0     		add	sp, sp, #20
 144              		@ sp needed
 145 004e 00BD     		pop	{pc}
 146              	.L11:
 147              		.align	2
 148              	.L10:
 149 0050 00000000 		.word	cyBle_state
 150 0054 00000000 		.word	.LANCHOR0
 151 0058 00000000 		.word	cyBle_connHandle
 152 005c 00000000 		.word	capsenseNotify
 153              		.cfi_endproc
 154              	.LFE36:
 155              		.size	updateCapsense, .-updateCapsense
 156              		.section	.text.BleCallBack,"ax",%progbits
 157              		.align	2
 158              		.global	BleCallBack
 159              		.code	16
 160              		.thumb_func
 161              		.type	BleCallBack, %function
 162              	BleCallBack:
 163              	.LFB37:
  47:main.c        **** 
  48:main.c        **** /***************************************************************
  49:main.c        ****  * Function to handle the BLE stack
  50:main.c        ****  **************************************************************/
  51:main.c        **** void BleCallBack(uint32 event, void* eventParam)//ble event handler, statemachine 
  52:main.c        **** {
 164              		.loc 1 52 0
 165              		.cfi_startproc
 166              		@ args = 0, pretend = 0, frame = 0
 167              		@ frame_needed = 0, uses_anonymous_args = 0
 168              	.LVL4:
 169 0000 70B5     		push	{r4, r5, r6, lr}
 170              		.cfi_def_cfa_offset 16
 171              		.cfi_offset 4, -16
 172              		.cfi_offset 5, -12
 173              		.cfi_offset 6, -8
 174              		.cfi_offset 14, -4
 175 0002 0C00     		movs	r4, r1
  53:main.c        ****     CYBLE_GATTS_WRITE_REQ_PARAM_T *wrReqParam;
ARM GAS  C:\Users\puria\AppData\Local\Temp\ccUBKLke.s 			page 5


  54:main.c        **** 
  55:main.c        ****     switch(event)
 176              		.loc 1 55 0
 177 0004 2828     		cmp	r0, #40
 178 0006 08D0     		beq	.L14
 179 0008 02D8     		bhi	.L15
 180 000a 0128     		cmp	r0, #1
 181 000c 05D0     		beq	.L14
 182 000e 43E0     		b	.L12
 183              	.L15:
 184 0010 4128     		cmp	r0, #65
 185 0012 0BD0     		beq	.L16
 186 0014 4C28     		cmp	r0, #76
 187 0016 10D0     		beq	.L17
 188 0018 3EE0     		b	.L12
 189              	.L14:
  56:main.c        ****     {
  57:main.c        ****         /* if there is a disconnect or the stack just turned on from a reset then start the adverti
  58:main.c        ****         case CYBLE_EVT_STACK_ON:
  59:main.c        ****         case CYBLE_EVT_GAP_DEVICE_DISCONNECTED://both cases get same handling
  60:main.c        ****             capsenseNotify = 0;//turn off notifications 
 190              		.loc 1 60 0
 191 001a 0022     		movs	r2, #0
 192 001c 1F4B     		ldr	r3, .L19
 193 001e 1A60     		str	r2, [r3]
  61:main.c        ****             CyBle_GappStartAdvertisement(CYBLE_ADVERTISING_FAST);//start advertising the database a
 194              		.loc 1 61 0
 195 0020 0020     		movs	r0, #0
 196              	.LVL5:
 197 0022 FFF7FEFF 		bl	CyBle_GappStartAdvertisement
 198              	.LVL6:
  62:main.c        ****             pwm_Start();//start the pwm to drive the led 
 199              		.loc 1 62 0
 200 0026 FFF7FEFF 		bl	pwm_Start
 201              	.LVL7:
  63:main.c        ****         break;
 202              		.loc 1 63 0
 203 002a 35E0     		b	.L12
 204              	.LVL8:
 205              	.L16:
  64:main.c        ****         
  65:main.c        ****         /* when a connection is made, update the LED and Capsense states in the GATT database and s
  66:main.c        ****         case CYBLE_EVT_GATT_CONNECT_IND://what happens if the connection is established by remotesi
  67:main.c        ****             updateLed();//update database with current state of led
 206              		.loc 1 67 0
 207 002c FFF7FEFF 		bl	updateLed
 208              	.LVL9:
  68:main.c        ****             updateCapsense();  //update database with current state of capsense#
 209              		.loc 1 68 0
 210 0030 FFF7FEFF 		bl	updateCapsense
 211              	.LVL10:
  69:main.c        ****             //both functions enable the remote side to read the state of the sensors, handled by bl
  70:main.c        ****             
  71:main.c        ****             pwm_Stop();//somehow this stops the blinking bluelight, probably because the default on
 212              		.loc 1 71 0
 213 0034 FFF7FEFF 		bl	pwm_Stop
 214              	.LVL11:
ARM GAS  C:\Users\puria\AppData\Local\Temp\ccUBKLke.s 			page 6


  72:main.c        **** 		break;
 215              		.loc 1 72 0
 216 0038 2EE0     		b	.L12
 217              	.LVL12:
 218              	.L17:
  73:main.c        **** 
  74:main.c        ****         /* handle a write request */
  75:main.c        ****         case CYBLE_EVT_GATTS_WRITE_REQ://this event gets active, if remoteside wants to write data 
  76:main.c        ****             wrReqParam = (CYBLE_GATTS_WRITE_REQ_PARAM_T *) eventParam;//the stack tells which chara
  77:main.c        **** 			      
  78:main.c        ****             /* request write the LED value */
  79:main.c        ****             if(wrReqParam->handleValPair.attrHandle == CYBLE_LEDCAPSENSE_LED_CHAR_HANDLE)//check if
 219              		.loc 1 79 0
 220 003a 8B89     		ldrh	r3, [r1, #12]
 221 003c 0E2B     		cmp	r3, #14
 222 003e 15D1     		bne	.L18
  80:main.c        ****             //does the remote tries to change the state of the led
  81:main.c        ****             {
  82:main.c        ****                 /* only update the value and write the response if the requested write is allowed *
  83:main.c        ****                 if(CYBLE_GATT_ERR_NONE == CyBle_GattsWriteAttributeValue(&wrReqParam->handleValPair
 223              		.loc 1 83 0
 224 0040 081D     		adds	r0, r1, #4
 225              	.LVL13:
 226 0042 3233     		adds	r3, r3, #50
 227 0044 164A     		ldr	r2, .L19+4
 228 0046 0021     		movs	r1, #0
 229              	.LVL14:
 230 0048 FFF7FEFF 		bl	CyBle_GattsWriteAttributeValue
 231              	.LVL15:
 232 004c 0028     		cmp	r0, #0
 233 004e 0DD1     		bne	.L18
  84:main.c        ****                 {   
  85:main.c        ****                     //if no error the write operation is allowed 
  86:main.c        ****                     red_Write(!wrReqParam->handleValPair.value.val[0]);
 234              		.loc 1 86 0
 235 0050 6368     		ldr	r3, [r4, #4]
 236 0052 1B78     		ldrb	r3, [r3]
 237 0054 5842     		rsbs	r0, r3, #0
 238 0056 5841     		adcs	r0, r0, r3
 239 0058 C0B2     		uxtb	r0, r0
 240 005a FFF7FEFF 		bl	red_Write
 241              	.LVL16:
  87:main.c        ****                     //turn on or off the led considering the wished value, red led is active 0, hav
  88:main.c        ****                     
  89:main.c        ****                     //send an response 
  90:main.c        ****                     CyBle_GattsWriteRsp(cyBle_connHandle);
 242              		.loc 1 90 0
 243 005e 104A     		ldr	r2, .L19+4
 244 0060 1378     		ldrb	r3, [r2]
 245 0062 5078     		ldrb	r0, [r2, #1]
 246 0064 0002     		lsls	r0, r0, #8
 247 0066 1843     		orrs	r0, r3
 248 0068 FFF7FEFF 		bl	CyBle_GattsWriteRsp
 249              	.LVL17:
 250              	.L18:
  91:main.c        ****                 }
  92:main.c        ****             }
ARM GAS  C:\Users\puria\AppData\Local\Temp\ccUBKLke.s 			page 7


  93:main.c        ****             
  94:main.c        ****             /* request to update the CapSense notification */
  95:main.c        ****             if(wrReqParam->handleValPair.attrHandle == CYBLE_LEDCAPSENSE_CAPSENSE_CAPSENSECCCD_DESC
 251              		.loc 1 95 0
 252 006c A389     		ldrh	r3, [r4, #12]
 253 006e 122B     		cmp	r3, #18
 254 0070 12D1     		bne	.L12
  96:main.c        ****             {
  97:main.c        ****                 
  98:main.c        ****                 CyBle_GattsWriteAttributeValue(&wrReqParam->handleValPair, 0, &cyBle_connHandle, CY
 255              		.loc 1 98 0
 256 0072 0B4D     		ldr	r5, .L19+4
 257 0074 201D     		adds	r0, r4, #4
 258 0076 2E33     		adds	r3, r3, #46
 259 0078 2A00     		movs	r2, r5
 260 007a 0021     		movs	r1, #0
 261 007c FFF7FEFF 		bl	CyBle_GattsWriteAttributeValue
 262              	.LVL18:
  99:main.c        ****                 capsenseNotify = wrReqParam->handleValPair.value.val[0] & 0x01;
 263              		.loc 1 99 0
 264 0080 6368     		ldr	r3, [r4, #4]
 265 0082 1B78     		ldrb	r3, [r3]
 266 0084 0122     		movs	r2, #1
 267 0086 1340     		ands	r3, r2
 268 0088 044A     		ldr	r2, .L19
 269 008a 1360     		str	r3, [r2]
 100:main.c        ****                 
 101:main.c        ****                 //send an response 
 102:main.c        ****                 CyBle_GattsWriteRsp(cyBle_connHandle);
 270              		.loc 1 102 0
 271 008c 2B78     		ldrb	r3, [r5]
 272 008e 6878     		ldrb	r0, [r5, #1]
 273 0090 0002     		lsls	r0, r0, #8
 274 0092 1843     		orrs	r0, r3
 275 0094 FFF7FEFF 		bl	CyBle_GattsWriteRsp
 276              	.LVL19:
 277              	.L12:
 103:main.c        ****             }		
 104:main.c        **** 			break;  
 105:main.c        ****         
 106:main.c        ****         default:
 107:main.c        ****             break;
 108:main.c        ****     }
 109:main.c        **** } 
 278              		.loc 1 109 0
 279              		@ sp needed
 280              	.LVL20:
 281 0098 70BD     		pop	{r4, r5, r6, pc}
 282              	.L20:
 283 009a C046     		.align	2
 284              	.L19:
 285 009c 00000000 		.word	capsenseNotify
 286 00a0 00000000 		.word	cyBle_connHandle
 287              		.cfi_endproc
 288              	.LFE37:
 289              		.size	BleCallBack, .-BleCallBack
 290              		.section	.text.main,"ax",%progbits
ARM GAS  C:\Users\puria\AppData\Local\Temp\ccUBKLke.s 			page 8


 291              		.align	2
 292              		.global	main
 293              		.code	16
 294              		.thumb_func
 295              		.type	main, %function
 296              	main:
 297              	.LFB38:
 110:main.c        **** 
 111:main.c        **** /***************************************************************
 112:main.c        ****  * Main
 113:main.c        ****  **************************************************************/
 114:main.c        **** int main()
 115:main.c        **** {   
 298              		.loc 1 115 0
 299              		.cfi_startproc
 300              		@ Volatile: function does not return.
 301              		@ args = 0, pretend = 0, frame = 0
 302              		@ frame_needed = 0, uses_anonymous_args = 0
 303 0000 10B5     		push	{r4, lr}
 304              		.cfi_def_cfa_offset 8
 305              		.cfi_offset 4, -8
 306              		.cfi_offset 14, -4
 116:main.c        ****     //initialize: turn on global interrupts, done by CyGlobalIntEnable macro
 117:main.c        ****     CyGlobalIntEnable; 
 307              		.loc 1 117 0
 308              		.syntax divided
 309              	@ 117 "main.c" 1
 310 0002 62B6     		CPSIE   i
 311              	@ 0 "" 2
 118:main.c        ****     
 119:main.c        ****     //starting capsense components, and initilizebaseline noise removes the noise from the sensor
 120:main.c        ****     capsense_Start();
 312              		.loc 1 120 0
 313              		.thumb
 314              		.syntax unified
 315 0004 FFF7FEFF 		bl	capsense_Start
 316              	.LVL21:
 121:main.c        ****     capsense_InitializeEnabledBaselines();
 317              		.loc 1 121 0
 318 0008 FFF7FEFF 		bl	capsense_InitializeEnabledBaselines
 319              	.LVL22:
 122:main.c        ****     
 123:main.c        ****     /* Start BLE stack and register the callback function */
 124:main.c        ****     CyBle_Start(BleCallBack);
 320              		.loc 1 124 0
 321 000c 0B48     		ldr	r0, .L24
 322 000e FFF7FEFF 		bl	CyBle_Start
 323              	.LVL23:
 324              	.L23:
 125:main.c        **** 
 126:main.c        ****     for(;;)
 127:main.c        ****     {        
 128:main.c        ****         /* if Capsense scan is done, read the value and start another scan */
 129:main.c        ****         if(!capsense_IsBusy())
 325              		.loc 1 129 0
 326 0012 FFF7FEFF 		bl	capsense_IsBusy
 327              	.LVL24:
ARM GAS  C:\Users\puria\AppData\Local\Temp\ccUBKLke.s 			page 9


 328 0016 0028     		cmp	r0, #0
 329 0018 09D1     		bne	.L22
 130:main.c        ****         {
 131:main.c        ****             fingerPos=capsense_GetCentroidPos(capsense_LINEARSLIDER0__LS);//get fingerposition valu
 330              		.loc 1 131 0
 331 001a FFF7FEFF 		bl	capsense_GetCentroidPos
 332              	.LVL25:
 333 001e 084B     		ldr	r3, .L24+4
 334 0020 1880     		strh	r0, [r3]
 132:main.c        ****             capsense_UpdateEnabledBaselines();//update baselines?
 335              		.loc 1 132 0
 336 0022 FFF7FEFF 		bl	capsense_UpdateEnabledBaselines
 337              	.LVL26:
 133:main.c        ****             capsense_ScanEnabledWidgets();//start the scan
 338              		.loc 1 133 0
 339 0026 FFF7FEFF 		bl	capsense_ScanEnabledWidgets
 340              	.LVL27:
 134:main.c        ****             updateCapsense();//call function which is described above,get value , write to database
 341              		.loc 1 134 0
 342 002a FFF7FEFF 		bl	updateCapsense
 343              	.LVL28:
 344              	.L22:
 135:main.c        ****         }
 136:main.c        ****    
 137:main.c        ****         CyBle_ProcessEvents();//blackbox somehow processhandling via method
 345              		.loc 1 137 0
 346 002e FFF7FEFF 		bl	CyBle_ProcessEvents
 347              	.LVL29:
 138:main.c        ****         CyBle_EnterLPM(CYBLE_BLESS_DEEPSLEEP); // change to deepsleep to save power if its possible
 348              		.loc 1 138 0
 349 0032 0320     		movs	r0, #3
 350 0034 FFF7FEFF 		bl	CyBle_EnterLPM
 351              	.LVL30:
 139:main.c        ****     }
 352              		.loc 1 139 0
 353 0038 EBE7     		b	.L23
 354              	.L25:
 355 003a C046     		.align	2
 356              	.L24:
 357 003c 00000000 		.word	BleCallBack
 358 0040 00000000 		.word	.LANCHOR0
 359              		.cfi_endproc
 360              	.LFE38:
 361              		.size	main, .-main
 362              		.comm	capsenseNotify,4,4
 363              		.global	fingerPosOld
 364              		.global	fingerPos
 365              		.data
 366              		.align	1
 367              		.set	.LANCHOR0,. + 0
 368              		.type	fingerPos, %object
 369              		.size	fingerPos, 2
 370              	fingerPos:
 371 0000 FFFF     		.short	-1
 372              		.type	fingerPosOld, %object
 373              		.size	fingerPosOld, 2
 374              	fingerPosOld:
ARM GAS  C:\Users\puria\AppData\Local\Temp\ccUBKLke.s 			page 10


 375 0002 FFFF     		.short	-1
 376              		.text
 377              	.Letext0:
 378              		.file 2 "Generated_Source\\PSoC4/cytypes.h"
 379              		.file 3 "Generated_Source\\PSoC4/ble_Stack.h"
 380              		.file 4 "Generated_Source\\PSoC4/ble_StackGatt.h"
 381              		.file 5 "Generated_Source\\PSoC4/ble_StackGattServer.h"
 382              		.file 6 "Generated_Source\\PSoC4/ble_eventHandler.h"
 383              		.file 7 "Generated_Source\\PSoC4/red.h"
 384              		.file 8 "Generated_Source\\PSoC4/ble_StackGattDb.h"
 385              		.file 9 "Generated_Source\\PSoC4/ble.h"
 386              		.file 10 "Generated_Source\\PSoC4/pwm.h"
 387              		.file 11 "Generated_Source\\PSoC4/capsense.h"
 388              		.file 12 "Generated_Source\\PSoC4/capsense_CSHL.h"